                                                                      Page 1
                                                              C:\Users\Frank\AppData\Local\Temp\gh_0000n181.si
Command Line: C:\GHS\V800.V2014.1.7\comp_201417\ease850.exe -w -elf -b0 -I../../../../../app/common/dhd -I../../../../../app/gfx_apps/simple_draw/src -I../../../../../app/gfx_apps/simple_draw/lib -I../../../../../bsp/board//config -I../../../../../bsp/board//src/gfx -I../../../../../bsp/board//src/hmi -I../../../../../bsp/board//src/stdio -I../../../../../bsp/board/d1mx_mango/config -I../../../../../bsp/board/d1mx_mango/src -I../../../../../bsp/board/d1mx_mango/src/gfx -I../../../../../bsp/board/d1mx_mango/src/hmi -I../../../../../bsp/board/d1mx_mango/src/stdio -I../../../../../bsp/gfx/lib -I../../../../../bsp/gfx/src -I../../../../../bsp/hmi/lib -I../../../../../bsp/hmi/src -I../../../../../bsp/lib -I../../../../../bsp/stdio/lib -I../../../../../bsp/stdio/src -I../../../../../cdi/lib -I../../../../../cdi/src -I../../../../../compiler/rh850_ghs/inc -I../../../../../device/d1mx/lib -I../../../../../device/d1mx/macro_cfg -I../../../../../device/d1mx/macro_cfg/csisw -I../../../../../device/d1mx/macro_cfg/davehd -I../../../../../device/d1mx/macro_cfg/ddb -I../../../../../device/d1mx/macro_cfg/drw2d -I../../../../../device/d1mx/macro_cfg/gfxbus -I../../../../../device/d1mx/macro_cfg/gpio -I../../../../../device/d1mx/macro_cfg/hypb -I../../../../../device/d1mx/macro_cfg/hypdb -I../../../../../device/d1mx/macro_cfg/jcua -I../../../../../device/d1mx/macro_cfg/nfmabare -I../../../../../device/d1mx/macro_cfg/octa -I../../../../../device/d1mx/macro_cfg/octacdb -I../../../../../device/d1mx/macro_cfg/ostm -I../../../../../device/d1mx/macro_cfg/pbg -I../../../../../device/d1mx/macro_cfg/riic -I../../../../../device/d1mx/macro_cfg/sfcdb -I../../../../../device/d1mx/macro_cfg/sfma -I../../../../../device/d1mx/macro_cfg/spea -I../../../../../device/d1mx/macro_cfg/tauj -I../../../../../device/d1mx/macro_cfg/tick -I../../../../../device/d1mx/macro_cfg/vdce -I../../../../../device/d1mx/macro_cfg/vowe -I../../../../../device/d1mx/macro_cfg/wm -I../../../../../device/d1mx/macro_cfg/xbus -I../../../../../device/d1mx/src/dev -I../../../../../device/d1mx/src/dhd -I../../../../../device/d1mx/src/hypb -I../../../../../device/d1mx/src/jcua -I../../../../../device/d1mx/src/nfmabare -I../../../../../device/d1mx/src/octa -I../../../../../device/d1mx/src/rh850_ghs -I../../../../../device/d1mx/src/vowe -I../../../../../device/d1x_common/macro_cfg -I../../../../../device/d1x_common/macro_cfg/csisw -I../../../../../device/d1x_common/macro_cfg/davehd -I../../../../../device/d1x_common/macro_cfg/ddb -I../../../../../device/d1x_common/macro_cfg/drw2d -I../../../../../device/d1x_common/macro_cfg/gfxbus -I../../../../../device/d1x_common/macro_cfg/gpio -I../../../../../device/d1x_common/macro_cfg/hypb -I../../../../../device/d1x_common/macro_cfg/hypdb -I../../../../../device/d1x_common/macro_cfg/jcua -I../../../../../device/d1x_common/macro_cfg/nfmabare -I../../../../../device/d1x_common/macro_cfg/octa -I../../../../../device/d1x_common/macro_cfg/octacdb -I../../../../../device/d1x_common/macro_cfg/ostm -I../../../../../device/d1x_common/macro_cfg/pbg -I../../../../../device/d1x_common/macro_cfg/riic -I../../../../../device/d1x_common/macro_cfg/sfcdb -I../../../../../device/d1x_common/macro_cfg/sfma -I../../../../../device/d1x_common/macro_cfg/spea -I../../../../../device/d1x_common/macro_cfg/tauj -I../../../../../device/d1x_common/macro_cfg/tick -I../../../../../device/d1x_common/macro_cfg/vdce -I../../../../../device/d1x_common/macro_cfg/vowe -I../../../../../device/d1x_common/macro_cfg/wm -I../../../../../device/d1x_common/macro_cfg/xbus -I../../../../../device/d1x_common/src/csisw -I../../../../../device/d1x_common/src/ddb -I../../../../../device/d1x_common/src/dev -I../../../../../device/d1x_common/src/gfxbus -I../../../../../device/d1x_common/src/gpio -I../../../../../device/d1x_common/src/ostm -I../../../../../device/d1x_common/src/pbg -I../../../../../device/d1x_common/src/riic -I../../../../../device/d1x_common/src/sfma -I../../../../../device/d1x_common/src/spea -I../../../../../device/d1x_common/src/tauj -I../../../../../device/d1x_common/src/tick -I../../../../../device/d1x_common/src/vdce -I../../../../../device/d1x_common/src/wm -I../../../../../device/d1x_common/src/xbus -I../../../../../device/lib -I../../../../../macro/bus/pbg/lib -I../../../../../macro/bus/pbg/src -I../../../../../macro/csi/csisw/lib -I../../../../../macro/csi/csisw/src -I../../../../../macro/drw2d/lib -I../../../../../macro/drw2d/platform/davehd -I../../../../../macro/drw2d/platform/os/no_os -I../../../../../macro/drw2d/src -I../../../../../macro/flashc/hypb/lib -I../../../../../macro/flashc/hypb/src -I../../../../../macro/flashc/hypdb/lib -I../../../../../macro/flashc/hypdb/src -I../../../../../macro/flashc/nfmabare/lib -I../../../../../macro/flashc/nfmabare/src -I../../../../../macro/flashc/octa/lib -I../../../../../macro/flashc/octa/src -I../../../../../macro/flashc/octacdb/lib -I../../../../../macro/flashc/octacdb/src -I../../../../../macro/flashc/sfcdb/lib -I../../../../../macro/flashc/sfcdb/src -I../../../../../macro/flashc/sfma/lib -I../../../../../macro/flashc/sfma/src -I../../../../../macro/gfxbus/lib -I../../../../../macro/gfxbus/src -I../../../../../macro/gfxbus/xbus/lib -I../../../../../macro/gfxbus/xbus/src -I../../../../../macro/gpio/lib -I../../../../../macro/gpio/src -I../../../../../macro/gpu/davehd/common/inc -I../../../../../macro/gpu/davehd/common/inc/platform -I../../../../../macro/gpu/davehd/common/inc/platform/d1mx -I../../../../../macro/gpu/davehd/docs -I../../../../../macro/gpu/davehd/kernel/inc -I../../../../../macro/gpu/davehd/kernel/platform/d1mx -I../../../../../macro/gpu/davehd/kernel/platform/d1mx/bridge -I../../../../../macro/gpu/davehd/kernel/platform/d1mx/non_threaded -I../../../../../macro/gpu/davehd/kernel/platform/ree -I../../../../../macro/gpu/davehd/kernel/src -I../../../../../macro/gpu/davehd/user/inc -I../../../../../macro/gpu/davehd/user/platform/d1mx/no_os -I../../../../../macro/gpu/davehd/user/src -I../../../../../macro/gpu/jcua/lib -I../../../../../macro/gpu/jcua/src -I../../../../../macro/i2c/riic/lib -I../../../../../macro/i2c/riic/src -I../../../../../macro/tick/lib -I../../../../../macro/tick/src -I../../../../../macro/timer/ostm/lib -I../../../../../macro/timer/ostm/src -I../../../../../macro/timer/tauj/lib -I../../../../../macro/timer/tauj/src -I../../../../../macro/vdce/lib -I../../../../../macro/vdce/src -I../../../../../macro/vo/ddb/lib -I../../../../../macro/vo/ddb/src -I../../../../../macro/vo/spea/lib -I../../../../../macro/vo/spea/src -I../../../../../macro/vo/vowe/lib -I../../../../../macro/vo/vowe/src -I../../../../../macro/wm/lib -I../../../../../macro/wm/src -I../../../../../macro/pwm/lib -I../../../../../macro/reset/lib -I../../../../../macro/rscan/lib -I../../../../../macro/uart/rlin3/lib -I../../../../../macro/uart/rlin3/src -I../../../../../device/d1x_common/macro_cfg/rlin3 -I../../../../../macro/stbc/lib -I../../../../../macro/adc/lib -I../../../../../device/d1x_common/macro_cfg/adc7010 -IC:\GHS\V800.V2014.1.7\comp_201417\lib\rh850_22 -cg_underscore -cpu=rh850g3m -no_v850_simd -rh850_fpsimd=none -nomacro -patch_dbo=C:\git\rh850\src\app\gfx_apps\simple_draw\target\d1mx_mango_ghs\obj\nios.dbo -source=nios.c -o .\obj\gh_0000n181.o -list=.\obj\nios.lst C:\Users\Frank\AppData\Local\Temp\gh_0000n181.si 
Original File: C:\Users\Frank\AppData\Local\Temp\gh_0000n181.si
Source File: nios.c
Directory: C:\git\rh850\src\app\gfx_apps\simple_draw\target\d1mx_mango_ghs
Host OS: Windows
EASE: Copyright (C) 1983-2014 Green Hills Software.  All Rights Reversed.
Release: Compiler v2014.1.7
Build Directory: [Directory] BTOWINBOX:c:/build_2014_1_bto/2014-09-04.2200-2014_1_bto/win32-comp-ecom
Revision: [VCInfo] http://toolsvc/branches/release-branch-2014-1-bto/src@515859 (built by build)
Revision Date: Fri Sep 05 14:05:06 2014

Release Date: Fri Sep 05 14:43:29 2014

                           1 --Driver Command: ccv850 -c -MD -I../../../../../app/common/dhd
                           2 --		-I../../../../../app/gfx_apps/simple_draw/src
                           3 --		-I../../../../../app/gfx_apps/simple_draw/lib
                           4 --		-I../../../../../bsp/board//config
                           5 --		-I../../../../../bsp/board//src/gfx
                           6 --		-I../../../../../bsp/board//src/hmi
                           7 --		-I../../../../../bsp/board//src/stdio
                           8 --		-I../../../../../bsp/board/d1mx_mango/config
                           9 --		-I../../../../../bsp/board/d1mx_mango/src
                          10 --		-I../../../../../bsp/board/d1mx_mango/src/gfx
                          11 --		-I../../../../../bsp/board/d1mx_mango/src/hmi
                          12 --		-I../../../../../bsp/board/d1mx_mango/src/stdio
                          13 --		-I../../../../../bsp/gfx/lib -I../../../../../bsp/gfx/src
                          14 --		-I../../../../../bsp/hmi/lib -I../../../../../bsp/hmi/src
                          15 --		-I../../../../../bsp/lib -I../../../../../bsp/stdio/lib
                          16 --		-I../../../../../bsp/stdio/src -I../../../../../cdi/lib
                          17 --		-I../../../../../cdi/src -I../../../../../compiler/rh850_ghs/inc
                          18 --		-I../../../../../device/d1mx/lib
                          19 --		-I../../../../../device/d1mx/macro_cfg
                          20 --		-I../../../../../device/d1mx/macro_cfg/csisw
                          21 --		-I../../../../../device/d1mx/macro_cfg/davehd
                          22 --		-I../../../../../device/d1mx/macro_cfg/ddb
                          23 --		-I../../../../../device/d1mx/macro_cfg/drw2d
                          24 --		-I../../../../../device/d1mx/macro_cfg/gfxbus
                          25 --		-I../../../../../device/d1mx/macro_cfg/gpio
                          26 --		-I../../../../../device/d1mx/macro_cfg/hypb
                          27 --		-I../../../../../device/d1mx/macro_cfg/hypdb
                          28 --		-I../../../../../device/d1mx/macro_cfg/jcua
                          29 --		-I../../../../../device/d1mx/macro_cfg/nfmabare
                          30 --		-I../../../../../device/d1mx/macro_cfg/octa
                          31 --		-I../../../../../device/d1mx/macro_cfg/octacdb
                          32 --		-I../../../../../device/d1mx/macro_cfg/ostm
                          33 --		-I../../../../../device/d1mx/macro_cfg/pbg
                          34 --		-I../../../../../device/d1mx/macro_cfg/riic
                          35 --		-I../../../../../device/d1mx/macro_cfg/sfcdb
                          36 --		-I../../../../../device/d1mx/macro_cfg/sfma
                          37 --		-I../../../../../device/d1mx/macro_cfg/spea
                          38 --		-I../../../../../device/d1mx/macro_cfg/tauj
                          39 --		-I../../../../../device/d1mx/macro_cfg/tick
                          40 --		-I../../../../../device/d1mx/macro_cfg/vdce
                          41 --		-I../../../../../device/d1mx/macro_cfg/vowe
                          42 --		-I../../../../../device/d1mx/macro_cfg/wm
                          43 --		-I../../../../../device/d1mx/macro_cfg/xbus
                          44 --		-I../../../../../device/d1mx/src/dev
                          45 --		-I../../../../../device/d1mx/src/dhd
                          46 --		-I../../../../../device/d1mx/src/hypb
                          47 --		-I../../../../../device/d1mx/src/jcua
                          48 --		-I../../../../../device/d1mx/src/nfmabare
                          49 --		-I../../../../../device/d1mx/src/octa
                          50 --		-I../../../../../device/d1mx/src/rh850_ghs

                                                                      Page 2
                                                              C:\Users\Frank\AppData\Local\Temp\gh_0000n181.si
                          51 --		-I../../../../../device/d1mx/src/vowe
                          52 --		-I../../../../../device/d1x_common/macro_cfg
                          53 --		-I../../../../../device/d1x_common/macro_cfg/csisw
                          54 --		-I../../../../../device/d1x_common/macro_cfg/davehd
                          55 --		-I../../../../../device/d1x_common/macro_cfg/ddb
                          56 --		-I../../../../../device/d1x_common/macro_cfg/drw2d
                          57 --		-I../../../../../device/d1x_common/macro_cfg/gfxbus
                          58 --		-I../../../../../device/d1x_common/macro_cfg/gpio
                          59 --		-I../../../../../device/d1x_common/macro_cfg/hypb
                          60 --		-I../../../../../device/d1x_common/macro_cfg/hypdb
                          61 --		-I../../../../../device/d1x_common/macro_cfg/jcua
                          62 --		-I../../../../../device/d1x_common/macro_cfg/nfmabare
                          63 --		-I../../../../../device/d1x_common/macro_cfg/octa
                          64 --		-I../../../../../device/d1x_common/macro_cfg/octacdb
                          65 --		-I../../../../../device/d1x_common/macro_cfg/ostm
                          66 --		-I../../../../../device/d1x_common/macro_cfg/pbg
                          67 --		-I../../../../../device/d1x_common/macro_cfg/riic
                          68 --		-I../../../../../device/d1x_common/macro_cfg/sfcdb
                          69 --		-I../../../../../device/d1x_common/macro_cfg/sfma
                          70 --		-I../../../../../device/d1x_common/macro_cfg/spea
                          71 --		-I../../../../../device/d1x_common/macro_cfg/tauj
                          72 --		-I../../../../../device/d1x_common/macro_cfg/tick
                          73 --		-I../../../../../device/d1x_common/macro_cfg/vdce
                          74 --		-I../../../../../device/d1x_common/macro_cfg/vowe
                          75 --		-I../../../../../device/d1x_common/macro_cfg/wm
                          76 --		-I../../../../../device/d1x_common/macro_cfg/xbus
                          77 --		-I../../../../../device/d1x_common/src/csisw
                          78 --		-I../../../../../device/d1x_common/src/ddb
                          79 --		-I../../../../../device/d1x_common/src/dev
                          80 --		-I../../../../../device/d1x_common/src/gfxbus
                          81 --		-I../../../../../device/d1x_common/src/gpio
                          82 --		-I../../../../../device/d1x_common/src/ostm
                          83 --		-I../../../../../device/d1x_common/src/pbg
                          84 --		-I../../../../../device/d1x_common/src/riic
                          85 --		-I../../../../../device/d1x_common/src/sfma
                          86 --		-I../../../../../device/d1x_common/src/spea
                          87 --		-I../../../../../device/d1x_common/src/tauj
                          88 --		-I../../../../../device/d1x_common/src/tick
                          89 --		-I../../../../../device/d1x_common/src/vdce
                          90 --		-I../../../../../device/d1x_common/src/wm
                          91 --		-I../../../../../device/d1x_common/src/xbus
                          92 --		-I../../../../../device/lib -I../../../../../macro/bus/pbg/lib
                          93 --		-I../../../../../macro/bus/pbg/src
                          94 --		-I../../../../../macro/csi/csisw/lib
                          95 --		-I../../../../../macro/csi/csisw/src
                          96 --		-I../../../../../macro/drw2d/lib
                          97 --		-I../../../../../macro/drw2d/platform/davehd
                          98 --		-I../../../../../macro/drw2d/platform/os/no_os
                          99 --		-I../../../../../macro/drw2d/src
                         100 --		-I../../../../../macro/flashc/hypb/lib
                         101 --		-I../../../../../macro/flashc/hypb/src
                         102 --		-I../../../../../macro/flashc/hypdb/lib
                         103 --		-I../../../../../macro/flashc/hypdb/src
                         104 --		-I../../../../../macro/flashc/nfmabare/lib
                         105 --		-I../../../../../macro/flashc/nfmabare/src
                         106 --		-I../../../../../macro/flashc/octa/lib
                         107 --		-I../../../../../macro/flashc/octa/src
                         108 --		-I../../../../../macro/flashc/octacdb/lib
                         109 --		-I../../../../../macro/flashc/octacdb/src
                         110 --		-I../../../../../macro/flashc/sfcdb/lib
                         111 --		-I../../../../../macro/flashc/sfcdb/src

                                                                      Page 3
                                                              C:\Users\Frank\AppData\Local\Temp\gh_0000n181.si
                         112 --		-I../../../../../macro/flashc/sfma/lib
                         113 --		-I../../../../../macro/flashc/sfma/src
                         114 --		-I../../../../../macro/gfxbus/lib
                         115 --		-I../../../../../macro/gfxbus/src
                         116 --		-I../../../../../macro/gfxbus/xbus/lib
                         117 --		-I../../../../../macro/gfxbus/xbus/src
                         118 --		-I../../../../../macro/gpio/lib -I../../../../../macro/gpio/src
                         119 --		-I../../../../../macro/gpu/davehd/common/inc
                         120 --		-I../../../../../macro/gpu/davehd/common/inc/platform
                         121 --		-I../../../../../macro/gpu/davehd/common/inc/platform/d1mx
                         122 --		-I../../../../../macro/gpu/davehd/docs
                         123 --		-I../../../../../macro/gpu/davehd/kernel/inc
                         124 --		-I../../../../../macro/gpu/davehd/kernel/platform/d1mx
                         125 --		-I../../../../../macro/gpu/davehd/kernel/platform/d1mx/bridge
                         126 --		-I../../../../../macro/gpu/davehd/kernel/platform/d1mx/non_threaded
                         127 --		-I../../../../../macro/gpu/davehd/kernel/platform/ree
                         128 --		-I../../../../../macro/gpu/davehd/kernel/src
                         129 --		-I../../../../../macro/gpu/davehd/user/inc
                         130 --		-I../../../../../macro/gpu/davehd/user/platform/d1mx/no_os
                         131 --		-I../../../../../macro/gpu/davehd/user/src
                         132 --		-I../../../../../macro/gpu/jcua/lib
                         133 --		-I../../../../../macro/gpu/jcua/src
                         134 --		-I../../../../../macro/i2c/riic/lib
                         135 --		-I../../../../../macro/i2c/riic/src
                         136 --		-I../../../../../macro/tick/lib -I../../../../../macro/tick/src
                         137 --		-I../../../../../macro/timer/ostm/lib
                         138 --		-I../../../../../macro/timer/ostm/src
                         139 --		-I../../../../../macro/timer/tauj/lib
                         140 --		-I../../../../../macro/timer/tauj/src
                         141 --		-I../../../../../macro/vdce/lib -I../../../../../macro/vdce/src
                         142 --		-I../../../../../macro/vo/ddb/lib
                         143 --		-I../../../../../macro/vo/ddb/src
                         144 --		-I../../../../../macro/vo/spea/lib
                         145 --		-I../../../../../macro/vo/spea/src
                         146 --		-I../../../../../macro/vo/vowe/lib
                         147 --		-I../../../../../macro/vo/vowe/src -I../../../../../macro/wm/lib
                         148 --		-I../../../../../macro/wm/src -I../../../../../macro/pwm/lib
                         149 --		-I../../../../../macro/i2c/riic/lib
                         150 --		-I../../../../../macro/reset/lib -I../../../../../macro/rscan/lib
                         151 --		-I../../../../../macro/uart/rlin3/lib
                         152 --		-I../../../../../macro/uart/rlin3/src
                         153 --		-I../../../../../device/d1x_common/macro_cfg/rlin3
                         154 --		-I../../../../../macro/stbc/lib
                         155 --		-I../../../../../app/gfx_apps/simple_draw/lib
                         156 --		-I../../../../../macro/adc/lib
                         157 --		-I../../../../../device/d1x_common/macro_cfg/adc7010 -G
                         158 --		--no_commons --no_implicit_include --prototype_errors
                         159 --		-DRENESAS_D1X -DR_DRW2D_OS_NO_OS -DR_DRW2D_SYS_DHD
                         160 --		-DUSED_CPU=RH850G3M -DUSE_BSP_GFX -DUSE_BSP_HMI -DUSE_BSP_STDIO
                         161 --		-DUSE_CDI -DUSE_CSISW -DUSE_DAVEHD -DUSE_DDB -DUSE_DRW2D
                         162 --		-DUSE_GFXBUS -DUSE_GPIO -DUSE_HYPB -DUSE_HYPDB -DUSE_JCUA
                         163 --		-DUSE_NFMABARE -DUSE_OCTA -DUSE_OCTACDB -DUSE_OSTM -DUSE_PBG
                         164 --		-DUSE_RIIC -DUSE_SFCDB -DUSE_SFMA -DUSE_SPEA -DUSE_TAUJ
                         165 --		-DUSE_TICK -DUSE_VDCE -DUSE_WM -DUSE_XBUS -DMAG -MD -Zuse1bit
                         166 --		-allocate_ep -cpu=rh850g3m -large_sda -list -no_callt -notda
                         167 --		-passsource -preprocess_assembly_files -registermode=22
                         168 --		-reserve_r2 --diag_warning 1 -object_dir=./obj -DUSE_VDCE_OPENLDI
                         169 --		-gnu99 -filetype.c ..\..\..\..\gfx_apps\simple_draw\src\nios.c -o
                         170 --		.\obj\nios.o
                         171 --Source File:   ..\..\..\..\gfx_apps\simple_draw\src\nios.c
                         172 --Directory:     

                                                                      Page 4
                                                              C:\Users\Frank\AppData\Local\Temp\gh_0000n181.si
                         173 --		C:\git\rh850\src\app\gfx_apps\simple_draw\target\d1mx_mango_ghs
                         174 --Compile Date:  Tue Oct 16 19:48:57 2018
                         175 --Host OS:       Win32
                         176 --Version:       C-RH850 2014.1.7 RELEASE VERSION
                         177 --Release:       Compiler v2014.1.7
                         178 --Revision Date: Fri Sep 05 14:10:46 2014
                         179 --Release Date:  Fri Sep 05 14:44:23 2014
                         180 -- ecom  -g -w
                         181 
                         182 --1: #include "nios.h"
                         183 --3: uint8_t gu8undo_num = 0;
                         184 --4: queue_task_def gtqueue_manager;
                         185 --5: task_recorder_def gttask_recorder[_TASK_NUM];
                         186 --7: //-------------------------------------------------------------------------------------------------------------------------
                         187 --8: //                                           Task Assigner
                         188 --9: //-------------------------------------------------------------------------------------------------------------------------
                         189 --10: void W_Task_AssignedPriority(task_recorder_def* precorder,uint8_t u8undo_num)
                         190 	.text
                         191 ..bof.C.3A.5Cgit.5Crh850.5Csrc.5Capp.5Cgfx_apps.5Csimple_draw.5Ctarget.5Cd1mx_mango_ghs.5Cobj.5Cnios...43.3A.5Cgit.5Crh850.5Csrc.5Capp.5Cgfx_apps.5Csimple_draw.5Ctarget.5Cd1mx_mango_ghs..5BC5D029..0::
                         192 	.align	2
                         193 	.global	_W_Task_AssignedPriority
                         194 _W_Task_AssignedPriority:
00000000 9407c100        195 	prepare	{r28,r29},10
00000004 0668            196 	mov	r6,r13
00000006 c75eff00        197 	andi	255,r7,r11
                         198 --	    .bf
                         199 .LDW01:
                         200 --11: {
                         201 --12:     uint8_t u8row = 0;
0000000a 0072            202 	mov	0,r14
                         203 --13:     uint8_t u8counter = 0;
0000000c 000a            204 	mov	0,r1
                         205 --14:     task_recorder_def trecorder_temp;
                         206 --15:     
                         207 --16:     if(u8undo_num != 0)
0000000e e059            208 	cmp	zero,r11
00000010 8275*           209 	be	.L4
                         210 --17:     {
                         211 --18:         for(u8row = 0; u8row < u8undo_num; u8row++)
                         212 --line18
                         213 ..lin.C.3A.5Cgit.5Crh850.5Csrc.5Capp.5Cgfx_apps.5Csimple_draw.5Ctarget.5Cd1mx_mango_ghs.5Cobj.5Cnios.1::
                         214 .LDWlin1:
00000012 0072            215 	mov	0,r14
00000014 c56d*           216 	br	.L9
                         217 .L8:
                         218 --19:         {
                         219 --20:             for(u8counter = (u8row + 1); u8counter < gu8undo_num; u8counter++)
                         220 --line20
                         221 ..lin.C.3A.5Cgit.5Crh850.5Csrc.5Capp.5Cgfx_apps.5Csimple_draw.5Ctarget.5Cd1mx_mango_ghs.5Cobj.5Cnios.2::
                         222 .LDWlin2:
00000016 0e0e0100        223 	addi	1,r14,r1
0000001a 8100            224 	zxb	r1
0000001c f55d*           225 	br	.L13
                         226 .L12:
                         227 --21:             {
                         228 --22:                 if((precorder[u8row].ttask[precorder[u8row].u8current_point].u8level + precorder[u8row].u8discard_time) < 
                         229 --line22
                         230 ..lin.C.3A.5Cgit.5Crh850.5Csrc.5Capp.5Cgfx_apps.5Csimple_draw.5Ctarget.5Cd1mx_mango_ghs.5Cobj.5Cnios.3::
                         231 .LDWlin3:
0000001e 0e60            232 	mov	r14,r12
00000020 e8674402        233 	mul	40,r12,zero

                                                                      Page 5
                                                              C:\Users\Frank\AppData\Local\Temp\gh_0000n181.si
00000024 0c50            234 	mov	r12,r10
00000026 cd51            235 	add	r13,r10
00000028 8a571900        236 	ld.bu	24[r10],r10
0000002c cd61            237 	add	r13,r12
0000002e c352            238 	shl	3,r10
00000030 0af0            239 	mov	r10,ep
00000032 ccf1            240 	add	r12,ep
00000034 6350            241 	sld.bu	3[ep],r10
00000036 0e60            242 	mov	r14,r12
00000038 e8674402        243 	mul	40,r12,zero
0000003c cd61            244 	add	r13,r12
0000003e 8c672700        245 	ld.bu	38[r12],r12
00000042 ca61            246 	add	r10,r12
00000044 0150            247 	mov	r1,r10
00000046 e8574402        248 	mul	40,r10,zero
0000004a 0a48            249 	mov	r10,r9
0000004c cd49            250 	add	r13,r9
0000004e 894f1900        251 	ld.bu	24[r9],r9
00000052 cd51            252 	add	r13,r10
00000054 c34a            253 	shl	3,r9
00000056 09f0            254 	mov	r9,ep
00000058 caf1            255 	add	r10,ep
0000005a 6348            256 	sld.bu	3[ep],r9
0000005c 0150            257 	mov	r1,r10
0000005e e8574402        258 	mul	40,r10,zero
00000062 cd51            259 	add	r13,r10
00000064 8a572700        260 	ld.bu	38[r10],r10
00000068 c951            261 	add	r9,r10
0000006a ea61            262 	cmp	r10,r12
0000006c de35*           263 	bge	.L11
                         264 --23:                    (precorder[u8counter].ttask[precorder[u8counter].u8current_point].u8level + precorder[u8counter].u8discard_time))
                         265 --24:                 {
                         266 --25:                     trecorder_temp = precorder[u8row]; 
                         267 --line25
                         268 ..lin.C.3A.5Cgit.5Crh850.5Csrc.5Capp.5Cgfx_apps.5Csimple_draw.5Ctarget.5Cd1mx_mango_ghs.5Cobj.5Cnios.4::
                         269 .LDWlin4:
0000006e ee662800        270 	mulhi	40,r14,r12
00000072 23560000        271 	movea	0,sp,r10
00000076 cd61            272 	add	r13,r12
00000078 0c4e2800        273 	addi	40,r12,r9
                         274 .L131:
0000007c ac0709e00000    275 	ld.dw	0[r12],r28
00000082 4862            276 	add	8,r12
00000084 aa070fe00000    277 	st.dw	r28,0[r10]
0000008a 4852            278 	add	8,r10
0000008c ec49            279 	cmp	r12,r9
0000008e faf5*           280 	bne	.L131
                         281 --26:                     precorder[u8row] = precorder[u8counter]; 
                         282 --line26
                         283 ..lin.C.3A.5Cgit.5Crh850.5Csrc.5Capp.5Cgfx_apps.5Csimple_draw.5Ctarget.5Cd1mx_mango_ghs.5Cobj.5Cnios.5::
                         284 .LDWlin5:
00000090 e1662800        285 	mulhi	40,r1,r12
00000094 ee562800        286 	mulhi	40,r14,r10
00000098 cd61            287 	add	r13,r12
0000009a 0c4e2800        288 	addi	40,r12,r9
0000009e cd51            289 	add	r13,r10
                         290 .L133:
000000a0 ac0709e00000    291 	ld.dw	0[r12],r28
000000a6 4862            292 	add	8,r12
000000a8 aa070fe00000    293 	st.dw	r28,0[r10]
000000ae 4852            294 	add	8,r10

                                                                      Page 6
                                                              C:\Users\Frank\AppData\Local\Temp\gh_0000n181.si
000000b0 ec49            295 	cmp	r12,r9
000000b2 faf5*           296 	bne	.L133
                         297 --27:                     precorder[u8counter] = trecorder_temp; 
                         298 --line27
                         299 ..lin.C.3A.5Cgit.5Crh850.5Csrc.5Capp.5Cgfx_apps.5Csimple_draw.5Ctarget.5Cd1mx_mango_ghs.5Cobj.5Cnios.6::
                         300 .LDWlin6:
000000b4 e1562800        301 	mulhi	40,r1,r10
000000b8 23660000        302 	movea	0,sp,r12
000000bc 034e2800        303 	addi	40,sp,r9
000000c0 cd51            304 	add	r13,r10
                         305 .L135:
000000c2 ac0709e00000    306 	ld.dw	0[r12],r28
000000c8 4862            307 	add	8,r12
000000ca aa070fe00000    308 	st.dw	r28,0[r10]
000000d0 4852            309 	add	8,r10
000000d2 ec49            310 	cmp	r12,r9
000000d4 faf5*           311 	bne	.L135
                         312 .L11:
                         313 --line20
                         314 ..lin.C.3A.5Cgit.5Crh850.5Csrc.5Capp.5Cgfx_apps.5Csimple_draw.5Ctarget.5Cd1mx_mango_ghs.5Cobj.5Cnios.7::
                         315 .LDWlin7:
000000d6 410a            316 	add	1,r1
000000d8 8100            317 	zxb	r1
                         318 .L13:
000000da 2c0600000000*   319 	mov	_gu8undo_num,r12
000000e0 8c670100        320 	ld.bu	0[r12],r12
000000e4 ec09            321 	cmp	r12,r1
000000e6 c19d*           322 	bl	.L12
                         323 --line18
                         324 ..lin.C.3A.5Cgit.5Crh850.5Csrc.5Capp.5Cgfx_apps.5Csimple_draw.5Ctarget.5Cd1mx_mango_ghs.5Cobj.5Cnios.8::
                         325 .LDWlin8:
000000e8 4172            326 	add	1,r14
000000ea 8e00            327 	zxb	r14
                         328 .L9:
000000ec eb71            329 	cmp	r11,r14
000000ee c195*           330 	bl	.L8
                         331 .L4:
                         332 --28:                 }
                         333 --29:             }
                         334 --30:         }
                         335 --31:     }
                         336 --32:     for(u8counter = 0; u8counter < _TASK_NUM; u8counter++)
                         337 --line32
                         338 ..lin.C.3A.5Cgit.5Crh850.5Csrc.5Capp.5Cgfx_apps.5Csimple_draw.5Ctarget.5Cd1mx_mango_ghs.5Cobj.5Cnios.9::
                         339 .LDWlin9:
000000f0 000a            340 	mov	0,r1
000000f2 0000            341 	nop
                         342 .L18:
                         343 --33:     {
                         344 --34:         if(precorder[u8counter].u8task_num != 0)
000000f4 0160            345 	mov	r1,r12
000000f6 e8674402        346 	mul	40,r12,zero
000000fa cd61            347 	add	r13,r12
000000fc 8c672500        348 	ld.bu	36[r12],r12
00000100 e061            349 	cmp	zero,r12
00000102 920d*           350 	be	.L19
                         351 --35:             precorder[u8counter].u8discard_time++;
                         352 --line35
                         353 ..lin.C.3A.5Cgit.5Crh850.5Csrc.5Capp.5Cgfx_apps.5Csimple_draw.5Ctarget.5Cd1mx_mango_ghs.5Cobj.5Cnios.10::
                         354 .LDWlin10:
00000104 01f0            355 	mov	r1,ep

                                                                      Page 7
                                                              C:\Users\Frank\AppData\Local\Temp\gh_0000n181.si
00000106 e8f74402        356 	mul	40,ep,zero
0000010a cdf1            357 	add	r13,ep
0000010c 9e672700        358 	ld.bu	38[ep],r12
00000110 4162            359 	add	1,r12
00000112 a663            360 	sst.b	r12,38[ep]
                         361 .L19:
00000114 410a            362 	add	1,r1
00000116 8100            363 	zxb	r1
00000118 630a            364 	cmp	3,r1
0000011a d1ed*           365 	bl	.L18
                         366 --36:     }
                         367 --37: }
                         368 --	    .ef
                         369 .LDW11:
                         370 --line37
                         371 ..lin.C.3A.5Cgit.5Crh850.5Csrc.5Capp.5Cgfx_apps.5Csimple_draw.5Ctarget.5Cd1mx_mango_ghs.5Cobj.5Cnios.11::
                         372 .LDWlin11:
0000011c 5406df00        373 	dispose	10,{r28,r29},[lp]
                         374 	.type	_W_Task_AssignedPriority,@function
                         375 	.size	_W_Task_AssignedPriority,.-_W_Task_AssignedPriority
                         376 	.align	2
                         377 .LDW21:
                         378 --_u8row	r14	local
                         379 --_u8counter	r1	local
                         380 --_trecorder_temp	0[sp]	local
                         381 
                         382 --_precorder	r13	param
                         383 --_u8undo_num	r11	param
                         384 
                         385 	.data
                         386 .L130:
                         387 	.type	.L130,@object
                         388 	.size	.L130,0
                         389 	.text
                         390 
                         391 
                         392 --38: //-------------------------------------------------------------------------------------------------------------------------
                         393 --39: uint8_t W_Task_ExcludeDone(task_recorder_def* precorder)
                         394 	.align	2
                         395 	.align	2
                         396 	.global	_W_Task_ExcludeDone
                         397 _W_Task_ExcludeDone:
00000120 031ed8ff        398 	addi	-40,sp,sp
00000124 0660            399 	mov	r6,r12
                         400 --	    .bf
                         401 .LDW31:
                         402 --40: {
                         403 --41:     uint8_t u8exclue_num = 0;
00000126 006a            404 	mov	0,r13
                         405 --42:     uint8_t u8row = 0;
00000128 000a            406 	mov	0,r1
                         407 --43:     uint8_t u8counter = 0;
0000012a 0072            408 	mov	0,r14
                         409 --44:     task_recorder_def trecorder_temp;
                         410 --46:     for(u8row = 0; u8row < _TASK_NUM - 1; u8row++)
0000012c 000a            411 	mov	0,r1
0000012e 0000            412 	nop
                         413 .L230:
                         414 --47:     {
                         415 --48:         for(u8counter = (u8row + 1); u8counter < _TASK_NUM; u8counter++)
00000130 01760100        416 	addi	1,r1,r14

                                                                      Page 8
                                                              C:\Users\Frank\AppData\Local\Temp\gh_0000n181.si
00000134 8e00            417 	zxb	r14
00000136 954d*           418 	br	.L234
                         419 .L233:
                         420 --49:         {
                         421 --50:             if(precorder[u8row].u8task_num == 0)
                         422 --line50
                         423 ..lin.C.3A.5Cgit.5Crh850.5Csrc.5Capp.5Cgfx_apps.5Csimple_draw.5Ctarget.5Cd1mx_mango_ghs.5Cobj.5Cnios.12::
                         424 .LDWlin12:
00000138 01f0            425 	mov	r1,ep
0000013a e8f74402        426 	mul	40,ep,zero
0000013e ccf1            427 	add	r12,ep
00000140 9e5f2500        428 	ld.bu	36[ep],r11
00000144 e059            429 	cmp	zero,r11
00000146 fa3d*           430 	bne	.L232
                         431 --51:             {
                         432 --52:                 if(precorder[u8counter].u8task_num != 0)
                         433 --line52
                         434 ..lin.C.3A.5Cgit.5Crh850.5Csrc.5Capp.5Cgfx_apps.5Csimple_draw.5Ctarget.5Cd1mx_mango_ghs.5Cobj.5Cnios.13::
                         435 .LDWlin13:
00000148 0ef0            436 	mov	r14,ep
0000014a e8f74402        437 	mul	40,ep,zero
0000014e ccf1            438 	add	r12,ep
00000150 9e5f2500        439 	ld.bu	36[ep],r11
00000154 e059            440 	cmp	zero,r11
00000156 f235*           441 	be	.L232
                         442 --53:                 {
                         443 --54:                     trecorder_temp = precorder[u8row]; 
                         444 --line54
                         445 ..lin.C.3A.5Cgit.5Crh850.5Csrc.5Capp.5Cgfx_apps.5Csimple_draw.5Ctarget.5Cd1mx_mango_ghs.5Cobj.5Cnios.14::
                         446 .LDWlin14:
00000158 e15e2800        447 	mulhi	40,r1,r11
0000015c cc59            448 	add	r12,r11
0000015e 0bf0            449 	mov	r11,ep
00000160 1e562800        450 	addi	40,ep,r10
00000164 235e0000        451 	movea	0,sp,r11
                         452 .L359:
00000168 be0709400000    453 	ld.dw	0[ep],r8
0000016e 48f2            454 	add	8,ep
00000170 ab070f400000    455 	st.dw	r8,0[r11]
00000176 485a            456 	add	8,r11
00000178 fe51            457 	cmp	ep,r10
0000017a faf5*           458 	bne	.L359
                         459 --55:                     precorder[u8row] = precorder[u8counter]; 
                         460 --line55
                         461 ..lin.C.3A.5Cgit.5Crh850.5Csrc.5Capp.5Cgfx_apps.5Csimple_draw.5Ctarget.5Cd1mx_mango_ghs.5Cobj.5Cnios.15::
                         462 .LDWlin15:
0000017c ee562800        463 	mulhi	40,r14,r10
00000180 e15e2800        464 	mulhi	40,r1,r11
00000184 cc51            465 	add	r12,r10
00000186 0af0            466 	mov	r10,ep
00000188 1e562800        467 	addi	40,ep,r10
0000018c cc59            468 	add	r12,r11
                         469 .L361:
0000018e be0709400000    470 	ld.dw	0[ep],r8
00000194 48f2            471 	add	8,ep
00000196 ab070f400000    472 	st.dw	r8,0[r11]
0000019c 485a            473 	add	8,r11
0000019e fe51            474 	cmp	ep,r10
000001a0 faf5*           475 	bne	.L361
                         476 --56:                     precorder[u8counter] = trecorder_temp; 
                         477 --line56

                                                                      Page 9
                                                              C:\Users\Frank\AppData\Local\Temp\gh_0000n181.si
                         478 ..lin.C.3A.5Cgit.5Crh850.5Csrc.5Capp.5Cgfx_apps.5Csimple_draw.5Ctarget.5Cd1mx_mango_ghs.5Cobj.5Cnios.16::
                         479 .LDWlin16:
000001a2 ee5e2800        480 	mulhi	40,r14,r11
000001a6 23f60000        481 	movea	0,sp,ep
000001aa 03562800        482 	addi	40,sp,r10
000001ae cc59            483 	add	r12,r11
                         484 .L363:
000001b0 be0709400000    485 	ld.dw	0[ep],r8
000001b6 48f2            486 	add	8,ep
000001b8 ab070f400000    487 	st.dw	r8,0[r11]
000001be 485a            488 	add	8,r11
000001c0 fe51            489 	cmp	ep,r10
000001c2 faf5*           490 	bne	.L363
                         491 .L232:
                         492 --line48
                         493 ..lin.C.3A.5Cgit.5Crh850.5Csrc.5Capp.5Cgfx_apps.5Csimple_draw.5Ctarget.5Cd1mx_mango_ghs.5Cobj.5Cnios.17::
                         494 .LDWlin17:
000001c4 4172            495 	add	1,r14
000001c6 8e00            496 	zxb	r14
                         497 .L234:
000001c8 6372            498 	cmp	3,r14
000001ca f1b5*           499 	bl	.L233
                         500 --line46
                         501 ..lin.C.3A.5Cgit.5Crh850.5Csrc.5Capp.5Cgfx_apps.5Csimple_draw.5Ctarget.5Cd1mx_mango_ghs.5Cobj.5Cnios.18::
                         502 .LDWlin18:
000001cc 410a            503 	add	1,r1
000001ce 8100            504 	zxb	r1
000001d0 620a            505 	cmp	2,r1
000001d2 f1ad*           506 	bl	.L230
                         507 --57:                 }
                         508 --58:             }
                         509 --59:         }
                         510 --60:     }
                         511 --61:     for(u8row = 0; u8row < _TASK_NUM; u8row++)
                         512 --line61
                         513 ..lin.C.3A.5Cgit.5Crh850.5Csrc.5Capp.5Cgfx_apps.5Csimple_draw.5Ctarget.5Cd1mx_mango_ghs.5Cobj.5Cnios.19::
                         514 .LDWlin19:
000001d4 000a            515 	mov	0,r1
000001d6 0000            516 	nop
                         517 .L241:
                         518 --62:     {
                         519 --63:         if(precorder[u8row].u8task_num == 0)
000001d8 01f0            520 	mov	r1,ep
000001da e8f74402        521 	mul	40,ep,zero
000001de ccf1            522 	add	r12,ep
000001e0 9e5f2500        523 	ld.bu	36[ep],r11
000001e4 e059            524 	cmp	zero,r11
000001e6 ba05*           525 	bne	.L242
                         526 --64:             u8exclue_num++;
                         527 --line64
                         528 ..lin.C.3A.5Cgit.5Crh850.5Csrc.5Capp.5Cgfx_apps.5Csimple_draw.5Ctarget.5Cd1mx_mango_ghs.5Cobj.5Cnios.20::
                         529 .LDWlin20:
000001e8 416a            530 	add	1,r13
000001ea 8d00            531 	zxb	r13
                         532 .L242:
000001ec 410a            533 	add	1,r1
000001ee 8100            534 	zxb	r1
000001f0 630a            535 	cmp	3,r1
000001f2 b1f5*           536 	bl	.L241
                         537 --65:     }
                         538 --66:     return u8exclue_num;

                                                                      Page 10
                                                              C:\Users\Frank\AppData\Local\Temp\gh_0000n181.si
                         539 --line66
                         540 ..lin.C.3A.5Cgit.5Crh850.5Csrc.5Capp.5Cgfx_apps.5Csimple_draw.5Ctarget.5Cd1mx_mango_ghs.5Cobj.5Cnios.21::
                         541 .LDWlin21:
000001f4 0d50            542 	mov	r13,r10
                         543 --	    .ef
                         544 .LDW41:
000001f6 031e2800        545 	addi	40,sp,sp
000001fa 7f00            546 	jmp	[lp]
                         547 	.type	_W_Task_ExcludeDone,@function
                         548 	.size	_W_Task_ExcludeDone,.-_W_Task_ExcludeDone
                         549 	.align	2
                         550 .LDW51:
                         551 --_u8exclue_num	r13	local
                         552 --_u8row	r1	local
                         553 --_u8counter	r14	local
                         554 --_trecorder_temp	0[sp]	local
                         555 
                         556 --_precorder	r12	param
                         557 
                         558 	.section ".bss","awb"
                         559 .L358:
                         560 	.type	.L358,@object
                         561 	.size	.L358,0
                         562 	.data
                         563 	.text
                         564 
                         565 --67: }
                         566 
                         567 --68: //-------------------------------------------------------------------------------------------------------------------------
                         568 --69: void W_Task_AssignedTask(task_recorder_def* precorder)
                         569 	.align	2
                         570 	.align	2
                         571 	.global	_W_Task_AssignedTask
                         572 _W_Task_AssignedTask:
000001fc 8007e110        573 	prepare	{r27,r28,r29,r31},0
00000200 06e0            574 	mov	r6,r28
00000202 3b0600000000*   575 	mov	_gu8undo_num,r27
                         576 --	    .bf
                         577 .LDW61:
                         578 --70: {
                         579 --71:     uint8_t u8exclue_num = 0;
00000208 00ea            580 	mov	0,r29
                         581 --72:     
                         582 --73:     u8exclue_num = W_Task_ExcludeDone(precorder);
0000020a 1c30            583 	mov	r28,r6
                         584 	jarl	_W_Task_ExcludeDone,lp
                         584 <EXPANSION BEGIN>
                         584 jarl22 _W_Task_ExcludeDone , lp 
0000020c bfff14ff*       584 <EXPANSION END>
00000210 0ae8            585 	mov	r10,r29
                         586 --74:     gu8undo_num = _TASK_NUM - u8exclue_num;
                         587 --line74
                         588 ..lin.C.3A.5Cgit.5Crh850.5Csrc.5Capp.5Cgfx_apps.5Csimple_draw.5Ctarget.5Cd1mx_mango_ghs.5Cobj.5Cnios.22::
                         589 .LDWlin22:
00000212 030a            590 	mov	3,r1
00000214 bd09            591 	sub	r29,r1
00000216 5b0f0000        592 	st.b	r1,0[r27]
                         593 --75:     W_Task_AssignedPriority(precorder,gu8undo_num);
0000021a 9b3f0100        594 	ld.bu	0[r27],r7
0000021e 1c30            595 	mov	r28,r6
                         596 	jarl	_W_Task_AssignedPriority,lp

                                                                      Page 11
                                                              C:\Users\Frank\AppData\Local\Temp\gh_0000n181.si
                         596 <EXPANSION BEGIN>
                         596 jarl22 _W_Task_AssignedPriority , lp 
00000220 bfffe0fd*       596 <EXPANSION END>
                         597 --76: }
                         598 --	    .ef
                         599 .LDW71:
                         600 --line76
                         601 ..lin.C.3A.5Cgit.5Crh850.5Csrc.5Capp.5Cgfx_apps.5Csimple_draw.5Ctarget.5Cd1mx_mango_ghs.5Cobj.5Cnios.23::
                         602 .LDWlin23:
00000224 4006ff10        603 	dispose	0,{r27,r28,r29,r31},[lp]
                         604 	.type	_W_Task_AssignedTask,@function
                         605 	.size	_W_Task_AssignedTask,.-_W_Task_AssignedTask
                         606 	.align	2
                         607 .LDW81:
                         608 --_u8exclue_num	r29	local
                         609 
                         610 --_precorder	r28	param
                         611 
                         612 	.section ".bss","awb"
                         613 .L494:
                         614 	.type	.L494,@object
                         615 	.size	.L494,0
                         616 	.data
                         617 	.text
                         618 
                         619 
                         620 --77: //-------------------------------------------------------------------------------------------------------------------------
                         621 --78: //                                           Task Recorder
                         622 --79: //-------------------------------------------------------------------------------------------------------------------------
                         623 --80: void W_Task_QueueManagerInit(queue_task_def* pqueue_manager)
                         624 	.align	2
                         625 	.align	2
                         626 	.global	_W_Task_QueueManagerInit
                         627 _W_Task_QueueManagerInit:
00000228 8007e100        628 	prepare	{r28,r29,r31},0
0000022c 06e0            629 	mov	r6,r28
                         630 --	    .bf
                         631 .LDW91:
                         632 --81: {
                         633 --82:     uint8_t u8counter = 0;
0000022e 00ea            634 	mov	0,r29
                         635 --83:     pqueue_manager->u8current_point = 0;
00000230 5c071800        636 	st.b	zero,24[r28]
                         637 --84:     pqueue_manager->u8end_point = 0;
00000234 5c071900        638 	st.b	zero,25[r28]
                         639 --85:     
                         640 --86:     for(u8counter = 0; u8counter < _TASK_QUEUE_SIZE; u8counter++)
00000238 00ea            641 	mov	0,r29
0000023a 0000            642 	nop
                         643 .L522:
                         644 --87:     {
                         645 --88:         W_Task_ClearTaskQueue(&pqueue_manager->ttask[u8counter]);
0000023c 1d08            646 	mov	r29,r1
0000023e c30a            647 	shl	3,r1
00000240 dc09            648 	add	r28,r1
00000242 0130            649 	mov	r1,r6
                         650 	jarl	_W_Task_ClearTaskQueue,lp
                         650 <EXPANSION BEGIN>
                         650 jarl22 _W_Task_ClearTaskQueue , lp 
00000244 80ffa403*       650 <EXPANSION END>
                         651 --line86

                                                                      Page 12
                                                              C:\Users\Frank\AppData\Local\Temp\gh_0000n181.si
                         652 ..lin.C.3A.5Cgit.5Crh850.5Csrc.5Capp.5Cgfx_apps.5Csimple_draw.5Ctarget.5Cd1mx_mango_ghs.5Cobj.5Cnios.24::
                         653 .LDWlin24:
00000248 41ea            654 	add	1,r29
0000024a 9d00            655 	zxb	r29
0000024c 63ea            656 	cmp	3,r29
0000024e f1f5*           657 	bl	.L522
                         658 --89:     }
                         659 --90: }
                         660 --	    .ef
                         661 .LDW02:
                         662 --line90
                         663 ..lin.C.3A.5Cgit.5Crh850.5Csrc.5Capp.5Cgfx_apps.5Csimple_draw.5Ctarget.5Cd1mx_mango_ghs.5Cobj.5Cnios.25::
                         664 .LDWlin25:
00000250 4006ff00        665 	dispose	0,{r28,r29,r31},[lp]
                         666 	.type	_W_Task_QueueManagerInit,@function
                         667 	.size	_W_Task_QueueManagerInit,.-_W_Task_QueueManagerInit
                         668 	.align	2
                         669 .LDW12:
                         670 --_u8counter	r29	local
                         671 
                         672 --_pqueue_manager	r28	param
                         673 
                         674 	.section ".bss","awb"
                         675 .L574:
                         676 	.type	.L574,@object
                         677 	.size	.L574,0
                         678 	.data
                         679 	.text
                         680 
                         681 
                         682 --91: //-------------------------------------------------------------------------------------------------------------------------
                         683 --92: void W_Task_RecorderInit(task_recorder_def* precorder)
                         684 	.align	2
                         685 	.align	2
                         686 	.global	_W_Task_RecorderInit
                         687 _W_Task_RecorderInit:
00000254 0668            688 	mov	r6,r13
                         689 --	    .bf
                         690 .LDW22:
                         691 --93: {
                         692 --94:     uint8_t u8task_counter = 0;
00000256 000a            693 	mov	0,r1
                         694 --95:     uint8_t u8queue_counter = 0;
00000258 0072            695 	mov	0,r14
                         696 --96:     
                         697 --97:     for(u8task_counter = 0; u8task_counter < _TASK_NUM; u8task_counter++)
0000025a 000a            698 	mov	0,r1
0000025c 0000            699 	nop
                         700 .L614:
                         701 --98:     {
                         702 --99:         precorder[u8task_counter].u8discard_time = 0;
0000025e 01f0            703 	mov	r1,ep
00000260 e8f74402        704 	mul	40,ep,zero
00000264 cdf1            705 	add	r13,ep
00000266 a603            706 	sst.b	zero,38[ep]
                         707 --100:         precorder[u8task_counter].u8current_point = 0;
00000268 01f0            708 	mov	r1,ep
0000026a e8f74402        709 	mul	40,ep,zero
0000026e cdf1            710 	add	r13,ep
00000270 9803            711 	sst.b	zero,24[ep]
                         712 --101:         precorder[u8task_counter].u8end_point = 0;

                                                                      Page 13
                                                              C:\Users\Frank\AppData\Local\Temp\gh_0000n181.si
00000272 01f0            713 	mov	r1,ep
00000274 e8f74402        714 	mul	40,ep,zero
00000278 cdf1            715 	add	r13,ep
0000027a 9903            716 	sst.b	zero,25[ep]
                         717 --102:         precorder[u8task_counter].u8task_num = 0;
0000027c 01f0            718 	mov	r1,ep
0000027e e8f74402        719 	mul	40,ep,zero
00000282 cdf1            720 	add	r13,ep
00000284 a403            721 	sst.b	zero,36[ep]
                         722 --103:         
                         723 --104:         for(u8queue_counter = 0; u8queue_counter < _RECORDER_QUEUE_SIZE; u8queue_counter++)
00000286 0072            724 	mov	0,r14
00000288 0000            725 	nop
                         726 .L617:
                         727 --105:         {
                         728 --106:             precorder[u8task_counter].ttask[u8queue_counter].u8type = _TYPE_NONE;
0000028a 0160            729 	mov	r1,r12
0000028c 0ef0            730 	mov	r14,ep
0000028e e8674402        731 	mul	40,r12,zero
00000292 c3f2            732 	shl	3,ep
00000294 cd61            733 	add	r13,r12
00000296 ccf1            734 	add	r12,ep
00000298 2066ff00        735 	movea	255,zero,r12
0000029c 8063            736 	sst.b	r12,0[ep]
                         737 --107:             precorder[u8task_counter].ttask[u8queue_counter].u8level = _LEVEL_NONE;
0000029e 0160            738 	mov	r1,r12
000002a0 0ef0            739 	mov	r14,ep
000002a2 e8674402        740 	mul	40,r12,zero
000002a6 c3f2            741 	shl	3,ep
000002a8 cd61            742 	add	r13,r12
000002aa ccf1            743 	add	r12,ep
000002ac 2066ff00        744 	movea	255,zero,r12
000002b0 8363            745 	sst.b	r12,3[ep]
                         746 --108:             precorder[u8task_counter].ttask[u8queue_counter].u8event = _EVENT_NONE;
000002b2 0160            747 	mov	r1,r12
000002b4 0ef0            748 	mov	r14,ep
000002b6 e8674402        749 	mul	40,r12,zero
000002ba c3f2            750 	shl	3,ep
000002bc cd61            751 	add	r13,r12
000002be ccf1            752 	add	r12,ep
000002c0 2066ff00        753 	movea	255,zero,r12
000002c4 8263            754 	sst.b	r12,2[ep]
                         755 --109:             precorder[u8task_counter].ttask[u8queue_counter].u8state = _STATE_NONE;
000002c6 0160            756 	mov	r1,r12
000002c8 0ef0            757 	mov	r14,ep
000002ca e8674402        758 	mul	40,r12,zero
000002ce c3f2            759 	shl	3,ep
000002d0 cd61            760 	add	r13,r12
000002d2 ccf1            761 	add	r12,ep
000002d4 2066ff00        762 	movea	255,zero,r12
000002d8 8163            763 	sst.b	r12,1[ep]
                         764 --110:             precorder[u8task_counter].ttask[u8queue_counter].ttask_handler = NULL;
000002da 0160            765 	mov	r1,r12
000002dc 0ef0            766 	mov	r14,ep
000002de e8674402        767 	mul	40,r12,zero
000002e2 c3f2            768 	shl	3,ep
000002e4 cd61            769 	add	r13,r12
000002e6 ccf1            770 	add	r12,ep
000002e8 0305            771 	sst.w	zero,4[ep]
000002ea 4172            772 	add	1,r14
000002ec 8e00            773 	zxb	r14

                                                                      Page 14
                                                              C:\Users\Frank\AppData\Local\Temp\gh_0000n181.si
000002ee 6372            774 	cmp	3,r14
000002f0 d1cd*           775 	bl	.L617
                         776 --line97
                         777 ..lin.C.3A.5Cgit.5Crh850.5Csrc.5Capp.5Cgfx_apps.5Csimple_draw.5Ctarget.5Cd1mx_mango_ghs.5Cobj.5Cnios.26::
                         778 .LDWlin26:
000002f2 410a            779 	add	1,r1
000002f4 8100            780 	zxb	r1
000002f6 630a            781 	cmp	3,r1
000002f8 b1b5*           782 	bl	.L614
                         783 --111:         }
                         784 --112:     }
                         785 --113: }
                         786 --	    .ef
                         787 .LDW32:
                         788 --line113
                         789 ..lin.C.3A.5Cgit.5Crh850.5Csrc.5Capp.5Cgfx_apps.5Csimple_draw.5Ctarget.5Cd1mx_mango_ghs.5Cobj.5Cnios.27::
                         790 .LDWlin27:
000002fa 7f00            791 	jmp	[lp]
                         792 	.type	_W_Task_RecorderInit,@function
                         793 	.size	_W_Task_RecorderInit,.-_W_Task_RecorderInit
                         794 	.align	2
                         795 .LDW42:
                         796 --_u8task_counter	r1	local
                         797 --_u8queue_counter	r14	local
                         798 
                         799 --_precorder	r13	param
                         800 
                         801 	.section ".bss","awb"
                         802 .L714:
                         803 	.type	.L714,@object
                         804 	.size	.L714,0
                         805 	.data
                         806 	.text
                         807 
                         808 
                         809 --114: //-------------------------------------------------------------------------------------------------------------------------
                         810 --115: void W_Task_TaskInRecorder(void (*call_fun)(void),uint8_t u8type, uint8_t u8task_counter)
                         811 	.align	2
                         812 	.align	2
                         813 	.global	_W_Task_TaskInRecorder
                         814 _W_Task_TaskInRecorder:
000002fc 0660            815 	mov	r6,r12
000002fe c76eff00        816 	andi	255,r7,r13
00000302 c80eff00        817 	andi	255,r8,r1
00000306 2e0600000000*   818 	mov	_gttask_recorder,r14
                         819 --	    .bf
                         820 .LDW52:
                         821 --116: {
                         822 --117:     gttask_recorder[u8task_counter].u8end_point =  (gttask_recorder[u8task_counter].u8end_point + 1) % _RECORDER_QUEUE_SIZE;
0000030c e1f62800        823 	mulhi	40,r1,ep
00000310 0352            824 	mov	3,r10
00000312 1e58            825 	mov	ep,r11
00000314 ce59            826 	add	r14,r11
00000316 ab5f1900        827 	ld.bu	25[r11],r11
0000031a cef1            828 	add	r14,ep
0000031c 415a            829 	add	1,r11
0000031e ea5ffc5a        830 	divq	r10,r11,r11
00000322 995b            831 	sst.b	r11,25[ep]
                         832 --118:     gttask_recorder[u8task_counter].u8task_num++;
00000324 e1f62800        833 	mulhi	40,r1,ep
00000328 cef1            834 	add	r14,ep

                                                                      Page 15
                                                              C:\Users\Frank\AppData\Local\Temp\gh_0000n181.si
0000032a 9e5f2500        835 	ld.bu	36[ep],r11
0000032e 415a            836 	add	1,r11
00000330 a45b            837 	sst.b	r11,36[ep]
                         838 --119:     gttask_recorder[u8task_counter].ttask[0].ttask_handler = call_fun;
00000332 e1f62800        839 	mulhi	40,r1,ep
00000336 cef1            840 	add	r14,ep
00000338 0365            841 	sst.w	r12,4[ep]
                         842 --120:     gttask_recorder[u8task_counter].ttask[0].u8type = u8type;
0000033a e1f62800        843 	mulhi	40,r1,ep
0000033e cef1            844 	add	r14,ep
00000340 806b            845 	sst.b	r13,0[ep]
                         846 --121:     gttask_recorder[u8task_counter].ttask[0].u8state = _STATE_INIT;
00000342 e1f62800        847 	mulhi	40,r1,ep
00000346 cef1            848 	add	r14,ep
00000348 8103            849 	sst.b	zero,1[ep]
                         850 --122:     gttask_recorder[u8task_counter].ttask[0].u8event = _EVENT_FIRST;
0000034a e1f62800        851 	mulhi	40,r1,ep
0000034e 015a            852 	mov	1,r11
00000350 cef1            853 	add	r14,ep
00000352 825b            854 	sst.b	r11,2[ep]
                         855 --123:     gttask_recorder[u8task_counter].ttask[0].u8level = _LEVEL5;
00000354 e1f62800        856 	mulhi	40,r1,ep
00000358 055a            857 	mov	5,r11
0000035a cef1            858 	add	r14,ep
0000035c 835b            859 	sst.b	r11,3[ep]
                         860 --124:     gttask_recorder[u8task_counter].u8discard_time = 0;
0000035e e1f62800        861 	mulhi	40,r1,ep
00000362 cef1            862 	add	r14,ep
00000364 a603            863 	sst.b	zero,38[ep]
                         864 --125:     gttask_recorder[u8task_counter].u8pre_type = u8type;
00000366 e1f62800        865 	mulhi	40,r1,ep
0000036a cef1            866 	add	r14,ep
0000036c 9a6b            867 	sst.b	r13,26[ep]
                         868 --126: }
                         869 --	    .ef
                         870 .LDW62:
0000036e 7f00            871 	jmp	[lp]
                         872 	.type	_W_Task_TaskInRecorder,@function
                         873 	.size	_W_Task_TaskInRecorder,.-_W_Task_TaskInRecorder
                         874 	.align	2
                         875 .LDW72:
                         876 
                         877 --_call_fun	r12	param
                         878 --_u8type	r13	param
                         879 --_u8task_counter	r1	param
                         880 
                         881 	.section ".bss","awb"
                         882 .L834:
                         883 	.type	.L834,@object
                         884 	.size	.L834,0
                         885 	.data
                         886 	.text
                         887 
                         888 
                         889 --127: //-------------------------------------------------------------------------------------------------------------------------
                         890 --128: uint8_t W_Task_ChangeEvent(uint8_t u8type, uint8_t u8level, uint8_t u8event)
                         891 	.align	2
                         892 	.align	2
                         893 	.global	_W_Task_ChangeEvent
                         894 _W_Task_ChangeEvent:
00000370 c66eff00        895 	andi	255,r6,r13

                                                                      Page 16
                                                              C:\Users\Frank\AppData\Local\Temp\gh_0000n181.si
00000374 c766ff00        896 	andi	255,r7,r12
00000378 c85eff00        897 	andi	255,r8,r11
0000037c 2e0600000000*   898 	mov	_gttask_recorder,r14
                         899 --	    .bf
                         900 .LDW82:
                         901 --129: {
                         902 --130:     uint8_t u8counter = 0;
00000382 000a            903 	mov	0,r1
                         904 --131:     for(u8counter = 0; u8counter < _TASK_NUM; u8counter++)
00000384 000a            905 	mov	0,r1
00000386 0000            906 	nop
                         907 .L877:
                         908 --132:     {
                         909 --133:         if(gttask_recorder[u8counter].u8pre_type == u8type)
00000388 e1562800        910 	mulhi	40,r1,r10
0000038c ce51            911 	add	r14,r10
0000038e 8a571b00        912 	ld.bu	26[r10],r10
00000392 ed51            913 	cmp	r13,r10
00000394 8a75*           914 	bne	.L878
                         915 --134:         {
                         916 --135:             if(gttask_recorder[u8counter].u8task_num < _RECORDER_QUEUE_SIZE)
                         917 --line135
                         918 ..lin.C.3A.5Cgit.5Crh850.5Csrc.5Capp.5Cgfx_apps.5Csimple_draw.5Ctarget.5Cd1mx_mango_ghs.5Cobj.5Cnios.28::
                         919 .LDWlin28:
00000396 e1562800        920 	mulhi	40,r1,r10
0000039a ce51            921 	add	r14,r10
0000039c 8a572500        922 	ld.bu	36[r10],r10
000003a0 6352            923 	cmp	3,r10
000003a2 c965*           924 	bnl	.L880
                         925 --136:             {
                         926 --137:                 gttask_recorder[u8counter].u8discard_time = 0;
                         927 --line137
                         928 ..lin.C.3A.5Cgit.5Crh850.5Csrc.5Capp.5Cgfx_apps.5Csimple_draw.5Ctarget.5Cd1mx_mango_ghs.5Cobj.5Cnios.29::
                         929 .LDWlin29:
000003a4 e1f62800        930 	mulhi	40,r1,ep
000003a8 cef1            931 	add	r14,ep
000003aa a603            932 	sst.b	zero,38[ep]
                         933 --138:                 gttask_recorder[u8counter].ttask[gttask_recorder[u8counter].u8end_point].u8type = u8type;
000003ac e14e2800        934 	mulhi	40,r1,r9
000003b0 e1562800        935 	mulhi	40,r1,r10
000003b4 ce49            936 	add	r14,r9
000003b6 a94f1900        937 	ld.bu	25[r9],r9
000003ba ce51            938 	add	r14,r10
000003bc c34a            939 	shl	3,r9
000003be 09f0            940 	mov	r9,ep
000003c0 caf1            941 	add	r10,ep
000003c2 806b            942 	sst.b	r13,0[ep]
                         943 --139:                 gttask_recorder[u8counter].ttask[gttask_recorder[u8counter].u8end_point].ttask_handler = gttask_recorder[u8counter].tpre_task_handler;
000003c4 e14e2800        944 	mulhi	40,r1,r9
000003c8 e1562800        945 	mulhi	40,r1,r10
000003cc ce49            946 	add	r14,r9
000003ce a94f1900        947 	ld.bu	25[r9],r9
000003d2 ce51            948 	add	r14,r10
000003d4 c34a            949 	shl	3,r9
000003d6 09f0            950 	mov	r9,ep
000003d8 caf1            951 	add	r10,ep
000003da e1562800        952 	mulhi	40,r1,r10
000003de ce51            953 	add	r14,r10
000003e0 2a572100        954 	ld.w	32[r10],r10
000003e4 0355            955 	sst.w	r10,4[ep]
                         956 --140:                 gttask_recorder[u8counter].ttask[gttask_recorder[u8counter].u8end_point].u8state = gttask_recorder[u8counter].u8pre_state;

                                                                      Page 17
                                                              C:\Users\Frank\AppData\Local\Temp\gh_0000n181.si
000003e6 e14e2800        957 	mulhi	40,r1,r9
000003ea e1562800        958 	mulhi	40,r1,r10
000003ee ce49            959 	add	r14,r9
000003f0 a94f1900        960 	ld.bu	25[r9],r9
000003f4 ce51            961 	add	r14,r10
000003f6 c34a            962 	shl	3,r9
000003f8 09f0            963 	mov	r9,ep
000003fa caf1            964 	add	r10,ep
000003fc e1562800        965 	mulhi	40,r1,r10
00000400 ce51            966 	add	r14,r10
00000402 aa571b00        967 	ld.bu	27[r10],r10
00000406 8153            968 	sst.b	r10,1[ep]
                         969 --141:                 gttask_recorder[u8counter].ttask[gttask_recorder[u8counter].u8end_point].u8level = u8level;
00000408 e14e2800        970 	mulhi	40,r1,r9
0000040c e1562800        971 	mulhi	40,r1,r10
00000410 ce49            972 	add	r14,r9
00000412 a94f1900        973 	ld.bu	25[r9],r9
00000416 ce51            974 	add	r14,r10
00000418 c34a            975 	shl	3,r9
0000041a 09f0            976 	mov	r9,ep
0000041c caf1            977 	add	r10,ep
0000041e 8363            978 	sst.b	r12,3[ep]
                         979 --142:                 gttask_recorder[u8counter].ttask[gttask_recorder[u8counter].u8end_point].u8event = u8event;
00000420 e14e2800        980 	mulhi	40,r1,r9
00000424 e1562800        981 	mulhi	40,r1,r10
00000428 ce49            982 	add	r14,r9
0000042a a94f1900        983 	ld.bu	25[r9],r9
0000042e ce51            984 	add	r14,r10
00000430 c34a            985 	shl	3,r9
00000432 09f0            986 	mov	r9,ep
00000434 caf1            987 	add	r10,ep
00000436 825b            988 	sst.b	r11,2[ep]
                         989 --143:                 gttask_recorder[u8counter].u8end_point = (gttask_recorder[u8counter].u8end_point + 1) % _RECORDER_QUEUE_SIZE;
00000438 e1f62800        990 	mulhi	40,r1,ep
0000043c 034a            991 	mov	3,r9
0000043e 1e50            992 	mov	ep,r10
00000440 ce51            993 	add	r14,r10
00000442 aa571900        994 	ld.bu	25[r10],r10
00000446 cef1            995 	add	r14,ep
00000448 4152            996 	add	1,r10
0000044a e957fc52        997 	divq	r9,r10,r10
0000044e 9953            998 	sst.b	r10,25[ep]
                         999 --144:                 gttask_recorder[u8counter].u8task_num++;
00000450 e1f62800       1000 	mulhi	40,r1,ep
00000454 cef1           1001 	add	r14,ep
00000456 9e572500       1002 	ld.bu	36[ep],r10
0000045a 4152           1003 	add	1,r10
0000045c a453           1004 	sst.b	r10,36[ep]
                        1005 --145:                 gttask_recorder[u8counter].u8queue_full = _FALSE;
0000045e e1f62800       1006 	mulhi	40,r1,ep
00000462 cef1           1007 	add	r14,ep
00000464 a503           1008 	sst.b	zero,37[ep]
                        1009 --146:                 return _TRUE;
00000466 0152           1010 	mov	1,r10
00000468 b50d*          1011 	br	.L873
                        1012 .L880:
                        1013 --147:             }
                        1014 --148:             gttask_recorder[u8counter].u8queue_full = _TRUE;
                        1015 --line148
                        1016 ..lin.C.3A.5Cgit.5Crh850.5Csrc.5Capp.5Cgfx_apps.5Csimple_draw.5Ctarget.5Cd1mx_mango_ghs.5Cobj.5Cnios.30::
                        1017 .LDWlin30:

                                                                      Page 18
                                                              C:\Users\Frank\AppData\Local\Temp\gh_0000n181.si
0000046a e1f62800       1018 	mulhi	40,r1,ep
0000046e 0152           1019 	mov	1,r10
00000470 cef1           1020 	add	r14,ep
00000472 a553           1021 	sst.b	r10,37[ep]
                        1022 .L878:
00000474 410a           1023 	add	1,r1
00000476 8100           1024 	zxb	r1
00000478 630a           1025 	cmp	3,r1
0000047a f185*          1026 	bl	.L877
                        1027 --149:         }
                        1028 --150:     }
                        1029 --151:     return _FALSE;
                        1030 --line151
                        1031 ..lin.C.3A.5Cgit.5Crh850.5Csrc.5Capp.5Cgfx_apps.5Csimple_draw.5Ctarget.5Cd1mx_mango_ghs.5Cobj.5Cnios.31::
                        1032 .LDWlin31:
0000047c 0052           1033 	mov	0,r10
                        1034 .L873:
                        1035 --	    .ef
                        1036 .LDW92:
0000047e 7f00           1037 	jmp	[lp]
                        1038 	.type	_W_Task_ChangeEvent,@function
                        1039 	.size	_W_Task_ChangeEvent,.-_W_Task_ChangeEvent
                        1040 	.align	2
                        1041 .LDW03:
                        1042 --_u8counter	r1	local
                        1043 
                        1044 --_u8type	r13	param
                        1045 --_u8level	r12	param
                        1046 --_u8event	r11	param
                        1047 
                        1048 	.section ".bss","awb"
                        1049 .L982:
                        1050 	.type	.L982,@object
                        1051 	.size	.L982,0
                        1052 	.data
                        1053 	.text
                        1054 
                        1055 --152: } 
                        1056 
                        1057 --153: //-------------------------------------------------------------------------------------------------------------------------
                        1058 --154: uint8_t W_Task_ChangeState(uint8_t u8type,uint8_t u8level, uint8_t u8state, void (*call_fun)(void))
                        1059 	.align	2
                        1060 	.align	2
                        1061 	.global	_W_Task_ChangeState
                        1062 _W_Task_ChangeState:
00000480 8007c100       1063 	prepare	{r28,r29},0
00000484 c66eff00       1064 	andi	255,r6,r13
00000488 c756ff00       1065 	andi	255,r7,r10
0000048c c866ff00       1066 	andi	255,r8,r12
00000490 0958           1067 	mov	r9,r11
00000492 2e0600000000*  1068 	mov	_gttask_recorder,r14
                        1069 --	    .bf
                        1070 .LDW13:
                        1071 --155: {
                        1072 --156:     uint8_t u8counter = 0;
00000498 000a           1073 	mov	0,r1
                        1074 --158:     for(u8counter = 0; u8counter < _TASK_NUM; u8counter++)
0000049a 000a           1075 	mov	0,r1
0000049c 0000           1076 	nop
                        1077 .L1052:
                        1078 --159:     {

                                                                      Page 19
                                                              C:\Users\Frank\AppData\Local\Temp\gh_0000n181.si
                        1079 --160:         if(gttask_recorder[u8counter].u8pre_type == u8type)
0000049e e1ee2800       1080 	mulhi	40,r1,r29
000004a2 cee9           1081 	add	r14,r29
000004a4 9def1b00       1082 	ld.bu	26[r29],r29
000004a8 ede9           1083 	cmp	r13,r29
000004aa 8a6d*          1084 	bne	.L1053
                        1085 --161:         {
                        1086 --162:             if(gttask_recorder[u8counter].u8task_num < _RECORDER_QUEUE_SIZE)
                        1087 --line162
                        1088 ..lin.C.3A.5Cgit.5Crh850.5Csrc.5Capp.5Cgfx_apps.5Csimple_draw.5Ctarget.5Cd1mx_mango_ghs.5Cobj.5Cnios.32::
                        1089 .LDWlin32:
000004ac e1ee2800       1090 	mulhi	40,r1,r29
000004b0 cee9           1091 	add	r14,r29
000004b2 9def2500       1092 	ld.bu	36[r29],r29
000004b6 63ea           1093 	cmp	3,r29
000004b8 c95d*          1094 	bnl	.L1055
                        1095 --163:             {
                        1096 --164:                 gttask_recorder[u8counter].ttask[gttask_recorder[u8counter].u8end_point].u8type = u8type;
                        1097 --line164
                        1098 ..lin.C.3A.5Cgit.5Crh850.5Csrc.5Capp.5Cgfx_apps.5Csimple_draw.5Ctarget.5Cd1mx_mango_ghs.5Cobj.5Cnios.33::
                        1099 .LDWlin33:
000004ba e1e62800       1100 	mulhi	40,r1,r28
000004be e1ee2800       1101 	mulhi	40,r1,r29
000004c2 cee1           1102 	add	r14,r28
000004c4 bce71900       1103 	ld.bu	25[r28],r28
000004c8 cee9           1104 	add	r14,r29
000004ca c3e2           1105 	shl	3,r28
000004cc 1cf0           1106 	mov	r28,ep
000004ce ddf1           1107 	add	r29,ep
000004d0 806b           1108 	sst.b	r13,0[ep]
                        1109 --165:                 gttask_recorder[u8counter].ttask[gttask_recorder[u8counter].u8end_point].ttask_handler = call_fun;
000004d2 e1e62800       1110 	mulhi	40,r1,r28
000004d6 e1ee2800       1111 	mulhi	40,r1,r29
000004da cee1           1112 	add	r14,r28
000004dc bce71900       1113 	ld.bu	25[r28],r28
000004e0 cee9           1114 	add	r14,r29
000004e2 c3e2           1115 	shl	3,r28
000004e4 1cf0           1116 	mov	r28,ep
000004e6 ddf1           1117 	add	r29,ep
000004e8 035d           1118 	sst.w	r11,4[ep]
                        1119 --166:                 gttask_recorder[u8counter].ttask[gttask_recorder[u8counter].u8end_point].u8state = u8state;
000004ea e1e62800       1120 	mulhi	40,r1,r28
000004ee e1ee2800       1121 	mulhi	40,r1,r29
000004f2 cee1           1122 	add	r14,r28
000004f4 bce71900       1123 	ld.bu	25[r28],r28
000004f8 cee9           1124 	add	r14,r29
000004fa c3e2           1125 	shl	3,r28
000004fc 1cf0           1126 	mov	r28,ep
000004fe ddf1           1127 	add	r29,ep
00000500 8163           1128 	sst.b	r12,1[ep]
                        1129 --167:                 gttask_recorder[u8counter].ttask[gttask_recorder[u8counter].u8end_point].u8level = _LEVEL5;
00000502 e1e62800       1130 	mulhi	40,r1,r28
00000506 e1ee2800       1131 	mulhi	40,r1,r29
0000050a cee1           1132 	add	r14,r28
0000050c bce71900       1133 	ld.bu	25[r28],r28
00000510 cee9           1134 	add	r14,r29
00000512 c3e2           1135 	shl	3,r28
00000514 1cf0           1136 	mov	r28,ep
00000516 ddf1           1137 	add	r29,ep
00000518 05ea           1138 	mov	5,r29
0000051a 83eb           1139 	sst.b	r29,3[ep]

                                                                      Page 20
                                                              C:\Users\Frank\AppData\Local\Temp\gh_0000n181.si
                        1140 --168:                 gttask_recorder[u8counter].ttask[gttask_recorder[u8counter].u8end_point].u8event = _EVENT_FIRST;
0000051c e1e62800       1141 	mulhi	40,r1,r28
00000520 e1ee2800       1142 	mulhi	40,r1,r29
00000524 cee1           1143 	add	r14,r28
00000526 bce71900       1144 	ld.bu	25[r28],r28
0000052a cee9           1145 	add	r14,r29
0000052c c3e2           1146 	shl	3,r28
0000052e 1cf0           1147 	mov	r28,ep
00000530 ddf1           1148 	add	r29,ep
00000532 01ea           1149 	mov	1,r29
00000534 82eb           1150 	sst.b	r29,2[ep]
                        1151 --169:                 gttask_recorder[u8counter].u8discard_time = 0;
00000536 e1f62800       1152 	mulhi	40,r1,ep
0000053a cef1           1153 	add	r14,ep
0000053c a603           1154 	sst.b	zero,38[ep]
                        1155 --170:                 gttask_recorder[u8counter].u8end_point = (gttask_recorder[u8counter].u8end_point + 1) % _RECORDER_QUEUE_SIZE;
0000053e e1f62800       1156 	mulhi	40,r1,ep
00000542 03e2           1157 	mov	3,r28
00000544 1ee8           1158 	mov	ep,r29
00000546 cee9           1159 	add	r14,r29
00000548 bdef1900       1160 	ld.bu	25[r29],r29
0000054c cef1           1161 	add	r14,ep
0000054e 41ea           1162 	add	1,r29
00000550 fceffcea       1163 	divq	r28,r29,r29
00000554 99eb           1164 	sst.b	r29,25[ep]
                        1165 --171:                 gttask_recorder[u8counter].u8task_num++;
00000556 e1f62800       1166 	mulhi	40,r1,ep
0000055a cef1           1167 	add	r14,ep
0000055c 9eef2500       1168 	ld.bu	36[ep],r29
00000560 41ea           1169 	add	1,r29
00000562 a4eb           1170 	sst.b	r29,36[ep]
                        1171 --172:                 gttask_recorder[u8counter].u8queue_full = _FALSE;
00000564 e1f62800       1172 	mulhi	40,r1,ep
00000568 cef1           1173 	add	r14,ep
0000056a a503           1174 	sst.b	zero,37[ep]
                        1175 --173:                 return _TRUE;
0000056c 01ea           1176 	mov	1,r29
0000056e b50d*          1177 	br	.L1048
                        1178 .L1055:
                        1179 --174:             }
                        1180 --175:             gttask_recorder[u8counter].u8queue_full = _TRUE;
                        1181 --line175
                        1182 ..lin.C.3A.5Cgit.5Crh850.5Csrc.5Capp.5Cgfx_apps.5Csimple_draw.5Ctarget.5Cd1mx_mango_ghs.5Cobj.5Cnios.34::
                        1183 .LDWlin34:
00000570 e1f62800       1184 	mulhi	40,r1,ep
00000574 01ea           1185 	mov	1,r29
00000576 cef1           1186 	add	r14,ep
00000578 a5eb           1187 	sst.b	r29,37[ep]
                        1188 .L1053:
0000057a 410a           1189 	add	1,r1
0000057c 8100           1190 	zxb	r1
0000057e 630a           1191 	cmp	3,r1
00000580 f18d*          1192 	bl	.L1052
                        1193 --176:         }
                        1194 --177:     }
                        1195 --178:     return _FALSE;
                        1196 --line178
                        1197 ..lin.C.3A.5Cgit.5Crh850.5Csrc.5Capp.5Cgfx_apps.5Csimple_draw.5Ctarget.5Cd1mx_mango_ghs.5Cobj.5Cnios.35::
                        1198 .LDWlin35:
00000582 00ea           1199 	mov	0,r29
                        1200 .L1048:

                                                                      Page 21
                                                              C:\Users\Frank\AppData\Local\Temp\gh_0000n181.si
                        1201 --	    .ef
                        1202 .LDW23:
00000584 1d50           1203 	mov	r29,r10
00000586 4006df00       1204 	dispose	0,{r28,r29},[lp]
                        1205 	.type	_W_Task_ChangeState,@function
                        1206 	.size	_W_Task_ChangeState,.-_W_Task_ChangeState
                        1207 	.align	2
                        1208 .LDW33:
                        1209 --_u8counter	r1	local
                        1210 
                        1211 --_u8type	r13	param
                        1212 --_u8level	r10	param
                        1213 --_u8state	r12	param
                        1214 --_call_fun	r11	param
                        1215 
                        1216 	.section ".bss","awb"
                        1217 .L1158:
                        1218 	.type	.L1158,@object
                        1219 	.size	.L1158,0
                        1220 	.data
                        1221 	.text
                        1222 
                        1223 --179: }
                        1224 
                        1225 --180: //-------------------------------------------------------------------------------------------------------------------------
                        1226 --181: //                                           Task Excuter
                        1227 --182: //-------------------------------------------------------------------------------------------------------------------------
                        1228 --183: void W_Task_PushTaskInQueue(queue_task_def* pqueue_manager, task_recorder_def* precorder, uint8_t u8undo_num)
                        1229 	.align	2
                        1230 	.align	2
                        1231 	.global	_W_Task_PushTaskInQueue
                        1232 _W_Task_PushTaskInQueue:
0000058a 8007db000000*  1233 	prepare	{r28,r29},0,_gtqueue_manager
00000590 0000*
00000592 0670           1234 	mov	r6,r14
00000594 0760           1235 	mov	r7,r12
00000596 c85eff00       1236 	andi	255,r8,r11
                        1237 --	    .bf
                        1238 .LDW43:
                        1239 --184: {
                        1240 --185:     uint8_t u8counter;
                        1241 --186:     uint8_t u8size = 0;
0000059a 006a           1242 	mov	0,r13
                        1243 --187:     
                        1244 --188:     u8size = (_TASK_QUEUE_SIZE > u8undo_num) ? u8undo_num : _TASK_QUEUE_SIZE;
0000059c 635a           1245 	cmp	3,r11
0000059e e35f126b       1246 	cmovnl	3,r11,r13
                        1247 --189:     
                        1248 --190:     gtqueue_manager.u8current_point = 0;
000005a2 9803           1249 	sst.b	zero,24[ep]
                        1250 --191:     gtqueue_manager.u8end_point = 0;
000005a4 9903           1251 	sst.b	zero,25[ep]
                        1252 --192:     
                        1253 --193:     for(u8counter = 0; u8counter < u8size; u8counter++)
000005a6 000a           1254 	mov	0,r1
000005a8 c51d*          1255 	br	.L1232
                        1256 .L1231:
                        1257 --194:     {        
                        1258 --195:         pqueue_manager->ttask[pqueue_manager->u8end_point] = precorder[u8counter].ttask[precorder[u8counter].u8current_point];
                        1259 --line195
                        1260 ..lin.C.3A.5Cgit.5Crh850.5Csrc.5Capp.5Cgfx_apps.5Csimple_draw.5Ctarget.5Cd1mx_mango_ghs.5Cobj.5Cnios.36::

                                                                      Page 22
                                                              C:\Users\Frank\AppData\Local\Temp\gh_0000n181.si
                        1261 .LDWlin36:
000005aa 0148           1262 	mov	r1,r9
000005ac e84f4402       1263 	mul	40,r9,zero
000005b0 09e8           1264 	mov	r9,r29
000005b2 cce9           1265 	add	r12,r29
000005b4 9def1900       1266 	ld.bu	24[r29],r29
000005b8 ae571900       1267 	ld.bu	25[r14],r10
000005bc cc49           1268 	add	r12,r9
000005be c3ea           1269 	shl	3,r29
000005c0 c9e9           1270 	add	r9,r29
000005c2 bd0709e00000   1271 	ld.dw	0[r29],r28
000005c8 c352           1272 	shl	3,r10
000005ca ce51           1273 	add	r14,r10
000005cc aa070fe00000   1274 	st.dw	r28,0[r10]
                        1275 --196:         pqueue_manager->u8end_point += 1;
000005d2 ae571900       1276 	ld.bu	25[r14],r10
000005d6 4152           1277 	add	1,r10
000005d8 4e571900       1278 	st.b	r10,25[r14]
000005dc 410a           1279 	add	1,r1
000005de 8100           1280 	zxb	r1
                        1281 .L1232:
000005e0 ed09           1282 	cmp	r13,r1
000005e2 c1e5*          1283 	bl	.L1231
                        1284 --197:     }
                        1285 --198: }
                        1286 --	    .ef
                        1287 .LDW53:
                        1288 --line198
                        1289 ..lin.C.3A.5Cgit.5Crh850.5Csrc.5Capp.5Cgfx_apps.5Csimple_draw.5Ctarget.5Cd1mx_mango_ghs.5Cobj.5Cnios.37::
                        1290 .LDWlin37:
000005e4 4006df00       1291 	dispose	0,{r28,r29},[lp]
                        1292 	.type	_W_Task_PushTaskInQueue,@function
                        1293 	.size	_W_Task_PushTaskInQueue,.-_W_Task_PushTaskInQueue
                        1294 	.align	2
                        1295 .LDW63:
                        1296 --_u8counter	r1	local
                        1297 --_u8size	r13	local
                        1298 
                        1299 --_pqueue_manager	r14	param
                        1300 --_precorder	r12	param
                        1301 --_u8undo_num	r11	param
                        1302 
                        1303 	.section ".bss","awb"
                        1304 .L1294:
                        1305 	.type	.L1294,@object
                        1306 	.size	.L1294,0
                        1307 	.data
                        1308 	.text
                        1309 
                        1310 
                        1311 --199: //-------------------------------------------------------------------------------------------------------------------------
                        1312 --200: void W_Task_ClearTaskQueue(nios_task_def *pttask)
                        1313 	.align	2
                        1314 	.align	2
                        1315 	.global	_W_Task_ClearTaskQueue
                        1316 _W_Task_ClearTaskQueue:
000005e8 06f0           1317 	mov	r6,ep
                        1318 --	    .bf
                        1319 .LDW73:
                        1320 --201: {
                        1321 --202:     pttask->u8type = _TYPE_NONE;

                                                                      Page 23
                                                              C:\Users\Frank\AppData\Local\Temp\gh_0000n181.si
000005ea 200eff00       1322 	movea	255,zero,r1
000005ee 800b           1323 	sst.b	r1,0[ep]
                        1324 --203:     pttask->u8state = _STATE_NONE;
000005f0 200eff00       1325 	movea	255,zero,r1
000005f4 810b           1326 	sst.b	r1,1[ep]
                        1327 --204:     pttask->u8event = _EVENT_NONE;
000005f6 200eff00       1328 	movea	255,zero,r1
000005fa 820b           1329 	sst.b	r1,2[ep]
                        1330 --205:     pttask->u8level = _LEVEL_NONE;
000005fc 200eff00       1331 	movea	255,zero,r1
00000600 830b           1332 	sst.b	r1,3[ep]
                        1333 --206:     pttask->ttask_handler = NULL;
00000602 0305           1334 	sst.w	zero,4[ep]
                        1335 --207: }
                        1336 --	    .ef
                        1337 .LDW83:
00000604 7f00           1338 	jmp	[lp]
                        1339 	.type	_W_Task_ClearTaskQueue,@function
                        1340 	.size	_W_Task_ClearTaskQueue,.-_W_Task_ClearTaskQueue
                        1341 	.align	2
                        1342 .LDW93:
                        1343 
                        1344 --_pttask	ep	param
                        1345 
                        1346 	.section ".bss","awb"
                        1347 .L1378:
                        1348 	.type	.L1378,@object
                        1349 	.size	.L1378,0
                        1350 	.data
                        1351 	.text
                        1352 
                        1353 
                        1354 --208: //-------------------------------------------------------------------------------------------------------------------------
                        1355 --209: void W_Task_ClearRecorderQueue(nios_task_def *pttask)
                        1356 	.align	2
                        1357 	.align	2
                        1358 	.global	_W_Task_ClearRecorderQueue
                        1359 _W_Task_ClearRecorderQueue:
00000606 06f0           1360 	mov	r6,ep
                        1361 --	    .bf
                        1362 .LDW04:
                        1363 --210: {
                        1364 --211:     pttask->u8state = _STATE_NONE;
00000608 200eff00       1365 	movea	255,zero,r1
0000060c 810b           1366 	sst.b	r1,1[ep]
                        1367 --212:     pttask->u8event = _EVENT_NONE;
0000060e 200eff00       1368 	movea	255,zero,r1
00000612 820b           1369 	sst.b	r1,2[ep]
                        1370 --213:     pttask->u8level = _LEVEL_NONE;
00000614 200eff00       1371 	movea	255,zero,r1
00000618 830b           1372 	sst.b	r1,3[ep]
                        1373 --214:     pttask->ttask_handler = NULL;
0000061a 0305           1374 	sst.w	zero,4[ep]
                        1375 --215: }
                        1376 --	    .ef
                        1377 .LDW14:
0000061c 7f00           1378 	jmp	[lp]
                        1379 	.type	_W_Task_ClearRecorderQueue,@function
                        1380 	.size	_W_Task_ClearRecorderQueue,.-_W_Task_ClearRecorderQueue
                        1381 	.align	2
                        1382 .LDW24:

                                                                      Page 24
                                                              C:\Users\Frank\AppData\Local\Temp\gh_0000n181.si
                        1383 
                        1384 --_pttask	ep	param
                        1385 
                        1386 	.section ".bss","awb"
                        1387 .L1438:
                        1388 	.type	.L1438,@object
                        1389 	.size	.L1438,0
                        1390 	.data
                        1391 	.text
                        1392 
                        1393 
                        1394 --216: //-------------------------------------------------------------------------------------------------------------------------
                        1395 --217: void Task_Done(uint8_t u8index)
                        1396 	.align	2
                        1397 	.align	2
                        1398 	.global	_Task_Done
                        1399 _Task_Done:
0000061e 8007e100       1400 	prepare	{r28,r29,r31},0
00000622 c6eeff00       1401 	andi	255,r6,r29
00000626 3c0600000000*  1402 	mov	_gttask_recorder,r28
                        1403 --	    .bf
                        1404 .LDW34:
                        1405 --218: {
                        1406 --219:     gttask_recorder[u8index].u8pre_type = gttask_recorder[u8index].ttask[gttask_recorder[u8index].u8current_point].u8type;
0000062c fd762800       1407 	mulhi	40,r29,r14
00000630 fdf62800       1408 	mulhi	40,r29,ep
00000634 dc71           1409 	add	r28,r14
00000636 8e771900       1410 	ld.bu	24[r14],r14
0000063a 1e08           1411 	mov	ep,r1
0000063c dc09           1412 	add	r28,r1
0000063e dcf1           1413 	add	r28,ep
00000640 c372           1414 	shl	3,r14
00000642 c171           1415 	add	r1,r14
00000644 8e0f0100       1416 	ld.bu	0[r14],r1
00000648 9a0b           1417 	sst.b	r1,26[ep]
                        1418 --220:     gttask_recorder[u8index].u8pre_state = gttask_recorder[u8index].ttask[gttask_recorder[u8index].u8current_point].u8state;
0000064a fd762800       1419 	mulhi	40,r29,r14
0000064e fdf62800       1420 	mulhi	40,r29,ep
00000652 dc71           1421 	add	r28,r14
00000654 8e771900       1422 	ld.bu	24[r14],r14
00000658 1e08           1423 	mov	ep,r1
0000065a dc09           1424 	add	r28,r1
0000065c dcf1           1425 	add	r28,ep
0000065e c372           1426 	shl	3,r14
00000660 c171           1427 	add	r1,r14
00000662 ae0f0100       1428 	ld.bu	1[r14],r1
00000666 9b0b           1429 	sst.b	r1,27[ep]
                        1430 --221:     gttask_recorder[u8index].u8pre_event = gttask_recorder[u8index].ttask[gttask_recorder[u8index].u8current_point].u8event;
00000668 fd762800       1431 	mulhi	40,r29,r14
0000066c fdf62800       1432 	mulhi	40,r29,ep
00000670 dc71           1433 	add	r28,r14
00000672 8e771900       1434 	ld.bu	24[r14],r14
00000676 1e08           1435 	mov	ep,r1
00000678 dc09           1436 	add	r28,r1
0000067a dcf1           1437 	add	r28,ep
0000067c c372           1438 	shl	3,r14
0000067e c171           1439 	add	r1,r14
00000680 8e0f0300       1440 	ld.bu	2[r14],r1
00000684 9c0b           1441 	sst.b	r1,28[ep]
                        1442 --222:     gttask_recorder[u8index].u8pre_level = gttask_recorder[u8index].ttask[gttask_recorder[u8index].u8current_point].u8level;
00000686 fd762800       1443 	mulhi	40,r29,r14

                                                                      Page 25
                                                              C:\Users\Frank\AppData\Local\Temp\gh_0000n181.si
0000068a fdf62800       1444 	mulhi	40,r29,ep
0000068e dc71           1445 	add	r28,r14
00000690 8e771900       1446 	ld.bu	24[r14],r14
00000694 1e08           1447 	mov	ep,r1
00000696 dc09           1448 	add	r28,r1
00000698 dcf1           1449 	add	r28,ep
0000069a c372           1450 	shl	3,r14
0000069c c171           1451 	add	r1,r14
0000069e ae0f0300       1452 	ld.bu	3[r14],r1
000006a2 9d0b           1453 	sst.b	r1,29[ep]
                        1454 --223:     gttask_recorder[u8index].tpre_task_handler = gttask_recorder[u8index].ttask[gttask_recorder[u8index].u8current_point].ttask_handler;
000006a4 fd762800       1455 	mulhi	40,r29,r14
000006a8 fdf62800       1456 	mulhi	40,r29,ep
000006ac dc71           1457 	add	r28,r14
000006ae 8e771900       1458 	ld.bu	24[r14],r14
000006b2 1e08           1459 	mov	ep,r1
000006b4 dc09           1460 	add	r28,r1
000006b6 dcf1           1461 	add	r28,ep
000006b8 c372           1462 	shl	3,r14
000006ba c171           1463 	add	r1,r14
000006bc 2e0f0500       1464 	ld.w	4[r14],r1
000006c0 110d           1465 	sst.w	r1,32[ep]
                        1466 --224:     W_Task_ClearRecorderQueue(&gttask_recorder[u8index].ttask[gttask_recorder[u8index].u8current_point]);
000006c2 fd762800       1467 	mulhi	40,r29,r14
000006c6 fd0e2800       1468 	mulhi	40,r29,r1
000006ca dc71           1469 	add	r28,r14
000006cc 8e771900       1470 	ld.bu	24[r14],r14
000006d0 dc09           1471 	add	r28,r1
000006d2 c372           1472 	shl	3,r14
000006d4 c171           1473 	add	r1,r14
000006d6 0e30           1474 	mov	r14,r6
                        1475 	jarl	_W_Task_ClearRecorderQueue,lp
                        1475 <EXPANSION BEGIN>
                        1475 jarl22 _W_Task_ClearRecorderQueue , lp 
000006d8 bfff2eff*      1475 <EXPANSION END>
                        1476 --225:     gttask_recorder[u8index].u8current_point = (gttask_recorder[u8index].u8current_point + 1) % _RECORDER_QUEUE_SIZE;
                        1477 --line225
                        1478 ..lin.C.3A.5Cgit.5Crh850.5Csrc.5Capp.5Cgfx_apps.5Csimple_draw.5Ctarget.5Cd1mx_mango_ghs.5Cobj.5Cnios.38::
                        1479 .LDWlin38:
000006dc fdf62800       1480 	mulhi	40,r29,ep
000006e0 0372           1481 	mov	3,r14
000006e2 1e08           1482 	mov	ep,r1
000006e4 dc09           1483 	add	r28,r1
000006e6 810f1900       1484 	ld.bu	24[r1],r1
000006ea dcf1           1485 	add	r28,ep
000006ec 410a           1486 	add	1,r1
000006ee ee0ffc0a       1487 	divq	r14,r1,r1
000006f2 980b           1488 	sst.b	r1,24[ep]
                        1489 --226:     
                        1490 --227:     if(gttask_recorder[u8index].u8task_num > 0)
000006f4 fd0e2800       1491 	mulhi	40,r29,r1
000006f8 dc09           1492 	add	r28,r1
000006fa 810f2500       1493 	ld.bu	36[r1],r1
000006fe e009           1494 	cmp	zero,r1
00000700 820d*          1495 	be	.L1464
                        1496 --228:         gttask_recorder[u8index].u8task_num--;
                        1497 --line228
                        1498 ..lin.C.3A.5Cgit.5Crh850.5Csrc.5Capp.5Cgfx_apps.5Csimple_draw.5Ctarget.5Cd1mx_mango_ghs.5Cobj.5Cnios.39::
                        1499 .LDWlin39:
00000702 fdf62800       1500 	mulhi	40,r29,ep
00000706 dcf1           1501 	add	r28,ep

                                                                      Page 26
                                                              C:\Users\Frank\AppData\Local\Temp\gh_0000n181.si
00000708 9e0f2500       1502 	ld.bu	36[ep],r1
0000070c 5f0a           1503 	add	-1,r1
0000070e a40b           1504 	sst.b	r1,36[ep]
                        1505 .L1464:
                        1506 --229: }
                        1507 --	    .ef
                        1508 .LDW44:
00000710 4006ff00       1509 	dispose	0,{r28,r29,r31},[lp]
                        1510 	.type	_Task_Done,@function
                        1511 	.size	_Task_Done,.-_Task_Done
                        1512 	.align	2
                        1513 .LDW54:
                        1514 
                        1515 --_u8index	r29	param
                        1516 
                        1517 	.section ".bss","awb"
                        1518 .L1522:
                        1519 	.type	.L1522,@object
                        1520 	.size	.L1522,0
                        1521 	.data
                        1522 	.text
                        1523 
                        1524 
                        1525 --230: //-------------------------------------------------------------------------------------------------------------------------
                        1526 --231: void W_Task_PullTask(void)
                        1527 	.align	2
                        1528 	.align	2
                        1529 	.global	_W_Task_PullTask
                        1530 _W_Task_PullTask:
00000714 80076100       1531 	prepare	{r29,r31},0
00000718 3d0600000000*  1532 	mov	_gtqueue_manager,r29
                        1533 --	    .bf
                        1534 .LDW64:
                        1535 --232: {
                        1536 --233:     W_Task_ClearTaskQueue(&gtqueue_manager.ttask[gtqueue_manager.u8current_point]);
0000071e 9d0f1900       1537 	ld.bu	24[r29],r1
00000722 c30a           1538 	shl	3,r1
00000724 dd09           1539 	add	r29,r1
00000726 0130           1540 	mov	r1,r6
                        1541 	jarl	_W_Task_ClearTaskQueue,lp
                        1541 <EXPANSION BEGIN>
                        1541 jarl22 _W_Task_ClearTaskQueue , lp 
00000728 bfffc0fe*      1541 <EXPANSION END>
                        1542 --234:     gtqueue_manager.u8current_point++;
                        1543 --line234
                        1544 ..lin.C.3A.5Cgit.5Crh850.5Csrc.5Capp.5Cgfx_apps.5Csimple_draw.5Ctarget.5Cd1mx_mango_ghs.5Cobj.5Cnios.40::
                        1545 .LDWlin40:
0000072c 9d0f1900       1546 	ld.bu	24[r29],r1
00000730 410a           1547 	add	1,r1
00000732 5d0f1800       1548 	st.b	r1,24[r29]
                        1549 --235: }
                        1550 --	    .ef
                        1551 .LDW74:
00000736 40067f00       1552 	dispose	0,{r29,r31},[lp]
                        1553 	.type	_W_Task_PullTask,@function
                        1554 	.size	_W_Task_PullTask,.-_W_Task_PullTask
                        1555 	.align	2
                        1556 .LDW84:
                        1557 
                        1558 	.section ".bss","awb"
                        1559 .L1590:

                                                                      Page 27
                                                              C:\Users\Frank\AppData\Local\Temp\gh_0000n181.si
                        1560 	.type	.L1590,@object
                        1561 	.size	.L1590,0
                        1562 	.data
                        1563 	.text
                        1564 
                        1565 
                        1566 --236: //-------------------------------------------------------------------------------------------------------------------------
                        1567 --237: void W_Task_ExcuteTask(void)
                        1568 	.align	2
                        1569 	.align	2
                        1570 	.global	_W_Task_ExcuteTask
                        1571 _W_Task_ExcuteTask:
0000073a 8007e100       1572 	prepare	{r28,r29,r31},0
0000073e 3d0600000000*  1573 	mov	_gtqueue_manager,r29
                        1574 --	    .bf
                        1575 .LDW94:
                        1576 --238: {
                        1577 --239:     gtqueue_manager.ttask[gtqueue_manager.u8current_point].ttask_handler();
00000744 9d0f1900       1578 	ld.bu	24[r29],r1
00000748 c30a           1579 	shl	3,r1
0000074a 01f0           1580 	mov	r1,ep
0000074c ddf1           1581 	add	r29,ep
0000074e 02e5           1582 	sld.w	4[ep],r28
00000750 fcc760f9       1583 	jarl	[r28],lp
                        1584 --240:     W_Task_PullTask();
                        1585 --line240
                        1586 ..lin.C.3A.5Cgit.5Crh850.5Csrc.5Capp.5Cgfx_apps.5Csimple_draw.5Ctarget.5Cd1mx_mango_ghs.5Cobj.5Cnios.41::
                        1587 .LDWlin41:
                        1588 	jarl	_W_Task_PullTask,lp
                        1588 <EXPANSION BEGIN>
                        1588 jarl22 _W_Task_PullTask , lp 
00000754 bfffc0ff*      1588 <EXPANSION END>
                        1589 --241: }
                        1590 --	    .ef
                        1591 .LDW05:
                        1592 --line241
                        1593 ..lin.C.3A.5Cgit.5Crh850.5Csrc.5Capp.5Cgfx_apps.5Csimple_draw.5Ctarget.5Cd1mx_mango_ghs.5Cobj.5Cnios.42::
                        1594 .LDWlin42:
00000758 4006ff00       1595 	dispose	0,{r28,r29,r31},[lp]
                        1596 	.type	_W_Task_ExcuteTask,@function
                        1597 	.size	_W_Task_ExcuteTask,.-_W_Task_ExcuteTask
                        1598 	.align	2
                        1599 .LDW15:
                        1600 
                        1601 	.section ".bss","awb"
                        1602 .L1638:
                        1603 	.type	.L1638,@object
                        1604 	.size	.L1638,0
                        1605 	.data
                        1606 	.text
                        1607 
                        1608 
                        1609 --242: //-------------------------------------------------------------------------------------------------------------------------
                        1610 --243: void W_Task_ProcessTask(void)
                        1611 	.align	2
                        1612 	.align	2
                        1613 	.global	_W_Task_ProcessTask
                        1614 _W_Task_ProcessTask:
0000075c 8007e100       1615 	prepare	{r28,r29,r31},0
00000760 3d0600000000*  1616 	mov	_gtqueue_manager,r29
00000766 3c0600000000*  1617 	mov	_gttask_recorder,r28

                                                                      Page 28
                                                              C:\Users\Frank\AppData\Local\Temp\gh_0000n181.si
                        1618 --	    .bf
                        1619 .LDW25:
                        1620 --244: {
                        1621 --245:     if(gtqueue_manager.u8current_point < gtqueue_manager.u8end_point)
0000076c bd0f1900       1622 	ld.bu	25[r29],r1
00000770 9d771900       1623 	ld.bu	24[r29],r14
00000774 e171           1624 	cmp	r1,r14
00000776 c905*          1625 	bnl	.L1658
                        1626 --246:     {
                        1627 --247:         W_Task_ExcuteTask();
                        1628 --line247
                        1629 ..lin.C.3A.5Cgit.5Crh850.5Csrc.5Capp.5Cgfx_apps.5Csimple_draw.5Ctarget.5Cd1mx_mango_ghs.5Cobj.5Cnios.43::
                        1630 .LDWlin43:
                        1631 	jarl	_W_Task_ExcuteTask,lp
                        1631 <EXPANSION BEGIN>
                        1631 jarl22 _W_Task_ExcuteTask , lp 
00000778 bfffc2ff*      1631 <EXPANSION END>
0000077c d50d*          1632 	br	.L1660
                        1633 .L1658:
                        1634 --248:     }
                        1635 --249:     else
                        1636 --250:     {
                        1637 --251:         // The queue is empty and need to push new task into queue.
                        1638 --252:         W_Task_AssignedTask(gttask_recorder);
                        1639 --line252
                        1640 ..lin.C.3A.5Cgit.5Crh850.5Csrc.5Capp.5Cgfx_apps.5Csimple_draw.5Ctarget.5Cd1mx_mango_ghs.5Cobj.5Cnios.44::
                        1641 .LDWlin44:
0000077e 1c30           1642 	mov	r28,r6
                        1643 	jarl	_W_Task_AssignedTask,lp
                        1643 <EXPANSION BEGIN>
                        1643 jarl22 _W_Task_AssignedTask , lp 
00000780 bfff7cfa*      1643 <EXPANSION END>
                        1644 --253:         W_Task_PushTaskInQueue(&gtqueue_manager,gttask_recorder,gu8undo_num);
                        1645 --line253
                        1646 ..lin.C.3A.5Cgit.5Crh850.5Csrc.5Capp.5Cgfx_apps.5Csimple_draw.5Ctarget.5Cd1mx_mango_ghs.5Cobj.5Cnios.45::
                        1647 .LDWlin45:
00000784 280600000000*  1648 	mov	_gu8undo_num,r8
0000078a 88470100       1649 	ld.bu	0[r8],r8
0000078e 1d30           1650 	mov	r29,r6
00000790 1c38           1651 	mov	r28,r7
                        1652 	jarl	_W_Task_PushTaskInQueue,lp
                        1652 <EXPANSION BEGIN>
                        1652 jarl22 _W_Task_PushTaskInQueue , lp 
00000792 bffff8fd*      1652 <EXPANSION END>
                        1653 .L1660:
                        1654 --254:     }
                        1655 --255: }
                        1656 --	    .ef
                        1657 .LDW35:
                        1658 --line255
                        1659 ..lin.C.3A.5Cgit.5Crh850.5Csrc.5Capp.5Cgfx_apps.5Csimple_draw.5Ctarget.5Cd1mx_mango_ghs.5Cobj.5Cnios.46::
                        1660 .LDWlin46:
00000796 4006ff00       1661 	dispose	0,{r28,r29,r31},[lp]
                        1662 	.type	_W_Task_ProcessTask,@function
                        1663 	.size	_W_Task_ProcessTask,.-_W_Task_ProcessTask
                        1664 	.align	2
                        1665 .LDW45:
                        1666 
                        1667 	.section ".bss","awb"
                        1668 .L1694:
                        1669 	.type	.L1694,@object

                                                                      Page 29
                                                              C:\Users\Frank\AppData\Local\Temp\gh_0000n181.si
                        1670 	.size	.L1694,0
                        1671 	.data
                        1672 	.text
                        1673 
                        1674 	.align	2
                        1675 
                        1676 	.data
                        1677 	.global	_gu8undo_num
00000000 00             1678 _gu8undo_num:	.byte	0
                        1679 	.type	_gu8undo_num,@object
                        1680 	.size	_gu8undo_num,1
                        1681 	.section ".bss","awb"
                        1682 	.align	4
                        1683 	.align	4
                        1684 	.global	_gttask_recorder
00000000 000000000000   1685 _gttask_recorder:	.space	120
00000006 000000000000 
0000000c 000000000000 
00000012 000000000000 
00000018 000000000000 
0000001e 000000000000 
00000024 000000000000 
0000002a 000000000000 
00000030 000000000000 
00000036 000000000000 
0000003c 000000000000 
00000042 000000000000 
00000048 000000000000 
0000004e 000000000000 
00000054 000000000000 
0000005a 000000000000 
00000060 000000000000 
00000066 000000000000 
0000006c 000000000000 
00000072 000000000000 
                        1686 	.type	_gttask_recorder,@object
                        1687 	.size	_gttask_recorder,120
                        1688 	.align	4
                        1689 	.global	_gtqueue_manager
00000078 000000000000   1690 _gtqueue_manager:	.space	28
0000007e 000000000000 
00000084 000000000000 
0000008a 000000000000 
00000090 00000000 
                        1691 	.type	_gtqueue_manager,@object
                        1692 	.size	_gtqueue_manager,28
                        1693 	.data
                        1694 	.ghsnote version,15
                        1695 	.ghsnote tools,3
                        1696 	.ghsnote options,144
                        1697 	.text
                        1698 	.align	2
                        1699 ..eof.C.3A.5Cgit.5Crh850.5Csrc.5Capp.5Cgfx_apps.5Csimple_draw.5Ctarget.5Cd1mx_mango_ghs.5Cobj.5Cnios...43.3A.5Cgit.5Crh850.5Csrc.5Capp.5Cgfx_apps.5Csimple_draw.5Ctarget.5Cd1mx_mango_ghs..5BC5D029..0::
                        1700 .rh850_flags REGMODE22,DATA_ALIGN8,GP_FIX,EP_NONFIX,TP_FIX,REG2_RESERVE,G3M
