                                                                      Page 1
                                                              C:\Users\Frank\AppData\Local\Temp\gh_0000n141.si
Command Line: C:\GHS\V800.V2014.1.7\comp_201417\ease850.exe -w -elf -b0 -I../../../../../app/common/dhd -I../../../../../app/gfx_apps/simple_draw/src -I../../../../../app/gfx_apps/simple_draw/lib -I../../../../../bsp/board//config -I../../../../../bsp/board//src/gfx -I../../../../../bsp/board//src/hmi -I../../../../../bsp/board//src/stdio -I../../../../../bsp/board/d1mx_mango/config -I../../../../../bsp/board/d1mx_mango/src -I../../../../../bsp/board/d1mx_mango/src/gfx -I../../../../../bsp/board/d1mx_mango/src/hmi -I../../../../../bsp/board/d1mx_mango/src/stdio -I../../../../../bsp/gfx/lib -I../../../../../bsp/gfx/src -I../../../../../bsp/hmi/lib -I../../../../../bsp/hmi/src -I../../../../../bsp/lib -I../../../../../bsp/stdio/lib -I../../../../../bsp/stdio/src -I../../../../../cdi/lib -I../../../../../cdi/src -I../../../../../compiler/rh850_ghs/inc -I../../../../../device/d1mx/lib -I../../../../../device/d1mx/macro_cfg -I../../../../../device/d1mx/macro_cfg/csisw -I../../../../../device/d1mx/macro_cfg/davehd -I../../../../../device/d1mx/macro_cfg/ddb -I../../../../../device/d1mx/macro_cfg/drw2d -I../../../../../device/d1mx/macro_cfg/gfxbus -I../../../../../device/d1mx/macro_cfg/gpio -I../../../../../device/d1mx/macro_cfg/hypb -I../../../../../device/d1mx/macro_cfg/hypdb -I../../../../../device/d1mx/macro_cfg/jcua -I../../../../../device/d1mx/macro_cfg/nfmabare -I../../../../../device/d1mx/macro_cfg/octa -I../../../../../device/d1mx/macro_cfg/octacdb -I../../../../../device/d1mx/macro_cfg/ostm -I../../../../../device/d1mx/macro_cfg/pbg -I../../../../../device/d1mx/macro_cfg/riic -I../../../../../device/d1mx/macro_cfg/sfcdb -I../../../../../device/d1mx/macro_cfg/sfma -I../../../../../device/d1mx/macro_cfg/spea -I../../../../../device/d1mx/macro_cfg/tauj -I../../../../../device/d1mx/macro_cfg/tick -I../../../../../device/d1mx/macro_cfg/vdce -I../../../../../device/d1mx/macro_cfg/vowe -I../../../../../device/d1mx/macro_cfg/wm -I../../../../../device/d1mx/macro_cfg/xbus -I../../../../../device/d1mx/src/dev -I../../../../../device/d1mx/src/dhd -I../../../../../device/d1mx/src/hypb -I../../../../../device/d1mx/src/jcua -I../../../../../device/d1mx/src/nfmabare -I../../../../../device/d1mx/src/octa -I../../../../../device/d1mx/src/rh850_ghs -I../../../../../device/d1mx/src/vowe -I../../../../../device/d1x_common/macro_cfg -I../../../../../device/d1x_common/macro_cfg/csisw -I../../../../../device/d1x_common/macro_cfg/davehd -I../../../../../device/d1x_common/macro_cfg/ddb -I../../../../../device/d1x_common/macro_cfg/drw2d -I../../../../../device/d1x_common/macro_cfg/gfxbus -I../../../../../device/d1x_common/macro_cfg/gpio -I../../../../../device/d1x_common/macro_cfg/hypb -I../../../../../device/d1x_common/macro_cfg/hypdb -I../../../../../device/d1x_common/macro_cfg/jcua -I../../../../../device/d1x_common/macro_cfg/nfmabare -I../../../../../device/d1x_common/macro_cfg/octa -I../../../../../device/d1x_common/macro_cfg/octacdb -I../../../../../device/d1x_common/macro_cfg/ostm -I../../../../../device/d1x_common/macro_cfg/pbg -I../../../../../device/d1x_common/macro_cfg/riic -I../../../../../device/d1x_common/macro_cfg/sfcdb -I../../../../../device/d1x_common/macro_cfg/sfma -I../../../../../device/d1x_common/macro_cfg/spea -I../../../../../device/d1x_common/macro_cfg/tauj -I../../../../../device/d1x_common/macro_cfg/tick -I../../../../../device/d1x_common/macro_cfg/vdce -I../../../../../device/d1x_common/macro_cfg/vowe -I../../../../../device/d1x_common/macro_cfg/wm -I../../../../../device/d1x_common/macro_cfg/xbus -I../../../../../device/d1x_common/src/csisw -I../../../../../device/d1x_common/src/ddb -I../../../../../device/d1x_common/src/dev -I../../../../../device/d1x_common/src/gfxbus -I../../../../../device/d1x_common/src/gpio -I../../../../../device/d1x_common/src/ostm -I../../../../../device/d1x_common/src/pbg -I../../../../../device/d1x_common/src/riic -I../../../../../device/d1x_common/src/sfma -I../../../../../device/d1x_common/src/spea -I../../../../../device/d1x_common/src/tauj -I../../../../../device/d1x_common/src/tick -I../../../../../device/d1x_common/src/vdce -I../../../../../device/d1x_common/src/wm -I../../../../../device/d1x_common/src/xbus -I../../../../../device/lib -I../../../../../macro/bus/pbg/lib -I../../../../../macro/bus/pbg/src -I../../../../../macro/csi/csisw/lib -I../../../../../macro/csi/csisw/src -I../../../../../macro/drw2d/lib -I../../../../../macro/drw2d/platform/davehd -I../../../../../macro/drw2d/platform/os/no_os -I../../../../../macro/drw2d/src -I../../../../../macro/flashc/hypb/lib -I../../../../../macro/flashc/hypb/src -I../../../../../macro/flashc/hypdb/lib -I../../../../../macro/flashc/hypdb/src -I../../../../../macro/flashc/nfmabare/lib -I../../../../../macro/flashc/nfmabare/src -I../../../../../macro/flashc/octa/lib -I../../../../../macro/flashc/octa/src -I../../../../../macro/flashc/octacdb/lib -I../../../../../macro/flashc/octacdb/src -I../../../../../macro/flashc/sfcdb/lib -I../../../../../macro/flashc/sfcdb/src -I../../../../../macro/flashc/sfma/lib -I../../../../../macro/flashc/sfma/src -I../../../../../macro/gfxbus/lib -I../../../../../macro/gfxbus/src -I../../../../../macro/gfxbus/xbus/lib -I../../../../../macro/gfxbus/xbus/src -I../../../../../macro/gpio/lib -I../../../../../macro/gpio/src -I../../../../../macro/gpu/davehd/common/inc -I../../../../../macro/gpu/davehd/common/inc/platform -I../../../../../macro/gpu/davehd/common/inc/platform/d1mx -I../../../../../macro/gpu/davehd/docs -I../../../../../macro/gpu/davehd/kernel/inc -I../../../../../macro/gpu/davehd/kernel/platform/d1mx -I../../../../../macro/gpu/davehd/kernel/platform/d1mx/bridge -I../../../../../macro/gpu/davehd/kernel/platform/d1mx/non_threaded -I../../../../../macro/gpu/davehd/kernel/platform/ree -I../../../../../macro/gpu/davehd/kernel/src -I../../../../../macro/gpu/davehd/user/inc -I../../../../../macro/gpu/davehd/user/platform/d1mx/no_os -I../../../../../macro/gpu/davehd/user/src -I../../../../../macro/gpu/jcua/lib -I../../../../../macro/gpu/jcua/src -I../../../../../macro/i2c/riic/lib -I../../../../../macro/i2c/riic/src -I../../../../../macro/tick/lib -I../../../../../macro/tick/src -I../../../../../macro/timer/ostm/lib -I../../../../../macro/timer/ostm/src -I../../../../../macro/timer/tauj/lib -I../../../../../macro/timer/tauj/src -I../../../../../macro/vdce/lib -I../../../../../macro/vdce/src -I../../../../../macro/vo/ddb/lib -I../../../../../macro/vo/ddb/src -I../../../../../macro/vo/spea/lib -I../../../../../macro/vo/spea/src -I../../../../../macro/vo/vowe/lib -I../../../../../macro/vo/vowe/src -I../../../../../macro/wm/lib -I../../../../../macro/wm/src -I../../../../../macro/pwm/lib -I../../../../../macro/reset/lib -I../../../../../macro/rscan/lib -I../../../../../macro/uart/rlin3/lib -I../../../../../macro/uart/rlin3/src -I../../../../../device/d1x_common/macro_cfg/rlin3 -I../../../../../macro/stbc/lib -I../../../../../macro/adc/lib -I../../../../../device/d1x_common/macro_cfg/adc7010 -IC:\GHS\V800.V2014.1.7\comp_201417\lib\rh850_22 -cg_underscore -cpu=rh850g3m -no_v850_simd -rh850_fpsimd=none -nomacro -patch_dbo=C:\git\rh850\src\app\gfx_apps\simple_draw\target\d1mx_mango_ghs\obj\r_adc_main.dbo -source=r_adc_main.c -o .\obj\gh_0000n141.o -list=.\obj\r_adc_main.lst C:\Users\Frank\AppData\Local\Temp\gh_0000n141.si 
Original File: C:\Users\Frank\AppData\Local\Temp\gh_0000n141.si
Source File: r_adc_main.c
Directory: C:\git\rh850\src\app\gfx_apps\simple_draw\target\d1mx_mango_ghs
Host OS: Windows
EASE: Copyright (C) 1983-2014 Green Hills Software.  All Rights Reversed.
Release: Compiler v2014.1.7
Build Directory: [Directory] BTOWINBOX:c:/build_2014_1_bto/2014-09-04.2200-2014_1_bto/win32-comp-ecom
Revision: [VCInfo] http://toolsvc/branches/release-branch-2014-1-bto/src@515859 (built by build)
Revision Date: Fri Sep 05 14:05:06 2014

Release Date: Fri Sep 05 14:43:29 2014

                           1 --Driver Command: ccv850 -c -MD -I../../../../../app/common/dhd
                           2 --		-I../../../../../app/gfx_apps/simple_draw/src
                           3 --		-I../../../../../app/gfx_apps/simple_draw/lib
                           4 --		-I../../../../../bsp/board//config
                           5 --		-I../../../../../bsp/board//src/gfx
                           6 --		-I../../../../../bsp/board//src/hmi
                           7 --		-I../../../../../bsp/board//src/stdio
                           8 --		-I../../../../../bsp/board/d1mx_mango/config
                           9 --		-I../../../../../bsp/board/d1mx_mango/src
                          10 --		-I../../../../../bsp/board/d1mx_mango/src/gfx
                          11 --		-I../../../../../bsp/board/d1mx_mango/src/hmi
                          12 --		-I../../../../../bsp/board/d1mx_mango/src/stdio
                          13 --		-I../../../../../bsp/gfx/lib -I../../../../../bsp/gfx/src
                          14 --		-I../../../../../bsp/hmi/lib -I../../../../../bsp/hmi/src
                          15 --		-I../../../../../bsp/lib -I../../../../../bsp/stdio/lib
                          16 --		-I../../../../../bsp/stdio/src -I../../../../../cdi/lib
                          17 --		-I../../../../../cdi/src -I../../../../../compiler/rh850_ghs/inc
                          18 --		-I../../../../../device/d1mx/lib
                          19 --		-I../../../../../device/d1mx/macro_cfg
                          20 --		-I../../../../../device/d1mx/macro_cfg/csisw
                          21 --		-I../../../../../device/d1mx/macro_cfg/davehd
                          22 --		-I../../../../../device/d1mx/macro_cfg/ddb
                          23 --		-I../../../../../device/d1mx/macro_cfg/drw2d
                          24 --		-I../../../../../device/d1mx/macro_cfg/gfxbus
                          25 --		-I../../../../../device/d1mx/macro_cfg/gpio
                          26 --		-I../../../../../device/d1mx/macro_cfg/hypb
                          27 --		-I../../../../../device/d1mx/macro_cfg/hypdb
                          28 --		-I../../../../../device/d1mx/macro_cfg/jcua
                          29 --		-I../../../../../device/d1mx/macro_cfg/nfmabare
                          30 --		-I../../../../../device/d1mx/macro_cfg/octa
                          31 --		-I../../../../../device/d1mx/macro_cfg/octacdb
                          32 --		-I../../../../../device/d1mx/macro_cfg/ostm
                          33 --		-I../../../../../device/d1mx/macro_cfg/pbg
                          34 --		-I../../../../../device/d1mx/macro_cfg/riic
                          35 --		-I../../../../../device/d1mx/macro_cfg/sfcdb
                          36 --		-I../../../../../device/d1mx/macro_cfg/sfma
                          37 --		-I../../../../../device/d1mx/macro_cfg/spea
                          38 --		-I../../../../../device/d1mx/macro_cfg/tauj
                          39 --		-I../../../../../device/d1mx/macro_cfg/tick
                          40 --		-I../../../../../device/d1mx/macro_cfg/vdce
                          41 --		-I../../../../../device/d1mx/macro_cfg/vowe
                          42 --		-I../../../../../device/d1mx/macro_cfg/wm
                          43 --		-I../../../../../device/d1mx/macro_cfg/xbus
                          44 --		-I../../../../../device/d1mx/src/dev
                          45 --		-I../../../../../device/d1mx/src/dhd
                          46 --		-I../../../../../device/d1mx/src/hypb
                          47 --		-I../../../../../device/d1mx/src/jcua
                          48 --		-I../../../../../device/d1mx/src/nfmabare
                          49 --		-I../../../../../device/d1mx/src/octa
                          50 --		-I../../../../../device/d1mx/src/rh850_ghs

                                                                      Page 2
                                                              C:\Users\Frank\AppData\Local\Temp\gh_0000n141.si
                          51 --		-I../../../../../device/d1mx/src/vowe
                          52 --		-I../../../../../device/d1x_common/macro_cfg
                          53 --		-I../../../../../device/d1x_common/macro_cfg/csisw
                          54 --		-I../../../../../device/d1x_common/macro_cfg/davehd
                          55 --		-I../../../../../device/d1x_common/macro_cfg/ddb
                          56 --		-I../../../../../device/d1x_common/macro_cfg/drw2d
                          57 --		-I../../../../../device/d1x_common/macro_cfg/gfxbus
                          58 --		-I../../../../../device/d1x_common/macro_cfg/gpio
                          59 --		-I../../../../../device/d1x_common/macro_cfg/hypb
                          60 --		-I../../../../../device/d1x_common/macro_cfg/hypdb
                          61 --		-I../../../../../device/d1x_common/macro_cfg/jcua
                          62 --		-I../../../../../device/d1x_common/macro_cfg/nfmabare
                          63 --		-I../../../../../device/d1x_common/macro_cfg/octa
                          64 --		-I../../../../../device/d1x_common/macro_cfg/octacdb
                          65 --		-I../../../../../device/d1x_common/macro_cfg/ostm
                          66 --		-I../../../../../device/d1x_common/macro_cfg/pbg
                          67 --		-I../../../../../device/d1x_common/macro_cfg/riic
                          68 --		-I../../../../../device/d1x_common/macro_cfg/sfcdb
                          69 --		-I../../../../../device/d1x_common/macro_cfg/sfma
                          70 --		-I../../../../../device/d1x_common/macro_cfg/spea
                          71 --		-I../../../../../device/d1x_common/macro_cfg/tauj
                          72 --		-I../../../../../device/d1x_common/macro_cfg/tick
                          73 --		-I../../../../../device/d1x_common/macro_cfg/vdce
                          74 --		-I../../../../../device/d1x_common/macro_cfg/vowe
                          75 --		-I../../../../../device/d1x_common/macro_cfg/wm
                          76 --		-I../../../../../device/d1x_common/macro_cfg/xbus
                          77 --		-I../../../../../device/d1x_common/src/csisw
                          78 --		-I../../../../../device/d1x_common/src/ddb
                          79 --		-I../../../../../device/d1x_common/src/dev
                          80 --		-I../../../../../device/d1x_common/src/gfxbus
                          81 --		-I../../../../../device/d1x_common/src/gpio
                          82 --		-I../../../../../device/d1x_common/src/ostm
                          83 --		-I../../../../../device/d1x_common/src/pbg
                          84 --		-I../../../../../device/d1x_common/src/riic
                          85 --		-I../../../../../device/d1x_common/src/sfma
                          86 --		-I../../../../../device/d1x_common/src/spea
                          87 --		-I../../../../../device/d1x_common/src/tauj
                          88 --		-I../../../../../device/d1x_common/src/tick
                          89 --		-I../../../../../device/d1x_common/src/vdce
                          90 --		-I../../../../../device/d1x_common/src/wm
                          91 --		-I../../../../../device/d1x_common/src/xbus
                          92 --		-I../../../../../device/lib -I../../../../../macro/bus/pbg/lib
                          93 --		-I../../../../../macro/bus/pbg/src
                          94 --		-I../../../../../macro/csi/csisw/lib
                          95 --		-I../../../../../macro/csi/csisw/src
                          96 --		-I../../../../../macro/drw2d/lib
                          97 --		-I../../../../../macro/drw2d/platform/davehd
                          98 --		-I../../../../../macro/drw2d/platform/os/no_os
                          99 --		-I../../../../../macro/drw2d/src
                         100 --		-I../../../../../macro/flashc/hypb/lib
                         101 --		-I../../../../../macro/flashc/hypb/src
                         102 --		-I../../../../../macro/flashc/hypdb/lib
                         103 --		-I../../../../../macro/flashc/hypdb/src
                         104 --		-I../../../../../macro/flashc/nfmabare/lib
                         105 --		-I../../../../../macro/flashc/nfmabare/src
                         106 --		-I../../../../../macro/flashc/octa/lib
                         107 --		-I../../../../../macro/flashc/octa/src
                         108 --		-I../../../../../macro/flashc/octacdb/lib
                         109 --		-I../../../../../macro/flashc/octacdb/src
                         110 --		-I../../../../../macro/flashc/sfcdb/lib
                         111 --		-I../../../../../macro/flashc/sfcdb/src

                                                                      Page 3
                                                              C:\Users\Frank\AppData\Local\Temp\gh_0000n141.si
                         112 --		-I../../../../../macro/flashc/sfma/lib
                         113 --		-I../../../../../macro/flashc/sfma/src
                         114 --		-I../../../../../macro/gfxbus/lib
                         115 --		-I../../../../../macro/gfxbus/src
                         116 --		-I../../../../../macro/gfxbus/xbus/lib
                         117 --		-I../../../../../macro/gfxbus/xbus/src
                         118 --		-I../../../../../macro/gpio/lib -I../../../../../macro/gpio/src
                         119 --		-I../../../../../macro/gpu/davehd/common/inc
                         120 --		-I../../../../../macro/gpu/davehd/common/inc/platform
                         121 --		-I../../../../../macro/gpu/davehd/common/inc/platform/d1mx
                         122 --		-I../../../../../macro/gpu/davehd/docs
                         123 --		-I../../../../../macro/gpu/davehd/kernel/inc
                         124 --		-I../../../../../macro/gpu/davehd/kernel/platform/d1mx
                         125 --		-I../../../../../macro/gpu/davehd/kernel/platform/d1mx/bridge
                         126 --		-I../../../../../macro/gpu/davehd/kernel/platform/d1mx/non_threaded
                         127 --		-I../../../../../macro/gpu/davehd/kernel/platform/ree
                         128 --		-I../../../../../macro/gpu/davehd/kernel/src
                         129 --		-I../../../../../macro/gpu/davehd/user/inc
                         130 --		-I../../../../../macro/gpu/davehd/user/platform/d1mx/no_os
                         131 --		-I../../../../../macro/gpu/davehd/user/src
                         132 --		-I../../../../../macro/gpu/jcua/lib
                         133 --		-I../../../../../macro/gpu/jcua/src
                         134 --		-I../../../../../macro/i2c/riic/lib
                         135 --		-I../../../../../macro/i2c/riic/src
                         136 --		-I../../../../../macro/tick/lib -I../../../../../macro/tick/src
                         137 --		-I../../../../../macro/timer/ostm/lib
                         138 --		-I../../../../../macro/timer/ostm/src
                         139 --		-I../../../../../macro/timer/tauj/lib
                         140 --		-I../../../../../macro/timer/tauj/src
                         141 --		-I../../../../../macro/vdce/lib -I../../../../../macro/vdce/src
                         142 --		-I../../../../../macro/vo/ddb/lib
                         143 --		-I../../../../../macro/vo/ddb/src
                         144 --		-I../../../../../macro/vo/spea/lib
                         145 --		-I../../../../../macro/vo/spea/src
                         146 --		-I../../../../../macro/vo/vowe/lib
                         147 --		-I../../../../../macro/vo/vowe/src -I../../../../../macro/wm/lib
                         148 --		-I../../../../../macro/wm/src -I../../../../../macro/pwm/lib
                         149 --		-I../../../../../macro/i2c/riic/lib
                         150 --		-I../../../../../macro/reset/lib -I../../../../../macro/rscan/lib
                         151 --		-I../../../../../macro/uart/rlin3/lib
                         152 --		-I../../../../../macro/uart/rlin3/src
                         153 --		-I../../../../../device/d1x_common/macro_cfg/rlin3
                         154 --		-I../../../../../macro/stbc/lib
                         155 --		-I../../../../../app/gfx_apps/simple_draw/lib
                         156 --		-I../../../../../macro/adc/lib
                         157 --		-I../../../../../device/d1x_common/macro_cfg/adc7010 -G
                         158 --		--no_commons --no_implicit_include --prototype_errors
                         159 --		-DRENESAS_D1X -DR_DRW2D_OS_NO_OS -DR_DRW2D_SYS_DHD
                         160 --		-DUSED_CPU=RH850G3M -DUSE_BSP_GFX -DUSE_BSP_HMI -DUSE_BSP_STDIO
                         161 --		-DUSE_CDI -DUSE_CSISW -DUSE_DAVEHD -DUSE_DDB -DUSE_DRW2D
                         162 --		-DUSE_GFXBUS -DUSE_GPIO -DUSE_HYPB -DUSE_HYPDB -DUSE_JCUA
                         163 --		-DUSE_NFMABARE -DUSE_OCTA -DUSE_OCTACDB -DUSE_OSTM -DUSE_PBG
                         164 --		-DUSE_RIIC -DUSE_SFCDB -DUSE_SFMA -DUSE_SPEA -DUSE_TAUJ
                         165 --		-DUSE_TICK -DUSE_VDCE -DUSE_WM -DUSE_XBUS -DMAG -MD -Zuse1bit
                         166 --		-allocate_ep -cpu=rh850g3m -large_sda -list -no_callt -notda
                         167 --		-passsource -preprocess_assembly_files -registermode=22
                         168 --		-reserve_r2 --diag_warning 1 -object_dir=./obj -DUSE_VDCE_OPENLDI
                         169 --		-gnu99 -filetype.c ..\..\..\..\..\macro\adc\src\r_adc_main.c -o
                         170 --		.\obj\r_adc_main.o
                         171 --Source File:   ..\..\..\..\..\macro\adc\src\r_adc_main.c
                         172 --Directory:     

                                                                      Page 4
                                                              C:\Users\Frank\AppData\Local\Temp\gh_0000n141.si
                         173 --		C:\git\rh850\src\app\gfx_apps\simple_draw\target\d1mx_mango_ghs
                         174 --Compile Date:  Tue Oct 16 19:48:52 2018
                         175 --Host OS:       Win32
                         176 --Version:       C-RH850 2014.1.7 RELEASE VERSION
                         177 --Release:       Compiler v2014.1.7
                         178 --Revision Date: Fri Sep 05 14:10:46 2014
                         179 --Release Date:  Fri Sep 05 14:44:23 2014
                         180 -- ecom  -g -w
                         181 
                         182 --1: /*
                         183 --2: ****************************************************************************
                         184 --3: PROJECT :ADC driver
                         185 --4: FILE    : $Id$
                         186 --5: ============================================================================
                         187 --6: DESCRIPTION
                         188 --7: Driver for ADC macro
                         189 --8: ============================================================================
                         190 --9:                             C O P Y R I G H T
                         191 --10: ============================================================================
                         192 --11:                            Copyright (c) 2012
                         193 --12:                                   by
                         194 --13:                        Renesas Electronics (Europe) GmbH.
                         195 --14:                            Arcadiastrasse 10
                         196 --15:                           D-40472 Duesseldorf
                         197 --16:                                Germany
                         198 --17:                           All rights reserved.
                         199 --18: ============================================================================
                         200 --19: Purpose: only for testing
                         201 --21: DISCLAIMER                                                                   
                         202 --22: This software is supplied by Renesas Electronics Corporation and is only     
                         203 --23: intended for use with Renesas products. No other uses are authorized. This   
                         204 --24: software is owned by Renesas Electronics Corporation and is protected under  
                         205 --25: all applicable laws, including copyright laws.                               
                         206 --26: THIS SOFTWARE IS PROVIDED "AS IS" AND RENESAS MAKES NO WARRANTIES REGARDING  
                         207 --27: THIS SOFTWARE, WHETHER EXPRESS, IMPLIED OR STATUTORY, INCLUDING BUT NOT      
                         208 --28: LIMITED TO WARRANTIES OF MERCHANTABILITY, FITNESS FOR A PARTICULAR PURPOSE   
                         209 --29: AND NON-INFRINGEMENT. ALL SUCH WARRANTIES ARE EXPRESSLY DISCLAIMED.          
                         210 --30: TO THE MAXIMUM EXTENT PERMITTED NOT PROHIBITED BY LAW, NEITHER RENESAS       
                         211 --31: ELECTRONICS CORPORATION NOR ANY OF ITS AFFILIATED COMPANIES SHALL BE LIABLE  
                         212 --32: FOR ANY DIRECT, INDIRECT, SPECIAL, INCIDENTAL OR CONSEQUENTIAL DAMAGES FOR   
                         213 --33: ANY REASON RELATED TO THIS SOFTWARE, EVEN IF RENESAS OR ITS AFFILIATES HAVE  
                         214 --34: BEEN ADVISED OF THE POSSIBILITY OF SUCH DAMAGES.                             
                         215 --35: Renesas reserves the right, without notice, to make changes to this software 
                         216 --36: and to discontinue the availability of this software. By using this software,
                         217 --37: you agree to the additional terms and conditions found by accessing the      
                         218 --38: following link:                                                              
                         219 --39: http://www.renesas.com/disclaimer *                                          
                         220 --40: Copyright (C) 2011 Renesas Electronics Corporation. All rights reserved.     
                         221 --42: ****************************************************************************
                         222 --43: */
                         223 --45: /*******************************************************************************
                         224 --46:   Title: ADC7010 Main Module
                         225 --48:   Implementation of the macro driver ADC main functions 
                         226 --49: */
                         227 --51: /*******************************************************************************
                         228 --52:   Section: Includes
                         229 --53: */
                         230 --55: #include "r_typedefs.h"
                         231 --56: #include "r_dev_api.h"
                         232 --57: #include "r_adc7010_regs.h"
                         233 --58: #include "r_config_adc.h"

                                                                      Page 5
                                                              C:\Users\Frank\AppData\Local\Temp\gh_0000n141.si
                         234 --59: #define ADCA_MAIN_GLOBALS_
                         235 --60: #include "r_adc_api.h"
                         236 --61: #include "r_adc_main.h"
                         237 --62: #undef ADCA_MAIN_GLOBALS_
                         238 --63: #include "r_adc_sys.h"
                         239 --65: /*******************************************************************************
                         240 --66:   Section: Local Macros
                         241 --67: */
                         242 --68: /*******************************************************************************
                         243 --69:   Macro: R_ADC_ERROR 
                         244 --71:   Display an additional error message (in case od activeated Debug output)
                         245 --72:   And call the ADCA error handler  
                         246 --73:   
                         247 --74:  */
                         248 --75: #define R_ADC_ERROR(Unit, AdcErr, Txt)  {R_DISPLAY_ERROR(Txt);R_ADC_ErrorHandler(Unit,\
                         249 --76:                                          (r_adc_Error_t)AdcErr);} 
                         250 --78: /*******************************************************************************
                         251 --79:   Section: Local Variables
                         252 --80: */
                         253 --82: /*******************************************************************************
                         254 --83:   Variable: loc_ErrorHandler
                         255 --85:   A function pointer to a user callback (Applications error handler)  
                         256 --86:   
                         257 --87:   The value is assigned by the application using the driver 
                         258 --88: */
                         259 --90: static void (*loc_ErrorHandler )(uint32_t Unit, r_adc_Error_t Error) = 0;
                         260 --93: /*******************************************************************************
                         261 --94:   Section: Global API Functions
                         262 --95: */
                         263 --97: /*******************************************************************************
                         264 --98:   Function: R_ADC_Init
                         265 --99:   
                         266 --100:   see: <r_adc_api.h> for details
                         267 --101: */
                         268 --102: r_adc_Error_t R_ADC_Init(uint32_t Unit, r_adc_Config_t * Config) 
                         269 	.text
                         270 ..bof.C.3A.5Cgit.5Crh850.5Csrc.5Capp.5Cgfx_apps.5Csimple_draw.5Ctarget.5Cd1mx_mango_ghs.5Cobj.5Cr_adc_main...43.3A.5Cgit.5Crh850.5Csrc.5Capp.5Cgfx_apps.5Csimple_draw.5Ctarget.5Cd1mx_mango_ghs..5BC5D024..0::
                         271 	.align	2
                         272 	.global	_R_ADC_Init
                         273 _R_ADC_Init:
00000000 8407e170        274 	prepare	{r25,r26,r27,r28,r29,r31},2
00000004 06e8            275 	mov	r6,r29
00000006 07c8            276 	mov	r7,r25
                         277 --	    .bf
                         278 .LDW01:
                         279 --103: {
                         280 --104:     r_adc_Group_t      ScanGroup;
                         281 --105:     uint8_t            VChannel;
                         282 --106:     r_adc_ULLimitCfg_t Ull_Num;
                         283 --107:     r_adc_Error_t      ret_val    = R_ADC_ERR_NG;
00000008 01e2            284 	mov	1,r28
                         285 --108:     
                         286 --109:     if (r_adc_InitFlag[Unit] == R_ADC_NO_INIT)
0000000a 1df0            287 	mov	r29,ep
0000000c c2f2            288 	shl	2,ep
0000000e 2b0600000000*   289 	mov	_r_adc_InitFlag,r11
00000014 cbf1            290 	add	r11,ep
00000016 000d            291 	sld.w	0[ep],r1
00000018 e009            292 	cmp	zero,r1
0000001a ea55*           293 	bne	.L4
                         294 --110:     {

                                                                      Page 6
                                                              C:\Users\Frank\AppData\Local\Temp\gh_0000n141.si
                         295 --111:         if (Unit < R_ADC_MACRO_NUM)
                         296 --line111
                         297 ..lin.C.3A.5Cgit.5Crh850.5Csrc.5Capp.5Cgfx_apps.5Csimple_draw.5Ctarget.5Cd1mx_mango_ghs.5Cobj.5Cr_adc_main.1::
                         298 .LDWlin1:
0000001c 62ea            299 	cmp	2,r29
0000001e f94d*           300 	bnl	.L6
                         301 --112:         {
                         302 --113:             r_adc_Unit[Unit].BaseAddr = R_SYS_ADC_GetBaseAddr(Unit); 
                         303 --line113
                         304 ..lin.C.3A.5Cgit.5Crh850.5Csrc.5Capp.5Cgfx_apps.5Csimple_draw.5Ctarget.5Cd1mx_mango_ghs.5Cobj.5Cr_adc_main.2::
                         305 .LDWlin2:
00000020 1dd8            306 	mov	r29,r27
00000022 fb00            307 	sxh	r27
00000024 fbde1001        308 	mulhi	272,r27,r27
00000028 1d30            309 	mov	r29,r6
0000002a 2e0600000000*   310 	mov	_r_adc_Unit,r14
00000030 ced9            311 	add	r14,r27
                         312 	jarl	_R_SYS_ADC_GetBaseAddr,lp
                         312 <EXPANSION BEGIN>
                         312 jarl22 _R_SYS_ADC_GetBaseAddr , lp 
00000032 80ff0000*       312 <EXPANSION END>
00000036 7b570100        313 	st.w	r10,0[r27]
                         314 --114:             
                         315 --115:             /* common config */
                         316 --116:             ret_val       = R_ADC_Config(Unit, Config);
                         317 --line116
                         318 ..lin.C.3A.5Cgit.5Crh850.5Csrc.5Capp.5Cgfx_apps.5Csimple_draw.5Ctarget.5Cd1mx_mango_ghs.5Cobj.5Cr_adc_main.3::
                         319 .LDWlin3:
0000003a 1d30            320 	mov	r29,r6
0000003c 1938            321 	mov	r25,r7
                         322 	jarl	_R_ADC_Config,lp
                         322 <EXPANSION BEGIN>
                         322 jarl22 _R_ADC_Config , lp 
0000003e 80ff5603*       322 <EXPANSION END>
00000042 0ae0            323 	mov	r10,r28
                         324 --117:             if (ret_val != R_ADC_ERR_OK)
                         325 --line117
                         326 ..lin.C.3A.5Cgit.5Crh850.5Csrc.5Capp.5Cgfx_apps.5Csimple_draw.5Ctarget.5Cd1mx_mango_ghs.5Cobj.5Cr_adc_main.4::
                         327 .LDWlin4:
00000044 e0e1            328 	cmp	zero,r28
00000046 d205*           329 	be	.L8
                         330 --118:             {
                         331 --119:                 R_ADC_ERROR(Unit, R_ADC_ERR_NG, "ADC: General configuration error occurs");
                         332 --line119
                         333 ..lin.C.3A.5Cgit.5Crh850.5Csrc.5Capp.5Cgfx_apps.5Csimple_draw.5Ctarget.5Cd1mx_mango_ghs.5Cobj.5Cr_adc_main.5::
                         334 .LDWlin5:
00000048 1d30            335 	mov	r29,r6
0000004a 013a            336 	mov	1,r7
                         337 	jarl	_R_ADC_ErrorHandler,lp
                         337 <EXPANSION BEGIN>
                         337 jarl22 _R_ADC_ErrorHandler , lp 
0000004c 80ff5212*       337 <EXPANSION END>
                         338 .L8:
                         339 --120:             }
                         340 --121:             
                         341 --122:             for (Ull_Num = R_ADC_ULL_0; Ull_Num < R_ADC_ULL_0; Ull_Num++)
                         342 --line122
                         343 ..lin.C.3A.5Cgit.5Crh850.5Csrc.5Capp.5Cgfx_apps.5Csimple_draw.5Ctarget.5Cd1mx_mango_ghs.5Cobj.5Cr_adc_main.6::
                         344 .LDWlin6:
00000050 015a            345 	mov	1,r11
00000052 635f0500        346 	st.w	r11,4[sp]

                                                                      Page 7
                                                              C:\Users\Frank\AppData\Local\Temp\gh_0000n141.si
                         347 --123:             {
                         348 --124:                 ret_val      = R_ADC_AssignULL(Unit, Ull_Num, Config);
                         349 --125:                 if (ret_val != R_ADC_ERR_OK)
                         350 --126:                 {
                         351 --127:                     R_ADC_ERROR(Unit, R_ADC_ERR_RANGE, "ADC: Upper-lower limit configeration error occurs");
                         352 --128:                 }
                         353 --129:             }
                         354 --130:             
                         355 --131:             
                         356 --132:             /* group config */
                         357 --133:             for (VChannel = 0; VChannel < R_SYS_ADC_MaxChannelNum(Unit); VChannel ++)
00000056 00da            358 	mov	0,r27
00000058 f50d*           359 	br	.L20
                         360 .L19:
                         361 --134:             {
                         362 --135:                 ret_val   = R_ACD_ConfigVC (Unit, VChannel, Config);
                         363 --line135
                         364 ..lin.C.3A.5Cgit.5Crh850.5Csrc.5Capp.5Cgfx_apps.5Csimple_draw.5Ctarget.5Cd1mx_mango_ghs.5Cobj.5Cr_adc_main.7::
                         365 .LDWlin7:
0000005a 1d30            366 	mov	r29,r6
0000005c 1b38            367 	mov	r27,r7
0000005e 1940            368 	mov	r25,r8
                         369 	jarl	_R_ACD_ConfigVC,lp
                         369 <EXPANSION BEGIN>
                         369 jarl22 _R_ACD_ConfigVC , lp 
00000060 80fff203*       369 <EXPANSION END>
00000064 0ae0            370 	mov	r10,r28
                         371 --136:                 if (ret_val != R_ADC_ERR_OK)
                         372 --line136
                         373 ..lin.C.3A.5Cgit.5Crh850.5Csrc.5Capp.5Cgfx_apps.5Csimple_draw.5Ctarget.5Cd1mx_mango_ghs.5Cobj.5Cr_adc_main.8::
                         374 .LDWlin8:
00000066 e0e1            375 	cmp	zero,r28
00000068 d205*           376 	be	.L18
                         377 --137:                 {
                         378 --138:                     R_ADC_ERROR(Unit, R_ADC_ERR_RANGE, "ADC: Virtual cahnnel configeration error occurs");
                         379 --line138
                         380 ..lin.C.3A.5Cgit.5Crh850.5Csrc.5Capp.5Cgfx_apps.5Csimple_draw.5Ctarget.5Cd1mx_mango_ghs.5Cobj.5Cr_adc_main.9::
                         381 .LDWlin9:
0000006a 1d30            382 	mov	r29,r6
0000006c 023a            383 	mov	2,r7
                         384 	jarl	_R_ADC_ErrorHandler,lp
                         384 <EXPANSION BEGIN>
                         384 jarl22 _R_ADC_ErrorHandler , lp 
0000006e 80ff3012*       384 <EXPANSION END>
                         385 .L18:
                         386 --line133
                         387 ..lin.C.3A.5Cgit.5Crh850.5Csrc.5Capp.5Cgfx_apps.5Csimple_draw.5Ctarget.5Cd1mx_mango_ghs.5Cobj.5Cr_adc_main.10::
                         388 .LDWlin10:
00000072 41da            389 	add	1,r27
00000074 9b00            390 	zxb	r27
                         391 .L20:
00000076 1d30            392 	mov	r29,r6
                         393 	jarl	_R_SYS_ADC_MaxChannelNum,lp
                         393 <EXPANSION BEGIN>
                         393 jarl22 _R_SYS_ADC_MaxChannelNum , lp 
00000078 80ff0000*       393 <EXPANSION END>
0000007c ead9            394 	cmp	r10,r27
0000007e e1ed*           395 	bl	.L19
                         396 --139:                 }
                         397 --140:             }
                         398 --141:             

                                                                      Page 8
                                                              C:\Users\Frank\AppData\Local\Temp\gh_0000n141.si
                         399 --142:             for (ScanGroup = R_ADC_CG_1; ScanGroup < R_ADC_CG_PWM; ScanGroup ++)
                         400 --line142
                         401 ..lin.C.3A.5Cgit.5Crh850.5Csrc.5Capp.5Cgfx_apps.5Csimple_draw.5Ctarget.5Cd1mx_mango_ghs.5Cobj.5Cr_adc_main.11::
                         402 .LDWlin11:
00000080 01d2            403 	mov	1,r26
00000082 0000            404 	nop
                         405 .L25:
                         406 --143:             {
                         407 --144:                 ret_val   = R_ADC_ConfigSG(Unit, ScanGroup, Config);
00000084 1d30            408 	mov	r29,r6
00000086 1a38            409 	mov	r26,r7
00000088 1940            410 	mov	r25,r8
                         411 	jarl	_R_ADC_ConfigSG,lp
                         411 <EXPANSION BEGIN>
                         411 jarl22 _R_ADC_ConfigSG , lp 
0000008a 80ffdc06*       411 <EXPANSION END>
0000008e 0ae0            412 	mov	r10,r28
                         413 --145:                 if (ret_val != R_ADC_ERR_OK)
                         414 --line145
                         415 ..lin.C.3A.5Cgit.5Crh850.5Csrc.5Capp.5Cgfx_apps.5Csimple_draw.5Ctarget.5Cd1mx_mango_ghs.5Cobj.5Cr_adc_main.12::
                         416 .LDWlin12:
00000090 e0e1            417 	cmp	zero,r28
00000092 d205*           418 	be	.L26
                         419 --146:                 {
                         420 --147:                     R_ADC_ERROR(Unit, R_ADC_ERR_RANGE, "ADC: Scan group configeration error occurs");
                         421 --line147
                         422 ..lin.C.3A.5Cgit.5Crh850.5Csrc.5Capp.5Cgfx_apps.5Csimple_draw.5Ctarget.5Cd1mx_mango_ghs.5Cobj.5Cr_adc_main.13::
                         423 .LDWlin13:
00000094 1d30            424 	mov	r29,r6
00000096 023a            425 	mov	2,r7
                         426 	jarl	_R_ADC_ErrorHandler,lp
                         426 <EXPANSION BEGIN>
                         426 jarl22 _R_ADC_ErrorHandler , lp 
00000098 80ff0612*       426 <EXPANSION END>
                         427 .L26:
                         428 --line142
                         429 ..lin.C.3A.5Cgit.5Crh850.5Csrc.5Capp.5Cgfx_apps.5Csimple_draw.5Ctarget.5Cd1mx_mango_ghs.5Cobj.5Cr_adc_main.14::
                         430 .LDWlin14:
0000009c 41d2            431 	add	1,r26
0000009e 64d2            432 	cmp	4,r26
000000a0 a1f5*           433 	bl	.L25
                         434 --148:                 }
                         435 --149:                  
                         436 --150:             }
                         437 --151:             R_SYS_ADC_Init(Unit);
                         438 --line151
                         439 ..lin.C.3A.5Cgit.5Crh850.5Csrc.5Capp.5Cgfx_apps.5Csimple_draw.5Ctarget.5Cd1mx_mango_ghs.5Cobj.5Cr_adc_main.15::
                         440 .LDWlin15:
000000a2 1d30            441 	mov	r29,r6
                         442 	jarl	_R_SYS_ADC_Init,lp
                         442 <EXPANSION BEGIN>
                         442 jarl22 _R_SYS_ADC_Init , lp 
000000a4 80ff0000*       442 <EXPANSION END>
                         443 --152:             r_adc_InitFlag[Unit]      = R_ADC_INIT;
                         444 --line152
                         445 ..lin.C.3A.5Cgit.5Crh850.5Csrc.5Capp.5Cgfx_apps.5Csimple_draw.5Ctarget.5Cd1mx_mango_ghs.5Cobj.5Cr_adc_main.16::
                         446 .LDWlin16:
000000a8 1df0            447 	mov	r29,ep
000000aa c2f2            448 	shl	2,ep
000000ac 2b0600000000*   449 	mov	_r_adc_InitFlag,r11
000000b2 cbf1            450 	add	r11,ep

                                                                      Page 9
                                                              C:\Users\Frank\AppData\Local\Temp\gh_0000n141.si
000000b4 010a            451 	mov	1,r1
000000b6 010d            452 	sst.w	r1,0[ep]
                         453 --153:             ret_val                   = R_ADC_ERR_OK;       
000000b8 00e2            454 	mov	0,r28
000000ba a50d*           455 	br	.L29
                         456 .L6:
                         457 --154:         }
                         458 --155:         else
                         459 --156:         {
                         460 --157:             R_ADC_ErrorHandler (Unit, R_ADC_ERR_RANGE);
                         461 --line157
                         462 ..lin.C.3A.5Cgit.5Crh850.5Csrc.5Capp.5Cgfx_apps.5Csimple_draw.5Ctarget.5Cd1mx_mango_ghs.5Cobj.5Cr_adc_main.17::
                         463 .LDWlin17:
000000bc 1d30            464 	mov	r29,r6
000000be 023a            465 	mov	2,r7
                         466 	jarl	_R_ADC_ErrorHandler,lp
                         466 <EXPANSION BEGIN>
                         466 jarl22 _R_ADC_ErrorHandler , lp 
000000c0 80ffde11*       466 <EXPANSION END>
000000c4 d505*           467 	br	.L29
                         468 .L4:
                         469 --158:         }
                         470 --159:     }
                         471 --160:     else
                         472 --161:     {
                         473 --162:         R_ADC_ErrorHandler (Unit, R_ADC_ALREADY_INITIALIZED);
                         474 --line162
                         475 ..lin.C.3A.5Cgit.5Crh850.5Csrc.5Capp.5Cgfx_apps.5Csimple_draw.5Ctarget.5Cd1mx_mango_ghs.5Cobj.5Cr_adc_main.18::
                         476 .LDWlin18:
000000c6 1d30            477 	mov	r29,r6
000000c8 0d3a            478 	mov	13,r7
                         479 	jarl	_R_ADC_ErrorHandler,lp
                         479 <EXPANSION BEGIN>
                         479 jarl22 _R_ADC_ErrorHandler , lp 
000000ca 80ffd411*       479 <EXPANSION END>
                         480 .L29:
                         481 --163:     }
                         482 --164:     return ret_val; 
                         483 --line164
                         484 ..lin.C.3A.5Cgit.5Crh850.5Csrc.5Capp.5Cgfx_apps.5Csimple_draw.5Ctarget.5Cd1mx_mango_ghs.5Cobj.5Cr_adc_main.19::
                         485 .LDWlin19:
000000ce 1c50            486 	mov	r28,r10
                         487 --	    .ef
                         488 .LDW11:
000000d0 4406ff70        489 	dispose	2,{r25,r26,r27,r28,r29,r31},[lp]
                         490 	.type	_R_ADC_Init,@function
                         491 	.size	_R_ADC_Init,.-_R_ADC_Init
                         492 	.align	2
                         493 .LDW21:
                         494 --_ScanGroup	r26	local
                         495 --_VChannel	r27	local
                         496 --_Ull_Num	4[sp]	local
                         497 --_ret_val	r28	local
                         498 
                         499 --_Unit	r29	param
                         500 --_Config	r25	param
                         501 
                         502 	.section ".bss","awb"
                         503 .L154:
                         504 	.type	.L154,@object
                         505 	.size	.L154,0

                                                                      Page 10
                                                              C:\Users\Frank\AppData\Local\Temp\gh_0000n141.si
                         506 	.data
                         507 	.align	4
                         508 	.global	_loc_ErrorHandler..C.3A.5Cgit.5Crh850.5Csrc.5Capp.5Cgfx_apps.5Csimple_draw.5Ctarget.5Cd1mx_mango_ghs.5Cobj.5Cr_adc_main.
                         509 _loc_ErrorHandler..C.3A.5Cgit.5Crh850.5Csrc.5Capp.5Cgfx_apps.5Csimple_draw.5Ctarget.5Cd1mx_mango_ghs.5Cobj.5Cr_adc_main.:
00000000 00000000        510 _loc_ErrorHandler:	.byte	0,0,0,0
                         511 	.type	_loc_ErrorHandler..C.3A.5Cgit.5Crh850.5Csrc.5Capp.5Cgfx_apps.5Csimple_draw.5Ctarget.5Cd1mx_mango_ghs.5Cobj.5Cr_adc_main.,@object
                         512 	.size	_loc_ErrorHandler..C.3A.5Cgit.5Crh850.5Csrc.5Capp.5Cgfx_apps.5Csimple_draw.5Ctarget.5Cd1mx_mango_ghs.5Cobj.5Cr_adc_main.,4
                         513 	.type	_loc_ErrorHandler,@object
                         514 	.size	_loc_ErrorHandler,4
                         515 	.text
                         516 
                         517 --165: }
                         518 
                         519 --168: /*******************************************************************************
                         520 --169:   Function: R_ADC_ResetCfgParams
                         521 --170:   
                         522 --171:   see: <r_adc_api.h> for details
                         523 --172: */
                         524 --173: void R_ADC_ResetCfgParams (r_adc_Config_t * Config)
                         525 	.align	2
                         526 	.align	2
                         527 	.global	_R_ADC_ResetCfgParams
                         528 _R_ADC_ResetCfgParams:
000000d4 0670            529 	mov	r6,r14
                         530 --	    .bf
                         531 .LDW31:
                         532 --174: {
                         533 --175:     r_adc_Group_t      ScanGroup;
                         534 --176:     uint8_t            VChannel;
                         535 --177:     uint8_t            Unit;
                         536 --178:     r_adc_ULLimitCfg_t Ull_Num;
                         537 --179:     Config->Res                            = R_ADC_12BIT_RES;
000000d6 6e070100        538 	st.w	zero,0[r14]
                         539 --180:     Config->ResTreat                       = R_ADC_RESULT_RETAIN;
000000da 6e070500        540 	st.w	zero,4[r14]
                         541 --181:     Config->Align                          = R_ADC_RIGHT_ALIGNED;
000000de 6e070900        542 	st.w	zero,8[r14]
                         543 --182:     Config->SuspendMode                    = R_ADC_SYNC_SUSPEND;
000000e2 6e070d00        544 	st.w	zero,12[r14]
                         545 --183:     Config->SDVol_En                       = R_ADC_SD_OFF; 
000000e6 6e071100        546 	st.w	zero,16[r14]
                         547 --184:     Config->SmpTime                        = 24;
000000ea 200e1800        548 	movea	24,zero,r1
000000ee 6e0f1400        549 	st.h	r1,20[r14]
                         550 --185:     Config->ULErrInfo                      = R_ADC_DONT_GENERATE_ERR; 
000000f2 6e073900        551 	st.w	zero,56[r14]
                         552 --186:     Config->OWErrInfo                      = R_ADC_DONT_GENERATE_ERR;
000000f6 6e073d00        553 	st.w	zero,60[r14]
                         554 --187:     for (ScanGroup = R_ADC_CG_1; ScanGroup < R_ADC_CG_PWM; ScanGroup ++)
000000fa 016a            555 	mov	1,r13
000000fc 0000            556 	nop
                         557 .L251:
                         558 --188:     {
                         559 --189:         Config->Group[ScanGroup].VcStart   = 0; 
000000fe 0df0            560 	mov	r13,ep
00000100 0e5e4000        561 	addi	64,r14,r11
00000104 f8f74002        562 	mul	24,ep,zero
00000108 cbf1            563 	add	r11,ep
0000010a 9003            564 	sst.b	zero,16[ep]
                         565 --190:         Config->Group[ScanGroup].VcEnd     = 2;
0000010c 0df0            566 	mov	r13,ep

                                                                      Page 11
                                                              C:\Users\Frank\AppData\Local\Temp\gh_0000n141.si
0000010e 0e5e4000        567 	addi	64,r14,r11
00000112 f8f74002        568 	mul	24,ep,zero
00000116 0262            569 	mov	2,r12
00000118 cbf1            570 	add	r11,ep
0000011a 9163            571 	sst.b	r12,17[ep]
                         572 --191:         Config->Group[ScanGroup].Mode      = R_ADC_MULTICYCLE_MODE;
0000011c 0df0            573 	mov	r13,ep
0000011e 0e5e4000        574 	addi	64,r14,r11
00000122 f8f74002        575 	mul	24,ep,zero
00000126 cbf1            576 	add	r11,ep
00000128 0105            577 	sst.w	zero,0[ep]
                         578 --192:         Config->Group[ScanGroup].SGNum     = R_ADC_SGCONV_ONCE;   
0000012a 0df0            579 	mov	r13,ep
0000012c 0e5e4000        580 	addi	64,r14,r11
00000130 f8f74002        581 	mul	24,ep,zero
00000134 cbf1            582 	add	r11,ep
00000136 0305            583 	sst.w	zero,4[ep]
                         584 --193:         Config->Group[ScanGroup].Trigger   = R_ADC_SW_TRIGGER;
00000138 0df0            585 	mov	r13,ep
0000013a 0e5e4000        586 	addi	64,r14,r11
0000013e f8f74002        587 	mul	24,ep,zero
00000142 cbf1            588 	add	r11,ep
00000144 0505            589 	sst.w	zero,8[ep]
                         590 --194:         Config->Group[ScanGroup].Int_SGEnd = R_ADC_COVEND_IGNORED;
00000146 0df0            591 	mov	r13,ep
00000148 0e5e4000        592 	addi	64,r14,r11
0000014c f8f74002        593 	mul	24,ep,zero
00000150 cbf1            594 	add	r11,ep
00000152 0705            595 	sst.w	zero,12[ep]
                         596 --195:         Config->Group[ScanGroup].ConvNum   = R_ADC_CONVERT_ONCE;
00000154 0df0            597 	mov	r13,ep
00000156 0e5e4000        598 	addi	64,r14,r11
0000015a f8f74002        599 	mul	24,ep,zero
0000015e cbf1            600 	add	r11,ep
00000160 0b05            601 	sst.w	zero,20[ep]
                         602 --196:         for (VChannel = 0; VChannel < R_ADC_CHANNEL_MAX_NUM; VChannel ++)
00000162 000a            603 	mov	0,r1
00000164 0000            604 	nop
                         605 .L254:
                         606 --197:         {
                         607 --198:             r_adc_MpxNum[ScanGroup][VChannel] = 0;
00000166 0d60            608 	mov	r13,r12
00000168 ec00            609 	sxh	r12
0000016a ecf62600        610 	mulhi	38,r12,ep
0000016e 2b0600000000*   611 	mov	_r_adc_MpxNum,r11
00000174 c1f1            612 	add	r1,ep
00000176 cbf1            613 	add	r11,ep
00000178 8003            614 	sst.b	zero,0[ep]
0000017a 410a            615 	add	1,r1
0000017c 8100            616 	zxb	r1
0000017e 0106daff        617 	addi	-38,r1,zero
00000182 a9f5*           618 	bnl	.L254
                         619 --line187
                         620 ..lin.C.3A.5Cgit.5Crh850.5Csrc.5Capp.5Cgfx_apps.5Csimple_draw.5Ctarget.5Cd1mx_mango_ghs.5Cobj.5Cr_adc_main.20::
                         621 .LDWlin20:
00000184 416a            622 	add	1,r13
00000186 646a            623 	cmp	4,r13
00000188 b1bd*           624 	bl	.L251
                         625 --199:         }        
                         626 --200:     }
                         627 --201:     for (VChannel = 0; VChannel < R_ADC_CHANNEL_MAX_NUM; VChannel ++)

                                                                      Page 12
                                                              C:\Users\Frank\AppData\Local\Temp\gh_0000n141.si
                         628 --line201
                         629 ..lin.C.3A.5Cgit.5Crh850.5Csrc.5Capp.5Cgfx_apps.5Csimple_draw.5Ctarget.5Cd1mx_mango_ghs.5Cobj.5Cr_adc_main.21::
                         630 .LDWlin21:
0000018a 000a            631 	mov	0,r1
0000018c 0000            632 	nop
                         633 .L257:
                         634 --202:     {
                         635 --203:         Config->VCh[VChannel].MPXAddr      = 0;
0000018e e1f62400        636 	mulhi	36,r1,ep
00000192 0e5eb800        637 	addi	184,r14,r11
00000196 cbf1            638 	add	r11,ep
00000198 8204            639 	sst.h	zero,4[ep]
                         640 --204:         Config->VCh[VChannel].phyChannel   = 0;
0000019a e1f62400        641 	mulhi	36,r1,ep
0000019e 0e5eb800        642 	addi	184,r14,r11
000001a2 cbf1            643 	add	r11,ep
000001a4 8804            644 	sst.h	zero,16[ep]
                         645 --205:         Config->VCh[VChannel].MPXEnable    = R_ADC_NO_MPX;
000001a6 e1f62400        646 	mulhi	36,r1,ep
000001aa 0e5eb800        647 	addi	184,r14,r11
000001ae cbf1            648 	add	r11,ep
000001b0 0105            649 	sst.w	zero,0[ep]
                         650 --206:         Config->VCh[VChannel].INT_VCEnd    = R_ADC_COVEND_IGNORED;
000001b2 e1f62400        651 	mulhi	36,r1,ep
000001b6 0e5eb800        652 	addi	184,r14,r11
000001ba cbf1            653 	add	r11,ep
000001bc 0505            654 	sst.w	zero,8[ep]
                         655 --207:         Config->VCh[VChannel].ULLCheck     = R_ADC_NO_ULL;
000001be e1f62400        656 	mulhi	36,r1,ep
000001c2 0e5eb800        657 	addi	184,r14,r11
000001c6 cbf1            658 	add	r11,ep
000001c8 0705            659 	sst.w	zero,12[ep]
                         660 --208:         Config->VCh[VChannel].phyChPD      = R_ADC_PULLDN_OFF; 
000001ca e1f62400        661 	mulhi	36,r1,ep
000001ce 0e5eb800        662 	addi	184,r14,r11
000001d2 cbf1            663 	add	r11,ep
000001d4 0b05            664 	sst.w	zero,20[ep]
000001d6 410a            665 	add	1,r1
000001d8 8100            666 	zxb	r1
000001da 0106daff        667 	addi	-38,r1,zero
000001de 89dd*           668 	bnl	.L257
                         669 --209:     }
                         670 --210:     for (Ull_Num = R_ADC_ULL_0; Ull_Num < R_ADC_ULL_LAST; Ull_Num++)
                         671 --line210
                         672 ..lin.C.3A.5Cgit.5Crh850.5Csrc.5Capp.5Cgfx_apps.5Csimple_draw.5Ctarget.5Cd1mx_mango_ghs.5Cobj.5Cr_adc_main.22::
                         673 .LDWlin22:
000001e0 015a            674 	mov	1,r11
000001e2 0000            675 	nop
                         676 .L260:
                         677 --211:     {
                         678 --212:         Config->ULL[Ull_Num].Upper_Limit                   = 0xfff;
000001e4 0bf0            679 	mov	r11,ep
000001e6 c3f2            680 	shl	3,ep
000001e8 0e561800        681 	addi	24,r14,r10
000001ec 2066ff0f        682 	movea	4095,zero,r12
000001f0 caf1            683 	add	r10,ep
000001f2 0165            684 	sst.w	r12,0[ep]
                         685 --213:         Config->ULL[Ull_Num].Lower_Limit                   = 0;
000001f4 0bf0            686 	mov	r11,ep
000001f6 c3f2            687 	shl	3,ep
000001f8 0e561800        688 	addi	24,r14,r10

                                                                      Page 13
                                                              C:\Users\Frank\AppData\Local\Temp\gh_0000n141.si
000001fc caf1            689 	add	r10,ep
000001fe 0305            690 	sst.w	zero,4[ep]
00000200 415a            691 	add	1,r11
00000202 645a            692 	cmp	4,r11
00000204 81f5*           693 	bl	.L260
                         694 --214:     }
                         695 --215:     for (Unit = 0; Unit < R_ADC_MACRO_NUM; Unit ++)
                         696 --line215
                         697 ..lin.C.3A.5Cgit.5Crh850.5Csrc.5Capp.5Cgfx_apps.5Csimple_draw.5Ctarget.5Cd1mx_mango_ghs.5Cobj.5Cr_adc_main.23::
                         698 .LDWlin23:
00000206 0062            699 	mov	0,r12
00000208 0000            700 	nop
                         701 .L263:
                         702 --216:     {
                         703 --217:         for (ScanGroup = R_ADC_CG_1; ScanGroup < R_ADC_CG_PWM; ScanGroup ++)
0000020a 016a            704 	mov	1,r13
0000020c 0000            705 	nop
                         706 .L266:
                         707 --218:         {
                         708 --219:             for (VChannel = 0; VChannel < R_ADC_CHANNEL_MAX_NUM; VChannel ++)
0000020e 000a            709 	mov	0,r1
00000210 0000            710 	nop
                         711 .L269:
                         712 --220:             {
                         713 --221:                 r_adc_CovResult[Unit][ScanGroup][VChannel] = 0;
00000212 0c48            714 	mov	r12,r9
00000214 c24a            715 	shl	2,r9
00000216 0d50            716 	mov	r13,r10
00000218 c951            717 	add	r9,r10
0000021a ea00            718 	sxh	r10
0000021c ea562600        719 	mulhi	38,r10,r10
00000220 3e0600000000*   720 	mov	_r_adc_CovResult,ep
00000226 c151            721 	add	r1,r10
00000228 c152            722 	shl	1,r10
0000022a caf1            723 	add	r10,ep
0000022c 8004            724 	sst.h	zero,0[ep]
                         725 --222:                 r_adc_VChannel[Unit][ScanGroup][VChannel]  = 0;
0000022e 0c48            726 	mov	r12,r9
00000230 c24a            727 	shl	2,r9
00000232 0d50            728 	mov	r13,r10
00000234 c951            729 	add	r9,r10
00000236 ea00            730 	sxh	r10
00000238 eaf62600        731 	mulhi	38,r10,ep
0000023c 290600000000*   732 	mov	_r_adc_VChannel,r9
00000242 c1f1            733 	add	r1,ep
00000244 c9f1            734 	add	r9,ep
00000246 8003            735 	sst.b	zero,0[ep]
00000248 410a            736 	add	1,r1
0000024a 8100            737 	zxb	r1
0000024c 0106daff        738 	addi	-38,r1,zero
00000250 99e5*           739 	bnl	.L269
                         740 --line217
                         741 ..lin.C.3A.5Cgit.5Crh850.5Csrc.5Capp.5Cgfx_apps.5Csimple_draw.5Ctarget.5Cd1mx_mango_ghs.5Cobj.5Cr_adc_main.24::
                         742 .LDWlin24:
00000252 416a            743 	add	1,r13
00000254 646a            744 	cmp	4,r13
00000256 c1dd*           745 	bl	.L266
                         746 --223:             }
                         747 --224:         }
                         748 --225:         for (VChannel = 0; VChannel < R_ADC_CHANNEL_MAX_NUM; VChannel ++)
                         749 --line225

                                                                      Page 14
                                                              C:\Users\Frank\AppData\Local\Temp\gh_0000n141.si
                         750 ..lin.C.3A.5Cgit.5Crh850.5Csrc.5Capp.5Cgfx_apps.5Csimple_draw.5Ctarget.5Cd1mx_mango_ghs.5Cobj.5Cr_adc_main.25::
                         751 .LDWlin25:
00000258 000a            752 	mov	0,r1
0000025a 0000            753 	nop
                         754 .L272:
                         755 --226:         {
                         756 --227:             r_adc_UllErr[Unit][VChannel]                   = 0;
0000025c ecf62600        757 	mulhi	38,r12,ep
00000260 290600000000*   758 	mov	_r_adc_UllErr,r9
00000266 c1f1            759 	add	r1,ep
00000268 c9f1            760 	add	r9,ep
0000026a 8003            761 	sst.b	zero,0[ep]
                         762 --228:             r_adc_OwErr[Unit][VChannel]                    = 0;
0000026c ecf62600        763 	mulhi	38,r12,ep
00000270 290600000000*   764 	mov	_r_adc_OwErr,r9
00000276 c1f1            765 	add	r1,ep
00000278 c9f1            766 	add	r9,ep
0000027a 8003            767 	sst.b	zero,0[ep]
0000027c 410a            768 	add	1,r1
0000027e 8100            769 	zxb	r1
00000280 0106daff        770 	addi	-38,r1,zero
00000284 c9ed*           771 	bnl	.L272
                         772 --line215
                         773 ..lin.C.3A.5Cgit.5Crh850.5Csrc.5Capp.5Cgfx_apps.5Csimple_draw.5Ctarget.5Cd1mx_mango_ghs.5Cobj.5Cr_adc_main.26::
                         774 .LDWlin26:
00000286 4162            775 	add	1,r12
00000288 8c00            776 	zxb	r12
0000028a 6262            777 	cmp	2,r12
0000028c f1bd*           778 	bl	.L263
                         779 --229:         }
                         780 --230:     }
                         781 --231: }
                         782 --	    .ef
                         783 .LDW41:
                         784 --line231
                         785 ..lin.C.3A.5Cgit.5Crh850.5Csrc.5Capp.5Cgfx_apps.5Csimple_draw.5Ctarget.5Cd1mx_mango_ghs.5Cobj.5Cr_adc_main.27::
                         786 .LDWlin27:
0000028e 7f00            787 	jmp	[lp]
                         788 	.type	_R_ADC_ResetCfgParams,@function
                         789 	.size	_R_ADC_ResetCfgParams,.-_R_ADC_ResetCfgParams
                         790 	.align	2
                         791 .LDW51:
                         792 --_ScanGroup	r13	local
                         793 --_VChannel	r1	local
                         794 --_Unit	r12	local
                         795 --_Ull_Num	r11	local
                         796 
                         797 --_Config	r14	param
                         798 
                         799 	.section ".bss","awb"
                         800 .L526:
                         801 	.type	.L526,@object
                         802 	.size	.L526,0
                         803 	.data
                         804 	.text
                         805 
                         806 
                         807 --234: /*******************************************************************************
                         808 --235:   Function: R_ADC_ResetSDCfgParams
                         809 --236:   
                         810 --237:   see: <r_adc_api.h> for details

                                                                      Page 15
                                                              C:\Users\Frank\AppData\Local\Temp\gh_0000n141.si
                         811 --238: */
                         812 --239: void R_ADC_ResetSDCfgParams (r_adc_Config_t * Config)
                         813 	.align	2
                         814 	.align	2
                         815 	.global	_R_ADC_ResetSDCfgParams
                         816 _R_ADC_ResetSDCfgParams:
00000290 0670            817 	mov	r6,r14
                         818 --	    .bf
                         819 .LDW61:
                         820 --240: {
                         821 --241:     uint8_t            VChannel;
                         822 --242:     for (VChannel = 0; VChannel < R_ADC_CHANNEL_MAX_NUM; VChannel ++)
00000292 000a            823 	mov	0,r1
00000294 0000            824 	nop
                         825 .L722:
                         826 --243:     { 
                         827 --244:         Config->VCh[VChannel].SDparams.SDmode  = R_ADC_SD_HOLD;
00000296 e1f62400        828 	mulhi	36,r1,ep
0000029a 0e66b800        829 	addi	184,r14,r12
0000029e ccf1            830 	add	r12,ep
000002a0 0d05            831 	sst.w	zero,24[ep]
                         832 --245:         Config->VCh[VChannel].SDparams.SDinput = R_ADC_SD_ANIN;
000002a2 e1f62400        833 	mulhi	36,r1,ep
000002a6 0e66b800        834 	addi	184,r14,r12
000002aa ccf1            835 	add	r12,ep
000002ac 0f05            836 	sst.w	zero,28[ep]
                         837 --246:         Config->VCh[VChannel].SDparams.volmode = 0;
000002ae e1f62400        838 	mulhi	36,r1,ep
000002b2 0e66b800        839 	addi	184,r14,r12
000002b6 ccf1            840 	add	r12,ep
000002b8 a003            841 	sst.b	zero,32[ep]
000002ba 410a            842 	add	1,r1
000002bc 8100            843 	zxb	r1
000002be 0106daff        844 	addi	-38,r1,zero
000002c2 a9ed*           845 	bnl	.L722
                         846 --247:     }
                         847 --248: }
                         848 --	    .ef
                         849 .LDW71:
                         850 --line248
                         851 ..lin.C.3A.5Cgit.5Crh850.5Csrc.5Capp.5Cgfx_apps.5Csimple_draw.5Ctarget.5Cd1mx_mango_ghs.5Cobj.5Cr_adc_main.28::
                         852 .LDWlin28:
000002c4 7f00            853 	jmp	[lp]
                         854 	.type	_R_ADC_ResetSDCfgParams,@function
                         855 	.size	_R_ADC_ResetSDCfgParams,.-_R_ADC_ResetSDCfgParams
                         856 	.align	2
                         857 .LDW81:
                         858 --_VChannel	r1	local
                         859 
                         860 --_Config	r14	param
                         861 
                         862 	.section ".bss","awb"
                         863 .L778:
                         864 	.type	.L778,@object
                         865 	.size	.L778,0
                         866 	.data
                         867 	.text
                         868 
                         869 
                         870 --251: /*******************************************************************************
                         871 --252:   Function: R_ADC_DeInit

                                                                      Page 16
                                                              C:\Users\Frank\AppData\Local\Temp\gh_0000n141.si
                         872 --253:   
                         873 --254:   see: <r_adc_api.h> for details
                         874 --255: */
                         875 --256: r_adc_Error_t R_ADC_DeInit(uint32_t Unit)
                         876 	.align	2
                         877 	.align	2
                         878 	.global	_R_ADC_DeInit
                         879 _R_ADC_DeInit:
000002c6 be07e170        880 	prepare	{r25,r26,r27,r28,r29,r31},31
000002ca 031e6cfa        881 	addi	-1428,sp,sp
000002ce 06e0            882 	mov	r6,r28
                         883 --	    .bf
                         884 .LDW91:
                         885 --257: {
                         886 --258:     r_adc_Group_t      ScanGroup;
                         887 --259:     uint8_t            VChannel;
                         888 --260:     r_adc_ULLimitCfg_t Ull_Num;
                         889 --261:     r_adc_Config_t     ResetCfg;
                         890 --262:     r_adc_Error_t      ret_val = R_ADC_ERR_NG;
000002d0 01ea            891 	mov	1,r29
                         892 --263:     
                         893 --264:     if (Unit < R_ADC_MACRO_NUM)
000002d2 62e2            894 	cmp	2,r28
000002d4 a95d*           895 	bnl	.L813
                         896 --265:     {
                         897 --266:         R_ADC_Halt(Unit);
                         898 --line266
                         899 ..lin.C.3A.5Cgit.5Crh850.5Csrc.5Capp.5Cgfx_apps.5Csimple_draw.5Ctarget.5Cd1mx_mango_ghs.5Cobj.5Cr_adc_main.29::
                         900 .LDWlin29:
000002d6 1c30            901 	mov	r28,r6
                         902 	jarl	_R_ADC_Halt,lp
                         902 <EXPANSION BEGIN>
                         902 jarl22 _R_ADC_Halt , lp 
000002d8 80ff9e06*       902 <EXPANSION END>
                         903 --267:         R_ADC_ResetCfgParams(&ResetCfg);
                         904 --line267
                         905 ..lin.C.3A.5Cgit.5Crh850.5Csrc.5Capp.5Cgfx_apps.5Csimple_draw.5Ctarget.5Cd1mx_mango_ghs.5Cobj.5Cr_adc_main.30::
                         906 .LDWlin30:
000002dc 23360000        907 	movea	0,sp,r6
                         908 	jarl	_R_ADC_ResetCfgParams,lp
                         908 <EXPANSION BEGIN>
                         908 jarl22 _R_ADC_ResetCfgParams , lp 
000002e0 bffff4fd*       908 <EXPANSION END>
                         909 --268:         
                         910 --269:         ret_val     = R_ADC_Config(Unit, &ResetCfg);
                         911 --line269
                         912 ..lin.C.3A.5Cgit.5Crh850.5Csrc.5Capp.5Cgfx_apps.5Csimple_draw.5Ctarget.5Cd1mx_mango_ghs.5Cobj.5Cr_adc_main.31::
                         913 .LDWlin31:
000002e4 1c30            914 	mov	r28,r6
000002e6 233e0000        915 	movea	0,sp,r7
                         916 	jarl	_R_ADC_Config,lp
                         916 <EXPANSION BEGIN>
                         916 jarl22 _R_ADC_Config , lp 
000002ea 80ffaa00*       916 <EXPANSION END>
000002ee 0ae8            917 	mov	r10,r29
                         918 --270:         if (ret_val != R_ADC_ERR_OK)
                         919 --line270
                         920 ..lin.C.3A.5Cgit.5Crh850.5Csrc.5Capp.5Cgfx_apps.5Csimple_draw.5Ctarget.5Cd1mx_mango_ghs.5Cobj.5Cr_adc_main.32::
                         921 .LDWlin32:
000002f0 e0e9            922 	cmp	zero,r29
000002f2 d205*           923 	be	.L815

                                                                      Page 17
                                                              C:\Users\Frank\AppData\Local\Temp\gh_0000n141.si
                         924 --271:         {
                         925 --272:             R_ADC_ERROR(Unit, R_ADC_ERR_NG, "ADC: General Reset error occurs");
                         926 --line272
                         927 ..lin.C.3A.5Cgit.5Crh850.5Csrc.5Capp.5Cgfx_apps.5Csimple_draw.5Ctarget.5Cd1mx_mango_ghs.5Cobj.5Cr_adc_main.33::
                         928 .LDWlin33:
000002f4 1c30            929 	mov	r28,r6
000002f6 013a            930 	mov	1,r7
                         931 	jarl	_R_ADC_ErrorHandler,lp
                         931 <EXPANSION BEGIN>
                         931 jarl22 _R_ADC_ErrorHandler , lp 
000002f8 80ffa60f*       931 <EXPANSION END>
                         932 .L815:
                         933 --273:         }
                         934 --274:         
                         935 --275:         for (Ull_Num = R_ADC_ULL_0; Ull_Num < R_ADC_ULL_LAST; Ull_Num++)
                         936 --line275
                         937 ..lin.C.3A.5Cgit.5Crh850.5Csrc.5Capp.5Cgfx_apps.5Csimple_draw.5Ctarget.5Cd1mx_mango_ghs.5Cobj.5Cr_adc_main.34::
                         938 .LDWlin34:
000002fc 01ca            939 	mov	1,r25
000002fe 0000            940 	nop
                         941 .L819:
                         942 --276:         {
                         943 --277:             ret_val      = R_ADC_AssignULL(Unit, Ull_Num, &ResetCfg);
00000300 1c30            944 	mov	r28,r6
00000302 1938            945 	mov	r25,r7
00000304 23460000        946 	movea	0,sp,r8
                         947 	jarl	_R_ADC_AssignULL,lp
                         947 <EXPANSION BEGIN>
                         947 jarl22 _R_ADC_AssignULL , lp 
00000308 80ff7e03*       947 <EXPANSION END>
0000030c 0ae8            948 	mov	r10,r29
                         949 --278:             if (ret_val != R_ADC_ERR_OK)
                         950 --line278
                         951 ..lin.C.3A.5Cgit.5Crh850.5Csrc.5Capp.5Cgfx_apps.5Csimple_draw.5Ctarget.5Cd1mx_mango_ghs.5Cobj.5Cr_adc_main.35::
                         952 .LDWlin35:
0000030e e0e9            953 	cmp	zero,r29
00000310 d205*           954 	be	.L820
                         955 --279:             {
                         956 --280:                 R_ADC_ERROR(Unit, R_ADC_ERR_RANGE, "ADC: Upper-lower limit Reset error occurs");
                         957 --line280
                         958 ..lin.C.3A.5Cgit.5Crh850.5Csrc.5Capp.5Cgfx_apps.5Csimple_draw.5Ctarget.5Cd1mx_mango_ghs.5Cobj.5Cr_adc_main.36::
                         959 .LDWlin36:
00000312 1c30            960 	mov	r28,r6
00000314 023a            961 	mov	2,r7
                         962 	jarl	_R_ADC_ErrorHandler,lp
                         962 <EXPANSION BEGIN>
                         962 jarl22 _R_ADC_ErrorHandler , lp 
00000316 80ff880f*       962 <EXPANSION END>
                         963 .L820:
                         964 --line275
                         965 ..lin.C.3A.5Cgit.5Crh850.5Csrc.5Capp.5Cgfx_apps.5Csimple_draw.5Ctarget.5Cd1mx_mango_ghs.5Cobj.5Cr_adc_main.37::
                         966 .LDWlin37:
0000031a 41ca            967 	add	1,r25
0000031c 64ca            968 	cmp	4,r25
0000031e 91f5*           969 	bl	.L819
                         970 --281:             }
                         971 --282:         }
                         972 --283:         
                         973 --284:         
                         974 --285:         /* group config */
                         975 --286:         for (VChannel = 0; VChannel < R_SYS_ADC_MaxChannelNum(Unit); VChannel ++)

                                                                      Page 18
                                                              C:\Users\Frank\AppData\Local\Temp\gh_0000n141.si
                         976 --line286
                         977 ..lin.C.3A.5Cgit.5Crh850.5Csrc.5Capp.5Cgfx_apps.5Csimple_draw.5Ctarget.5Cd1mx_mango_ghs.5Cobj.5Cr_adc_main.38::
                         978 .LDWlin38:
00000320 00da            979 	mov	0,r27
00000322 8515*           980 	br	.L825
                         981 .L824:
                         982 --287:         {
                         983 --288:             ret_val   = R_ACD_ConfigVC (Unit, VChannel, &ResetCfg);
                         984 --line288
                         985 ..lin.C.3A.5Cgit.5Crh850.5Csrc.5Capp.5Cgfx_apps.5Csimple_draw.5Ctarget.5Cd1mx_mango_ghs.5Cobj.5Cr_adc_main.39::
                         986 .LDWlin39:
00000324 1c30            987 	mov	r28,r6
00000326 1b38            988 	mov	r27,r7
00000328 23460000        989 	movea	0,sp,r8
                         990 	jarl	_R_ACD_ConfigVC,lp
                         990 <EXPANSION BEGIN>
                         990 jarl22 _R_ACD_ConfigVC , lp 
0000032c 80ff2601*       990 <EXPANSION END>
00000330 0ae8            991 	mov	r10,r29
                         992 --289:             if (ret_val != R_ADC_ERR_OK)
                         993 --line289
                         994 ..lin.C.3A.5Cgit.5Crh850.5Csrc.5Capp.5Cgfx_apps.5Csimple_draw.5Ctarget.5Cd1mx_mango_ghs.5Cobj.5Cr_adc_main.40::
                         995 .LDWlin40:
00000332 e0e9            996 	cmp	zero,r29
00000334 d205*           997 	be	.L823
                         998 --290:             {
                         999 --291:                 R_ADC_ERROR(Unit, R_ADC_ERR_NG, "ADC: Virtual channel Reset error occurs");
                        1000 --line291
                        1001 ..lin.C.3A.5Cgit.5Crh850.5Csrc.5Capp.5Cgfx_apps.5Csimple_draw.5Ctarget.5Cd1mx_mango_ghs.5Cobj.5Cr_adc_main.41::
                        1002 .LDWlin41:
00000336 1c30           1003 	mov	r28,r6
00000338 013a           1004 	mov	1,r7
                        1005 	jarl	_R_ADC_ErrorHandler,lp
                        1005 <EXPANSION BEGIN>
                        1005 jarl22 _R_ADC_ErrorHandler , lp 
0000033a 80ff640f*      1005 <EXPANSION END>
                        1006 .L823:
                        1007 --line286
                        1008 ..lin.C.3A.5Cgit.5Crh850.5Csrc.5Capp.5Cgfx_apps.5Csimple_draw.5Ctarget.5Cd1mx_mango_ghs.5Cobj.5Cr_adc_main.42::
                        1009 .LDWlin42:
0000033e 41da           1010 	add	1,r27
00000340 9b00           1011 	zxb	r27
                        1012 .L825:
00000342 1c30           1013 	mov	r28,r6
                        1014 	jarl	_R_SYS_ADC_MaxChannelNum,lp
                        1014 <EXPANSION BEGIN>
                        1014 jarl22 _R_SYS_ADC_MaxChannelNum , lp 
00000344 80ff0000*      1014 <EXPANSION END>
00000348 ead9           1015 	cmp	r10,r27
0000034a d1ed*          1016 	bl	.L824
                        1017 --292:             }
                        1018 --293:         }
                        1019 --294:         
                        1020 --295:         for (ScanGroup = R_ADC_CG_1; ScanGroup < R_ADC_CG_PWM; ScanGroup ++)
                        1021 --line295
                        1022 ..lin.C.3A.5Cgit.5Crh850.5Csrc.5Capp.5Cgfx_apps.5Csimple_draw.5Ctarget.5Cd1mx_mango_ghs.5Cobj.5Cr_adc_main.43::
                        1023 .LDWlin43:
0000034c 01d2           1024 	mov	1,r26
0000034e 0000           1025 	nop
                        1026 .L830:
                        1027 --296:         {

                                                                      Page 19
                                                              C:\Users\Frank\AppData\Local\Temp\gh_0000n141.si
                        1028 --297:             ret_val     = R_ADC_ConfigSG(Unit, ScanGroup, &ResetCfg);
00000350 1c30           1029 	mov	r28,r6
00000352 1a38           1030 	mov	r26,r7
00000354 23460000       1031 	movea	0,sp,r8
                        1032 	jarl	_R_ADC_ConfigSG,lp
                        1032 <EXPANSION BEGIN>
                        1032 jarl22 _R_ADC_ConfigSG , lp 
00000358 80ff0e04*      1032 <EXPANSION END>
0000035c 0ae8           1033 	mov	r10,r29
                        1034 --298:             if (ret_val != R_ADC_ERR_OK)
                        1035 --line298
                        1036 ..lin.C.3A.5Cgit.5Crh850.5Csrc.5Capp.5Cgfx_apps.5Csimple_draw.5Ctarget.5Cd1mx_mango_ghs.5Cobj.5Cr_adc_main.44::
                        1037 .LDWlin44:
0000035e e0e9           1038 	cmp	zero,r29
00000360 d205*          1039 	be	.L831
                        1040 --299:             {
                        1041 --300:                 R_ADC_ERROR(Unit, R_ADC_ERR_NG, "ADC: Scan group Reset error occurs");
                        1042 --line300
                        1043 ..lin.C.3A.5Cgit.5Crh850.5Csrc.5Capp.5Cgfx_apps.5Csimple_draw.5Ctarget.5Cd1mx_mango_ghs.5Cobj.5Cr_adc_main.45::
                        1044 .LDWlin45:
00000362 1c30           1045 	mov	r28,r6
00000364 013a           1046 	mov	1,r7
                        1047 	jarl	_R_ADC_ErrorHandler,lp
                        1047 <EXPANSION BEGIN>
                        1047 jarl22 _R_ADC_ErrorHandler , lp 
00000366 80ff380f*      1047 <EXPANSION END>
                        1048 .L831:
                        1049 --line295
                        1050 ..lin.C.3A.5Cgit.5Crh850.5Csrc.5Capp.5Cgfx_apps.5Csimple_draw.5Ctarget.5Cd1mx_mango_ghs.5Cobj.5Cr_adc_main.46::
                        1051 .LDWlin46:
0000036a 41d2           1052 	add	1,r26
0000036c 64d2           1053 	cmp	4,r26
0000036e 91f5*          1054 	bl	.L830
                        1055 --301:             }   
                        1056 --302:         }
                        1057 --303:         R_SYS_ADC_DeInit(Unit);
                        1058 --line303
                        1059 ..lin.C.3A.5Cgit.5Crh850.5Csrc.5Capp.5Cgfx_apps.5Csimple_draw.5Ctarget.5Cd1mx_mango_ghs.5Cobj.5Cr_adc_main.47::
                        1060 .LDWlin47:
00000370 1c30           1061 	mov	r28,r6
                        1062 	jarl	_R_SYS_ADC_DeInit,lp
                        1062 <EXPANSION BEGIN>
                        1062 jarl22 _R_SYS_ADC_DeInit , lp 
00000372 80ff0000*      1062 <EXPANSION END>
                        1063 --304:         r_adc_InitFlag[Unit]      = R_ADC_NO_INIT;
                        1064 --line304
                        1065 ..lin.C.3A.5Cgit.5Crh850.5Csrc.5Capp.5Cgfx_apps.5Csimple_draw.5Ctarget.5Cd1mx_mango_ghs.5Cobj.5Cr_adc_main.48::
                        1066 .LDWlin48:
00000376 1cf0           1067 	mov	r28,ep
00000378 c2f2           1068 	shl	2,ep
0000037a 2e0600000000*  1069 	mov	_r_adc_InitFlag,r14
00000380 cef1           1070 	add	r14,ep
00000382 0105           1071 	sst.w	zero,0[ep]
                        1072 --305:         ret_val                   = R_ADC_ERR_OK;
00000384 00ea           1073 	mov	0,r29
00000386 a505*          1074 	br	.L833
                        1075 .L813:
                        1076 --306:     }
                        1077 --307:     else
                        1078 --308:     {
                        1079 --309:         ret_val                   = R_ADC_ERR_RANGE;

                                                                      Page 20
                                                              C:\Users\Frank\AppData\Local\Temp\gh_0000n141.si
                        1080 --line309
                        1081 ..lin.C.3A.5Cgit.5Crh850.5Csrc.5Capp.5Cgfx_apps.5Csimple_draw.5Ctarget.5Cd1mx_mango_ghs.5Cobj.5Cr_adc_main.49::
                        1082 .LDWlin49:
00000388 02ea           1083 	mov	2,r29
                        1084 .L833:
                        1085 --310:     }
                        1086 --311:     return ret_val;
0000038a 1d50           1087 	mov	r29,r10
                        1088 --	    .ef
                        1089 .LDW02:
0000038c 031e9405       1090 	addi	1428,sp,sp
00000390 7e06ff70       1091 	dispose	31,{r25,r26,r27,r28,r29,r31},[lp]
                        1092 	.type	_R_ADC_DeInit,@function
                        1093 	.size	_R_ADC_DeInit,.-_R_ADC_DeInit
                        1094 	.align	2
                        1095 .LDW12:
                        1096 --_ScanGroup	r26	local
                        1097 --_VChannel	r27	local
                        1098 --_Ull_Num	r25	local
                        1099 --_ResetCfg	0[sp]	local
                        1100 --_ret_val	r29	local
                        1101 
                        1102 --_Unit	r28	param
                        1103 
                        1104 	.section ".bss","awb"
                        1105 .L990:
                        1106 	.type	.L990,@object
                        1107 	.size	.L990,0
                        1108 	.data
                        1109 	.text
                        1110 
                        1111 --312: }
                        1112 
                        1113 --315: /*******************************************************************************
                        1114 --316:   Function: R_ACD_Config
                        1115 --317:   
                        1116 --318:   see: <r_adc_api.h> for details
                        1117 --319: */
                        1118 --320: r_adc_Error_t R_ADC_Config(uint32_t Unit, r_adc_Config_t *Config)
                        1119 	.align	2
                        1120 	.align	2
                        1121 	.global	_R_ADC_Config
                        1122 _R_ADC_Config:
00000394 8207e170       1123 	prepare	{r25,r26,r27,r28,r29,r31},1
00000398 06d0           1124 	mov	r6,r26
0000039a 07d8           1125 	mov	r7,r27
                        1126 --	    .bf
                        1127 .LDW22:
                        1128 --321: {
                        1129 --322:     uint32_t      addr    = 0;
0000039c 00ea           1130 	mov	0,r29
                        1131 --323:     uint32_t      reg_val = 0;
0000039e 00e2           1132 	mov	0,r28
                        1133 --324:     r_adc_Error_t ret_val = R_ADC_ERR_NG;
000003a0 01ca           1134 	mov	1,r25
                        1135 --326:     if (Unit < R_ADC_MACRO_NUM)
000003a2 62d2           1136 	cmp	2,r26
000003a4 b955*          1137 	bnl	.L1100
                        1138 --327:     {
                        1139 --328:         addr    = r_adc_Unit[Unit].BaseAddr + R_ADC_ADCR;
                        1140 --line328

                                                                      Page 21
                                                              C:\Users\Frank\AppData\Local\Temp\gh_0000n141.si
                        1141 ..lin.C.3A.5Cgit.5Crh850.5Csrc.5Capp.5Cgfx_apps.5Csimple_draw.5Ctarget.5Cd1mx_mango_ghs.5Cobj.5Cr_adc_main.50::
                        1142 .LDWlin50:
000003a6 1af0           1143 	mov	r26,ep
000003a8 fe00           1144 	sxh	ep
000003aa fef61001       1145 	mulhi	272,ep,ep
000003ae 2b0600000000*  1146 	mov	_r_adc_Unit,r11
000003b4 cbf1           1147 	add	r11,ep
000003b6 00ed           1148 	sld.w	0[ep],r29
000003b8 1dee0403       1149 	addi	772,r29,r29
                        1150 --329:         reg_val = (Config->Align << 5u) | (Config->Res << 4u) | (Config->SuspendMode);
000003bc 3b0f0900       1151 	ld.w	8[r27],r1
000003c0 3b770100       1152 	ld.w	0[r27],r14
000003c4 c50a           1153 	shl	5,r1
000003c6 c472           1154 	shl	4,r14
000003c8 0171           1155 	or	r1,r14
000003ca 3b0f0d00       1156 	ld.w	12[r27],r1
000003ce 01e0           1157 	mov	r1,r28
000003d0 0ee1           1158 	or	r14,r28
                        1159 --330:         R_ADC_WRITE_REG(32, addr, reg_val);
000003d2 7de70100       1160 	st.w	r28,0[r29]
                        1161 --331:         
                        1162 --332:         if (R_SYS_ADC_SmpTimeAvailable(Unit, (Config->SmpTime)) == R_ADC_ERR_OK)
000003d6 fb3f1500       1163 	ld.hu	20[r27],r7
000003da 1a30           1164 	mov	r26,r6
                        1165 	jarl	_R_SYS_ADC_SmpTimeAvailable,lp
                        1165 <EXPANSION BEGIN>
                        1165 jarl22 _R_SYS_ADC_SmpTimeAvailable , lp 
000003dc 80ff0000*      1165 <EXPANSION END>
000003e0 e051           1166 	cmp	zero,r10
000003e2 8a15*          1167 	bne	.L1102
                        1168 --333:         {
                        1169 --334:             addr    = r_adc_Unit[Unit].BaseAddr + R_ADC_SMPCR;
                        1170 --line334
                        1171 ..lin.C.3A.5Cgit.5Crh850.5Csrc.5Capp.5Cgfx_apps.5Csimple_draw.5Ctarget.5Cd1mx_mango_ghs.5Cobj.5Cr_adc_main.51::
                        1172 .LDWlin51:
000003e4 1af0           1173 	mov	r26,ep
000003e6 fe00           1174 	sxh	ep
000003e8 fef61001       1175 	mulhi	272,ep,ep
000003ec 2b0600000000*  1176 	mov	_r_adc_Unit,r11
000003f2 cbf1           1177 	add	r11,ep
000003f4 00ed           1178 	sld.w	0[ep],r29
000003f6 1dee8003       1179 	addi	896,r29,r29
                        1180 --335:             reg_val = Config->SmpTime;
000003fa fbe71500       1181 	ld.hu	20[r27],r28
                        1182 --336:             R_ADC_WRITE_REG(16, addr, reg_val);
000003fe 7de70000       1183 	st.h	r28,0[r29]
                        1184 .L1102:
                        1185 --337:         }
                        1186 --338:         
                        1187 --339:         addr    = r_adc_Unit[Unit].BaseAddr + R_ADC_SFTCR;
00000402 1af0           1188 	mov	r26,ep
00000404 fe00           1189 	sxh	ep
00000406 fef61001       1190 	mulhi	272,ep,ep
0000040a 2b0600000000*  1191 	mov	_r_adc_Unit,r11
00000410 cbf1           1192 	add	r11,ep
00000412 00ed           1193 	sld.w	0[ep],r29
00000414 1dee3403       1194 	addi	820,r29,r29
                        1195 --340:         reg_val = (Config->ResTreat << 4u) | (Config->ULErrInfo << 3u) | (Config->OWErrInfo << 2u);
00000418 3b0f0500       1196 	ld.w	4[r27],r1
0000041c 3b773900       1197 	ld.w	56[r27],r14
00000420 c40a           1198 	shl	4,r1

                                                                      Page 22
                                                              C:\Users\Frank\AppData\Local\Temp\gh_0000n141.si
00000422 c372           1199 	shl	3,r14
00000424 0171           1200 	or	r1,r14
00000426 3b0f3d00       1201 	ld.w	60[r27],r1
0000042a c20a           1202 	shl	2,r1
0000042c 01e0           1203 	mov	r1,r28
0000042e 0ee1           1204 	or	r14,r28
                        1205 --341:         R_ADC_WRITE_REG(32, addr, reg_val);
00000430 7de70100       1206 	st.w	r28,0[r29]
                        1207 --342:         
                        1208 --343:         r_adc_OWInitFlag[Unit] = Config->OWErrInfo;
00000434 3b0f3d00       1209 	ld.w	60[r27],r1
00000438 1af0           1210 	mov	r26,ep
0000043a c2f2           1211 	shl	2,ep
0000043c 2e0600000000*  1212 	mov	_r_adc_OWInitFlag,r14
00000442 cef1           1213 	add	r14,ep
00000444 010d           1214 	sst.w	r1,0[ep]
                        1215 --344:               
                        1216 --345:         ret_val = R_ADC_ERR_OK;
00000446 00ca           1217 	mov	0,r25
00000448 a505*          1218 	br	.L1104
                        1219 .L1100:
                        1220 --346:     }
                        1221 --347:     else
                        1222 --348:     {
                        1223 --349:         ret_val = R_ADC_ERR_RANGE;
                        1224 --line349
                        1225 ..lin.C.3A.5Cgit.5Crh850.5Csrc.5Capp.5Cgfx_apps.5Csimple_draw.5Ctarget.5Cd1mx_mango_ghs.5Cobj.5Cr_adc_main.52::
                        1226 .LDWlin52:
0000044a 02ca           1227 	mov	2,r25
                        1228 .L1104:
                        1229 --350:     }
                        1230 --351:     return ret_val;
0000044c 1950           1231 	mov	r25,r10
                        1232 --	    .ef
                        1233 .LDW32:
0000044e 4206ff70       1234 	dispose	1,{r25,r26,r27,r28,r29,r31},[lp]
                        1235 	.type	_R_ADC_Config,@function
                        1236 	.size	_R_ADC_Config,.-_R_ADC_Config
                        1237 	.align	2
                        1238 .LDW42:
                        1239 --_addr	r29	local
                        1240 --_reg_val	r28	local
                        1241 --_ret_val	r25	local
                        1242 
                        1243 --_Unit	r26	param
                        1244 --_Config	r27	param
                        1245 
                        1246 	.section ".bss","awb"
                        1247 .L1186:
                        1248 	.type	.L1186,@object
                        1249 	.size	.L1186,0
                        1250 	.data
                        1251 	.text
                        1252 
                        1253 --352: }
                        1254 
                        1255 --355: /*******************************************************************************
                        1256 --356:   Function: R_ACD_ConfigVC
                        1257 --357:   
                        1258 --358:   see: <r_adc_api.h> for details
                        1259 --359: */

                                                                      Page 23
                                                              C:\Users\Frank\AppData\Local\Temp\gh_0000n141.si
                        1260 --360: r_adc_Error_t R_ACD_ConfigVC (uint32_t    Unit, 
                        1261 	.align	2
                        1262 	.align	2
                        1263 	.global	_R_ACD_ConfigVC
                        1264 _R_ACD_ConfigVC:
00000452 8807e170       1265 	prepare	{r25,r26,r27,r28,r29,r31},4
00000456 63370d00       1266 	st.w	r6,12[sp]
0000045a c7deff00       1267 	andi	255,r7,r27
0000045e 08e8           1268 	mov	r8,r29
                        1269 --	    .bf
                        1270 .LDW52:
                        1271 --361:                               uint8_t          Channel, 
                        1272 --362:                               r_adc_Config_t * ChCfg)
                        1273 --363: {
                        1274 --364:     uint32_t      addr    = 0;
00000460 00d2           1275 	mov	0,r26
                        1276 --365:     uint32_t      reg_val = 0;
00000462 00e2           1277 	mov	0,r28
                        1278 --366:     uint32_t      temp = 0;
00000464 00ca           1279 	mov	0,r25
                        1280 --367:     r_adc_Error_t ret_val = R_ADC_ERR_NG;
00000466 015a           1281 	mov	1,r11
00000468 635f0100       1282 	st.w	r11,0[sp]
                        1283 --368:     if (Unit < R_ADC_MACRO_NUM)
0000046c 235f0d00       1284 	ld.w	12[sp],r11
00000470 625a           1285 	cmp	2,r11
00000472 e9070702*      1286 	bnl	.L1251
                        1287 --369:     {
                        1288 --370:         addr = r_adc_Unit[Unit].BaseAddr + R_ADC_VCR(Channel);
                        1289 --line370
                        1290 ..lin.C.3A.5Cgit.5Crh850.5Csrc.5Capp.5Cgfx_apps.5Csimple_draw.5Ctarget.5Cd1mx_mango_ghs.5Cobj.5Cr_adc_main.53::
                        1291 .LDWlin53:
00000476 235f0d00       1292 	ld.w	12[sp],r11
0000047a 0bf0           1293 	mov	r11,ep
0000047c fe00           1294 	sxh	ep
0000047e fef61001       1295 	mulhi	272,ep,ep
00000482 2c0600000000*  1296 	mov	_r_adc_Unit,r12
00000488 ccf1           1297 	add	r12,ep
0000048a 0075           1298 	sld.w	0[ep],r14
0000048c 1b08           1299 	mov	r27,r1
0000048e c20a           1300 	shl	2,r1
00000490 01d0           1301 	mov	r1,r26
00000492 ced1           1302 	add	r14,r26
                        1303 --371:         if (Channel < R_SYS_ADC_MaxChannelNum(Unit))
00000494 23370d00       1304 	ld.w	12[sp],r6
                        1305 	jarl	_R_SYS_ADC_MaxChannelNum,lp
                        1305 <EXPANSION BEGIN>
                        1305 jarl22 _R_SYS_ADC_MaxChannelNum , lp 
00000498 80ff0000*      1305 <EXPANSION END>
0000049c ead9           1306 	cmp	r10,r27
0000049e e907e101*      1307 	bnl	.L1278
                        1308 --372:         {
                        1309 --373:             if ((ChCfg->VCh[Channel]).MPXEnable)
                        1310 --line373
                        1311 ..lin.C.3A.5Cgit.5Crh850.5Csrc.5Capp.5Cgfx_apps.5Csimple_draw.5Ctarget.5Cd1mx_mango_ghs.5Cobj.5Cr_adc_main.54::
                        1312 .LDWlin54:
000004a2 fbf62400       1313 	mulhi	36,r27,ep
000004a6 1d76b800       1314 	addi	184,r29,r14
000004aa cef1           1315 	add	r14,ep
000004ac 000d           1316 	sld.w	0[ep],r1
000004ae e009           1317 	cmp	zero,r1

                                                                      Page 24
                                                              C:\Users\Frank\AppData\Local\Temp\gh_0000n141.si
000004b0 9225*          1318 	be	.L1255
                        1319 --374:             {
                        1320 --375:                 if (R_SYS_ADC_MUXAvailable(Unit, ((ChCfg->VCh[Channel]).MPXAddr)) == R_ADC_ERR_OK)
                        1321 --line375
                        1322 ..lin.C.3A.5Cgit.5Crh850.5Csrc.5Capp.5Cgfx_apps.5Csimple_draw.5Ctarget.5Cd1mx_mango_ghs.5Cobj.5Cr_adc_main.55::
                        1323 .LDWlin55:
000004b2 fbf62400       1324 	mulhi	36,r27,ep
000004b6 1d76b800       1325 	addi	184,r29,r14
000004ba 23370d00       1326 	ld.w	12[sp],r6
000004be cef1           1327 	add	r14,ep
000004c0 7238           1328 	sld.hu	4[ep],r7
                        1329 	jarl	_R_SYS_ADC_MUXAvailable,lp
                        1329 <EXPANSION BEGIN>
                        1329 jarl22 _R_SYS_ADC_MUXAvailable , lp 
000004c2 80ff0000*      1329 <EXPANSION END>
000004c6 e051           1330 	cmp	zero,r10
000004c8 8a15*          1331 	bne	.L1257
                        1332 --376:                 {
                        1333 --377:                     reg_val = ((ChCfg->VCh[Channel]).MPXEnable << 15u) | ((ChCfg->VCh[Channel]).MPXAddr << 12u);
                        1334 --line377
                        1335 ..lin.C.3A.5Cgit.5Crh850.5Csrc.5Capp.5Cgfx_apps.5Csimple_draw.5Ctarget.5Cd1mx_mango_ghs.5Cobj.5Cr_adc_main.56::
                        1336 .LDWlin56:
000004ca fbf62400       1337 	mulhi	36,r27,ep
000004ce 1d6eb800       1338 	addi	184,r29,r13
000004d2 cdf1           1339 	add	r13,ep
000004d4 000d           1340 	sld.w	0[ep],r1
000004d6 fbf62400       1341 	mulhi	36,r27,ep
000004da cdf1           1342 	add	r13,ep
000004dc 7270           1343 	sld.hu	4[ep],r14
000004de cf0a           1344 	shl	15,r1
000004e0 cc72           1345 	shl	12,r14
000004e2 0ee0           1346 	mov	r14,r28
000004e4 01e1           1347 	or	r1,r28
000004e6 e505*          1348 	br	.L1255
                        1349 .L1257:
                        1350 --378:                 }
                        1351 --379:                 else
                        1352 --380:                 {
                        1353 --381:                     R_ADC_ERROR(Unit, R_ADC_ERR_NG, "ADC: Multiplexer configeration error occurs");
                        1354 --line381
                        1355 ..lin.C.3A.5Cgit.5Crh850.5Csrc.5Capp.5Cgfx_apps.5Csimple_draw.5Ctarget.5Cd1mx_mango_ghs.5Cobj.5Cr_adc_main.57::
                        1356 .LDWlin57:
000004e8 23370d00       1357 	ld.w	12[sp],r6
000004ec 013a           1358 	mov	1,r7
                        1359 	jarl	_R_ADC_ErrorHandler,lp
                        1359 <EXPANSION BEGIN>
                        1359 jarl22 _R_ADC_ErrorHandler , lp 
000004ee 80ffb00d*      1359 <EXPANSION END>
                        1360 .L1255:
                        1361 --382:                 }
                        1362 --383:             }
                        1363 --385:             if ((ChCfg->VCh[Channel]).phyChannel < R_SYS_ADC_MaxChannelNum(Unit))
                        1364 --line385
                        1365 ..lin.C.3A.5Cgit.5Crh850.5Csrc.5Capp.5Cgfx_apps.5Csimple_draw.5Ctarget.5Cd1mx_mango_ghs.5Cobj.5Cr_adc_main.58::
                        1366 .LDWlin58:
000004f2 fb0e2400       1367 	mulhi	36,r27,r1
000004f6 23370d00       1368 	ld.w	12[sp],r6
000004fa 1d76b800       1369 	addi	184,r29,r14
000004fe ce09           1370 	add	r14,r1
00000500 630f0900       1371 	st.w	r1,8[sp]
                        1372 	jarl	_R_SYS_ADC_MaxChannelNum,lp

                                                                      Page 25
                                                              C:\Users\Frank\AppData\Local\Temp\gh_0000n141.si
                        1372 <EXPANSION BEGIN>
                        1372 jarl22 _R_SYS_ADC_MaxChannelNum , lp 
00000504 80ff0000*      1372 <EXPANSION END>
00000508 230f0900       1373 	ld.w	8[sp],r1
0000050c e10f1100       1374 	ld.hu	16[r1],r1
00000510 ea09           1375 	cmp	r10,r1
00000512 e9075f01*      1376 	bnl	.L1260
                        1377 --386:             {
                        1378 --387:                 reg_val |= ((ChCfg->VCh[Channel]).INT_VCEnd << 8u) | ((ChCfg->VCh[Channel]).ULLCheck << 6u) | ((ChCfg->VCh[Channel]).phyChannel);
                        1379 --line387
                        1380 ..lin.C.3A.5Cgit.5Crh850.5Csrc.5Capp.5Cgfx_apps.5Csimple_draw.5Ctarget.5Cd1mx_mango_ghs.5Cobj.5Cr_adc_main.59::
                        1381 .LDWlin59:
00000516 fbf62400       1382 	mulhi	36,r27,ep
0000051a 1d6eb800       1383 	addi	184,r29,r13
0000051e cdf1           1384 	add	r13,ep
00000520 040d           1385 	sld.w	8[ep],r1
00000522 fbf62400       1386 	mulhi	36,r27,ep
00000526 cdf1           1387 	add	r13,ep
00000528 0675           1388 	sld.w	12[ep],r14
0000052a fbf62400       1389 	mulhi	36,r27,ep
0000052e c80a           1390 	shl	8,r1
00000530 c672           1391 	shl	6,r14
00000532 cdf1           1392 	add	r13,ep
00000534 0171           1393 	or	r1,r14
00000536 7808           1394 	sld.hu	16[ep],r1
00000538 0e09           1395 	or	r14,r1
0000053a 01e1           1396 	or	r1,r28
                        1397 --388:                 R_ADC_WRITE_REG(32, addr, reg_val);
0000053c 7ae70100       1398 	st.w	r28,0[r26]
                        1399 --389:                 r_adc_ChEndFlag[Unit] = ((ChCfg->VCh[Channel]).INT_VCEnd);
00000540 230f0d00       1400 	ld.w	12[sp],r1
00000544 1d76b800       1401 	addi	184,r29,r14
00000548 3e0600000000*  1402 	mov	_r_adc_ChEndFlag,ep
0000054e c20a           1403 	shl	2,r1
00000550 c1f1           1404 	add	r1,ep
00000552 fb0e2400       1405 	mulhi	36,r27,r1
00000556 ce09           1406 	add	r14,r1
00000558 210f0900       1407 	ld.w	8[r1],r1
0000055c 010d           1408 	sst.w	r1,0[ep]
                        1409 --390:                 addr    = r_adc_Unit[Unit].BaseAddr + R_ADC_PDCTL2;
0000055e 235f0d00       1410 	ld.w	12[sp],r11
00000562 2c0600000000*  1411 	mov	_r_adc_Unit,r12
00000568 0bf0           1412 	mov	r11,ep
0000056a fe00           1413 	sxh	ep
0000056c fef61001       1414 	mulhi	272,ep,ep
00000570 ccf1           1415 	add	r12,ep
00000572 00d5           1416 	sld.w	0[ep],r26
00000574 1ad65c03       1417 	addi	860,r26,r26
                        1418 --391:                 /* enable PD */
                        1419 --392:                 if ((ChCfg->VCh[Channel]).phyChPD)
00000578 fbf62400       1420 	mulhi	36,r27,ep
0000057c 1d76b800       1421 	addi	184,r29,r14
00000580 cef1           1422 	add	r14,ep
00000582 0a0d           1423 	sld.w	20[ep],r1
00000584 e009           1424 	cmp	zero,r1
00000586 c23d*          1425 	be	.L1262
                        1426 --393:                 {
                        1427 --394:                     if ((ChCfg->VCh[Channel]).phyChannel <= 15u)
                        1428 --line394
                        1429 ..lin.C.3A.5Cgit.5Crh850.5Csrc.5Capp.5Cgfx_apps.5Csimple_draw.5Ctarget.5Cd1mx_mango_ghs.5Cobj.5Cr_adc_main.60::
                        1430 .LDWlin60:

                                                                      Page 26
                                                              C:\Users\Frank\AppData\Local\Temp\gh_0000n141.si
00000588 fbf62400       1431 	mulhi	36,r27,ep
0000058c 1d76b800       1432 	addi	184,r29,r14
00000590 cef1           1433 	add	r14,ep
00000592 7808           1434 	sld.hu	16[ep],r1
00000594 6f0a           1435 	cmp	15,r1
00000596 db15*          1436 	bh	.L1264
                        1437 --395:                     {
                        1438 --396:                         reg_val = (ChCfg->VCh[Channel]).phyChPD << (ChCfg->VCh[Channel]).phyChannel + 16;
                        1439 --line396
                        1440 ..lin.C.3A.5Cgit.5Crh850.5Csrc.5Capp.5Cgfx_apps.5Csimple_draw.5Ctarget.5Cd1mx_mango_ghs.5Cobj.5Cr_adc_main.61::
                        1441 .LDWlin61:
00000598 fb0e2400       1442 	mulhi	36,r27,r1
0000059c 1d76b800       1443 	addi	184,r29,r14
000005a0 ce09           1444 	add	r14,r1
000005a2 01f0           1445 	mov	r1,ep
000005a4 0a75           1446 	sld.w	20[ep],r14
000005a6 e10f1100       1447 	ld.hu	16[r1],r1
000005aa 010e1000       1448 	addi	16,r1,r1
000005ae e177c2e0       1449 	shl	r1,r14,r28
                        1450 --397:                         temp = R_ADC_READ_REG(32, addr);
000005b2 3acf0100       1451 	ld.w	0[r26],r25
                        1452 --398:                         R_ADC_WRITE_REG(32, addr, reg_val | temp);
000005b6 1908           1453 	mov	r25,r1
000005b8 1c09           1454 	or	r28,r1
000005ba 7a0f0100       1455 	st.w	r1,0[r26]
000005be c51d*          1456 	br	.L1266
                        1457 .L1264:
                        1458 --399:                     }
                        1459 --400:                     else if ((ChCfg->VCh[Channel]).phyChannel >= 16)
                        1460 --line400
                        1461 ..lin.C.3A.5Cgit.5Crh850.5Csrc.5Capp.5Cgfx_apps.5Csimple_draw.5Ctarget.5Cd1mx_mango_ghs.5Cobj.5Cr_adc_main.62::
                        1462 .LDWlin62:
000005c0 fbf62400       1463 	mulhi	36,r27,ep
000005c4 1d76b800       1464 	addi	184,r29,r14
000005c8 cef1           1465 	add	r14,ep
000005ca 7808           1466 	sld.hu	16[ep],r1
000005cc 0106f0ff       1467 	addi	-16,r1,zero
000005d0 b915*          1468 	bnl	.L1266
                        1469 --401:                     {
                        1470 --402:                         reg_val = (ChCfg->VCh[Channel]).phyChPD << ((ChCfg->VCh[Channel]).phyChannel - 16);
                        1471 --line402
                        1472 ..lin.C.3A.5Cgit.5Crh850.5Csrc.5Capp.5Cgfx_apps.5Csimple_draw.5Ctarget.5Cd1mx_mango_ghs.5Cobj.5Cr_adc_main.63::
                        1473 .LDWlin63:
000005d2 fb0e2400       1474 	mulhi	36,r27,r1
000005d6 1d76b800       1475 	addi	184,r29,r14
000005da ce09           1476 	add	r14,r1
000005dc 01f0           1477 	mov	r1,ep
000005de 0a75           1478 	sld.w	20[ep],r14
000005e0 e10f1100       1479 	ld.hu	16[r1],r1
000005e4 500a           1480 	add	-16,r1
000005e6 e177c2e0       1481 	shl	r1,r14,r28
                        1482 --403:                         temp = R_ADC_READ_REG(32, addr);
000005ea 3acf0100       1483 	ld.w	0[r26],r25
                        1484 --404:                         R_ADC_WRITE_REG(32, addr, reg_val | temp);
000005ee 1908           1485 	mov	r25,r1
000005f0 1c09           1486 	or	r28,r1
000005f2 7a0f0100       1487 	st.w	r1,0[r26]
                        1488 .L1266:
                        1489 --405:                     }
                        1490 --406:                     else
                        1491 --407:                     {}

                                                                      Page 27
                                                              C:\Users\Frank\AppData\Local\Temp\gh_0000n141.si
                        1492 --409:                     ret_val = R_ADC_ERR_OK;
000005f6 63070100       1493 	st.w	zero,0[sp]
000005fa 005a           1494 	mov	0,r11
000005fc 9545*          1495 	br	.L1278
                        1496 .L1262:
                        1497 --410:                 }
                        1498 --411:                 else /* disable PD */
                        1499 --412:                 {
                        1500 --413:                     if ((ChCfg->VCh[Channel]).phyChannel <= 15u)
                        1501 --line413
                        1502 ..lin.C.3A.5Cgit.5Crh850.5Csrc.5Capp.5Cgfx_apps.5Csimple_draw.5Ctarget.5Cd1mx_mango_ghs.5Cobj.5Cr_adc_main.64::
                        1503 .LDWlin64:
000005fe fbf62400       1504 	mulhi	36,r27,ep
00000602 1d76b800       1505 	addi	184,r29,r14
00000606 cef1           1506 	add	r14,ep
00000608 7808           1507 	sld.hu	16[ep],r1
0000060a 6f0a           1508 	cmp	15,r1
0000060c cb15*          1509 	bh	.L1271
                        1510 --414:                     {
                        1511 --415:                         reg_val = 1 << (ChCfg->VCh[Channel]).phyChannel + 16;
                        1512 --line415
                        1513 ..lin.C.3A.5Cgit.5Crh850.5Csrc.5Capp.5Cgfx_apps.5Csimple_draw.5Ctarget.5Cd1mx_mango_ghs.5Cobj.5Cr_adc_main.65::
                        1514 .LDWlin65:
0000060e fbf62400       1515 	mulhi	36,r27,ep
00000612 1d76b800       1516 	addi	184,r29,r14
00000616 cef1           1517 	add	r14,ep
00000618 7808           1518 	sld.hu	16[ep],r1
0000061a 0172           1519 	mov	1,r14
0000061c 010e1000       1520 	addi	16,r1,r1
00000620 e177c2e0       1521 	shl	r1,r14,r28
                        1522 --416:                         temp = R_ADC_READ_REG(32, addr);
00000624 3acf0100       1523 	ld.w	0[r26],r25
                        1524 --417:                         reg_val = (~reg_val & 0xFFFFFFFFul) & temp;
00000628 3c08           1525 	not	r28,r1
0000062a 5909           1526 	and	r25,r1
0000062c 01e0           1527 	mov	r1,r28
                        1528 --418:                         R_ADC_WRITE_REG(32, addr, reg_val);
0000062e 7ae70100       1529 	st.w	r28,0[r26]
00000632 b51d*          1530 	br	.L1273
                        1531 .L1271:
                        1532 --419:                     }
                        1533 --420:                     else if ((ChCfg->VCh[Channel]).phyChannel >= 16)
                        1534 --line420
                        1535 ..lin.C.3A.5Cgit.5Crh850.5Csrc.5Capp.5Cgfx_apps.5Csimple_draw.5Ctarget.5Cd1mx_mango_ghs.5Cobj.5Cr_adc_main.66::
                        1536 .LDWlin66:
00000634 fbf62400       1537 	mulhi	36,r27,ep
00000638 1d76b800       1538 	addi	184,r29,r14
0000063c cef1           1539 	add	r14,ep
0000063e 7808           1540 	sld.hu	16[ep],r1
00000640 0106f0ff       1541 	addi	-16,r1,zero
00000644 a915*          1542 	bnl	.L1273
                        1543 --421:                     {
                        1544 --422:                         reg_val = 1 << (ChCfg->VCh[Channel]).phyChannel - 16;
                        1545 --line422
                        1546 ..lin.C.3A.5Cgit.5Crh850.5Csrc.5Capp.5Cgfx_apps.5Csimple_draw.5Ctarget.5Cd1mx_mango_ghs.5Cobj.5Cr_adc_main.67::
                        1547 .LDWlin67:
00000646 fbf62400       1548 	mulhi	36,r27,ep
0000064a 1d76b800       1549 	addi	184,r29,r14
0000064e cef1           1550 	add	r14,ep
00000650 7808           1551 	sld.hu	16[ep],r1
00000652 0172           1552 	mov	1,r14

                                                                      Page 28
                                                              C:\Users\Frank\AppData\Local\Temp\gh_0000n141.si
00000654 500a           1553 	add	-16,r1
00000656 e177c2e0       1554 	shl	r1,r14,r28
                        1555 --423:                         temp = R_ADC_READ_REG(32, addr);
0000065a 3acf0100       1556 	ld.w	0[r26],r25
                        1557 --424:                         reg_val = (~reg_val & 0xFFFFFFFFul) & temp;
0000065e 3c08           1558 	not	r28,r1
00000660 5909           1559 	and	r25,r1
00000662 01e0           1560 	mov	r1,r28
                        1561 --425:                         R_ADC_WRITE_REG(32, addr, reg_val);
00000664 7ae70100       1562 	st.w	r28,0[r26]
                        1563 .L1273:
                        1564 --426:                     }
                        1565 --427:                     else
                        1566 --428:                     {}
                        1567 --430:                     ret_val = R_ADC_ERR_OK;
00000668 63070100       1568 	st.w	zero,0[sp]
0000066c 005a           1569 	mov	0,r11
0000066e 850d*          1570 	br	.L1278
                        1571 .L1260:
                        1572 --431:                 }
                        1573 --432:             }
                        1574 --433:             else
                        1575 --434:             {
                        1576 --435:                 ret_val = R_ADC_PARAM_CONFIG;
                        1577 --line435
                        1578 ..lin.C.3A.5Cgit.5Crh850.5Csrc.5Capp.5Cgfx_apps.5Csimple_draw.5Ctarget.5Cd1mx_mango_ghs.5Cobj.5Cr_adc_main.68::
                        1579 .LDWlin68:
00000670 0e5a           1580 	mov	14,r11
00000672 635f0100       1581 	st.w	r11,0[sp]
00000676 c505*          1582 	br	.L1278
                        1583 .L1251:
                        1584 --436:             }
                        1585 --437:         }
                        1586 --438:     }
                        1587 --439:     else
                        1588 --440:     {
                        1589 --441:         ret_val = R_ADC_ERR_RANGE;
                        1590 --line441
                        1591 ..lin.C.3A.5Cgit.5Crh850.5Csrc.5Capp.5Cgfx_apps.5Csimple_draw.5Ctarget.5Cd1mx_mango_ghs.5Cobj.5Cr_adc_main.69::
                        1592 .LDWlin69:
00000678 025a           1593 	mov	2,r11
0000067a 635f0100       1594 	st.w	r11,0[sp]
                        1595 .L1278:
                        1596 --442:     }
                        1597 --443:     return ret_val;
0000067e 23570100       1598 	ld.w	0[sp],r10
                        1599 --	    .ef
                        1600 .LDW62:
00000682 4806ff70       1601 	dispose	4,{r25,r26,r27,r28,r29,r31},[lp]
                        1602 	.type	_R_ACD_ConfigVC,@function
                        1603 	.size	_R_ACD_ConfigVC,.-_R_ACD_ConfigVC
                        1604 	.align	2
                        1605 .LDW72:
                        1606 --_addr	r26	local
                        1607 --_reg_val	r28	local
                        1608 --_temp	r25	local
                        1609 --_ret_val	0[sp]	local
                        1610 
                        1611 --_Unit	12[sp]	param
                        1612 --_Channel	r27	param
                        1613 --_ChCfg	r29	param

                                                                      Page 29
                                                              C:\Users\Frank\AppData\Local\Temp\gh_0000n141.si
                        1614 
                        1615 	.section ".bss","awb"
                        1616 .L1450:
                        1617 	.type	.L1450,@object
                        1618 	.size	.L1450,0
                        1619 	.data
                        1620 	.text
                        1621 
                        1622 --444: }
                        1623 
                        1624 --447: /*******************************************************************************
                        1625 --448:   Function: R_ADC_AssignULL
                        1626 --449:   
                        1627 --450:   see: <r_adc_api.h> for details
                        1628 --451: */
                        1629 --452: r_adc_Error_t R_ADC_AssignULL(uint32_t              Unit, 
                        1630 	.align	2
                        1631 	.align	2
                        1632 	.global	_R_ADC_AssignULL
                        1633 _R_ADC_AssignULL:
00000686 8007c110       1634 	prepare	{r27,r28,r29},0
0000068a 0650           1635 	mov	r6,r10
0000068c 0758           1636 	mov	r7,r11
0000068e 0868           1637 	mov	r8,r13
00000690 290600000000*  1638 	mov	_r_adc_Unit,r9
                        1639 --	    .bf
                        1640 .LDW82:
                        1641 --453:                               r_adc_ULLimitCfg_t Ull_Num,
                        1642 --454:                               r_adc_Config_t *   Config)
                        1643 --455: {
                        1644 --456:     uint32_t            addr    = 0;
00000696 000a           1645 	mov	0,r1
                        1646 --457:     uint32_t            reg_val = 0;
00000698 0062           1647 	mov	0,r12
                        1648 --458:     r_adc_Error_t       ret_val = R_ADC_ERR_NG;
0000069a 0172           1649 	mov	1,r14
                        1650 --459:     if (Unit < R_ADC_MACRO_NUM)
0000069c 6252           1651 	cmp	2,r10
0000069e f95d*          1652 	bnl	.L1581
                        1653 --460:     { 
                        1654 --461:         if (Ull_Num < R_ADC_ULL_LAST)
                        1655 --line461
                        1656 ..lin.C.3A.5Cgit.5Crh850.5Csrc.5Capp.5Cgfx_apps.5Csimple_draw.5Ctarget.5Cd1mx_mango_ghs.5Cobj.5Cr_adc_main.70::
                        1657 .LDWlin70:
000006a0 645a           1658 	cmp	4,r11
000006a2 e95d*          1659 	bnl	.L1598
                        1660 --462:         {
                        1661 --463:             if ((Config->ULL[Ull_Num]).Upper_Limit == 0xfff && (Config->ULL[Ull_Num]).Lower_Limit == 0)
                        1662 --line463
                        1663 ..lin.C.3A.5Cgit.5Crh850.5Csrc.5Capp.5Cgfx_apps.5Csimple_draw.5Ctarget.5Cd1mx_mango_ghs.5Cobj.5Cr_adc_main.71::
                        1664 .LDWlin71:
000006a4 0bf0           1665 	mov	r11,ep
000006a6 c3f2           1666 	shl	3,ep
000006a8 0de61800       1667 	addi	24,r13,r28
000006ac dcf1           1668 	add	r28,ep
000006ae 00ed           1669 	sld.w	0[ep],r29
000006b0 1d0601f0       1670 	addi	-4095,r29,zero
000006b4 ba0d*          1671 	bne	.L1585
000006b6 0bf0           1672 	mov	r11,ep
000006b8 c3f2           1673 	shl	3,ep
000006ba 0de61800       1674 	addi	24,r13,r28

                                                                      Page 30
                                                              C:\Users\Frank\AppData\Local\Temp\gh_0000n141.si
000006be dcf1           1675 	add	r28,ep
000006c0 02ed           1676 	sld.w	4[ep],r29
000006c2 e0e9           1677 	cmp	zero,r29
000006c4 ba05*          1678 	bne	.L1585
                        1679 --464:             {
                        1680 --465:                 ret_val = R_ADC_ERR_OK;    /* do nothing, use the intial value if the Upper-Lower Limit is not set */
                        1681 --line465
                        1682 ..lin.C.3A.5Cgit.5Crh850.5Csrc.5Capp.5Cgfx_apps.5Csimple_draw.5Ctarget.5Cd1mx_mango_ghs.5Cobj.5Cr_adc_main.72::
                        1683 .LDWlin72:
000006c6 0072           1684 	mov	0,r14
000006c8 b54d*          1685 	br	.L1598
                        1686 .L1585:
                        1687 --466:             }
                        1688 --467:             else
                        1689 --468:             {
                        1690 --469:                 if ((Config->ULL[Ull_Num]).Upper_Limit > (Config->ULL[Ull_Num]).Lower_Limit)
                        1691 --line469
                        1692 ..lin.C.3A.5Cgit.5Crh850.5Csrc.5Capp.5Cgfx_apps.5Csimple_draw.5Ctarget.5Cd1mx_mango_ghs.5Cobj.5Cr_adc_main.73::
                        1693 .LDWlin73:
000006ca 0bf0           1694 	mov	r11,ep
000006cc c3f2           1695 	shl	3,ep
000006ce 1ee8           1696 	mov	ep,r29
000006d0 0de61800       1697 	addi	24,r13,r28
000006d4 dcf1           1698 	add	r28,ep
000006d6 dce9           1699 	add	r28,r29
000006d8 3def0500       1700 	ld.w	4[r29],r29
000006dc 00e5           1701 	sld.w	0[ep],r28
000006de fde1           1702 	cmp	r29,r28
000006e0 c33d*          1703 	bnh	.L1589
                        1704 --470:                 {
                        1705 --471:                     reg_val  = ((Config->ULL[Ull_Num]).Upper_Limit << 20) | ((Config->ULL[Ull_Num]).Lower_Limit << 4);
                        1706 --line471
                        1707 ..lin.C.3A.5Cgit.5Crh850.5Csrc.5Capp.5Cgfx_apps.5Csimple_draw.5Ctarget.5Cd1mx_mango_ghs.5Cobj.5Cr_adc_main.74::
                        1708 .LDWlin74:
000006e2 0bf0           1709 	mov	r11,ep
000006e4 c3f2           1710 	shl	3,ep
000006e6 0dde1800       1711 	addi	24,r13,r27
000006ea dbf1           1712 	add	r27,ep
000006ec 00ed           1713 	sld.w	0[ep],r29
000006ee 0bf0           1714 	mov	r11,ep
000006f0 c3f2           1715 	shl	3,ep
000006f2 dbf1           1716 	add	r27,ep
000006f4 02e5           1717 	sld.w	4[ep],r28
000006f6 d4ea           1718 	shl	20,r29
000006f8 c4e2           1719 	shl	4,r28
000006fa 1c60           1720 	mov	r28,r12
000006fc 1d61           1721 	or	r29,r12
                        1722 --472:                     switch (Ull_Num)
000006fe 615a           1723 	cmp	1,r11
00000700 a12d*          1724 	bl	.L1596
00000702 d205*          1725 	be	.L1593
00000704 635a           1726 	cmp	3,r11
00000706 f10d*          1727 	bl	.L1594
00000708 eb25*          1728 	bh	.L1596
0000070a 951d*          1729 	br	.L1595
                        1730 .L1593:
                        1731 --473:                     {
                        1732 --474:                         case R_ADC_ULL_0: addr = r_adc_Unit[Unit].BaseAddr + R_ADC_ULLMTBR0;
                        1733 --line474
                        1734 ..lin.C.3A.5Cgit.5Crh850.5Csrc.5Capp.5Cgfx_apps.5Csimple_draw.5Ctarget.5Cd1mx_mango_ghs.5Cobj.5Cr_adc_main.75::
                        1735 .LDWlin75:

                                                                      Page 31
                                                              C:\Users\Frank\AppData\Local\Temp\gh_0000n141.si
0000070c 0af0           1736 	mov	r10,ep
0000070e fe00           1737 	sxh	ep
00000710 fef61001       1738 	mulhi	272,ep,ep
00000714 c9f1           1739 	add	r9,ep
00000716 000d           1740 	sld.w	0[ep],r1
00000718 010e3803       1741 	addi	824,r1,r1
                        1742 --475:                                           R_ADC_WRITE_REG(32, addr, reg_val);
0000071c 61670100       1743 	st.w	r12,0[r1]
                        1744 --476:                                           ret_val  = R_ADC_ERR_OK;
00000720 0072           1745 	mov	0,r14
00000722 e51d*          1746 	br	.L1598
                        1747 .L1594:
                        1748 --477:                                           break;
                        1749 --478:                         case R_ADC_ULL_1: addr = r_adc_Unit[Unit].BaseAddr + R_ADC_ULLMTBR1;
                        1750 --line478
                        1751 ..lin.C.3A.5Cgit.5Crh850.5Csrc.5Capp.5Cgfx_apps.5Csimple_draw.5Ctarget.5Cd1mx_mango_ghs.5Cobj.5Cr_adc_main.76::
                        1752 .LDWlin76:
00000724 0af0           1753 	mov	r10,ep
00000726 fe00           1754 	sxh	ep
00000728 fef61001       1755 	mulhi	272,ep,ep
0000072c c9f1           1756 	add	r9,ep
0000072e 000d           1757 	sld.w	0[ep],r1
00000730 010e3c03       1758 	addi	828,r1,r1
                        1759 --479:                                           R_ADC_WRITE_REG(32, addr, reg_val);
00000734 61670100       1760 	st.w	r12,0[r1]
                        1761 --480:                                           ret_val  = R_ADC_ERR_OK;
00000738 0072           1762 	mov	0,r14
0000073a a515*          1763 	br	.L1598
                        1764 .L1595:
                        1765 --481:                                           break;
                        1766 --482:                          case R_ADC_ULL_2: addr = r_adc_Unit[Unit].BaseAddr + R_ADC_ULLMTBR2;
                        1767 --line482
                        1768 ..lin.C.3A.5Cgit.5Crh850.5Csrc.5Capp.5Cgfx_apps.5Csimple_draw.5Ctarget.5Cd1mx_mango_ghs.5Cobj.5Cr_adc_main.77::
                        1769 .LDWlin77:
0000073c 0af0           1770 	mov	r10,ep
0000073e fe00           1771 	sxh	ep
00000740 fef61001       1772 	mulhi	272,ep,ep
00000744 c9f1           1773 	add	r9,ep
00000746 000d           1774 	sld.w	0[ep],r1
00000748 010e4003       1775 	addi	832,r1,r1
                        1776 --483:                                           R_ADC_WRITE_REG(32, addr, reg_val);
0000074c 61670100       1777 	st.w	r12,0[r1]
                        1778 --484:                                           ret_val  = R_ADC_ERR_OK;
00000750 0072           1779 	mov	0,r14
00000752 e505*          1780 	br	.L1598
                        1781 .L1596:
                        1782 --485:                                           break;
                        1783 --486:                         default         : ret_val = R_ADC_PARAM_CONFIG;
                        1784 --line486
                        1785 ..lin.C.3A.5Cgit.5Crh850.5Csrc.5Capp.5Cgfx_apps.5Csimple_draw.5Ctarget.5Cd1mx_mango_ghs.5Cobj.5Cr_adc_main.78::
                        1786 .LDWlin78:
00000754 0e72           1787 	mov	14,r14
00000756 c505*          1788 	br	.L1598
                        1789 .L1589:
                        1790 --487:                     }
                        1791 --488:                 }
                        1792 --489:                 else
                        1793 --490:                 {
                        1794 --491:                     ret_val  = R_ADC_PARAM_CONFIG;
                        1795 --line491
                        1796 ..lin.C.3A.5Cgit.5Crh850.5Csrc.5Capp.5Cgfx_apps.5Csimple_draw.5Ctarget.5Cd1mx_mango_ghs.5Cobj.5Cr_adc_main.79::

                                                                      Page 32
                                                              C:\Users\Frank\AppData\Local\Temp\gh_0000n141.si
                        1797 .LDWlin79:
00000758 0e72           1798 	mov	14,r14
0000075a a505*          1799 	br	.L1598
                        1800 .L1581:
                        1801 --492:                 }
                        1802 --493:             }
                        1803 --494:         }
                        1804 --495:     }
                        1805 --496:     else
                        1806 --497:     {
                        1807 --498:         ret_val = R_ADC_ERR_RANGE;
                        1808 --line498
                        1809 ..lin.C.3A.5Cgit.5Crh850.5Csrc.5Capp.5Cgfx_apps.5Csimple_draw.5Ctarget.5Cd1mx_mango_ghs.5Cobj.5Cr_adc_main.80::
                        1810 .LDWlin80:
0000075c 0272           1811 	mov	2,r14
                        1812 .L1598:
                        1813 --499:     }
                        1814 --500:     return ret_val;
0000075e 0000           1815 	nop
                        1816 --	    .ef
                        1817 .LDW92:
00000760 0e50           1818 	mov	r14,r10
00000762 4006df10       1819 	dispose	0,{r27,r28,r29},[lp]
                        1820 	.type	_R_ADC_AssignULL,@function
                        1821 	.size	_R_ADC_AssignULL,.-_R_ADC_AssignULL
                        1822 	.align	2
                        1823 .LDW03:
                        1824 --_addr	r1	local
                        1825 --_reg_val	r12	local
                        1826 --_ret_val	r14	local
                        1827 
                        1828 --_Unit	r10	param
                        1829 --_Ull_Num	r11	param
                        1830 --_Config	r13	param
                        1831 
                        1832 	.section ".bss","awb"
                        1833 .L1722:
                        1834 	.type	.L1722,@object
                        1835 	.size	.L1722,0
                        1836 	.data
                        1837 	.text
                        1838 
                        1839 --501: } 
                        1840 
                        1841 --504: /*******************************************************************************
                        1842 --505:   Function: R_ADC_ConfigSG
                        1843 --506:   
                        1844 --507:   see: <r_adc_api.h> for details
                        1845 --508: */
                        1846 --509: r_adc_Error_t R_ADC_ConfigSG(uint32_t    Unit,
                        1847 	.align	2
                        1848 	.align	2
                        1849 	.global	_R_ADC_ConfigSG
                        1850 _R_ADC_ConfigSG:
00000766 8607e170       1851 	prepare	{r25,r26,r27,r28,r29,r31},3
0000076a 63370900       1852 	st.w	r6,8[sp]
0000076e 07d8           1853 	mov	r7,r27
00000770 08e0           1854 	mov	r8,r28
                        1855 --	    .bf
                        1856 .LDW13:
                        1857 --510:                              r_adc_Group_t    ScanGroup,

                                                                      Page 33
                                                              C:\Users\Frank\AppData\Local\Temp\gh_0000n141.si
                        1858 --511:                              r_adc_Config_t*  Config)
                        1859 --512: {
                        1860 --513:     uint32_t      addr    = 0;
00000772 00ea           1861 	mov	0,r29
                        1862 --514:     uint32_t      reg_val = 0;
00000774 00d2           1863 	mov	0,r26
                        1864 --515:     r_adc_Error_t ret_val = R_ADC_ERR_NG;
00000776 01ca           1865 	mov	1,r25
                        1866 --516:     if (Unit < R_ADC_MACRO_NUM)
00000778 235f0900       1867 	ld.w	8[sp],r11
0000077c 625a           1868 	cmp	2,r11
0000077e e9077301*      1869 	bnl	.L1824
                        1870 --517:     {
                        1871 --518:         if (R_ADC_CG_1 <= ScanGroup && ScanGroup < R_ADC_CG_PWM)
                        1872 --line518
                        1873 ..lin.C.3A.5Cgit.5Crh850.5Csrc.5Capp.5Cgfx_apps.5Csimple_draw.5Ctarget.5Cd1mx_mango_ghs.5Cobj.5Cr_adc_main.81::
                        1874 .LDWlin81:
00000782 61da           1875 	cmp	1,r27
00000784 e1076701*      1876 	bl	.L1826
00000788 64da           1877 	cmp	4,r27
0000078a e9076101*      1878 	bnl	.L1826
                        1879 --519:         {
                        1880 --520:             addr    =  r_adc_Unit[Unit].BaseAddr + R_ADC_SGCR((ScanGroup));
                        1881 --line520
                        1882 ..lin.C.3A.5Cgit.5Crh850.5Csrc.5Capp.5Cgfx_apps.5Csimple_draw.5Ctarget.5Cd1mx_mango_ghs.5Cobj.5Cr_adc_main.82::
                        1883 .LDWlin82:
0000078e 235f0900       1884 	ld.w	8[sp],r11
00000792 0bf0           1885 	mov	r11,ep
00000794 fe00           1886 	sxh	ep
00000796 fef61001       1887 	mulhi	272,ep,ep
0000079a 2c0600000000*  1888 	mov	_r_adc_Unit,r12
000007a0 ccf1           1889 	add	r12,ep
000007a2 0075           1890 	sld.w	0[ep],r14
000007a4 1b08           1891 	mov	r27,r1
000007a6 c60a           1892 	shl	6,r1
000007a8 010e0804       1893 	addi	1032,r1,r1
000007ac 01e8           1894 	mov	r1,r29
000007ae cee9           1895 	add	r14,r29
                        1896 --521:             reg_val = ((Config->Group[ScanGroup]).Mode << 5) | ((Config->Group[ScanGroup]).Int_SGEnd  << 4) | ((Config->Group[ScanGroup]).ConvNum << 2) | ((Config->Group[ScanGroup]).Trigger);
000007b0 1bf0           1897 	mov	r27,ep
000007b2 f8f74002       1898 	mul	24,ep,zero
000007b6 1c6e4000       1899 	addi	64,r28,r13
000007ba cdf1           1900 	add	r13,ep
000007bc 000d           1901 	sld.w	0[ep],r1
000007be 1bf0           1902 	mov	r27,ep
000007c0 f8f74002       1903 	mul	24,ep,zero
000007c4 cdf1           1904 	add	r13,ep
000007c6 0675           1905 	sld.w	12[ep],r14
000007c8 1bf0           1906 	mov	r27,ep
000007ca f8f74002       1907 	mul	24,ep,zero
000007ce c50a           1908 	shl	5,r1
000007d0 c472           1909 	shl	4,r14
000007d2 0171           1910 	or	r1,r14
000007d4 cdf1           1911 	add	r13,ep
000007d6 0a0d           1912 	sld.w	20[ep],r1
000007d8 1bf0           1913 	mov	r27,ep
000007da f8f74002       1914 	mul	24,ep,zero
000007de c20a           1915 	shl	2,r1
000007e0 0e09           1916 	or	r14,r1
000007e2 cdf1           1917 	add	r13,ep
000007e4 0475           1918 	sld.w	8[ep],r14

                                                                      Page 34
                                                              C:\Users\Frank\AppData\Local\Temp\gh_0000n141.si
000007e6 0ed0           1919 	mov	r14,r26
000007e8 01d1           1920 	or	r1,r26
                        1921 --522:             R_ADC_WRITE_REG(32, addr, reg_val);
000007ea 7dd70100       1922 	st.w	r26,0[r29]
                        1923 --523:         
                        1924 --524:             if (!(Config->Group[ScanGroup]).Mode)
000007ee 1bf0           1925 	mov	r27,ep
000007f0 1c764000       1926 	addi	64,r28,r14
000007f4 f8f74002       1927 	mul	24,ep,zero
000007f8 cef1           1928 	add	r14,ep
000007fa 000d           1929 	sld.w	0[ep],r1
000007fc e009           1930 	cmp	zero,r1
000007fe ba1d*          1931 	bne	.L1829
                        1932 --525:             {
                        1933 --526:                 addr    = r_adc_Unit[Unit].BaseAddr + R_ADC_SGMCYCR((ScanGroup));
                        1934 --line526
                        1935 ..lin.C.3A.5Cgit.5Crh850.5Csrc.5Capp.5Cgfx_apps.5Csimple_draw.5Ctarget.5Cd1mx_mango_ghs.5Cobj.5Cr_adc_main.83::
                        1936 .LDWlin83:
00000800 235f0900       1937 	ld.w	8[sp],r11
00000804 0bf0           1938 	mov	r11,ep
00000806 fe00           1939 	sxh	ep
00000808 fef61001       1940 	mulhi	272,ep,ep
0000080c 2c0600000000*  1941 	mov	_r_adc_Unit,r12
00000812 ccf1           1942 	add	r12,ep
00000814 0075           1943 	sld.w	0[ep],r14
00000816 1b08           1944 	mov	r27,r1
00000818 c60a           1945 	shl	6,r1
0000081a 010e1404       1946 	addi	1044,r1,r1
0000081e 01e8           1947 	mov	r1,r29
00000820 cee9           1948 	add	r14,r29
                        1949 --527:                 reg_val = (Config->Group[ScanGroup]).SGNum;
00000822 1bf0           1950 	mov	r27,ep
00000824 1c764000       1951 	addi	64,r28,r14
00000828 f8f74002       1952 	mul	24,ep,zero
0000082c cef1           1953 	add	r14,ep
0000082e 02d5           1954 	sld.w	4[ep],r26
                        1955 --528:                 R_ADC_WRITE_REG(32, addr, reg_val);
00000830 7dd70100       1956 	st.w	r26,0[r29]
                        1957 .L1829:
                        1958 --529:             }
                        1959 --530:             
                        1960 --531:             if ((Config->Group[ScanGroup]).VcEnd < R_SYS_ADC_MaxChannelNum(Unit) && (Config->Group[ScanGroup]).VcStart <= (Config->Group[ScanGroup]).VcEnd)
00000834 23370900       1961 	ld.w	8[sp],r6
00000838 1b08           1962 	mov	r27,r1
0000083a f80f4002       1963 	mul	24,r1,zero
0000083e 1c764000       1964 	addi	64,r28,r14
00000842 ce09           1965 	add	r14,r1
00000844 630f0500       1966 	st.w	r1,4[sp]
                        1967 	jarl	_R_SYS_ADC_MaxChannelNum,lp
                        1967 <EXPANSION BEGIN>
                        1967 jarl22 _R_SYS_ADC_MaxChannelNum , lp 
00000848 80ff0000*      1967 <EXPANSION END>
0000084c 230f0500       1968 	ld.w	4[sp],r1
00000850 a10f1100       1969 	ld.bu	17[r1],r1
00000854 ea09           1970 	cmp	r10,r1
00000856 f945*          1971 	bnl	.L1831
00000858 1b08           1972 	mov	r27,r1
0000085a 1c6e4000       1973 	addi	64,r28,r13
0000085e f80f4002       1974 	mul	24,r1,zero
00000862 0170           1975 	mov	r1,r14
00000864 cd71           1976 	add	r13,r14

                                                                      Page 35
                                                              C:\Users\Frank\AppData\Local\Temp\gh_0000n141.si
00000866 ae771100       1977 	ld.bu	17[r14],r14
0000086a cd09           1978 	add	r13,r1
0000086c 810f1100       1979 	ld.bu	16[r1],r1
00000870 ee09           1980 	cmp	r14,r1
00000872 9b3d*          1981 	bh	.L1831
                        1982 --532:             {
                        1983 --533:                 addr    = r_adc_Unit[Unit].BaseAddr + R_ADC_SGVCSP((ScanGroup));
                        1984 --line533
                        1985 ..lin.C.3A.5Cgit.5Crh850.5Csrc.5Capp.5Cgfx_apps.5Csimple_draw.5Ctarget.5Cd1mx_mango_ghs.5Cobj.5Cr_adc_main.84::
                        1986 .LDWlin84:
00000874 235f0900       1987 	ld.w	8[sp],r11
00000878 0bf0           1988 	mov	r11,ep
0000087a fe00           1989 	sxh	ep
0000087c fef61001       1990 	mulhi	272,ep,ep
00000880 2c0600000000*  1991 	mov	_r_adc_Unit,r12
00000886 ccf1           1992 	add	r12,ep
00000888 0075           1993 	sld.w	0[ep],r14
0000088a 1b08           1994 	mov	r27,r1
0000088c c60a           1995 	shl	6,r1
0000088e 010e0c04       1996 	addi	1036,r1,r1
00000892 01e8           1997 	mov	r1,r29
00000894 cee9           1998 	add	r14,r29
                        1999 --534:                 reg_val = (Config->Group[ScanGroup]).VcStart;
00000896 1b08           2000 	mov	r27,r1
00000898 1c764000       2001 	addi	64,r28,r14
0000089c f80f4002       2002 	mul	24,r1,zero
000008a0 ce09           2003 	add	r14,r1
000008a2 81d71100       2004 	ld.bu	16[r1],r26
                        2005 --535:                 R_ADC_WRITE_REG(32, addr, reg_val);
000008a6 7dd70100       2006 	st.w	r26,0[r29]
                        2007 --536:             
                        2008 --537:                 addr    = r_adc_Unit[Unit].BaseAddr + R_ADC_SGVCEP((ScanGroup));
000008aa 235f0900       2009 	ld.w	8[sp],r11
000008ae 0bf0           2010 	mov	r11,ep
000008b0 fe00           2011 	sxh	ep
000008b2 fef61001       2012 	mulhi	272,ep,ep
000008b6 2c0600000000*  2013 	mov	_r_adc_Unit,r12
000008bc ccf1           2014 	add	r12,ep
000008be 0075           2015 	sld.w	0[ep],r14
000008c0 1b08           2016 	mov	r27,r1
000008c2 c60a           2017 	shl	6,r1
000008c4 010e1004       2018 	addi	1040,r1,r1
000008c8 01e8           2019 	mov	r1,r29
000008ca cee9           2020 	add	r14,r29
                        2021 --538:                 reg_val = (Config->Group[ScanGroup]).VcEnd;
000008cc 1b08           2022 	mov	r27,r1
000008ce 1c764000       2023 	addi	64,r28,r14
000008d2 f80f4002       2024 	mul	24,r1,zero
000008d6 ce09           2025 	add	r14,r1
000008d8 a1d71100       2026 	ld.bu	17[r1],r26
                        2027 --539:                 R_ADC_WRITE_REG(32, addr, reg_val);
000008dc 7dd70100       2028 	st.w	r26,0[r29]
                        2029 --540:                 
                        2030 --541:                 ret_val = R_ADC_ERR_OK;
000008e0 00ca           2031 	mov	0,r25
000008e2 850d*          2032 	br	.L1836
                        2033 .L1831:
                        2034 --542:             }
                        2035 --543:             else
                        2036 --544:             {
                        2037 --545:                 ret_val = R_ADC_PARAM_POINTER;

                                                                      Page 36
                                                              C:\Users\Frank\AppData\Local\Temp\gh_0000n141.si
                        2038 --line545
                        2039 ..lin.C.3A.5Cgit.5Crh850.5Csrc.5Capp.5Cgfx_apps.5Csimple_draw.5Ctarget.5Cd1mx_mango_ghs.5Cobj.5Cr_adc_main.85::
                        2040 .LDWlin85:
000008e4 20ce1400       2041 	movea	20,zero,r25
000008e8 d505*          2042 	br	.L1836
                        2043 .L1826:
                        2044 --546:             }
                        2045 --547:         }
                        2046 --548:         else
                        2047 --549:         {
                        2048 --550:             ret_val = R_ADC_PARAM_GROUP;
                        2049 --line550
                        2050 ..lin.C.3A.5Cgit.5Crh850.5Csrc.5Capp.5Cgfx_apps.5Csimple_draw.5Ctarget.5Cd1mx_mango_ghs.5Cobj.5Cr_adc_main.86::
                        2051 .LDWlin86:
000008ea 20ce1500       2052 	movea	21,zero,r25
000008ee a505*          2053 	br	.L1836
                        2054 .L1824:
                        2055 --551:         }
                        2056 --552:     }
                        2057 --553:     else
                        2058 --554:     {
                        2059 --555:         ret_val = R_ADC_ERR_RANGE;
                        2060 --line555
                        2061 ..lin.C.3A.5Cgit.5Crh850.5Csrc.5Capp.5Cgfx_apps.5Csimple_draw.5Ctarget.5Cd1mx_mango_ghs.5Cobj.5Cr_adc_main.87::
                        2062 .LDWlin87:
000008f0 02ca           2063 	mov	2,r25
                        2064 .L1836:
                        2065 --556:     }
                        2066 --557:     return ret_val;
000008f2 1950           2067 	mov	r25,r10
                        2068 --	    .ef
                        2069 .LDW23:
000008f4 4606ff70       2070 	dispose	3,{r25,r26,r27,r28,r29,r31},[lp]
                        2071 	.type	_R_ADC_ConfigSG,@function
                        2072 	.size	_R_ADC_ConfigSG,.-_R_ADC_ConfigSG
                        2073 	.align	2
                        2074 .LDW33:
                        2075 --_addr	r29	local
                        2076 --_reg_val	r26	local
                        2077 --_ret_val	r25	local
                        2078 
                        2079 --_Unit	8[sp]	param
                        2080 --_ScanGroup	r27	param
                        2081 --_Config	r28	param
                        2082 
                        2083 	.section ".bss","awb"
                        2084 .L1954:
                        2085 	.type	.L1954,@object
                        2086 	.size	.L1954,0
                        2087 	.data
                        2088 	.text
                        2089 
                        2090 --558: } 
                        2091 
                        2092 --561: /*******************************************************************************
                        2093 --562:   Function: R_ADC_StartGroupConversion
                        2094 --563:   
                        2095 --564:   see: <r_adc_api.h> for details
                        2096 --565: */
                        2097 --566: r_adc_Error_t R_ADC_StartGroupConversion(uint32_t       Unit,
                        2098 	.align	2

                                                                      Page 37
                                                              C:\Users\Frank\AppData\Local\Temp\gh_0000n141.si
                        2099 	.align	2
                        2100 	.global	_R_ADC_StartGroupConversion
                        2101 _R_ADC_StartGroupConversion:
000008f8 0668           2102 	mov	r6,r13
000008fa 0760           2103 	mov	r7,r12
000008fc 2b0600000000*  2104 	mov	_r_adc_StrFlag,r11
                        2105 --	    .bf
                        2106 .LDW43:
                        2107 --567:                                          r_adc_Group_t  ChGr)
                        2108 --568: {
                        2109 --569:     uint32_t      addr    = 0;
00000902 0072           2110 	mov	0,r14
                        2111 --570:     r_adc_Error_t ret_val = R_ADC_ERR_NG;
00000904 010a           2112 	mov	1,r1
                        2113 --572:     if (Unit < R_ADC_MACRO_NUM)
00000906 626a           2114 	cmp	2,r13
00000908 c935*          2115 	bnl	.L2043
                        2116 --573:     {
                        2117 --574:         if (r_adc_InitFlag[Unit])
                        2118 --line574
                        2119 ..lin.C.3A.5Cgit.5Crh850.5Csrc.5Capp.5Cgfx_apps.5Csimple_draw.5Ctarget.5Cd1mx_mango_ghs.5Cobj.5Cr_adc_main.88::
                        2120 .LDWlin88:
0000090a 0df0           2121 	mov	r13,ep
0000090c c2f2           2122 	shl	2,ep
0000090e 290600000000*  2123 	mov	_r_adc_InitFlag,r9
00000914 c9f1           2124 	add	r9,ep
00000916 0055           2125 	sld.w	0[ep],r10
00000918 e051           2126 	cmp	zero,r10
0000091a 922d*          2127 	be	.L2045
                        2128 --575:         {
                        2129 --576:             if (r_adc_StrFlag[Unit])
                        2130 --line576
                        2131 ..lin.C.3A.5Cgit.5Crh850.5Csrc.5Capp.5Cgfx_apps.5Csimple_draw.5Ctarget.5Cd1mx_mango_ghs.5Cobj.5Cr_adc_main.89::
                        2132 .LDWlin89:
0000091c 0df0           2133 	mov	r13,ep
0000091e c2f2           2134 	shl	2,ep
00000920 cbf1           2135 	add	r11,ep
00000922 0055           2136 	sld.w	0[ep],r10
00000924 e051           2137 	cmp	zero,r10
00000926 b205*          2138 	be	.L2047
                        2139 --577:             {
                        2140 --578:                 ret_val = R_ADC_BUSY;
                        2141 --line578
                        2142 ..lin.C.3A.5Cgit.5Crh850.5Csrc.5Capp.5Cgfx_apps.5Csimple_draw.5Ctarget.5Cd1mx_mango_ghs.5Cobj.5Cr_adc_main.90::
                        2143 .LDWlin90:
00000928 0b0a           2144 	mov	11,r1
0000092a c525*          2145 	br	.L2055
                        2146 .L2047:
                        2147 --579:             }
                        2148 --580:             else
                        2149 --581:             {
                        2150 --582:                 switch (ChGr)
                        2151 --line582
                        2152 ..lin.C.3A.5Cgit.5Crh850.5Csrc.5Capp.5Cgfx_apps.5Csimple_draw.5Ctarget.5Cd1mx_mango_ghs.5Cobj.5Cr_adc_main.91::
                        2153 .LDWlin91:
0000092c 0c56ffff       2154 	addi	-1,r12,r10
00000930 6352           2155 	cmp	3,r10
00000932 ab1d*          2156 	bh	.L2053
                        2157 --583:                 {
                        2158 --584:                     case R_ADC_CG_1  :
                        2159 --585:                     case R_ADC_CG_2  :

                                                                      Page 38
                                                              C:\Users\Frank\AppData\Local\Temp\gh_0000n141.si
                        2160 --586:                     case R_ADC_CG_3  : 
                        2161 --587:                     case R_ADC_CG_PWM: addr    = r_adc_Unit[Unit].BaseAddr + R_ADC_SGSTCR(ChGr);
                        2162 --line587
                        2163 ..lin.C.3A.5Cgit.5Crh850.5Csrc.5Capp.5Cgfx_apps.5Csimple_draw.5Ctarget.5Cd1mx_mango_ghs.5Cobj.5Cr_adc_main.92::
                        2164 .LDWlin92:
00000934 0df0           2165 	mov	r13,ep
00000936 fe00           2166 	sxh	ep
00000938 fef61001       2167 	mulhi	272,ep,ep
0000093c 0c50           2168 	mov	r12,r10
0000093e 290600000000*  2169 	mov	_r_adc_Unit,r9
00000944 c652           2170 	shl	6,r10
00000946 0a560004       2171 	addi	1024,r10,r10
0000094a 0a70           2172 	mov	r10,r14
0000094c c9f1           2173 	add	r9,ep
0000094e 004d           2174 	sld.w	0[ep],r9
00000950 c971           2175 	add	r9,r14
                        2176 --588:                                        R_ADC_WRITE_REG(8, addr, 0x1);                                      
00000952 0152           2177 	mov	1,r10
00000954 4e570000       2178 	st.b	r10,0[r14]
                        2179 --589:                                        r_adc_StrFlag[Unit] = R_ADC_STR;
00000958 0df0           2180 	mov	r13,ep
0000095a c2f2           2181 	shl	2,ep
0000095c cbf1           2182 	add	r11,ep
0000095e 0152           2183 	mov	1,r10
00000960 0155           2184 	sst.w	r10,0[ep]
                        2185 --590:                                        ret_val = R_ADC_ERR_OK;
00000962 000a           2186 	mov	0,r1
00000964 f505*          2187 	br	.L2055
                        2188 .L2053:
                        2189 --591:                                        break;                                                       
                        2190 --592:                     default          : ret_val = R_ADC_WRONG_TRIGG_SRC;
                        2191 --line592
                        2192 ..lin.C.3A.5Cgit.5Crh850.5Csrc.5Capp.5Cgfx_apps.5Csimple_draw.5Ctarget.5Cd1mx_mango_ghs.5Cobj.5Cr_adc_main.93::
                        2193 .LDWlin93:
00000966 200e1700       2194 	movea	23,zero,r1
0000096a c505*          2195 	br	.L2055
                        2196 .L2045:
                        2197 --593:                 }
                        2198 --594:             }
                        2199 --595:         }
                        2200 --596:         else
                        2201 --597:         {
                        2202 --598:             ret_val = R_ADC_UNINIT;
                        2203 --line598
                        2204 ..lin.C.3A.5Cgit.5Crh850.5Csrc.5Capp.5Cgfx_apps.5Csimple_draw.5Ctarget.5Cd1mx_mango_ghs.5Cobj.5Cr_adc_main.94::
                        2205 .LDWlin94:
0000096c 0a0a           2206 	mov	10,r1
0000096e a505*          2207 	br	.L2055
                        2208 .L2043:
                        2209 --599:         }
                        2210 --600:     }
                        2211 --601:     else
                        2212 --602:     {
                        2213 --603:         ret_val = R_ADC_ERR_RANGE;
                        2214 --line603
                        2215 ..lin.C.3A.5Cgit.5Crh850.5Csrc.5Capp.5Cgfx_apps.5Csimple_draw.5Ctarget.5Cd1mx_mango_ghs.5Cobj.5Cr_adc_main.95::
                        2216 .LDWlin95:
00000970 020a           2217 	mov	2,r1
                        2218 .L2055:
                        2219 --604:     }
                        2220 --605:     return ret_val;

                                                                      Page 39
                                                              C:\Users\Frank\AppData\Local\Temp\gh_0000n141.si
00000972 0150           2221 	mov	r1,r10
                        2222 --	    .ef
                        2223 .LDW53:
00000974 7f00           2224 	jmp	[lp]
                        2225 	.type	_R_ADC_StartGroupConversion,@function
                        2226 	.size	_R_ADC_StartGroupConversion,.-_R_ADC_StartGroupConversion
                        2227 	.align	2
                        2228 .LDW63:
                        2229 --_addr	r14	local
                        2230 --_ret_val	r1	local
                        2231 
                        2232 --_Unit	r13	param
                        2233 --_ChGr	r12	param
                        2234 
                        2235 	.section ".bss","awb"
                        2236 .L2142:
                        2237 	.type	.L2142,@object
                        2238 	.size	.L2142,0
                        2239 	.data
                        2240 	.text
                        2241 
                        2242 --606: }
                        2243 
                        2244 --609: /*******************************************************************************
                        2245 --610:   Function: R_ADC_Halt
                        2246 --611:   
                        2247 --612:   see: <r_adc_api.h> for details
                        2248 --613: */
                        2249 --614: r_adc_Error_t R_ADC_Halt(uint32_t Unit)
                        2250 	.align	2
                        2251 	.align	2
                        2252 	.global	_R_ADC_Halt
                        2253 _R_ADC_Halt:
00000976 0668           2254 	mov	r6,r13
00000978 2c0600000000*  2255 	mov	_r_adc_StrFlag,r12
                        2256 --	    .bf
                        2257 .LDW73:
                        2258 --615: {
                        2259 --616:     uint32_t      addr    = 0;
0000097e 0072           2260 	mov	0,r14
                        2261 --617:     r_adc_Error_t ret_val = R_ADC_ERR_NG;
00000980 010a           2262 	mov	1,r1
                        2263 --618:     if (Unit < R_ADC_MACRO_NUM)
00000982 626a           2264 	cmp	2,r13
00000984 d91d*          2265 	bnl	.L2207
                        2266 --619:     {
                        2267 --620:         if (r_adc_StrFlag[Unit])
                        2268 --line620
                        2269 ..lin.C.3A.5Cgit.5Crh850.5Csrc.5Capp.5Cgfx_apps.5Csimple_draw.5Ctarget.5Cd1mx_mango_ghs.5Cobj.5Cr_adc_main.96::
                        2270 .LDWlin96:
00000986 0df0           2271 	mov	r13,ep
00000988 c2f2           2272 	shl	2,ep
0000098a ccf1           2273 	add	r12,ep
0000098c 005d           2274 	sld.w	0[ep],r11
0000098e e059           2275 	cmp	zero,r11
00000990 d215*          2276 	be	.L2209
                        2277 --621:         {
                        2278 --622:             addr    = r_adc_Unit[Unit].BaseAddr + R_ADC_ADHALTR;
                        2279 --line622
                        2280 ..lin.C.3A.5Cgit.5Crh850.5Csrc.5Capp.5Cgfx_apps.5Csimple_draw.5Ctarget.5Cd1mx_mango_ghs.5Cobj.5Cr_adc_main.97::
                        2281 .LDWlin97:

                                                                      Page 40
                                                              C:\Users\Frank\AppData\Local\Temp\gh_0000n141.si
00000992 0df0           2282 	mov	r13,ep
00000994 fe00           2283 	sxh	ep
00000996 fef61001       2284 	mulhi	272,ep,ep
0000099a 2a0600000000*  2285 	mov	_r_adc_Unit,r10
000009a0 caf1           2286 	add	r10,ep
000009a2 0075           2287 	sld.w	0[ep],r14
000009a4 0e760003       2288 	addi	768,r14,r14
                        2289 --623:             R_ADC_WRITE_REG(32, addr, 0x1);
000009a8 015a           2290 	mov	1,r11
000009aa 6e5f0100       2291 	st.w	r11,0[r14]
                        2292 --624:             r_adc_StrFlag[Unit] = R_ADC_NO_STR;
000009ae 0df0           2293 	mov	r13,ep
000009b0 c2f2           2294 	shl	2,ep
000009b2 ccf1           2295 	add	r12,ep
000009b4 0105           2296 	sst.w	zero,0[ep]
                        2297 --625:             ret_val = R_ADC_ERR_OK;
000009b6 000a           2298 	mov	0,r1
000009b8 c505*          2299 	br	.L2212
                        2300 .L2209:
                        2301 --626:         }
                        2302 --627:         else
                        2303 --628:         {
                        2304 --629:             ret_val = R_ADC_IDLE;
                        2305 --line629
                        2306 ..lin.C.3A.5Cgit.5Crh850.5Csrc.5Capp.5Cgfx_apps.5Csimple_draw.5Ctarget.5Cd1mx_mango_ghs.5Cobj.5Cr_adc_main.98::
                        2307 .LDWlin98:
000009ba 0c0a           2308 	mov	12,r1
000009bc a505*          2309 	br	.L2212
                        2310 .L2207:
                        2311 --630:         }
                        2312 --631:     }
                        2313 --632:     else
                        2314 --633:     {
                        2315 --634:         ret_val = R_ADC_ERR_RANGE;
                        2316 --line634
                        2317 ..lin.C.3A.5Cgit.5Crh850.5Csrc.5Capp.5Cgfx_apps.5Csimple_draw.5Ctarget.5Cd1mx_mango_ghs.5Cobj.5Cr_adc_main.99::
                        2318 .LDWlin99:
000009be 020a           2319 	mov	2,r1
                        2320 .L2212:
                        2321 --635:     }
                        2322 --636:     return ret_val;
000009c0 0150           2323 	mov	r1,r10
                        2324 --	    .ef
                        2325 .LDW83:
000009c2 7f00           2326 	jmp	[lp]
                        2327 	.type	_R_ADC_Halt,@function
                        2328 	.size	_R_ADC_Halt,.-_R_ADC_Halt
                        2329 	.align	2
                        2330 .LDW93:
                        2331 --_addr	r14	local
                        2332 --_ret_val	r1	local
                        2333 
                        2334 --_Unit	r13	param
                        2335 
                        2336 	.section ".bss","awb"
                        2337 .L2278:
                        2338 	.type	.L2278,@object
                        2339 	.size	.L2278,0
                        2340 	.data
                        2341 	.text
                        2342 

                                                                      Page 41
                                                              C:\Users\Frank\AppData\Local\Temp\gh_0000n141.si
                        2343 --637: }
                        2344 
                        2345 --640: /*******************************************************************************
                        2346 --641:   Function: R_ADC_EnableHwTrigger
                        2347 --642:   
                        2348 --643:   see: <r_adc_api.h> for details
                        2349 --644: */
                        2350 --645: void R_ADC_EnableHwTrigger(uint32_t          Unit,
                        2351 	.align	2
                        2352 	.align	2
                        2353 	.global	_R_ADC_EnableHwTrigger
                        2354 _R_ADC_EnableHwTrigger:
000009c4 8207e170       2355 	prepare	{r25,r26,r27,r28,r29,r31},1
000009c8 06d8           2356 	mov	r6,r27
000009ca 07d0           2357 	mov	r7,r26
000009cc 08c8           2358 	mov	r8,r25
                        2359 --	    .bf
                        2360 .LDW04:
                        2361 --646:                            r_adc_Group_t     ChGr,
                        2362 --647:                            r_adc_HWTrigger_t HwTrg)
                        2363 --648: {
                        2364 --649:     uint32_t       addr    = 0;
000009ce 00ea           2365 	mov	0,r29
                        2366 --650:     uint32_t       reg_val = 0;
000009d0 00e2           2367 	mov	0,r28
                        2368 --651:     
                        2369 --652:     if (Unit < R_ADC_MACRO_NUM)
000009d2 62da           2370 	cmp	2,r27
000009d4 f935*          2371 	bnl	.L2322
                        2372 --653:     {
                        2373 --654:         addr    =  r_adc_Unit[Unit].BaseAddr + R_ADC_SGCR(ChGr);
                        2374 --line654
                        2375 ..lin.C.3A.5Cgit.5Crh850.5Csrc.5Capp.5Cgfx_apps.5Csimple_draw.5Ctarget.5Cd1mx_mango_ghs.5Cobj.5Cr_adc_main.100::
                        2376 .LDWlin100:
000009d6 1bf0           2377 	mov	r27,ep
000009d8 fe00           2378 	sxh	ep
000009da fef61001       2379 	mulhi	272,ep,ep
000009de 1a08           2380 	mov	r26,r1
000009e0 2b0600000000*  2381 	mov	_r_adc_Unit,r11
000009e6 c60a           2382 	shl	6,r1
000009e8 010e0804       2383 	addi	1032,r1,r1
000009ec 01e8           2384 	mov	r1,r29
000009ee cbf1           2385 	add	r11,ep
000009f0 0075           2386 	sld.w	0[ep],r14
000009f2 cee9           2387 	add	r14,r29
                        2388 --655:         reg_val =  R_ADC_READ_REG(32, addr) | 0x01;
000009f4 3de70100       2389 	ld.w	0[r29],r28
000009f8 9ce60100       2390 	ori	1,r28,r28
                        2391 --656:         R_ADC_WRITE_REG(32, addr, reg_val);
000009fc 7de70100       2392 	st.w	r28,0[r29]
                        2393 --657:         
                        2394 --658:         if (HwTrg < R_SYS_ADC_HwTrgNum(Unit))
00000a00 1b30           2395 	mov	r27,r6
                        2396 	jarl	_R_SYS_ADC_HwTrgNum,lp
                        2396 <EXPANSION BEGIN>
                        2396 jarl22 _R_SYS_ADC_HwTrgNum , lp 
00000a02 80ff0000*      2396 <EXPANSION END>
00000a06 eac9           2397 	cmp	r10,r25
00000a08 9925*          2398 	bnl	.L2330
                        2399 --659:         {
                        2400 --660:             switch (ChGr)

                                                                      Page 42
                                                              C:\Users\Frank\AppData\Local\Temp\gh_0000n141.si
                        2401 --line660
                        2402 ..lin.C.3A.5Cgit.5Crh850.5Csrc.5Capp.5Cgfx_apps.5Csimple_draw.5Ctarget.5Cd1mx_mango_ghs.5Cobj.5Cr_adc_main.101::
                        2403 .LDWlin101:
00000a0a 63d2           2404 	cmp	3,r26
00000a0c eb15*          2405 	bh	.L2329
                        2406 --661:             {
                        2407 --662:                 case R_ADC_CG_0  :
                        2408 --663:                 case R_ADC_CG_1  :
                        2409 --664:                 case R_ADC_CG_2  :
                        2410 --665:                 case R_ADC_CG_3  :
                        2411 --666:                      addr    = r_adc_Unit[Unit].BaseAddr + R_ADC_SGTSEL(ChGr);
                        2412 --line666
                        2413 ..lin.C.3A.5Cgit.5Crh850.5Csrc.5Capp.5Cgfx_apps.5Csimple_draw.5Ctarget.5Cd1mx_mango_ghs.5Cobj.5Cr_adc_main.102::
                        2414 .LDWlin102:
00000a0e 1bf0           2415 	mov	r27,ep
00000a10 fe00           2416 	sxh	ep
00000a12 fef61001       2417 	mulhi	272,ep,ep
00000a16 1a08           2418 	mov	r26,r1
00000a18 2b0600000000*  2419 	mov	_r_adc_Unit,r11
00000a1e c60a           2420 	shl	6,r1
00000a20 010e1c04       2421 	addi	1052,r1,r1
00000a24 01e8           2422 	mov	r1,r29
00000a26 cbf1           2423 	add	r11,ep
00000a28 0075           2424 	sld.w	0[ep],r14
00000a2a cee9           2425 	add	r14,r29
                        2426 --667:                      reg_val = 0x01 << HwTrg;
00000a2c 010a           2427 	mov	1,r1
00000a2e f90fc2e0       2428 	shl	r25,r1,r28
                        2429 --668:                      R_ADC_WRITE_REG(32, addr, reg_val);
00000a32 7de70100       2430 	st.w	r28,0[r29]
00000a36 a50d*          2431 	br	.L2330
                        2432 .L2329:
                        2433 --669:                      break;
                        2434 --670:                 default          : 
                        2435 --671:                     R_ADC_ERROR(Unit, R_ADC_ERR_RANGE, 
                        2436 --line671
                        2437 ..lin.C.3A.5Cgit.5Crh850.5Csrc.5Capp.5Cgfx_apps.5Csimple_draw.5Ctarget.5Cd1mx_mango_ghs.5Cobj.5Cr_adc_main.103::
                        2438 .LDWlin103:
00000a38 1b30           2439 	mov	r27,r6
00000a3a 023a           2440 	mov	2,r7
                        2441 	jarl	_R_ADC_ErrorHandler,lp
                        2441 <EXPANSION BEGIN>
                        2441 jarl22 _R_ADC_ErrorHandler , lp 
00000a3c 80ff6208*      2441 <EXPANSION END>
                        2442 --line673
                        2443 ..lin.C.3A.5Cgit.5Crh850.5Csrc.5Capp.5Cgfx_apps.5Csimple_draw.5Ctarget.5Cd1mx_mango_ghs.5Cobj.5Cr_adc_main.104::
                        2444 .LDWlin104:
00000a40 d505*          2445 	br	.L2330
                        2446 .L2322:
                        2447 --672:                                 "ADC: Invalid Scan Group for Hardware Trigger");
                        2448 --673:                     break; 
                        2449 --674:             }
                        2450 --675:         }
                        2451 --676:     }
                        2452 --677:     else
                        2453 --678:     {
                        2454 --679:         R_ADC_ERROR(Unit, R_ADC_ERR_RANGE, "ADC: Invalid ADC Unit for Hardware Trigger");
                        2455 --line679
                        2456 ..lin.C.3A.5Cgit.5Crh850.5Csrc.5Capp.5Cgfx_apps.5Csimple_draw.5Ctarget.5Cd1mx_mango_ghs.5Cobj.5Cr_adc_main.105::
                        2457 .LDWlin105:
00000a42 1b30           2458 	mov	r27,r6

                                                                      Page 43
                                                              C:\Users\Frank\AppData\Local\Temp\gh_0000n141.si
00000a44 023a           2459 	mov	2,r7
                        2460 	jarl	_R_ADC_ErrorHandler,lp
                        2460 <EXPANSION BEGIN>
                        2460 jarl22 _R_ADC_ErrorHandler , lp 
00000a46 80ff5808*      2460 <EXPANSION END>
                        2461 .L2330:
                        2462 --680:     }
                        2463 --681: }
                        2464 --	    .ef
                        2465 .LDW14:
                        2466 --line681
                        2467 ..lin.C.3A.5Cgit.5Crh850.5Csrc.5Capp.5Cgfx_apps.5Csimple_draw.5Ctarget.5Cd1mx_mango_ghs.5Cobj.5Cr_adc_main.106::
                        2468 .LDWlin106:
00000a4a 4206ff70       2469 	dispose	1,{r25,r26,r27,r28,r29,r31},[lp]
                        2470 	.type	_R_ADC_EnableHwTrigger,@function
                        2471 	.size	_R_ADC_EnableHwTrigger,.-_R_ADC_EnableHwTrigger
                        2472 	.align	2
                        2473 .LDW24:
                        2474 --_addr	r29	local
                        2475 --_reg_val	r28	local
                        2476 
                        2477 --_Unit	r27	param
                        2478 --_ChGr	r26	param
                        2479 --_HwTrg	r25	param
                        2480 
                        2481 	.section ".bss","awb"
                        2482 .L2410:
                        2483 	.type	.L2410,@object
                        2484 	.size	.L2410,0
                        2485 	.data
                        2486 	.text
                        2487 
                        2488 
                        2489 --684: /*******************************************************************************
                        2490 --685:   Function: R_ADC_DisableHwTrigger
                        2491 --686:   
                        2492 --687:   see: <r_adc_api.h> for details
                        2493 --688: */
                        2494 --689: void R_ADC_DisableHwTrigger(uint32_t          Unit,
                        2495 	.align	2
                        2496 	.align	2
                        2497 	.global	_R_ADC_DisableHwTrigger
                        2498 _R_ADC_DisableHwTrigger:
00000a4e 8007e170       2499 	prepare	{r25,r26,r27,r28,r29,r31},0
00000a52 06d8           2500 	mov	r6,r27
00000a54 07d0           2501 	mov	r7,r26
00000a56 390600000000*  2502 	mov	_r_adc_Unit,r25
                        2503 --	    .bf
                        2504 .LDW34:
                        2505 --690:                             r_adc_Group_t     Group)
                        2506 --691: {
                        2507 --692:     uint32_t       addr    = 0;
00000a5c 00ea           2508 	mov	0,r29
                        2509 --693:     uint32_t       reg_val = 0;
00000a5e 00e2           2510 	mov	0,r28
                        2511 --695:     if (Unit < R_ADC_MACRO_NUM)
00000a60 62da           2512 	cmp	2,r27
00000a62 a925*          2513 	bnl	.L2472
                        2514 --696:     {
                        2515 --697:         addr    = r_adc_Unit[Unit].BaseAddr + R_ADC_SGCR(Group);
                        2516 --line697

                                                                      Page 44
                                                              C:\Users\Frank\AppData\Local\Temp\gh_0000n141.si
                        2517 ..lin.C.3A.5Cgit.5Crh850.5Csrc.5Capp.5Cgfx_apps.5Csimple_draw.5Ctarget.5Cd1mx_mango_ghs.5Cobj.5Cr_adc_main.107::
                        2518 .LDWlin107:
00000a64 1bf0           2519 	mov	r27,ep
00000a66 fe00           2520 	sxh	ep
00000a68 fef61001       2521 	mulhi	272,ep,ep
00000a6c 1a08           2522 	mov	r26,r1
00000a6e c60a           2523 	shl	6,r1
00000a70 010e0804       2524 	addi	1032,r1,r1
00000a74 01e8           2525 	mov	r1,r29
00000a76 d9f1           2526 	add	r25,ep
00000a78 0075           2527 	sld.w	0[ep],r14
00000a7a cee9           2528 	add	r14,r29
                        2529 --698:         reg_val = R_ADC_READ_REG(32, addr) & (~0x01);
00000a7c 3de70100       2530 	ld.w	0[r29],r28
00000a80 1e0a           2531 	mov	-2,r1
00000a82 41e1           2532 	and	r1,r28
                        2533 --699:         R_ADC_WRITE_REG(32, addr, reg_val);
00000a84 7de70100       2534 	st.w	r28,0[r29]
                        2535 --700:         
                        2536 --701:         addr    = r_adc_Unit[Unit].BaseAddr + R_ADC_SGTSEL(Group);
00000a88 1bf0           2537 	mov	r27,ep
00000a8a fe00           2538 	sxh	ep
00000a8c fef61001       2539 	mulhi	272,ep,ep
00000a90 1a08           2540 	mov	r26,r1
00000a92 c60a           2541 	shl	6,r1
00000a94 010e1c04       2542 	addi	1052,r1,r1
00000a98 01e8           2543 	mov	r1,r29
00000a9a d9f1           2544 	add	r25,ep
00000a9c 0075           2545 	sld.w	0[ep],r14
00000a9e cee9           2546 	add	r14,r29
                        2547 --702:         R_ADC_WRITE_REG(32, addr, 0x0);
00000aa0 7d070100       2548 	st.w	zero,0[r29]
00000aa4 d505*          2549 	br	.L2474
                        2550 .L2472:
                        2551 --703:     }
                        2552 --704:     else
                        2553 --705:     {
                        2554 --706:         R_ADC_ERROR(Unit, R_ADC_ERR_RANGE, "ADC: Invalid ADC Unit for Hardware Trigger");
                        2555 --line706
                        2556 ..lin.C.3A.5Cgit.5Crh850.5Csrc.5Capp.5Cgfx_apps.5Csimple_draw.5Ctarget.5Cd1mx_mango_ghs.5Cobj.5Cr_adc_main.108::
                        2557 .LDWlin108:
00000aa6 1b30           2558 	mov	r27,r6
00000aa8 023a           2559 	mov	2,r7
                        2560 	jarl	_R_ADC_ErrorHandler,lp
                        2560 <EXPANSION BEGIN>
                        2560 jarl22 _R_ADC_ErrorHandler , lp 
00000aaa 80fff407*      2560 <EXPANSION END>
                        2561 .L2474:
                        2562 --707:     }
                        2563 --708: }
                        2564 --	    .ef
                        2565 .LDW44:
                        2566 --line708
                        2567 ..lin.C.3A.5Cgit.5Crh850.5Csrc.5Capp.5Cgfx_apps.5Csimple_draw.5Ctarget.5Cd1mx_mango_ghs.5Cobj.5Cr_adc_main.109::
                        2568 .LDWlin109:
00000aae 4006ff70       2569 	dispose	0,{r25,r26,r27,r28,r29,r31},[lp]
                        2570 	.type	_R_ADC_DisableHwTrigger,@function
                        2571 	.size	_R_ADC_DisableHwTrigger,.-_R_ADC_DisableHwTrigger
                        2572 	.align	2
                        2573 .LDW54:
                        2574 --_addr	r29	local

                                                                      Page 45
                                                              C:\Users\Frank\AppData\Local\Temp\gh_0000n141.si
                        2575 --_reg_val	r28	local
                        2576 
                        2577 --_Unit	r27	param
                        2578 --_Group	r26	param
                        2579 
                        2580 	.section ".bss","awb"
                        2581 .L2530:
                        2582 	.type	.L2530,@object
                        2583 	.size	.L2530,0
                        2584 	.data
                        2585 	.text
                        2586 
                        2587 
                        2588 --711: /*******************************************************************************
                        2589 --712:   Function: R_ADC_SDiagInit
                        2590 --713:   
                        2591 --714:   see: <r_adc_api.h> for details
                        2592 --715: */
                        2593 --716: r_adc_Error_t R_ACD_SDiagInit (uint32_t    Unit, 
                        2594 	.align	2
                        2595 	.align	2
                        2596 	.global	_R_ACD_SDiagInit
                        2597 _R_ACD_SDiagInit:
00000ab2 8407e170       2598 	prepare	{r25,r26,r27,r28,r29,r31},2
00000ab6 06c8           2599 	mov	r6,r25
00000ab8 07d0           2600 	mov	r7,r26
                        2601 --	    .bf
                        2602 .LDW64:
                        2603 --717:                                r_adc_Config_t * SDCfg)
                        2604 --718: {
                        2605 --719:     uint32_t          addr    = 0;
00000aba 00ea           2606 	mov	0,r29
                        2607 --720:     volatile uint32_t reg_val = 0;
00000abc 00e2           2608 	mov	0,r28
                        2609 --721:     uint8_t           Channel = 0;
00000abe 00da           2610 	mov	0,r27
                        2611 --722:     r_adc_Error_t ret_val     = R_ADC_ERR_NG;
00000ac0 015a           2612 	mov	1,r11
00000ac2 635f0100       2613 	st.w	r11,0[sp]
                        2614 --723:     if (Unit < R_ADC_MACRO_NUM)
00000ac6 62ca           2615 	cmp	2,r25
00000ac8 e9073301*      2616 	bnl	.L2571
                        2617 --724:     {
                        2618 --725:         addr         = r_adc_Unit[Unit].BaseAddr + R_ADC_ADCR;
                        2619 --line725
                        2620 ..lin.C.3A.5Cgit.5Crh850.5Csrc.5Capp.5Cgfx_apps.5Csimple_draw.5Ctarget.5Cd1mx_mango_ghs.5Cobj.5Cr_adc_main.110::
                        2621 .LDWlin110:
00000acc 19f0           2622 	mov	r25,ep
00000ace fe00           2623 	sxh	ep
00000ad0 fef61001       2624 	mulhi	272,ep,ep
00000ad4 2b0600000000*  2625 	mov	_r_adc_Unit,r11
00000ada cbf1           2626 	add	r11,ep
00000adc 00ed           2627 	sld.w	0[ep],r29
00000ade 1dee0403       2628 	addi	772,r29,r29
                        2629 --726:         reg_val      = R_ADC_READ_REG(32, addr);
00000ae2 3de70100       2630 	ld.w	0[r29],r28
                        2631 --727:         if (SDCfg->SDVol_En)
00000ae6 3a0f1100       2632 	ld.w	16[r26],r1
00000aea e009           2633 	cmp	zero,r1
00000aec d205*          2634 	be	.L2573
                        2635 --728:         {

                                                                      Page 46
                                                              C:\Users\Frank\AppData\Local\Temp\gh_0000n141.si
                        2636 --729:             reg_val |= 0x80;
                        2637 --line729
                        2638 ..lin.C.3A.5Cgit.5Crh850.5Csrc.5Capp.5Cgfx_apps.5Csimple_draw.5Ctarget.5Cd1mx_mango_ghs.5Cobj.5Cr_adc_main.111::
                        2639 .LDWlin111:
00000aee 9ce68000       2640 	ori	128,r28,r28
                        2641 --730:             R_ADC_WRITE_REG(32, addr, reg_val);
00000af2 7de70100       2642 	st.w	r28,0[r29]
                        2643 .L2573:
                        2644 --731:         }
                        2645 --732:         
                        2646 --733:         for (Channel = 0; Channel < R_SYS_ADC_MaxChannelNum(Unit); Channel ++)
00000af6 00da           2647 	mov	0,r27
00000af8 b57d*          2648 	br	.L2578
                        2649 .L2577:
                        2650 --734:         {
                        2651 --735:             /* this is device dependant let the config decide if its a diag channel */
                        2652 --736:             if (SDCfg->VCh[Channel].SDparams.SDinput == R_ADC_SD_DIAG)
                        2653 --line736
                        2654 ..lin.C.3A.5Cgit.5Crh850.5Csrc.5Capp.5Cgfx_apps.5Csimple_draw.5Ctarget.5Cd1mx_mango_ghs.5Cobj.5Cr_adc_main.112::
                        2655 .LDWlin112:
00000afa fbf62400       2656 	mulhi	36,r27,ep
00000afe 1a76b800       2657 	addi	184,r26,r14
00000b02 cef1           2658 	add	r14,ep
00000b04 0e0d           2659 	sld.w	28[ep],r1
00000b06 610a           2660 	cmp	1,r1
00000b08 9a75*          2661 	bne	.L2576
                        2662 --737:             {
                        2663 --738:                 /* Hold value mode is only for virtual channel 33-35 */
                        2664 --739:                 if (Channel >= 33)
                        2665 --line739
                        2666 ..lin.C.3A.5Cgit.5Crh850.5Csrc.5Capp.5Cgfx_apps.5Csimple_draw.5Ctarget.5Cd1mx_mango_ghs.5Cobj.5Cr_adc_main.113::
                        2667 .LDWlin113:
00000b0a 1b06dfff       2668 	addi	-33,r27,zero
00000b0e d91d*          2669 	bnl	.L2581
                        2670 --740:                 {
                        2671 --741:                     addr         = r_adc_Unit[Unit].BaseAddr + R_ADC_VCR(Channel);
                        2672 --line741
                        2673 ..lin.C.3A.5Cgit.5Crh850.5Csrc.5Capp.5Cgfx_apps.5Csimple_draw.5Ctarget.5Cd1mx_mango_ghs.5Cobj.5Cr_adc_main.114::
                        2674 .LDWlin114:
00000b10 19f0           2675 	mov	r25,ep
00000b12 fe00           2676 	sxh	ep
00000b14 fef61001       2677 	mulhi	272,ep,ep
00000b18 1b08           2678 	mov	r27,r1
00000b1a 2b0600000000*  2679 	mov	_r_adc_Unit,r11
00000b20 c20a           2680 	shl	2,r1
00000b22 01e8           2681 	mov	r1,r29
00000b24 cbf1           2682 	add	r11,ep
00000b26 0075           2683 	sld.w	0[ep],r14
00000b28 cee9           2684 	add	r14,r29
                        2685 --742:                     reg_val      = R_ADC_READ_REG(32, addr) | ((SDCfg->VCh[Channel]).SDparams.SDmode << 9);
00000b2a fbf62400       2686 	mulhi	36,r27,ep
00000b2e 1a76b800       2687 	addi	184,r26,r14
00000b32 cef1           2688 	add	r14,ep
00000b34 0c0d           2689 	sld.w	24[ep],r1
00000b36 3d770100       2690 	ld.w	0[r29],r14
00000b3a c90a           2691 	shl	9,r1
00000b3c 01e0           2692 	mov	r1,r28
00000b3e 0ee1           2693 	or	r14,r28
                        2694 --743:                     if (reg_val != 0)
00000b40 e0e1           2695 	cmp	zero,r28
00000b42 b205*          2696 	be	.L2581

                                                                      Page 47
                                                              C:\Users\Frank\AppData\Local\Temp\gh_0000n141.si
                        2697 --744:                     {
                        2698 --745:                     R_ADC_WRITE_REG(32, addr, reg_val);
                        2699 --line745
                        2700 ..lin.C.3A.5Cgit.5Crh850.5Csrc.5Capp.5Cgfx_apps.5Csimple_draw.5Ctarget.5Cd1mx_mango_ghs.5Cobj.5Cr_adc_main.115::
                        2701 .LDWlin115:
00000b44 7de70100       2702 	st.w	r28,0[r29]
                        2703 .L2581:
                        2704 --746:                     }
                        2705 --747:                 }
                        2706 --748:                 
                        2707 --749:                 /* select voltage mode and function input, if the voltage circuit is selected on */
                        2708 --750:                 if (SDCfg->SDVol_En)
00000b48 3a0f1100       2709 	ld.w	16[r26],r1
00000b4c e009           2710 	cmp	zero,r1
00000b4e b24d*          2711 	be	.L2585
                        2712 --751:                 {
                        2713 --752:                     addr     = r_adc_Unit[Unit].BaseAddr + R_ADC_DGCTL0;
                        2714 --line752
                        2715 ..lin.C.3A.5Cgit.5Crh850.5Csrc.5Capp.5Cgfx_apps.5Csimple_draw.5Ctarget.5Cd1mx_mango_ghs.5Cobj.5Cr_adc_main.116::
                        2716 .LDWlin116:
00000b50 19f0           2717 	mov	r25,ep
00000b52 fe00           2718 	sxh	ep
00000b54 fef61001       2719 	mulhi	272,ep,ep
00000b58 2b0600000000*  2720 	mov	_r_adc_Unit,r11
00000b5e cbf1           2721 	add	r11,ep
00000b60 00ed           2722 	sld.w	0[ep],r29
00000b62 1dee5003       2723 	addi	848,r29,r29
                        2724 --753:                     reg_val  = (SDCfg->VCh[Channel]).SDparams.volmode;
00000b66 fb0e2400       2725 	mulhi	36,r27,r1
00000b6a 1a76b800       2726 	addi	184,r26,r14
00000b6e ce09           2727 	add	r14,r1
00000b70 81e72100       2728 	ld.bu	32[r1],r28
                        2729 --754:                     R_ADC_WRITE_REG(32, addr, reg_val);
00000b74 7de70100       2730 	st.w	r28,0[r29]
                        2731 --755:                     
                        2732 --756:                     if ((SDCfg->VCh[Channel]).SDparams.SDinput)
00000b78 fbf62400       2733 	mulhi	36,r27,ep
00000b7c 1a76b800       2734 	addi	184,r26,r14
00000b80 cef1           2735 	add	r14,ep
00000b82 0e0d           2736 	sld.w	28[ep],r1
00000b84 e009           2737 	cmp	zero,r1
00000b86 f22d*          2738 	be	.L2585
                        2739 --757:                     {
                        2740 --758:                         addr     = r_adc_Unit[Unit].BaseAddr + R_ADC_DGCTL1;
                        2741 --line758
                        2742 ..lin.C.3A.5Cgit.5Crh850.5Csrc.5Capp.5Cgfx_apps.5Csimple_draw.5Ctarget.5Cd1mx_mango_ghs.5Cobj.5Cr_adc_main.117::
                        2743 .LDWlin117:
00000b88 19f0           2744 	mov	r25,ep
00000b8a fe00           2745 	sxh	ep
00000b8c fef61001       2746 	mulhi	272,ep,ep
00000b90 2b0600000000*  2747 	mov	_r_adc_Unit,r11
00000b96 cbf1           2748 	add	r11,ep
00000b98 00ed           2749 	sld.w	0[ep],r29
00000b9a 1dee5403       2750 	addi	852,r29,r29
                        2751 --759:                         reg_val  = R_ADC_READ_REG(32, addr);
00000b9e 3de70100       2752 	ld.w	0[r29],r28
                        2753 --761:                         /* there are only 16 diagnostics channels but the physical channels can map
                        2754 --762:                            where ADCEnIO0 is 16, ADCEnIO1 is 17, so cater for this */                           
                        2755 --763:                         if( ((SDCfg->VCh[Channel]).phyChannel) >= 16)
00000ba2 fbf62400       2756 	mulhi	36,r27,ep
00000ba6 1a76b800       2757 	addi	184,r26,r14

                                                                      Page 48
                                                              C:\Users\Frank\AppData\Local\Temp\gh_0000n141.si
00000baa cef1           2758 	add	r14,ep
00000bac 7808           2759 	sld.hu	16[ep],r1
00000bae 0106f0ff       2760 	addi	-16,r1,zero
00000bb2 d90d*          2761 	bnl	.L2589
                        2762 --764:                         {
                        2763 --765:                             reg_val |= (0x1 << (((SDCfg->VCh[Channel]).phyChannel) - 16) );
                        2764 --line765
                        2765 ..lin.C.3A.5Cgit.5Crh850.5Csrc.5Capp.5Cgfx_apps.5Csimple_draw.5Ctarget.5Cd1mx_mango_ghs.5Cobj.5Cr_adc_main.118::
                        2766 .LDWlin118:
00000bb4 fbf62400       2767 	mulhi	36,r27,ep
00000bb8 1a76b800       2768 	addi	184,r26,r14
00000bbc cef1           2769 	add	r14,ep
00000bbe 7808           2770 	sld.hu	16[ep],r1
00000bc0 0172           2771 	mov	1,r14
00000bc2 500a           2772 	add	-16,r1
00000bc4 e177c208       2773 	shl	r1,r14,r1
00000bc8 01e1           2774 	or	r1,r28
00000bca b50d*          2775 	br	.L2591
                        2776 .L2589:
                        2777 --766:                         }
                        2778 --767:                         else
                        2779 --768:                         {
                        2780 --769:                             reg_val |= (0x1 << ((SDCfg->VCh[Channel]).phyChannel));
                        2781 --line769
                        2782 ..lin.C.3A.5Cgit.5Crh850.5Csrc.5Capp.5Cgfx_apps.5Csimple_draw.5Ctarget.5Cd1mx_mango_ghs.5Cobj.5Cr_adc_main.119::
                        2783 .LDWlin119:
00000bcc fbf62400       2784 	mulhi	36,r27,ep
00000bd0 1a76b800       2785 	addi	184,r26,r14
00000bd4 010a           2786 	mov	1,r1
00000bd6 cef1           2787 	add	r14,ep
00000bd8 7870           2788 	sld.hu	16[ep],r14
00000bda ee0fc208       2789 	shl	r14,r1,r1
00000bde 01e1           2790 	or	r1,r28
                        2791 .L2591:
                        2792 --770:                         }
                        2793 --772:                         R_ADC_WRITE_REG(32, addr, reg_val);
00000be0 7de70100       2794 	st.w	r28,0[r29]
                        2795 .L2585:
                        2796 --773:                     }
                        2797 --774:                 }
                        2798 --775:                 
                        2799 --776:                 ret_val = R_ADC_ERR_OK;
00000be4 63070100       2800 	st.w	zero,0[sp]
00000be8 005a           2801 	mov	0,r11
                        2802 .L2576:
00000bea 41da           2803 	add	1,r27
00000bec 9b00           2804 	zxb	r27
                        2805 .L2578:
00000bee 1930           2806 	mov	r25,r6
                        2807 	jarl	_R_SYS_ADC_MaxChannelNum,lp
                        2807 <EXPANSION BEGIN>
                        2807 jarl22 _R_SYS_ADC_MaxChannelNum , lp 
00000bf0 80ff0000*      2807 <EXPANSION END>
00000bf4 ead9           2808 	cmp	r10,r27
00000bf6 a185*          2809 	bl	.L2577
00000bf8 c505*          2810 	br	.L2592
                        2811 .L2571:
                        2812 --777:             }
                        2813 --778:         }
                        2814 --779:     }
                        2815 --780:     else

                                                                      Page 49
                                                              C:\Users\Frank\AppData\Local\Temp\gh_0000n141.si
                        2816 --781:     {
                        2817 --782:         ret_val = R_ADC_ERR_RANGE;
                        2818 --line782
                        2819 ..lin.C.3A.5Cgit.5Crh850.5Csrc.5Capp.5Cgfx_apps.5Csimple_draw.5Ctarget.5Cd1mx_mango_ghs.5Cobj.5Cr_adc_main.120::
                        2820 .LDWlin120:
00000bfa 025a           2821 	mov	2,r11
00000bfc 635f0100       2822 	st.w	r11,0[sp]
                        2823 .L2592:
                        2824 --783:     }
                        2825 --784:     return ret_val; 
00000c00 23570100       2826 	ld.w	0[sp],r10
                        2827 --	    .ef
                        2828 .LDW74:
00000c04 4406ff70       2829 	dispose	2,{r25,r26,r27,r28,r29,r31},[lp]
                        2830 	.type	_R_ACD_SDiagInit,@function
                        2831 	.size	_R_ACD_SDiagInit,.-_R_ACD_SDiagInit
                        2832 	.align	2
                        2833 .LDW84:
                        2834 --_addr	r29	local
                        2835 --_reg_val	r28	local
                        2836 --_Channel	r27	local
                        2837 --_ret_val	0[sp]	local
                        2838 
                        2839 --_Unit	r25	param
                        2840 --_SDCfg	r26	param
                        2841 
                        2842 	.section ".bss","awb"
                        2843 .L2738:
                        2844 	.type	.L2738,@object
                        2845 	.size	.L2738,0
                        2846 	.data
                        2847 	.text
                        2848 
                        2849 --785: }
                        2850 
                        2851 --788: /*******************************************************************************
                        2852 --789:   Function: R_ADC_SDiagDeInit
                        2853 --790:   
                        2854 --791:   see: <r_adc_api.h> for details
                        2855 --792: */
                        2856 --793: r_adc_Error_t R_ADC_SDiagDeInit(uint32_t Unit)
                        2857 	.align	2
                        2858 	.align	2
                        2859 	.global	_R_ADC_SDiagDeInit
                        2860 _R_ADC_SDiagDeInit:
00000c08 be07e170       2861 	prepare	{r25,r26,r27,r28,r29,r31},31
00000c0c 031e68fa       2862 	addi	-1432,sp,sp
00000c10 06d0           2863 	mov	r6,r26
                        2864 --	    .bf
                        2865 .LDW94:
                        2866 --794: {
                        2867 --795:     uint32_t           addr    = 0;
00000c12 00ea           2868 	mov	0,r29
                        2869 --796:     volatile uint32_t  reg_val = 0;
00000c14 00e2           2870 	mov	0,r28
                        2871 --797:     uint8_t            Channel = 0;
00000c16 00da           2872 	mov	0,r27
                        2873 --798:     r_adc_Error_t      ret_val = R_ADC_ERR_NG;
00000c18 01ca           2874 	mov	1,r25
                        2875 --799:     r_adc_Config_t     ResetSDiag;
                        2876 --801:         if (Unit < R_ADC_MACRO_NUM)

                                                                      Page 50
                                                              C:\Users\Frank\AppData\Local\Temp\gh_0000n141.si
00000c1a 62d2           2877 	cmp	2,r26
00000c1c 8955*          2878 	bnl	.L2851
                        2879 --802:     {
                        2880 --803:         R_ADC_ResetSDCfgParams(&ResetSDiag);
                        2881 --line803
                        2882 ..lin.C.3A.5Cgit.5Crh850.5Csrc.5Capp.5Cgfx_apps.5Csimple_draw.5Ctarget.5Cd1mx_mango_ghs.5Cobj.5Cr_adc_main.121::
                        2883 .LDWlin121:
00000c1e 23360400       2884 	movea	4,sp,r6
                        2885 	jarl	_R_ADC_ResetSDCfgParams,lp
                        2885 <EXPANSION BEGIN>
                        2885 jarl22 _R_ADC_ResetSDCfgParams , lp 
00000c22 bfff6ef6*      2885 <EXPANSION END>
                        2886 --804:         addr         = r_adc_Unit[Unit].BaseAddr + R_ADC_ADCR;
                        2887 --line804
                        2888 ..lin.C.3A.5Cgit.5Crh850.5Csrc.5Capp.5Cgfx_apps.5Csimple_draw.5Ctarget.5Cd1mx_mango_ghs.5Cobj.5Cr_adc_main.122::
                        2889 .LDWlin122:
00000c26 1af0           2890 	mov	r26,ep
00000c28 fe00           2891 	sxh	ep
00000c2a fef61001       2892 	mulhi	272,ep,ep
00000c2e 2b0600000000*  2893 	mov	_r_adc_Unit,r11
00000c34 cbf1           2894 	add	r11,ep
00000c36 00ed           2895 	sld.w	0[ep],r29
00000c38 1dee0403       2896 	addi	772,r29,r29
                        2897 --805:         reg_val      = R_ADC_READ_REG(32, addr);
00000c3c 3de70100       2898 	ld.w	0[r29],r28
                        2899 --807:         reg_val &= 0x7f;
00000c40 dce67f00       2900 	andi	127,r28,r28
                        2901 --808:         R_ADC_WRITE_REG(32, addr, reg_val);
00000c44 7de70100       2902 	st.w	r28,0[r29]
                        2903 --809:         
                        2904 --810:         for (Channel = 33; Channel < R_SYS_ADC_MaxChannelNum(Unit); Channel ++)
00000c48 20de2100       2905 	movea	33,zero,r27
00000c4c f515*          2906 	br	.L2856
                        2907 .L2855:
                        2908 --811:         {
                        2909 --812:             addr         = r_adc_Unit[Unit].BaseAddr + R_ADC_VCR(Channel);
                        2910 --line812
                        2911 ..lin.C.3A.5Cgit.5Crh850.5Csrc.5Capp.5Cgfx_apps.5Csimple_draw.5Ctarget.5Cd1mx_mango_ghs.5Cobj.5Cr_adc_main.123::
                        2912 .LDWlin123:
00000c4e 1af0           2913 	mov	r26,ep
00000c50 fe00           2914 	sxh	ep
00000c52 fef61001       2915 	mulhi	272,ep,ep
00000c56 1b08           2916 	mov	r27,r1
00000c58 2b0600000000*  2917 	mov	_r_adc_Unit,r11
00000c5e c20a           2918 	shl	2,r1
00000c60 01e8           2919 	mov	r1,r29
00000c62 cbf1           2920 	add	r11,ep
00000c64 0075           2921 	sld.w	0[ep],r14
00000c66 cee9           2922 	add	r14,r29
                        2923 --813:             reg_val      = R_ADC_READ_REG(32, addr);
00000c68 3de70100       2924 	ld.w	0[r29],r28
                        2925 --814:             reg_val     &= ~(0x1 << 9);
00000c6c 200efffd       2926 	movea	-513,zero,r1
00000c70 41e1           2927 	and	r1,r28
                        2928 --815:             R_ADC_WRITE_REG(32, addr, reg_val);
00000c72 7de70100       2929 	st.w	r28,0[r29]
00000c76 41da           2930 	add	1,r27
00000c78 9b00           2931 	zxb	r27
                        2932 .L2856:
00000c7a 1a30           2933 	mov	r26,r6
                        2934 	jarl	_R_SYS_ADC_MaxChannelNum,lp

                                                                      Page 51
                                                              C:\Users\Frank\AppData\Local\Temp\gh_0000n141.si
                        2934 <EXPANSION BEGIN>
                        2934 jarl22 _R_SYS_ADC_MaxChannelNum , lp 
00000c7c 80ff0000*      2934 <EXPANSION END>
00000c80 ead9           2935 	cmp	r10,r27
00000c82 e1e5*          2936 	bl	.L2855
                        2937 --816:         }
                        2938 --817:                 
                        2939 --818:         /* select voltage mode and function input, if the voltage circuit is selected on */
                        2940 --819:         addr     = r_adc_Unit[Unit].BaseAddr + R_ADC_DGCTL0;
                        2941 --line819
                        2942 ..lin.C.3A.5Cgit.5Crh850.5Csrc.5Capp.5Cgfx_apps.5Csimple_draw.5Ctarget.5Cd1mx_mango_ghs.5Cobj.5Cr_adc_main.124::
                        2943 .LDWlin124:
00000c84 1af0           2944 	mov	r26,ep
00000c86 fe00           2945 	sxh	ep
00000c88 fef61001       2946 	mulhi	272,ep,ep
00000c8c 2b0600000000*  2947 	mov	_r_adc_Unit,r11
00000c92 cbf1           2948 	add	r11,ep
00000c94 00ed           2949 	sld.w	0[ep],r29
00000c96 1dee5003       2950 	addi	848,r29,r29
                        2951 --820:         R_ADC_WRITE_REG(32, addr, 0x0);
00000c9a 7d070100       2952 	st.w	zero,0[r29]
                        2953 --821:         
                        2954 --822:         addr     = r_adc_Unit[Unit].BaseAddr + R_ADC_DGCTL1;
00000c9e 1af0           2955 	mov	r26,ep
00000ca0 fe00           2956 	sxh	ep
00000ca2 fef61001       2957 	mulhi	272,ep,ep
00000ca6 2b0600000000*  2958 	mov	_r_adc_Unit,r11
00000cac cbf1           2959 	add	r11,ep
00000cae 00ed           2960 	sld.w	0[ep],r29
00000cb0 1dee5403       2961 	addi	852,r29,r29
                        2962 --823:         R_ADC_WRITE_REG(32, addr, 0x0);
00000cb4 7d070100       2963 	st.w	zero,0[r29]
                        2964 --824:         
                        2965 --825:         ret_val = R_ADC_ERR_OK;
00000cb8 00ca           2966 	mov	0,r25
00000cba a505*          2967 	br	.L2857
                        2968 .L2851:
                        2969 --826:     }
                        2970 --827:     else
                        2971 --828:     {
                        2972 --829:         ret_val = R_ADC_ERR_RANGE;
                        2973 --line829
                        2974 ..lin.C.3A.5Cgit.5Crh850.5Csrc.5Capp.5Cgfx_apps.5Csimple_draw.5Ctarget.5Cd1mx_mango_ghs.5Cobj.5Cr_adc_main.125::
                        2975 .LDWlin125:
00000cbc 02ca           2976 	mov	2,r25
                        2977 .L2857:
                        2978 --830:     }
                        2979 --831:     return ret_val; 
00000cbe 1950           2980 	mov	r25,r10
                        2981 --	    .ef
                        2982 .LDW05:
00000cc0 031e9805       2983 	addi	1432,sp,sp
00000cc4 7e06ff70       2984 	dispose	31,{r25,r26,r27,r28,r29,r31},[lp]
                        2985 	.type	_R_ADC_SDiagDeInit,@function
                        2986 	.size	_R_ADC_SDiagDeInit,.-_R_ADC_SDiagDeInit
                        2987 	.align	2
                        2988 .LDW15:
                        2989 --_addr	r29	local
                        2990 --_reg_val	r28	local
                        2991 --_Channel	r27	local
                        2992 --_ret_val	r25	local

                                                                      Page 52
                                                              C:\Users\Frank\AppData\Local\Temp\gh_0000n141.si
                        2993 --_ResetSDiag	4[sp]	local
                        2994 
                        2995 --_Unit	r26	param
                        2996 
                        2997 	.section ".bss","awb"
                        2998 .L2974:
                        2999 	.type	.L2974,@object
                        3000 	.size	.L2974,0
                        3001 	.data
                        3002 	.text
                        3003 
                        3004 --832: }
                        3005 
                        3006 --835: /***********************************************************
                        3007 --836:   Function: R_ADC_EnablePwmTrg
                        3008 --837:   
                        3009 --838:   see: <r_adc_api.h> for details
                        3010 --839: */
                        3011 --840: void R_ADC_EnablePwmTrg (uint32_t Unit, r_adc_PwmTrigger_t PWM_En)
                        3012 	.align	2
                        3013 	.align	2
                        3014 	.global	_R_ADC_EnablePwmTrg
                        3015 _R_ADC_EnablePwmTrg:
00000cc8 8007e130       3016 	prepare	{r26,r27,r28,r29,r31},0
00000ccc 06d8           3017 	mov	r6,r27
00000cce 07d0           3018 	mov	r7,r26
                        3019 --	    .bf
                        3020 .LDW25:
                        3021 --841: {
                        3022 --842:     uint32_t       addr    = 0;
00000cd0 00ea           3023 	mov	0,r29
                        3024 --843:     uint32_t       reg_val = 0;
00000cd2 00e2           3025 	mov	0,r28
                        3026 --844:     if (Unit < R_ADC_MACRO_NUM)
00000cd4 62da           3027 	cmp	2,r27
00000cd6 8915*          3028 	bnl	.L3060
                        3029 --845:     {
                        3030 --846:         addr    = r_adc_Unit[Unit].BaseAddr + R_ADC_PWDSGCR;
                        3031 --line846
                        3032 ..lin.C.3A.5Cgit.5Crh850.5Csrc.5Capp.5Cgfx_apps.5Csimple_draw.5Ctarget.5Cd1mx_mango_ghs.5Cobj.5Cr_adc_main.126::
                        3033 .LDWlin126:
00000cd8 1bf0           3034 	mov	r27,ep
00000cda fe00           3035 	sxh	ep
00000cdc fef61001       3036 	mulhi	272,ep,ep
00000ce0 2e0600000000*  3037 	mov	_r_adc_Unit,r14
00000ce6 cef1           3038 	add	r14,ep
00000ce8 00ed           3039 	sld.w	0[ep],r29
00000cea 1dee0805       3040 	addi	1288,r29,r29
                        3041 --847:         reg_val = PWM_En;
00000cee 1ae0           3042 	mov	r26,r28
                        3043 --848:         R_ADC_WRITE_REG(32, addr, reg_val);
00000cf0 7de70100       3044 	st.w	r28,0[r29]
00000cf4 d505*          3045 	br	.L3062
                        3046 .L3060:
                        3047 --849:     }
                        3048 --850:     else
                        3049 --851:     {
                        3050 --852:         R_ADC_ERROR(Unit, R_ADC_ERR_RANGE, "ADC: Invalid ADC Unit for Self Diagnose");
                        3051 --line852
                        3052 ..lin.C.3A.5Cgit.5Crh850.5Csrc.5Capp.5Cgfx_apps.5Csimple_draw.5Ctarget.5Cd1mx_mango_ghs.5Cobj.5Cr_adc_main.127::
                        3053 .LDWlin127:

                                                                      Page 53
                                                              C:\Users\Frank\AppData\Local\Temp\gh_0000n141.si
00000cf6 1b30           3054 	mov	r27,r6
00000cf8 023a           3055 	mov	2,r7
                        3056 	jarl	_R_ADC_ErrorHandler,lp
                        3056 <EXPANSION BEGIN>
                        3056 jarl22 _R_ADC_ErrorHandler , lp 
00000cfa 80ffa405*      3056 <EXPANSION END>
                        3057 .L3062:
                        3058 --853:     }
                        3059 --854: }
                        3060 --	    .ef
                        3061 .LDW35:
                        3062 --line854
                        3063 ..lin.C.3A.5Cgit.5Crh850.5Csrc.5Capp.5Cgfx_apps.5Csimple_draw.5Ctarget.5Cd1mx_mango_ghs.5Cobj.5Cr_adc_main.128::
                        3064 .LDWlin128:
00000cfe 4006ff30       3065 	dispose	0,{r26,r27,r28,r29,r31},[lp]
                        3066 	.type	_R_ADC_EnablePwmTrg,@function
                        3067 	.size	_R_ADC_EnablePwmTrg,.-_R_ADC_EnablePwmTrg
                        3068 	.align	2
                        3069 .LDW45:
                        3070 --_addr	r29	local
                        3071 --_reg_val	r28	local
                        3072 
                        3073 --_Unit	r27	param
                        3074 --_PWM_En	r26	param
                        3075 
                        3076 	.section ".bss","awb"
                        3077 .L3114:
                        3078 	.type	.L3114,@object
                        3079 	.size	.L3114,0
                        3080 	.data
                        3081 	.text
                        3082 
                        3083 
                        3084 --857: /*******************************************************************************
                        3085 --858:   Function: R_ADC_ConfigTH
                        3086 --859:   
                        3087 --860:   see: <r_adc_api.h> for details
                        3088 --861: */
                        3089 --862: r_adc_Error_t R_ADC_ConfigTH(uint32_t    Unit,
                        3090 	.align	2
                        3091 	.align	2
                        3092 	.global	_R_ADC_ConfigTH
                        3093 _R_ADC_ConfigTH:
00000d02 80074100       3094 	prepare	{r29},0
00000d06 0660           3095 	mov	r6,r12
00000d08 0758           3096 	mov	r7,r11
00000d0a 0870           3097 	mov	r8,r14
00000d0c 2a0600000000*  3098 	mov	_r_adc_Unit,r10
                        3099 --	    .bf
                        3100 .LDW55:
                        3101 --863:                              r_adc_THGroup_t  THGroup, 
                        3102 --864:                              r_adc_THCfg_t *  THCfg)
                        3103 --865: {
                        3104 --866:     uint32_t       addr    = 0;
00000d12 00f2           3105 	mov	0,ep
                        3106 --867:     uint32_t       reg_val = 0;
00000d14 000a           3107 	mov	0,r1
                        3108 --868:     r_adc_Error_t  ret_val = R_ADC_ERR_NG;
00000d16 016a           3109 	mov	1,r13
                        3110 --869:     
                        3111 --870:     if (Unit == 0)

                                                                      Page 54
                                                              C:\Users\Frank\AppData\Local\Temp\gh_0000n141.si
00000d18 e061           3112 	cmp	zero,r12
00000d1a ea072901*      3113 	bne	.L3149
                        3114 --871:     {
                        3115 --872:         addr     = r_adc_Unit[Unit].BaseAddr + R_ADC_THCR;
                        3116 --line872
                        3117 ..lin.C.3A.5Cgit.5Crh850.5Csrc.5Capp.5Cgfx_apps.5Csimple_draw.5Ctarget.5Cd1mx_mango_ghs.5Cobj.5Cr_adc_main.129::
                        3118 .LDWlin129:
00000d1e 0c48           3119 	mov	r12,r9
00000d20 e900           3120 	sxh	r9
00000d22 e94e1001       3121 	mulhi	272,r9,r9
00000d26 ca49           3122 	add	r10,r9
00000d28 29f70100       3123 	ld.w	0[r9],ep
00000d2c 1ef61803       3124 	addi	792,ep,ep
                        3125 --873:         reg_val  = THCfg->TH_SmpMsk;
00000d30 2e0f1100       3126 	ld.w	16[r14],r1
                        3127 --874:         R_ADC_WRITE_REG(32, addr, reg_val);
00000d34 010d           3128 	sst.w	r1,0[ep]
                        3129 --875:         
                        3130 --876:         addr     = r_adc_Unit[Unit].BaseAddr + R_ADC_THER;
00000d36 0c48           3131 	mov	r12,r9
00000d38 e900           3132 	sxh	r9
00000d3a e94e1001       3133 	mulhi	272,r9,r9
00000d3e ca49           3134 	add	r10,r9
00000d40 29f70100       3135 	ld.w	0[r9],ep
00000d44 1ef62c03       3136 	addi	812,ep,ep
                        3137 --877:         reg_val  = (THCfg->TH[THGroup]).TH_E;
00000d48 0b48           3138 	mov	r11,r9
00000d4a c34a           3139 	shl	3,r9
00000d4c ce49           3140 	add	r14,r9
00000d4e 290f0500       3141 	ld.w	4[r9],r1
                        3142 --878:         if ((THCfg->TH[THGroup]).TH_E == R_ADC_TH_ENABLE)
00000d52 0b48           3143 	mov	r11,r9
00000d54 c34a           3144 	shl	3,r9
00000d56 ce49           3145 	add	r14,r9
00000d58 294f0500       3146 	ld.w	4[r9],r9
00000d5c 614a           3147 	cmp	1,r9
00000d5e da65*          3148 	bne	.L3151
                        3149 --879:         {
                        3150 --880:             reg_val  |= 0x1 << ((THCfg->TH[THGroup]).TH_Ch);
                        3151 --line880
                        3152 ..lin.C.3A.5Cgit.5Crh850.5Csrc.5Capp.5Cgfx_apps.5Csimple_draw.5Ctarget.5Cd1mx_mango_ghs.5Cobj.5Cr_adc_main.130::
                        3153 .LDWlin130:
00000d60 0b48           3154 	mov	r11,r9
00000d62 c34a           3155 	shl	3,r9
00000d64 ce49           3156 	add	r14,r9
00000d66 01ea           3157 	mov	1,r29
00000d68 294f0100       3158 	ld.w	0[r9],r9
00000d6c e9efc248       3159 	shl	r9,r29,r9
00000d70 0909           3160 	or	r9,r1
                        3161 --881:             R_ADC_WRITE_REG(32, addr, reg_val);
00000d72 010d           3162 	sst.w	r1,0[ep]
                        3163 --882:             
                        3164 --883:             switch (THGroup)
00000d74 615a           3165 	cmp	1,r11
00000d76 fb55*          3166 	bh	.L3157
00000d78 c22d*          3167 	be	.L3156
                        3168 --884:             {
                        3169 --885:                 case R_ADC_THG_A: addr     = r_adc_Unit[Unit].BaseAddr + R_ADC_THGSR;
                        3170 --line885
                        3171 ..lin.C.3A.5Cgit.5Crh850.5Csrc.5Capp.5Cgfx_apps.5Csimple_draw.5Ctarget.5Cd1mx_mango_ghs.5Cobj.5Cr_adc_main.131::
                        3172 .LDWlin131:

                                                                      Page 55
                                                              C:\Users\Frank\AppData\Local\Temp\gh_0000n141.si
00000d7a 0c48           3173 	mov	r12,r9
00000d7c e900           3174 	sxh	r9
00000d7e e94e1001       3175 	mulhi	272,r9,r9
00000d82 ca49           3176 	add	r10,r9
00000d84 29f70100       3177 	ld.w	0[r9],ep
00000d88 1ef63003       3178 	addi	816,ep,ep
                        3179 --886:                                   reg_val &= ~(0x01 << (THCfg->TH[THGroup]).TH_Ch);
00000d8c 0b48           3180 	mov	r11,r9
00000d8e c34a           3181 	shl	3,r9
00000d90 ce49           3182 	add	r14,r9
00000d92 01ea           3183 	mov	1,r29
00000d94 294f0100       3184 	ld.w	0[r9],r9
00000d98 e9efc248       3185 	shl	r9,r29,r9
00000d9c 2948           3186 	not	r9,r9
00000d9e 4909           3187 	and	r9,r1
                        3188 --887:                                   R_ADC_WRITE_REG(32, addr, reg_val);
00000da0 010d           3189 	sst.w	r1,0[ep]
                        3190 --888:                               
                        3191 --889:                                   addr     = r_adc_Unit[Unit].BaseAddr + R_ADC_THACR;
00000da2 0c48           3192 	mov	r12,r9
00000da4 e900           3193 	sxh	r9
00000da6 e94e1001       3194 	mulhi	272,r9,r9
00000daa ca49           3195 	add	r10,r9
00000dac 29f70100       3196 	ld.w	0[r9],ep
00000db0 1ef62403       3197 	addi	804,ep,ep
                        3198 --890:                                   reg_val  = ((THCfg->TH_EndTrg) << 5) | ((THCfg->TH_HldTrg) << 4) | ((THCfg->TH_SgGroup));
00000db4 2e4f1500       3199 	ld.w	20[r14],r9
00000db8 2eef1900       3200 	ld.w	24[r14],r29
00000dbc c54a           3201 	shl	5,r9
00000dbe c4ea           3202 	shl	4,r29
00000dc0 09e9           3203 	or	r9,r29
00000dc2 2e4f1d00       3204 	ld.w	28[r14],r9
00000dc6 0908           3205 	mov	r9,r1
00000dc8 1d09           3206 	or	r29,r1
                        3207 --891:                                   R_ADC_WRITE_REG(32, addr, reg_val);
00000dca 010d           3208 	sst.w	r1,0[ep]
                        3209 --892:                                   
                        3210 --893:                                   ret_val = R_ADC_ERR_OK;
00000dcc 006a           3211 	mov	0,r13
00000dce b53d*          3212 	br	.L3159
                        3213 .L3156:
                        3214 --894:                                   break;
                        3215 --895:                                
                        3216 --896:                 case R_ADC_THG_B: addr     = r_adc_Unit[Unit].BaseAddr + R_ADC_THGSR;
                        3217 --line896
                        3218 ..lin.C.3A.5Cgit.5Crh850.5Csrc.5Capp.5Cgfx_apps.5Csimple_draw.5Ctarget.5Cd1mx_mango_ghs.5Cobj.5Cr_adc_main.132::
                        3219 .LDWlin132:
00000dd0 0c48           3220 	mov	r12,r9
00000dd2 e900           3221 	sxh	r9
00000dd4 e94e1001       3222 	mulhi	272,r9,r9
00000dd8 ca49           3223 	add	r10,r9
00000dda 29f70100       3224 	ld.w	0[r9],ep
00000dde 1ef63003       3225 	addi	816,ep,ep
                        3226 --897:                                   reg_val |= 0x01 << (THCfg->TH[THGroup]).TH_Ch;
00000de2 0b48           3227 	mov	r11,r9
00000de4 c34a           3228 	shl	3,r9
00000de6 ce49           3229 	add	r14,r9
00000de8 01ea           3230 	mov	1,r29
00000dea 294f0100       3231 	ld.w	0[r9],r9
00000dee e9efc248       3232 	shl	r9,r29,r9
00000df2 0909           3233 	or	r9,r1

                                                                      Page 56
                                                              C:\Users\Frank\AppData\Local\Temp\gh_0000n141.si
                        3234 --898:                                   R_ADC_WRITE_REG(32, addr, reg_val);
00000df4 010d           3235 	sst.w	r1,0[ep]
                        3236 --899:                               
                        3237 --900:                                   addr     = r_adc_Unit[Unit].BaseAddr + R_ADC_THBCR;
00000df6 0c48           3238 	mov	r12,r9
00000df8 e900           3239 	sxh	r9
00000dfa e94e1001       3240 	mulhi	272,r9,r9
00000dfe ca49           3241 	add	r10,r9
00000e00 29f70100       3242 	ld.w	0[r9],ep
00000e04 1ef62803       3243 	addi	808,ep,ep
                        3244 --901:                                   reg_val  = ((THCfg->TH_EndTrg) << 5) | ((THCfg->TH_HldTrg) << 4) | ((THCfg->TH_SgGroup));
00000e08 2e4f1500       3245 	ld.w	20[r14],r9
00000e0c 2eef1900       3246 	ld.w	24[r14],r29
00000e10 c54a           3247 	shl	5,r9
00000e12 c4ea           3248 	shl	4,r29
00000e14 09e9           3249 	or	r9,r29
00000e16 2e4f1d00       3250 	ld.w	28[r14],r9
00000e1a 0908           3251 	mov	r9,r1
00000e1c 1d09           3252 	or	r29,r1
                        3253 --902:                                    R_ADC_WRITE_REG(32, addr, reg_val);
00000e1e 010d           3254 	sst.w	r1,0[ep]
                        3255 --903:                                    
                        3256 --904:                                    ret_val = R_ADC_ERR_OK;
00000e20 006a           3257 	mov	0,r13
00000e22 9515*          3258 	br	.L3159
                        3259 .L3157:
                        3260 --905:                                   break;
                        3261 --906:                 default         : ret_val = R_ADC_ERR_RANGE;
                        3262 --line906
                        3263 ..lin.C.3A.5Cgit.5Crh850.5Csrc.5Capp.5Cgfx_apps.5Csimple_draw.5Ctarget.5Cd1mx_mango_ghs.5Cobj.5Cr_adc_main.133::
                        3264 .LDWlin133:
00000e24 026a           3265 	mov	2,r13
00000e26 f50d*          3266 	br	.L3159
                        3267 .L3151:
                        3268 --907:             }
                        3269 --908:         }
                        3270 --909:         else
                        3271 --910:         {
                        3272 --911:             reg_val  &= ~(0x1 << ((THCfg->TH[THGroup]).TH_Ch));
                        3273 --line911
                        3274 ..lin.C.3A.5Cgit.5Crh850.5Csrc.5Capp.5Cgfx_apps.5Csimple_draw.5Ctarget.5Cd1mx_mango_ghs.5Cobj.5Cr_adc_main.134::
                        3275 .LDWlin134:
00000e28 0b48           3276 	mov	r11,r9
00000e2a c34a           3277 	shl	3,r9
00000e2c ce49           3278 	add	r14,r9
00000e2e 01ea           3279 	mov	1,r29
00000e30 294f0100       3280 	ld.w	0[r9],r9
00000e34 e9efc248       3281 	shl	r9,r29,r9
00000e38 2948           3282 	not	r9,r9
00000e3a 4909           3283 	and	r9,r1
                        3284 --912:             R_ADC_WRITE_REG(32, addr, reg_val);
00000e3c 010d           3285 	sst.w	r1,0[ep]
                        3286 --913:             ret_val = R_ADC_ERR_OK;
00000e3e 006a           3287 	mov	0,r13
00000e40 a505*          3288 	br	.L3159
                        3289 .L3149:
                        3290 --914:         }  
                        3291 --915:     }
                        3292 --916:     else
                        3293 --917:     {
                        3294 --918:         ret_val = R_ADC_ERR_RANGE;

                                                                      Page 57
                                                              C:\Users\Frank\AppData\Local\Temp\gh_0000n141.si
                        3295 --line918
                        3296 ..lin.C.3A.5Cgit.5Crh850.5Csrc.5Capp.5Cgfx_apps.5Csimple_draw.5Ctarget.5Cd1mx_mango_ghs.5Cobj.5Cr_adc_main.135::
                        3297 .LDWlin135:
00000e42 026a           3298 	mov	2,r13
                        3299 .L3159:
                        3300 --919:     }
                        3301 --920:     return ret_val;
00000e44 0000           3302 	nop
                        3303 --	    .ef
                        3304 .LDW65:
00000e46 0d50           3305 	mov	r13,r10
00000e48 40065f00       3306 	dispose	0,{r29},[lp]
                        3307 	.type	_R_ADC_ConfigTH,@function
                        3308 	.size	_R_ADC_ConfigTH,.-_R_ADC_ConfigTH
                        3309 	.align	2
                        3310 .LDW75:
                        3311 --_addr	ep	local
                        3312 --_reg_val	r1	local
                        3313 --_ret_val	r13	local
                        3314 
                        3315 --_Unit	r12	param
                        3316 --_THGroup	r11	param
                        3317 --_THCfg	r14	param
                        3318 
                        3319 	.section ".bss","awb"
                        3320 .L3322:
                        3321 	.type	.L3322,@object
                        3322 	.size	.L3322,0
                        3323 	.data
                        3324 	.text
                        3325 
                        3326 --921: }
                        3327 
                        3328 --924: /*******************************************************************************
                        3329 --925:   Function: R_ADC_THDisable
                        3330 --926:   
                        3331 --927:   see: <r_adc_api.h> for details
                        3332 --928: */
                        3333 --929: r_adc_Error_t R_ADC_THDisable(uint32_t Unit)
                        3334 	.align	2
                        3335 	.align	2
                        3336 	.global	_R_ADC_THDisable
                        3337 _R_ADC_THDisable:
00000e4c 0670           3338 	mov	r6,r14
                        3339 --	    .bf
                        3340 .LDW85:
                        3341 --930: {
                        3342 --931:     uint32_t       addr    = 0;
00000e4e 00f2           3343 	mov	0,ep
                        3344 --932:     r_adc_Error_t  ret_val = R_ADC_ERR_NG;
00000e50 010a           3345 	mov	1,r1
                        3346 --933:     
                        3347 --934:     if (Unit == 0)
00000e52 e071           3348 	cmp	zero,r14
00000e54 8a15*          3349 	bne	.L3444
                        3350 --935:     {
                        3351 --936:         addr = r_adc_Unit[Unit].BaseAddr + R_ADC_THER;
                        3352 --line936
                        3353 ..lin.C.3A.5Cgit.5Crh850.5Csrc.5Capp.5Cgfx_apps.5Csimple_draw.5Ctarget.5Cd1mx_mango_ghs.5Cobj.5Cr_adc_main.136::
                        3354 .LDWlin136:
00000e56 0e68           3355 	mov	r14,r13

                                                                      Page 58
                                                              C:\Users\Frank\AppData\Local\Temp\gh_0000n141.si
00000e58 ed00           3356 	sxh	r13
00000e5a ed6e1001       3357 	mulhi	272,r13,r13
00000e5e 2c0600000000*  3358 	mov	_r_adc_Unit,r12
00000e64 cc69           3359 	add	r12,r13
00000e66 2df70100       3360 	ld.w	0[r13],ep
00000e6a 1ef62c03       3361 	addi	812,ep,ep
                        3362 --937:         R_ADC_WRITE_REG(32, addr, 0x0);
00000e6e 0105           3363 	sst.w	zero,0[ep]
                        3364 --938:         ret_val = R_ADC_ERR_OK;
00000e70 000a           3365 	mov	0,r1
00000e72 a505*          3366 	br	.L3446
                        3367 .L3444:
                        3368 --939:     }
                        3369 --940:     else
                        3370 --941:     {
                        3371 --942:         ret_val = R_ADC_ERR_RANGE;
                        3372 --line942
                        3373 ..lin.C.3A.5Cgit.5Crh850.5Csrc.5Capp.5Cgfx_apps.5Csimple_draw.5Ctarget.5Cd1mx_mango_ghs.5Cobj.5Cr_adc_main.137::
                        3374 .LDWlin137:
00000e74 020a           3375 	mov	2,r1
                        3376 .L3446:
                        3377 --943:     }
                        3378 --944:     return ret_val;
00000e76 0150           3379 	mov	r1,r10
                        3380 --	    .ef
                        3381 .LDW95:
00000e78 7f00           3382 	jmp	[lp]
                        3383 	.type	_R_ADC_THDisable,@function
                        3384 	.size	_R_ADC_THDisable,.-_R_ADC_THDisable
                        3385 	.align	2
                        3386 .LDW06:
                        3387 --_addr	ep	local
                        3388 --_ret_val	r1	local
                        3389 
                        3390 --_Unit	r14	param
                        3391 
                        3392 	.section ".bss","awb"
                        3393 .L3498:
                        3394 	.type	.L3498,@object
                        3395 	.size	.L3498,0
                        3396 	.data
                        3397 	.text
                        3398 
                        3399 --945: }
                        3400 
                        3401 --948: /*******************************************************************************
                        3402 --949:   Function: R_ADC_StartTrgTH
                        3403 --950:   
                        3404 --951:   see: <r_adc_api.h> for details
                        3405 --952: */
                        3406 --953: r_adc_Error_t R_ADC_StartTrgTH(uint32_t Unit)
                        3407 	.align	2
                        3408 	.align	2
                        3409 	.global	_R_ADC_StartTrgTH
                        3410 _R_ADC_StartTrgTH:
00000e7a 0670           3411 	mov	r6,r14
                        3412 --	    .bf
                        3413 .LDW16:
                        3414 --954: {
                        3415 --955:     uint32_t       addr    = 0;
00000e7c 00f2           3416 	mov	0,ep

                                                                      Page 59
                                                              C:\Users\Frank\AppData\Local\Temp\gh_0000n141.si
                        3417 --956:     r_adc_Error_t  ret_val = R_ADC_ERR_NG;
00000e7e 010a           3418 	mov	1,r1
                        3419 --957:     
                        3420 --958:     if (Unit == 0)
00000e80 e071           3421 	cmp	zero,r14
00000e82 9a15*          3422 	bne	.L3533
                        3423 --959:     {
                        3424 --960:         addr    = r_adc_Unit[Unit].BaseAddr + R_ADC_THSMPSTCR;
                        3425 --line960
                        3426 ..lin.C.3A.5Cgit.5Crh850.5Csrc.5Capp.5Cgfx_apps.5Csimple_draw.5Ctarget.5Cd1mx_mango_ghs.5Cobj.5Cr_adc_main.138::
                        3427 .LDWlin138:
00000e84 0e68           3428 	mov	r14,r13
00000e86 ed00           3429 	sxh	r13
00000e88 ed6e1001       3430 	mulhi	272,r13,r13
00000e8c 2c0600000000*  3431 	mov	_r_adc_Unit,r12
00000e92 cc69           3432 	add	r12,r13
00000e94 2df70100       3433 	ld.w	0[r13],ep
00000e98 1ef61403       3434 	addi	788,ep,ep
                        3435 --961:         R_ADC_WRITE_REG(32, addr, 0x1);
00000e9c 016a           3436 	mov	1,r13
00000e9e 016d           3437 	sst.w	r13,0[ep]
                        3438 --962:         ret_val = R_ADC_ERR_OK;
00000ea0 000a           3439 	mov	0,r1
00000ea2 a505*          3440 	br	.L3535
                        3441 .L3533:
                        3442 --963:     }
                        3443 --964:     else
                        3444 --965:     {
                        3445 --966:         ret_val = R_ADC_ERR_RANGE;
                        3446 --line966
                        3447 ..lin.C.3A.5Cgit.5Crh850.5Csrc.5Capp.5Cgfx_apps.5Csimple_draw.5Ctarget.5Cd1mx_mango_ghs.5Cobj.5Cr_adc_main.139::
                        3448 .LDWlin139:
00000ea4 020a           3449 	mov	2,r1
                        3450 .L3535:
                        3451 --967:     }
                        3452 --968:     return ret_val;
00000ea6 0150           3453 	mov	r1,r10
                        3454 --	    .ef
                        3455 .LDW26:
00000ea8 7f00           3456 	jmp	[lp]
                        3457 	.type	_R_ADC_StartTrgTH,@function
                        3458 	.size	_R_ADC_StartTrgTH,.-_R_ADC_StartTrgTH
                        3459 	.align	2
                        3460 .LDW36:
                        3461 --_addr	ep	local
                        3462 --_ret_val	r1	local
                        3463 
                        3464 --_Unit	r14	param
                        3465 
                        3466 	.section ".bss","awb"
                        3467 .L3578:
                        3468 	.type	.L3578,@object
                        3469 	.size	.L3578,0
                        3470 	.data
                        3471 	.text
                        3472 
                        3473 --969: }
                        3474 
                        3475 --972: /*******************************************************************************
                        3476 --973:   Function: R_ADC_HoldTrgTH
                        3477 --974:   

                                                                      Page 60
                                                              C:\Users\Frank\AppData\Local\Temp\gh_0000n141.si
                        3478 --975:   see: <r_adc_api.h> for details
                        3479 --976: */
                        3480 --977: r_adc_Error_t R_ADC_HoldTrgTH(uint32_t    Unit,
                        3481 	.align	2
                        3482 	.align	2
                        3483 	.global	_R_ADC_HoldTrgTH
                        3484 _R_ADC_HoldTrgTH:
00000eaa 0670           3485 	mov	r6,r14
00000eac 0760           3486 	mov	r7,r12
00000eae 2d0600000000*  3487 	mov	_r_adc_Unit,r13
                        3488 --	    .bf
                        3489 .LDW46:
                        3490 --978:                               r_adc_THGroup_t  THGroup)
                        3491 --979: {
                        3492 --980:     uint32_t       addr    = 0;
00000eb4 00f2           3493 	mov	0,ep
                        3494 --981:     r_adc_Error_t  ret_val = R_ADC_ERR_NG;
00000eb6 010a           3495 	mov	1,r1
                        3496 --982:     
                        3497 --983:     if (Unit == 0)
00000eb8 e071           3498 	cmp	zero,r14
00000eba 8a25*          3499 	bne	.L3613
                        3500 --984:     {
                        3501 --985:         switch (THGroup)
                        3502 --line985
                        3503 ..lin.C.3A.5Cgit.5Crh850.5Csrc.5Capp.5Cgfx_apps.5Csimple_draw.5Ctarget.5Cd1mx_mango_ghs.5Cobj.5Cr_adc_main.140::
                        3504 .LDWlin140:
00000ebc 6162           3505 	cmp	1,r12
00000ebe cb1d*          3506 	bh	.L3619
00000ec0 e20d*          3507 	be	.L3618
                        3508 --986:         {
                        3509 --987:             case R_ADC_THG_A: addr = r_adc_Unit[Unit].BaseAddr + R_ADC_THAHLDSTCR;
                        3510 --line987
                        3511 ..lin.C.3A.5Cgit.5Crh850.5Csrc.5Capp.5Cgfx_apps.5Csimple_draw.5Ctarget.5Cd1mx_mango_ghs.5Cobj.5Cr_adc_main.141::
                        3512 .LDWlin141:
00000ec2 0e58           3513 	mov	r14,r11
00000ec4 eb00           3514 	sxh	r11
00000ec6 eb5e1001       3515 	mulhi	272,r11,r11
00000eca cd59           3516 	add	r13,r11
00000ecc 2bf70100       3517 	ld.w	0[r11],ep
00000ed0 1ef61c03       3518 	addi	796,ep,ep
                        3519 --988:                               R_ADC_WRITE_REG(32, addr, 0x1);
00000ed4 015a           3520 	mov	1,r11
00000ed6 015d           3521 	sst.w	r11,0[ep]
                        3522 --989:                               ret_val = R_ADC_ERR_OK;
00000ed8 000a           3523 	mov	0,r1
00000eda 9515*          3524 	br	.L3620
                        3525 .L3618:
                        3526 --990:                               break;
                        3527 --991:             case R_ADC_THG_B: addr = r_adc_Unit[Unit].BaseAddr + R_ADC_THBHLDSTCR;
                        3528 --line991
                        3529 ..lin.C.3A.5Cgit.5Crh850.5Csrc.5Capp.5Cgfx_apps.5Csimple_draw.5Ctarget.5Cd1mx_mango_ghs.5Cobj.5Cr_adc_main.142::
                        3530 .LDWlin142:
00000edc 0e58           3531 	mov	r14,r11
00000ede eb00           3532 	sxh	r11
00000ee0 eb5e1001       3533 	mulhi	272,r11,r11
00000ee4 cd59           3534 	add	r13,r11
00000ee6 2bf70100       3535 	ld.w	0[r11],ep
00000eea 1ef62003       3536 	addi	800,ep,ep
                        3537 --992:                               R_ADC_WRITE_REG(32, addr, 0x1);
00000eee 015a           3538 	mov	1,r11

                                                                      Page 61
                                                              C:\Users\Frank\AppData\Local\Temp\gh_0000n141.si
00000ef0 015d           3539 	sst.w	r11,0[ep]
                        3540 --993:                               ret_val = R_ADC_ERR_OK;
00000ef2 000a           3541 	mov	0,r1
00000ef4 c505*          3542 	br	.L3620
                        3543 .L3619:
                        3544 --994:                               break;
                        3545 --995:             default         : ret_val = R_ADC_ERR_RANGE;
                        3546 --line995
                        3547 ..lin.C.3A.5Cgit.5Crh850.5Csrc.5Capp.5Cgfx_apps.5Csimple_draw.5Ctarget.5Cd1mx_mango_ghs.5Cobj.5Cr_adc_main.143::
                        3548 .LDWlin143:
00000ef6 020a           3549 	mov	2,r1
00000ef8 a505*          3550 	br	.L3620
                        3551 .L3613:
                        3552 --996:         }
                        3553 --997:     }
                        3554 --998:     else
                        3555 --999:     {
                        3556 --1000:         ret_val = R_ADC_ERR_RANGE;
                        3557 --line1000
                        3558 ..lin.C.3A.5Cgit.5Crh850.5Csrc.5Capp.5Cgfx_apps.5Csimple_draw.5Ctarget.5Cd1mx_mango_ghs.5Cobj.5Cr_adc_main.144::
                        3559 .LDWlin144:
00000efa 020a           3560 	mov	2,r1
                        3561 .L3620:
                        3562 --1001:     }
                        3563 --1002:     return ret_val;
00000efc 0150           3564 	mov	r1,r10
                        3565 --	    .ef
                        3566 .LDW56:
00000efe 7f00           3567 	jmp	[lp]
                        3568 	.type	_R_ADC_HoldTrgTH,@function
                        3569 	.size	_R_ADC_HoldTrgTH,.-_R_ADC_HoldTrgTH
                        3570 	.align	2
                        3571 .LDW66:
                        3572 --_addr	ep	local
                        3573 --_ret_val	r1	local
                        3574 
                        3575 --_Unit	r14	param
                        3576 --_THGroup	r12	param
                        3577 
                        3578 	.section ".bss","awb"
                        3579 .L3706:
                        3580 	.type	.L3706,@object
                        3581 	.size	.L3706,0
                        3582 	.data
                        3583 	.text
                        3584 
                        3585 --1003: }
                        3586 
                        3587 --1006: /*******************************************************************************
                        3588 --1007:   Function: R_ADC_ReadRes
                        3589 --1008:   
                        3590 --1009:   see: <r_adc_api.h> for details
                        3591 --1010: */
                        3592 --1011: void R_ADC_ReadRes (uint32_t Unit, r_adc_ResParams_t* ConvRes)
                        3593 	.align	2
                        3594 	.align	2
                        3595 	.global	_R_ADC_ReadRes
                        3596 _R_ADC_ReadRes:
00000f00 8007e170       3597 	prepare	{r25,r26,r27,r28,r29,r31},0
00000f04 0658           3598 	mov	r6,r11
00000f06 07f0           3599 	mov	r7,ep

                                                                      Page 62
                                                              C:\Users\Frank\AppData\Local\Temp\gh_0000n141.si
00000f08 290600000000*  3600 	mov	_r_adc_MpxNum,r9
00000f0e 280600000000*  3601 	mov	_r_adc_Unit,r8
00000f14 3b0600000000*  3602 	mov	_r_adc_CovResult,r27
00000f1a 3a0600000000*  3603 	mov	_r_adc_VChannel,r26
                        3604 --	    .bf
                        3605 .LDW76:
                        3606 --1012: {
                        3607 --1013:     uint32_t          addr    = 0;
00000f20 000a           3608 	mov	0,r1
                        3609 --1014:     uint32_t          reg_val = 0;
00000f22 006a           3610 	mov	0,r13
                        3611 --1015:     uint8_t           MPX_E;
                        3612 --1016:     uint8_t           ScanGroupSP;
                        3613 --1017:     uint8_t           ScanGroupEP;
                        3614 --1018:     uint8_t           Ch_Num;
                        3615 --1019:     volatile uint16_t New_Result;
                        3616 --1020:     
                        3617 --1021:     if (ConvRes->ScanGroup == R_ADC_CG_LAST || ConvRes->ScanGroup == R_ADC_CG_PWM)
00000f24 0075           3618 	sld.w	0[ep],r14
00000f26 6572           3619 	cmp	5,r14
00000f28 e207f901*      3620 	be	.L3771
00000f2c 0075           3621 	sld.w	0[ep],r14
00000f2e 6472           3622 	cmp	4,r14
00000f30 e207f101*      3623 	be	.L3771
                        3624 --1022:     {}
                        3625 --1023:     else
                        3626 --1024:     {
                        3627 --1025:         addr             = r_adc_Unit[Unit].BaseAddr + R_ADC_SGVCSP(ConvRes->ScanGroup);
                        3628 --line1025
                        3629 ..lin.C.3A.5Cgit.5Crh850.5Csrc.5Capp.5Cgfx_apps.5Csimple_draw.5Ctarget.5Cd1mx_mango_ghs.5Cobj.5Cr_adc_main.145::
                        3630 .LDWlin145:
00000f34 0b70           3631 	mov	r11,r14
00000f36 ee00           3632 	sxh	r14
00000f38 ee761001       3633 	mulhi	272,r14,r14
00000f3c 0065           3634 	sld.w	0[ep],r12
00000f3e c871           3635 	add	r8,r14
00000f40 2e770100       3636 	ld.w	0[r14],r14
00000f44 c662           3637 	shl	6,r12
00000f46 0c660c04       3638 	addi	1036,r12,r12
00000f4a 0c08           3639 	mov	r12,r1
00000f4c ce09           3640 	add	r14,r1
                        3641 --1026:         ScanGroupSP      = R_ADC_READ_REG(8, addr);
00000f4e 81e70100       3642 	ld.bu	0[r1],r28
                        3643 --1027:         addr             = r_adc_Unit[Unit].BaseAddr + R_ADC_SGVCEP(ConvRes->ScanGroup);
00000f52 0b70           3644 	mov	r11,r14
00000f54 ee00           3645 	sxh	r14
00000f56 ee761001       3646 	mulhi	272,r14,r14
00000f5a 0065           3647 	sld.w	0[ep],r12
00000f5c c871           3648 	add	r8,r14
00000f5e 2e770100       3649 	ld.w	0[r14],r14
00000f62 c662           3650 	shl	6,r12
00000f64 0c661004       3651 	addi	1040,r12,r12
00000f68 0c08           3652 	mov	r12,r1
00000f6a ce09           3653 	add	r14,r1
                        3654 --1028:         ScanGroupEP      = R_ADC_READ_REG(8, addr);
00000f6c 81ef0100       3655 	ld.bu	0[r1],r29
                        3656 --1029:         Ch_Num           = ScanGroupSP;
00000f70 1c70           3657 	mov	r28,r14
                        3658 --1030:         if (r_adc_ChEndFlag[Unit])
00000f72 0b60           3659 	mov	r11,r12
00000f74 c262           3660 	shl	2,r12

                                                                      Page 63
                                                              C:\Users\Frank\AppData\Local\Temp\gh_0000n141.si
00000f76 2a0600000000*  3661 	mov	_r_adc_ChEndFlag,r10
00000f7c ca61           3662 	add	r10,r12
00000f7e 2c670100       3663 	ld.w	0[r12],r12
00000f82 e061           3664 	cmp	zero,r12
00000f84 d265*          3665 	be	.L3772
                        3666 --1031:         {
                        3667 --1032:             do
                        3668 --line1032
                        3669 ..lin.C.3A.5Cgit.5Crh850.5Csrc.5Capp.5Cgfx_apps.5Csimple_draw.5Ctarget.5Cd1mx_mango_ghs.5Cobj.5Cr_adc_main.146::
                        3670 .LDWlin146:
00000f86 0000           3671 	nop
                        3672 .L3776:
                        3673 --1033:             {
                        3674 --1034:                 addr         = r_adc_Unit[Unit].BaseAddr + R_ADC_DIR(Ch_Num);
00000f88 0b50           3675 	mov	r11,r10
00000f8a ea00           3676 	sxh	r10
00000f8c ea561001       3677 	mulhi	272,r10,r10
00000f90 0ec8           3678 	mov	r14,r25
00000f92 c2ca           3679 	shl	2,r25
00000f94 19ce0002       3680 	addi	512,r25,r25
00000f98 1908           3681 	mov	r25,r1
00000f9a c851           3682 	add	r8,r10
00000f9c 2a570100       3683 	ld.w	0[r10],r10
00000fa0 ca09           3684 	add	r10,r1
                        3685 --1035:                 reg_val      = R_ADC_READ_REG(32, addr);
00000fa2 216f0100       3686 	ld.w	0[r1],r13
                        3687 --1036:                 New_Result   = reg_val & 0xffff;
00000fa6 cd66ffff       3688 	andi	65535,r13,r12
00000faa cc00           3689 	zxh	r12
                        3690 --1037:                 if (New_Result != 0)
00000fac e061           3691 	cmp	zero,r12
00000fae a205*          3692 	be	.L3777
                        3693 --1038:                 {
                        3694 --1039:                     break;
                        3695 --line1039
                        3696 ..lin.C.3A.5Cgit.5Crh850.5Csrc.5Capp.5Cgfx_apps.5Csimple_draw.5Ctarget.5Cd1mx_mango_ghs.5Cobj.5Cr_adc_main.147::
                        3697 .LDWlin147:
00000fb0 d505*          3698 	br	.L3779
                        3699 .L3777:
                        3700 --1040:                 }
                        3701 --1041:                 Ch_Num++;
                        3702 --line1041
                        3703 ..lin.C.3A.5Cgit.5Crh850.5Csrc.5Capp.5Cgfx_apps.5Csimple_draw.5Ctarget.5Cd1mx_mango_ghs.5Cobj.5Cr_adc_main.148::
                        3704 .LDWlin148:
00000fb2 4172           3705 	add	1,r14
00000fb4 8e00           3706 	zxb	r14
00000fb6 fd71           3707 	cmp	r29,r14
00000fb8 83ed*          3708 	bnh	.L3776
                        3709 .L3779:
                        3710 --1042:             }while(Ch_Num <= ScanGroupEP);
                        3711 --1043:             ConvRes->PhyChannel                       = (reg_val >> 16) & 0x3f;
                        3712 --line1043
                        3713 ..lin.C.3A.5Cgit.5Crh850.5Csrc.5Capp.5Cgfx_apps.5Csimple_draw.5Ctarget.5Cd1mx_mango_ghs.5Cobj.5Cr_adc_main.149::
                        3714 .LDWlin149:
00000fba 0d50           3715 	mov	r13,r10
00000fbc 9052           3716 	shr	16,r10
00000fbe ca563f00       3717 	andi	63,r10,r10
00000fc2 aa53           3718 	sst.b	r10,42[ep]
                        3719 --1044:             r_adc_VChannel[Unit][ConvRes->ScanGroup][ConvRes->PhyChannel] = Ch_Num;
00000fc4 0055           3720 	sld.w	0[ep],r10
00000fc6 0bc8           3721 	mov	r11,r25

                                                                      Page 64
                                                              C:\Users\Frank\AppData\Local\Temp\gh_0000n141.si
00000fc8 c2ca           3722 	shl	2,r25
00000fca d951           3723 	add	r25,r10
00000fcc ea00           3724 	sxh	r10
00000fce eace2600       3725 	mulhi	38,r10,r25
00000fd2 9e572b00       3726 	ld.bu	42[ep],r10
00000fd6 d951           3727 	add	r25,r10
00000fd8 da51           3728 	add	r26,r10
00000fda 4a770000       3729 	st.b	r14,0[r10]
                        3730 --1045:             ConvRes->Channel[ConvRes->PhyChannel]     = Ch_Num;
00000fde 9e572b00       3731 	ld.bu	42[ep],r10
00000fe2 1ece0400       3732 	addi	4,ep,r25
00000fe6 d951           3733 	add	r25,r10
00000fe8 4a770000       3734 	st.b	r14,0[r10]
                        3735 --1046:             r_adc_CovResult[Unit][ConvRes->ScanGroup][ConvRes->PhyChannel]  = New_Result;
00000fec 0055           3736 	sld.w	0[ep],r10
00000fee 0bc8           3737 	mov	r11,r25
00000ff0 c2ca           3738 	shl	2,r25
00000ff2 d951           3739 	add	r25,r10
00000ff4 ea00           3740 	sxh	r10
00000ff6 eace2600       3741 	mulhi	38,r10,r25
00000ffa 9e572b00       3742 	ld.bu	42[ep],r10
00000ffe d951           3743 	add	r25,r10
00001000 c152           3744 	shl	1,r10
00001002 db51           3745 	add	r27,r10
00001004 6a670000       3746 	st.h	r12,0[r10]
                        3747 --1047:             if (Unit == 0)
00001008 e059           3748 	cmp	zero,r11
0000100a ea071701*      3749 	bne	.L3771
                        3750 --1048:             {
                        3751 --1049:                 MPX_E                                 = (reg_val >> 31) & 0x1;
                        3752 --line1049
                        3753 ..lin.C.3A.5Cgit.5Crh850.5Csrc.5Capp.5Cgfx_apps.5Csimple_draw.5Ctarget.5Cd1mx_mango_ghs.5Cobj.5Cr_adc_main.150::
                        3754 .LDWlin150:
0000100e 0dc8           3755 	mov	r13,r25
00001010 9fca           3756 	shr	31,r25
00001012 d9560100       3757 	andi	1,r25,r10
00001016 8a00           3758 	zxb	r10
                        3759 --1050:                 if (MPX_E)
00001018 e051           3760 	cmp	zero,r10
0000101a f20d*          3761 	be	.L3783
                        3762 --1051:                 {
                        3763 --1052:                     r_adc_MpxNum[ConvRes->ScanGroup][ConvRes->PhyChannel] = (reg_val >> 28) & 0x7;
                        3764 --line1052
                        3765 ..lin.C.3A.5Cgit.5Crh850.5Csrc.5Capp.5Cgfx_apps.5Csimple_draw.5Ctarget.5Cd1mx_mango_ghs.5Cobj.5Cr_adc_main.151::
                        3766 .LDWlin151:
0000101c 00cc           3767 	sld.h	0[ep],r25
0000101e f9fe2600       3768 	mulhi	38,r25,lp
00001022 9ecf2b00       3769 	ld.bu	42[ep],r25
00001026 dfc9           3770 	add	lp,r25
00001028 0df8           3771 	mov	r13,lp
0000102a 9cfa           3772 	shr	28,lp
0000102c c9c9           3773 	add	r9,r25
0000102e dffe0700       3774 	andi	7,lp,lp
00001032 59ff0000       3775 	st.b	lp,0[r25]
00001036 d575*          3776 	br	.L3771
                        3777 .L3783:
                        3778 --1053:                 }
                        3779 --1054:                 else
                        3780 --1055:                 {
                        3781 --1056:                     r_adc_MpxNum[ConvRes->ScanGroup][ConvRes->PhyChannel] = 0x8;
                        3782 --line1056

                                                                      Page 65
                                                              C:\Users\Frank\AppData\Local\Temp\gh_0000n141.si
                        3783 ..lin.C.3A.5Cgit.5Crh850.5Csrc.5Capp.5Cgfx_apps.5Csimple_draw.5Ctarget.5Cd1mx_mango_ghs.5Cobj.5Cr_adc_main.152::
                        3784 .LDWlin152:
00001038 00cc           3785 	sld.h	0[ep],r25
0000103a f9fe2600       3786 	mulhi	38,r25,lp
0000103e 9ecf2b00       3787 	ld.bu	42[ep],r25
00001042 dfc9           3788 	add	lp,r25
00001044 c9c9           3789 	add	r9,r25
00001046 08fa           3790 	mov	8,lp
00001048 59ff0000       3791 	st.b	lp,0[r25]
0000104c a56d*          3792 	br	.L3771
                        3793 .L3772:
                        3794 --1057:                 }
                        3795 --1058:             }
                        3796 --1059:         }
                        3797 --1060:         else
                        3798 --1061:         {
                        3799 --1062:             do
                        3800 --line1062
                        3801 ..lin.C.3A.5Cgit.5Crh850.5Csrc.5Capp.5Cgfx_apps.5Csimple_draw.5Ctarget.5Cd1mx_mango_ghs.5Cobj.5Cr_adc_main.153::
                        3802 .LDWlin153:
0000104e 0000           3803 	nop
                        3804 .L3789:
                        3805 --1063:             {
                        3806 --1064:                 addr         = r_adc_Unit[Unit].BaseAddr + R_ADC_DIR(Ch_Num);
00001050 0bc8           3807 	mov	r11,r25
00001052 f900           3808 	sxh	r25
00001054 f9ce1001       3809 	mulhi	272,r25,r25
00001058 0ef8           3810 	mov	r14,lp
0000105a c2fa           3811 	shl	2,lp
0000105c 1ffe0002       3812 	addi	512,lp,lp
00001060 1f08           3813 	mov	lp,r1
00001062 c8c9           3814 	add	r8,r25
00001064 39cf0100       3815 	ld.w	0[r25],r25
00001068 d909           3816 	add	r25,r1
                        3817 --1065:                 reg_val      = R_ADC_READ_REG(32, addr);
0000106a 216f0100       3818 	ld.w	0[r1],r13
                        3819 --1066:                 ConvRes->PhyChannel                       = (reg_val >> 16) & 0x3f;
0000106e 0dc8           3820 	mov	r13,r25
00001070 90ca           3821 	shr	16,r25
00001072 d9ce3f00       3822 	andi	63,r25,r25
00001076 aacb           3823 	sst.b	r25,42[ep]
                        3824 --1067:                 r_adc_VChannel[Unit][ConvRes->ScanGroup][ConvRes->PhyChannel] = Ch_Num;
00001078 00cd           3825 	sld.w	0[ep],r25
0000107a 0bf8           3826 	mov	r11,lp
0000107c c2fa           3827 	shl	2,lp
0000107e dfc9           3828 	add	lp,r25
00001080 f900           3829 	sxh	r25
00001082 f9fe2600       3830 	mulhi	38,r25,lp
00001086 9ecf2b00       3831 	ld.bu	42[ep],r25
0000108a dfc9           3832 	add	lp,r25
0000108c dac9           3833 	add	r26,r25
0000108e 59770000       3834 	st.b	r14,0[r25]
                        3835 --1068:                 ConvRes->Channel[ConvRes->PhyChannel]     = Ch_Num;
00001092 9ecf2b00       3836 	ld.bu	42[ep],r25
00001096 1efe0400       3837 	addi	4,ep,lp
0000109a dfc9           3838 	add	lp,r25
0000109c 59770000       3839 	st.b	r14,0[r25]
                        3840 --1069:                 New_Result   = reg_val & 0xffff;
000010a0 cd66ffff       3841 	andi	65535,r13,r12
000010a4 cc00           3842 	zxh	r12
                        3843 --1070:                 r_adc_StrFlag[Unit] = R_ADC_NO_STR;

                                                                      Page 66
                                                              C:\Users\Frank\AppData\Local\Temp\gh_0000n141.si
000010a6 0bc8           3844 	mov	r11,r25
000010a8 c2ca           3845 	shl	2,r25
000010aa 3f0600000000*  3846 	mov	_r_adc_StrFlag,lp
000010b0 dfc9           3847 	add	lp,r25
000010b2 79070100       3848 	st.w	zero,0[r25]
                        3849 --1071:                 if (New_Result != 0)
000010b6 e061           3850 	cmp	zero,r12
000010b8 f20d*          3851 	be	.L3790
                        3852 --1072:                 {
                        3853 --1073:                     r_adc_CovResult[Unit][ConvRes->ScanGroup][ConvRes->PhyChannel]  = New_Result;
                        3854 --line1073
                        3855 ..lin.C.3A.5Cgit.5Crh850.5Csrc.5Capp.5Cgfx_apps.5Csimple_draw.5Ctarget.5Cd1mx_mango_ghs.5Cobj.5Cr_adc_main.154::
                        3856 .LDWlin154:
000010ba 00cd           3857 	sld.w	0[ep],r25
000010bc 0bf8           3858 	mov	r11,lp
000010be c2fa           3859 	shl	2,lp
000010c0 dfc9           3860 	add	lp,r25
000010c2 f900           3861 	sxh	r25
000010c4 f9fe2600       3862 	mulhi	38,r25,lp
000010c8 9ecf2b00       3863 	ld.bu	42[ep],r25
000010cc dfc9           3864 	add	lp,r25
000010ce c1ca           3865 	shl	1,r25
000010d0 dbc9           3866 	add	r27,r25
000010d2 79670000       3867 	st.h	r12,0[r25]
                        3868 .L3790:
                        3869 --1074:                 }
                        3870 --1075:                 if (Unit == 0)
000010d6 e059           3871 	cmp	zero,r11
000010d8 8a25*          3872 	bne	.L3792
                        3873 --1076:                 {
                        3874 --1077:                     MPX_E                                 = (reg_val >> 31) & 0x1;
                        3875 --line1077
                        3876 ..lin.C.3A.5Cgit.5Crh850.5Csrc.5Capp.5Cgfx_apps.5Csimple_draw.5Ctarget.5Cd1mx_mango_ghs.5Cobj.5Cr_adc_main.155::
                        3877 .LDWlin155:
000010da 0dc8           3878 	mov	r13,r25
000010dc 9fca           3879 	shr	31,r25
000010de d9560100       3880 	andi	1,r25,r10
000010e2 8a00           3881 	zxb	r10
                        3882 --1078:                     if (MPX_E)
000010e4 e051           3883 	cmp	zero,r10
000010e6 f20d*          3884 	be	.L3794
                        3885 --1079:                     {
                        3886 --1080:                         r_adc_MpxNum[ConvRes->ScanGroup][ConvRes->PhyChannel]       = (reg_val >> 28) & 0x7;
                        3887 --line1080
                        3888 ..lin.C.3A.5Cgit.5Crh850.5Csrc.5Capp.5Cgfx_apps.5Csimple_draw.5Ctarget.5Cd1mx_mango_ghs.5Cobj.5Cr_adc_main.156::
                        3889 .LDWlin156:
000010e8 00cc           3890 	sld.h	0[ep],r25
000010ea f9fe2600       3891 	mulhi	38,r25,lp
000010ee 9ecf2b00       3892 	ld.bu	42[ep],r25
000010f2 dfc9           3893 	add	lp,r25
000010f4 0df8           3894 	mov	r13,lp
000010f6 9cfa           3895 	shr	28,lp
000010f8 c9c9           3896 	add	r9,r25
000010fa dffe0700       3897 	andi	7,lp,lp
000010fe 59ff0000       3898 	st.b	lp,0[r25]
00001102 b50d*          3899 	br	.L3792
                        3900 .L3794:
                        3901 --1081:                     }
                        3902 --1082:                     else
                        3903 --1083:                     {
                        3904 --1084:                         r_adc_MpxNum[ConvRes->ScanGroup][ConvRes->PhyChannel]       = 0x8;

                                                                      Page 67
                                                              C:\Users\Frank\AppData\Local\Temp\gh_0000n141.si
                        3905 --line1084
                        3906 ..lin.C.3A.5Cgit.5Crh850.5Csrc.5Capp.5Cgfx_apps.5Csimple_draw.5Ctarget.5Cd1mx_mango_ghs.5Cobj.5Cr_adc_main.157::
                        3907 .LDWlin157:
00001104 00cc           3908 	sld.h	0[ep],r25
00001106 f9fe2600       3909 	mulhi	38,r25,lp
0000110a 9ecf2b00       3910 	ld.bu	42[ep],r25
0000110e dfc9           3911 	add	lp,r25
00001110 c9c9           3912 	add	r9,r25
00001112 08fa           3913 	mov	8,lp
00001114 59ff0000       3914 	st.b	lp,0[r25]
                        3915 .L3792:
                        3916 --1085:                     }
                        3917 --1086:                 }
                        3918 --1087:                  Ch_Num++;
00001118 4172           3919 	add	1,r14
0000111a 8e00           3920 	zxb	r14
0000111c fd71           3921 	cmp	r29,r14
0000111e 939d*          3922 	bnh	.L3789
                        3923 .L3771:
                        3924 --1088:             }while(Ch_Num <= ScanGroupEP);
                        3925 --1089:         }
                        3926 --1090:     }    
                        3927 --1091: }
                        3928 --	    .ef
                        3929 .LDW86:
                        3930 --line1091
                        3931 ..lin.C.3A.5Cgit.5Crh850.5Csrc.5Capp.5Cgfx_apps.5Csimple_draw.5Ctarget.5Cd1mx_mango_ghs.5Cobj.5Cr_adc_main.158::
                        3932 .LDWlin158:
00001120 4006ff70       3933 	dispose	0,{r25,r26,r27,r28,r29,r31},[lp]
                        3934 	.type	_R_ADC_ReadRes,@function
                        3935 	.size	_R_ADC_ReadRes,.-_R_ADC_ReadRes
                        3936 	.align	2
                        3937 .LDW96:
                        3938 --_addr	r1	local
                        3939 --_reg_val	r13	local
                        3940 --_MPX_E	r10	local
                        3941 --_ScanGroupSP	r28	local
                        3942 --_ScanGroupEP	r29	local
                        3943 --_Ch_Num	r14	local
                        3944 --_New_Result	r12	local
                        3945 
                        3946 --_Unit	r11	param
                        3947 --_ConvRes	ep	param
                        3948 
                        3949 	.section ".bss","awb"
                        3950 .L4025:
                        3951 	.type	.L4025,@object
                        3952 	.size	.L4025,0
                        3953 	.data
                        3954 	.text
                        3955 
                        3956 
                        3957 --1094: /*******************************************************************************
                        3958 --1095:   Function: R_ADC_ReadPWM
                        3959 --1096:   
                        3960 --1097:   see: <r_adc_api.h> for details
                        3961 --1098: */
                        3962 --1099: uint16_t R_ADC_ReadPWM (uint32_t Unit)
                        3963 	.align	2
                        3964 	.align	2
                        3965 	.global	_R_ADC_ReadPWM

                                                                      Page 68
                                                              C:\Users\Frank\AppData\Local\Temp\gh_0000n141.si
                        3966 _R_ADC_ReadPWM:
00001124 0668           3967 	mov	r6,r13
                        3968 --	    .bf
                        3969 .LDW07:
                        3970 --1100: {
                        3971 --1101:     uint32_t         addr    = 0;
00001126 00f2           3972 	mov	0,ep
                        3973 --1102:     uint32_t         reg_val = 0;
00001128 0072           3974 	mov	0,r14
                        3975 --1103:     uint16_t         PWM_Result;
                        3976 --1105:     if (Unit < R_ADC_MACRO_NUM)
0000112a 626a           3977 	cmp	2,r13
0000112c 9915*          3978 	bnl	.L4173
                        3979 --1106:     {
                        3980 --1107:         addr         = r_adc_Unit[Unit].BaseAddr + R_ADC_PWDDIR;
                        3981 --line1107
                        3982 ..lin.C.3A.5Cgit.5Crh850.5Csrc.5Capp.5Cgfx_apps.5Csimple_draw.5Ctarget.5Cd1mx_mango_ghs.5Cobj.5Cr_adc_main.159::
                        3983 .LDWlin159:
0000112e 0d08           3984 	mov	r13,r1
00001130 e100           3985 	sxh	r1
00001132 e10e1001       3986 	mulhi	272,r1,r1
00001136 2c0600000000*  3987 	mov	_r_adc_Unit,r12
0000113c cc09           3988 	add	r12,r1
0000113e 21f70100       3989 	ld.w	0[r1],ep
00001142 1ef6f402       3990 	addi	756,ep,ep
                        3991 --1108:         reg_val      = R_ADC_READ_REG(32, addr);
00001146 0075           3992 	sld.w	0[ep],r14
                        3993 --1109:         PWM_Result   = reg_val & 0xffff;
00001148 ce0effff       3994 	andi	65535,r14,r1
0000114c c100           3995 	zxh	r1
                        3996 .L4173:
                        3997 --1110:     }
                        3998 --1111:     return PWM_Result;
0000114e 0150           3999 	mov	r1,r10
                        4000 --	    .ef
                        4001 .LDW17:
00001150 7f00           4002 	jmp	[lp]
                        4003 	.type	_R_ADC_ReadPWM,@function
                        4004 	.size	_R_ADC_ReadPWM,.-_R_ADC_ReadPWM
                        4005 	.align	2
                        4006 .LDW27:
                        4007 --_addr	ep	local
                        4008 --_reg_val	r14	local
                        4009 --_PWM_Result	r1	local
                        4010 
                        4011 --_Unit	r13	param
                        4012 
                        4013 	.section ".bss","awb"
                        4014 .L4214:
                        4015 	.type	.L4214,@object
                        4016 	.size	.L4214,0
                        4017 	.data
                        4018 	.text
                        4019 
                        4020 --1112: }
                        4021 
                        4022 --1115: /***********************************************************
                        4023 --1116:   Function: R_ADC_ReadError
                        4024 --1117:   
                        4025 --1118:   see: <r_adc_api.h> for details
                        4026 --1119: */

                                                                      Page 69
                                                              C:\Users\Frank\AppData\Local\Temp\gh_0000n141.si
                        4027 --1120: void R_ADC_ReadError (uint32_t Unit, r_adc_ResParams_t* ConvRes)
                        4028 	.align	2
                        4029 	.align	2
                        4030 	.global	_R_ADC_ReadError
                        4031 _R_ADC_ReadError:
00001152 8207e170       4032 	prepare	{r25,r26,r27,r28,r29,r31},1
00001156 06c8           4033 	mov	r6,r25
00001158 07e0           4034 	mov	r7,r28
                        4035 --	    .bf
                        4036 .LDW37:
                        4037 --1121: {
                        4038 --1122:     uint32_t          addr    = 0;
0000115a 00ea           4039 	mov	0,r29
                        4040 --1123:     uint32_t          reg_val = 0;
0000115c 00d2           4041 	mov	0,r26
                        4042 --1124:     uint8_t           Ch_Num  = 0;
0000115e 00da           4043 	mov	0,r27
                        4044 --1125:     
                        4045 --1126:     addr                      = r_adc_Unit[Unit].BaseAddr + R_ADC_ULER;
00001160 19f0           4046 	mov	r25,ep
00001162 fe00           4047 	sxh	ep
00001164 fef61001       4048 	mulhi	272,ep,ep
00001168 2b0600000000*  4049 	mov	_r_adc_Unit,r11
0000116e cbf1           4050 	add	r11,ep
00001170 00ed           4051 	sld.w	0[ep],r29
00001172 1dee4803       4052 	addi	840,r29,r29
                        4053 --1127:     reg_val                   = R_ADC_READ_REG(32, addr);
00001176 3dd70100       4054 	ld.w	0[r29],r26
                        4055 --1128:     ConvRes->UlStatus         = (reg_val >> 14) & 0x3;
0000117a 1a08           4056 	mov	r26,r1
0000117c 8e0a           4057 	shr	14,r1
0000117e c10e0300       4058 	andi	3,r1,r1
00001182 5c0f3500       4059 	st.b	r1,53[r28]
                        4060 --1129:     if (ConvRes->UlStatus)  
00001186 bc0f3500       4061 	ld.bu	53[r28],r1
0000118a e009           4062 	cmp	zero,r1
0000118c b215*          4063 	be	.L4246
                        4064 --1130:     {
                        4065 --1131:         ConvRes->ErrChannel   = reg_val & 0x3f;
                        4066 --line1131
                        4067 ..lin.C.3A.5Cgit.5Crh850.5Csrc.5Capp.5Cgfx_apps.5Csimple_draw.5Ctarget.5Cd1mx_mango_ghs.5Cobj.5Cr_adc_main.160::
                        4068 .LDWlin160:
0000118e da0e3f00       4069 	andi	63,r26,r1
00001192 5c0f3600       4070 	st.b	r1,54[r28]
                        4071 --1132:         addr                  = r_adc_Unit[Unit].BaseAddr + R_ADC_ECR;
00001196 19f0           4072 	mov	r25,ep
00001198 fe00           4073 	sxh	ep
0000119a fef61001       4074 	mulhi	272,ep,ep
0000119e 2b0600000000*  4075 	mov	_r_adc_Unit,r11
000011a4 cbf1           4076 	add	r11,ep
000011a6 00ed           4077 	sld.w	0[ep],r29
000011a8 1dee4403       4078 	addi	836,r29,r29
                        4079 --1133:         R_ADC_WRITE_REG(32, addr, 0x8);
000011ac 080a           4080 	mov	8,r1
000011ae 7d0f0100       4081 	st.w	r1,0[r29]
                        4082 .L4246:
                        4083 --1134:     }
                        4084 --1135:     
                        4085 --1136:     addr                      = r_adc_Unit[Unit].BaseAddr + R_ADC_OWER;
000011b2 19f0           4086 	mov	r25,ep
000011b4 fe00           4087 	sxh	ep

                                                                      Page 70
                                                              C:\Users\Frank\AppData\Local\Temp\gh_0000n141.si
000011b6 fef61001       4088 	mulhi	272,ep,ep
000011ba 2b0600000000*  4089 	mov	_r_adc_Unit,r11
000011c0 cbf1           4090 	add	r11,ep
000011c2 00ed           4091 	sld.w	0[ep],r29
000011c4 1dee4c03       4092 	addi	844,r29,r29
                        4093 --1137:     reg_val                   = R_ADC_READ_REG(32, addr);
000011c8 3dd70100       4094 	ld.w	0[r29],r26
                        4095 --1138:     ConvRes->OwStatus         = (reg_val >> 7) & 0x1;
000011cc 1a08           4096 	mov	r26,r1
000011ce 870a           4097 	shr	7,r1
000011d0 c10e0100       4098 	andi	1,r1,r1
000011d4 5c0f3400       4099 	st.b	r1,52[r28]
                        4100 --1139:     if (ConvRes->OwStatus)
000011d8 9c0f3500       4101 	ld.bu	52[r28],r1
000011dc e009           4102 	cmp	zero,r1
000011de e225*          4103 	be	.L4248
                        4104 --1140:     {
                        4105 --1141:         ConvRes->OwChannel   = reg_val & 0x3f;
                        4106 --line1141
                        4107 ..lin.C.3A.5Cgit.5Crh850.5Csrc.5Capp.5Cgfx_apps.5Csimple_draw.5Ctarget.5Cd1mx_mango_ghs.5Cobj.5Cr_adc_main.161::
                        4108 .LDWlin161:
000011e0 da0e3f00       4109 	andi	63,r26,r1
000011e4 5c0f3700       4110 	st.b	r1,55[r28]
                        4111 --1142:         do
000011e8 0000           4112 	nop
                        4113 .L4252:
                        4114 --1143:         {
                        4115 --1144:             if (ConvRes->Channel[Ch_Num] == ConvRes->OwChannel)
000011ea bc0f3700       4116 	ld.bu	55[r28],r1
000011ee 1cf60400       4117 	addi	4,r28,ep
000011f2 dbf1           4118 	add	r27,ep
000011f4 6070           4119 	sld.bu	0[ep],r14
000011f6 e171           4120 	cmp	r1,r14
000011f8 ca05*          4121 	bne	.L4253
                        4122 --1145:             {
                        4123 --1146:                 ConvRes->OwChannel       = Ch_Num;
                        4124 --line1146
                        4125 ..lin.C.3A.5Cgit.5Crh850.5Csrc.5Capp.5Cgfx_apps.5Csimple_draw.5Ctarget.5Cd1mx_mango_ghs.5Cobj.5Cr_adc_main.162::
                        4126 .LDWlin162:
000011fa 5cdf3700       4127 	st.b	r27,55[r28]
                        4128 --1147:                 break;
000011fe 850d*          4129 	br	.L4255
                        4130 .L4253:
                        4131 --1148:             }
                        4132 --1149:             Ch_Num ++;
                        4133 --line1149
                        4134 ..lin.C.3A.5Cgit.5Crh850.5Csrc.5Capp.5Cgfx_apps.5Csimple_draw.5Ctarget.5Cd1mx_mango_ghs.5Cobj.5Cr_adc_main.163::
                        4135 .LDWlin163:
00001200 41da           4136 	add	1,r27
00001202 9b00           4137 	zxb	r27
00001204 1930           4138 	mov	r25,r6
                        4139 	jarl	_R_SYS_ADC_MaxChannelNum,lp
                        4139 <EXPANSION BEGIN>
                        4139 jarl22 _R_SYS_ADC_MaxChannelNum , lp 
00001206 80ff0000*      4139 <EXPANSION END>
0000120a ead9           4140 	cmp	r10,r27
0000120c f1ed*          4141 	bl	.L4252
                        4142 .L4255:
                        4143 --1150:         }while(Ch_Num < R_SYS_ADC_MaxChannelNum(Unit));
                        4144 --1151:         addr                             = r_adc_Unit[Unit].BaseAddr + R_ADC_ECR;
                        4145 --line1151

                                                                      Page 71
                                                              C:\Users\Frank\AppData\Local\Temp\gh_0000n141.si
                        4146 ..lin.C.3A.5Cgit.5Crh850.5Csrc.5Capp.5Cgfx_apps.5Csimple_draw.5Ctarget.5Cd1mx_mango_ghs.5Cobj.5Cr_adc_main.164::
                        4147 .LDWlin164:
0000120e 19f0           4148 	mov	r25,ep
00001210 fe00           4149 	sxh	ep
00001212 fef61001       4150 	mulhi	272,ep,ep
00001216 2b0600000000*  4151 	mov	_r_adc_Unit,r11
0000121c cbf1           4152 	add	r11,ep
0000121e 00ed           4153 	sld.w	0[ep],r29
00001220 1dee4403       4154 	addi	836,r29,r29
                        4155 --1152:         R_ADC_WRITE_REG(32, addr, 0x4);
00001224 040a           4156 	mov	4,r1
00001226 7d0f0100       4157 	st.w	r1,0[r29]
                        4158 .L4248:
                        4159 --1153:     }
                        4160 --1154: }
                        4161 --	    .ef
                        4162 .LDW47:
0000122a 4206ff70       4163 	dispose	1,{r25,r26,r27,r28,r29,r31},[lp]
                        4164 	.type	_R_ADC_ReadError,@function
                        4165 	.size	_R_ADC_ReadError,.-_R_ADC_ReadError
                        4166 	.align	2
                        4167 .LDW57:
                        4168 --_addr	r29	local
                        4169 --_reg_val	r26	local
                        4170 --_Ch_Num	r27	local
                        4171 
                        4172 --_Unit	r25	param
                        4173 --_ConvRes	r28	param
                        4174 
                        4175 	.section ".bss","awb"
                        4176 .L4362:
                        4177 	.type	.L4362,@object
                        4178 	.size	.L4362,0
                        4179 	.data
                        4180 	.text
                        4181 
                        4182 
                        4183 --1157: /*******************************************************************************
                        4184 --1158:   Function: R_ADC_DbgSVSTOP
                        4185 --1159:   
                        4186 --1160:   see: <r_adc_api.h> for details
                        4187 --1161: */
                        4188 --1162: void R_ADC_DbgSVSTOP (uint32_t Unit, r_adc_Emu_t ADC_Emu)
                        4189 	.align	2
                        4190 	.align	2
                        4191 	.global	_R_ADC_DbgSVSTOP
                        4192 _R_ADC_DbgSVSTOP:
0000122e 8007e110       4193 	prepare	{r27,r28,r29,r31},0
00001232 06e0           4194 	mov	r6,r28
00001234 07d8           4195 	mov	r7,r27
                        4196 --	    .bf
                        4197 .LDW67:
                        4198 --1163: {
                        4199 --1164:     uint32_t          addr    = 0;    
00001236 00ea           4200 	mov	0,r29
                        4201 --1165:     if (Unit < R_ADC_MACRO_NUM)
00001238 62e2           4202 	cmp	2,r28
0000123a d91d*          4203 	bnl	.L4445
                        4204 --1166:     {
                        4205 --1167:         addr = r_adc_Unit[Unit].BaseAddr + R_ADC_EMUCR;
                        4206 --line1167

                                                                      Page 72
                                                              C:\Users\Frank\AppData\Local\Temp\gh_0000n141.si
                        4207 ..lin.C.3A.5Cgit.5Crh850.5Csrc.5Capp.5Cgfx_apps.5Csimple_draw.5Ctarget.5Cd1mx_mango_ghs.5Cobj.5Cr_adc_main.165::
                        4208 .LDWlin165:
0000123c 1cf0           4209 	mov	r28,ep
0000123e fe00           4210 	sxh	ep
00001240 fef61001       4211 	mulhi	272,ep,ep
00001244 2e0600000000*  4212 	mov	_r_adc_Unit,r14
0000124a cef1           4213 	add	r14,ep
0000124c 00ed           4214 	sld.w	0[ep],r29
0000124e 1dee8803       4215 	addi	904,r29,r29
                        4216 --1168:         switch (ADC_Emu)
00001252 61da           4217 	cmp	1,r27
00001254 cb0d*          4218 	bh	.L4451
00001256 f205*          4219 	be	.L4450
                        4220 --1169:         {
                        4221 --1170:             case R_ADC_SVSTOP_EFECTIVE: R_ADC_WRITE_REG(8, addr, 0x0);
                        4222 --line1170
                        4223 ..lin.C.3A.5Cgit.5Crh850.5Csrc.5Capp.5Cgfx_apps.5Csimple_draw.5Ctarget.5Cd1mx_mango_ghs.5Cobj.5Cr_adc_main.166::
                        4224 .LDWlin166:
00001258 5d070000       4225 	st.b	zero,0[r29]
                        4226 --1171:                                         R_SYS_ADC_DbgSVSTOP (ADC_Emu);
0000125c 1b30           4227 	mov	r27,r6
                        4228 	jarl	_R_SYS_ADC_DbgSVSTOP,lp
                        4228 <EXPANSION BEGIN>
                        4228 jarl22 _R_SYS_ADC_DbgSVSTOP , lp 
0000125e 80ff0000*      4228 <EXPANSION END>
                        4229 --line1172
                        4230 ..lin.C.3A.5Cgit.5Crh850.5Csrc.5Capp.5Cgfx_apps.5Csimple_draw.5Ctarget.5Cd1mx_mango_ghs.5Cobj.5Cr_adc_main.167::
                        4231 .LDWlin167:
00001262 950d*          4232 	br	.L4445
                        4233 .L4450:
                        4234 --1172:                                         break;
                        4235 --1173:             case R_ADC_SVSTOP_IGNORED : R_ADC_WRITE_REG(8, addr, 0x1);
                        4236 --line1173
                        4237 ..lin.C.3A.5Cgit.5Crh850.5Csrc.5Capp.5Cgfx_apps.5Csimple_draw.5Ctarget.5Cd1mx_mango_ghs.5Cobj.5Cr_adc_main.168::
                        4238 .LDWlin168:
00001264 010a           4239 	mov	1,r1
00001266 5d0f0000       4240 	st.b	r1,0[r29]
0000126a d505*          4241 	br	.L4445
                        4242 .L4451:
                        4243 --1174:                                         break;
                        4244 --1175:             default                   : R_ADC_ERROR(Unit, R_ADC_ERR_RANGE, "ADC: Invalid Configuration for SVSTOP");
                        4245 --line1175
                        4246 ..lin.C.3A.5Cgit.5Crh850.5Csrc.5Capp.5Cgfx_apps.5Csimple_draw.5Ctarget.5Cd1mx_mango_ghs.5Cobj.5Cr_adc_main.169::
                        4247 .LDWlin169:
0000126c 1c30           4248 	mov	r28,r6
0000126e 023a           4249 	mov	2,r7
                        4250 	jarl	_R_ADC_ErrorHandler,lp
                        4250 <EXPANSION BEGIN>
                        4250 jarl22 _R_ADC_ErrorHandler , lp 
00001270 80ff2e00*      4250 <EXPANSION END>
                        4251 .L4445:
                        4252 --1176:         }
                        4253 --1177:     }
                        4254 --1178: }
                        4255 --	    .ef
                        4256 .LDW77:
                        4257 --line1178
                        4258 ..lin.C.3A.5Cgit.5Crh850.5Csrc.5Capp.5Cgfx_apps.5Csimple_draw.5Ctarget.5Cd1mx_mango_ghs.5Cobj.5Cr_adc_main.170::
                        4259 .LDWlin170:
00001274 4006ff10       4260 	dispose	0,{r27,r28,r29,r31},[lp]
                        4261 	.type	_R_ADC_DbgSVSTOP,@function

                                                                      Page 73
                                                              C:\Users\Frank\AppData\Local\Temp\gh_0000n141.si
                        4262 	.size	_R_ADC_DbgSVSTOP,.-_R_ADC_DbgSVSTOP
                        4263 	.align	2
                        4264 .LDW87:
                        4265 --_addr	r29	local
                        4266 
                        4267 --_Unit	r28	param
                        4268 --_ADC_Emu	r27	param
                        4269 
                        4270 	.section ".bss","awb"
                        4271 .L4522:
                        4272 	.type	.L4522,@object
                        4273 	.size	.L4522,0
                        4274 	.data
                        4275 	.text
                        4276 
                        4277 
                        4278 --1181: /*******************************************************************************
                        4279 --1182:   Function: R_ADC_MaxChannelNum
                        4280 --1183:   
                        4281 --1184:   see: <r_adc_api.h> for details
                        4282 --1185: */
                        4283 --1187: uint8_t R_ADC_MaxChannelNum(uint32_t Unit)
                        4284 	.align	2
                        4285 	.align	2
                        4286 	.global	_R_ADC_MaxChannelNum
                        4287 _R_ADC_MaxChannelNum:
00001278 80076100       4288 	prepare	{r29,r31},0
0000127c 06e8           4289 	mov	r6,r29
                        4290 --	    .bf
                        4291 .LDW97:
                        4292 --1188: {
                        4293 --1189:     return   R_SYS_ADC_MaxChannelNum(Unit);
0000127e 1d30           4294 	mov	r29,r6
                        4295 	jarl	_R_SYS_ADC_MaxChannelNum,lp
                        4295 <EXPANSION BEGIN>
                        4295 jarl22 _R_SYS_ADC_MaxChannelNum , lp 
00001280 80ff0000*      4295 <EXPANSION END>
00001284 8a00           4296 	zxb	r10
                        4297 --	    .ef
                        4298 .LDW08:
                        4299 --line1190
                        4300 ..lin.C.3A.5Cgit.5Crh850.5Csrc.5Capp.5Cgfx_apps.5Csimple_draw.5Ctarget.5Cd1mx_mango_ghs.5Cobj.5Cr_adc_main.171::
                        4301 .LDWlin171:
00001286 40067f00       4302 	dispose	0,{r29,r31},[lp]
                        4303 	.type	_R_ADC_MaxChannelNum,@function
                        4304 	.size	_R_ADC_MaxChannelNum,.-_R_ADC_MaxChannelNum
                        4305 	.align	2
                        4306 .LDW18:
                        4307 
                        4308 --_Unit	r29	param
                        4309 
                        4310 	.section ".bss","awb"
                        4311 .L4590:
                        4312 	.type	.L4590,@object
                        4313 	.size	.L4590,0
                        4314 	.data
                        4315 	.text
                        4316 
                        4317 --1190: }
                        4318 
                        4319 --1193: /*******************************************************************************

                                                                      Page 74
                                                              C:\Users\Frank\AppData\Local\Temp\gh_0000n141.si
                        4320 --1194:   Function: R_ADC_SetErrorCallback
                        4321 --1195: */
                        4322 --1197: void R_UARTE_SetErrorCallback(void (*ErrorCallback)(uint32_t Unit, r_adc_Error_t Error))
                        4323 	.align	2
                        4324 	.align	2
                        4325 	.global	_R_UARTE_SetErrorCallback
                        4326 _R_UARTE_SetErrorCallback:
0000128a 0670           4327 	mov	r6,r14
0000128c 210600000000*  4328 	mov	_loc_ErrorHandler,r1
                        4329 --	    .bf
                        4330 .LDW28:
                        4331 --1198: {
                        4332 --1199:     loc_ErrorHandler = ErrorCallback; 
00001292 2b0600000000*  4333 	mov	_loc_ErrorHandler,r11
00001298 6b770100       4334 	st.w	r14,0[r11]
                        4335 --1200: }
                        4336 --	    .ef
                        4337 .LDW38:
0000129c 7f00           4338 	jmp	[lp]
                        4339 	.type	_R_UARTE_SetErrorCallback,@function
                        4340 	.size	_R_UARTE_SetErrorCallback,.-_R_UARTE_SetErrorCallback
                        4341 	.align	2
                        4342 .LDW48:
                        4343 
                        4344 --_ErrorCallback	r14	param
                        4345 
                        4346 	.data
                        4347 	.text
                        4348 
                        4349 
                        4350 --1203: /*******************************************************************************
                        4351 --1204:   Section: Global Functions
                        4352 --1205: */
                        4353 --1207: /*******************************************************************************
                        4354 --1208:   Function: R_ADC_ErrorHandler
                        4355 --1209:   
                        4356 --1210:   see: <r_adc_main.h> for details
                        4357 --1211: */
                        4358 --1213: void R_ADC_ErrorHandler(uint32_t Unit, r_adc_Error_t Error) 
                        4359 	.align	2
                        4360 	.align	2
                        4361 	.global	_R_ADC_ErrorHandler
                        4362 _R_ADC_ErrorHandler:
0000129e 8007e170       4363 	prepare	{r25,r26,r27,r28,r29,r31},0
000012a2 3d0600000000*  4364 	mov	_loc_ErrorHandler,r29
000012a8 06d8           4365 	mov	r6,r27
000012aa 07e0           4366 	mov	r7,r28
000012ac 1dd0           4367 	mov	r29,r26
                        4368 --	    .bf
                        4369 .LDW58:
                        4370 --1214: {
                        4371 --1215:     if (loc_ErrorHandler != 0) 
000012ae 3d0f0100       4372 	ld.w	0[r29],r1
000012b2 e009           4373 	cmp	zero,r1
000012b4 820d*          4374 	be	.L4642
                        4375 --1216:     {      /* we've got a registered error handler here ...*/
                        4376 --1217:         loc_ErrorHandler(Unit, Error);      /* ... and we gonna use it!*/
                        4377 --line1217
                        4378 ..lin.C.3A.5Cgit.5Crh850.5Csrc.5Capp.5Cgfx_apps.5Csimple_draw.5Ctarget.5Cd1mx_mango_ghs.5Cobj.5Cr_adc_main.172::
                        4379 .LDWlin172:
000012b6 3dcf0100       4380 	ld.w	0[r29],r25

                                                                      Page 75
                                                              C:\Users\Frank\AppData\Local\Temp\gh_0000n141.si
000012ba 1b30           4381 	mov	r27,r6
000012bc 1c38           4382 	mov	r28,r7
000012be f9c760f9       4383 	jarl	[r25],lp
000012c2 854d*          4384 	br	.L4644
                        4385 .L4642:
                        4386 --1218:     } 
                        4387 --1219:     else 
                        4388 --1220:     {
                        4389 --1221:         switch (Error)
                        4390 --line1221
                        4391 ..lin.C.3A.5Cgit.5Crh850.5Csrc.5Capp.5Cgfx_apps.5Csimple_draw.5Ctarget.5Cd1mx_mango_ghs.5Cobj.5Cr_adc_main.173::
                        4392 .LDWlin173:
000012c4 1c08           4393 	mov	r28,r1
000012c6 0106e7ff       4394 	addi	-25,r1,zero
000012ca a145*          4395 	bl	.L4658
000012cc c20a           4396 	shl	2,r1
000012ce e10600000000*  4397 	jmp	.L4755[r1]
                        4398 .L4755:
000012d4 80076400*      4399 	jr	.L4647
000012d8 80076200*      4400 	jr	.L4648
000012dc 80076000*      4401 	jr	.L4649
000012e0 80076e00*      4402 	jr	.L4658
000012e4 80076a00*      4403 	jr	.L4658
000012e8 80076600*      4404 	jr	.L4658
000012ec 80076200*      4405 	jr	.L4658
000012f0 80075e00*      4406 	jr	.L4658
000012f4 80075a00*      4407 	jr	.L4658
000012f8 80075600*      4408 	jr	.L4658
000012fc 80074200*      4409 	jr	.L4650
00001300 80073e00*      4410 	jr	.L4650
00001304 80073c00*      4411 	jr	.L4651
00001308 80073a00*      4412 	jr	.L4652
0000130c 80073800*      4413 	jr	.L4653
00001310 80073e00*      4414 	jr	.L4658
00001314 80073a00*      4415 	jr	.L4658
00001318 80073600*      4416 	jr	.L4658
0000131c 80073200*      4417 	jr	.L4658
00001320 80072e00*      4418 	jr	.L4658
00001324 80072200*      4419 	jr	.L4654
00001328 80072000*      4420 	jr	.L4655
0000132c 80072200*      4421 	jr	.L4658
00001330 80071a00*      4422 	jr	.L4656
00001334 80071800*      4423 	jr	.L4657
                        4424 .L4647:
                        4425 --line1224
                        4426 ..lin.C.3A.5Cgit.5Crh850.5Csrc.5Capp.5Cgfx_apps.5Csimple_draw.5Ctarget.5Cd1mx_mango_ghs.5Cobj.5Cr_adc_main.174::
                        4427 .LDWlin174:
00001338 c50d*          4428 	br	.L4645
                        4429 .L4648:
                        4430 --line1226
                        4431 ..lin.C.3A.5Cgit.5Crh850.5Csrc.5Capp.5Cgfx_apps.5Csimple_draw.5Ctarget.5Cd1mx_mango_ghs.5Cobj.5Cr_adc_main.175::
                        4432 .LDWlin175:
0000133a b50d*          4433 	br	.L4645
                        4434 .L4649:
                        4435 --line1229
                        4436 ..lin.C.3A.5Cgit.5Crh850.5Csrc.5Capp.5Cgfx_apps.5Csimple_draw.5Ctarget.5Cd1mx_mango_ghs.5Cobj.5Cr_adc_main.176::
                        4437 .LDWlin176:
0000133c a50d*          4438 	br	.L4645
                        4439 .L4650:
                        4440 --line1234
                        4441 ..lin.C.3A.5Cgit.5Crh850.5Csrc.5Capp.5Cgfx_apps.5Csimple_draw.5Ctarget.5Cd1mx_mango_ghs.5Cobj.5Cr_adc_main.177::

                                                                      Page 76
                                                              C:\Users\Frank\AppData\Local\Temp\gh_0000n141.si
                        4442 .LDWlin177:
0000133e 950d*          4443 	br	.L4645
                        4444 .L4651:
                        4445 --line1237
                        4446 ..lin.C.3A.5Cgit.5Crh850.5Csrc.5Capp.5Cgfx_apps.5Csimple_draw.5Ctarget.5Cd1mx_mango_ghs.5Cobj.5Cr_adc_main.178::
                        4447 .LDWlin178:
00001340 850d*          4448 	br	.L4645
                        4449 .L4652:
                        4450 --line1240
                        4451 ..lin.C.3A.5Cgit.5Crh850.5Csrc.5Capp.5Cgfx_apps.5Csimple_draw.5Ctarget.5Cd1mx_mango_ghs.5Cobj.5Cr_adc_main.179::
                        4452 .LDWlin179:
00001342 f505*          4453 	br	.L4645
                        4454 .L4653:
                        4455 --line1243
                        4456 ..lin.C.3A.5Cgit.5Crh850.5Csrc.5Capp.5Cgfx_apps.5Csimple_draw.5Ctarget.5Cd1mx_mango_ghs.5Cobj.5Cr_adc_main.180::
                        4457 .LDWlin180:
00001344 e505*          4458 	br	.L4645
                        4459 .L4654:
                        4460 --line1246
                        4461 ..lin.C.3A.5Cgit.5Crh850.5Csrc.5Capp.5Cgfx_apps.5Csimple_draw.5Ctarget.5Cd1mx_mango_ghs.5Cobj.5Cr_adc_main.181::
                        4462 .LDWlin181:
00001346 d505*          4463 	br	.L4645
                        4464 .L4655:
                        4465 --line1249
                        4466 ..lin.C.3A.5Cgit.5Crh850.5Csrc.5Capp.5Cgfx_apps.5Csimple_draw.5Ctarget.5Cd1mx_mango_ghs.5Cobj.5Cr_adc_main.182::
                        4467 .LDWlin182:
00001348 c505*          4468 	br	.L4645
                        4469 .L4656:
                        4470 --line1252
                        4471 ..lin.C.3A.5Cgit.5Crh850.5Csrc.5Capp.5Cgfx_apps.5Csimple_draw.5Ctarget.5Cd1mx_mango_ghs.5Cobj.5Cr_adc_main.183::
                        4472 .LDWlin183:
0000134a b505*          4473 	br	.L4645
                        4474 .L4657:
                        4475 --line1255
                        4476 ..lin.C.3A.5Cgit.5Crh850.5Csrc.5Capp.5Cgfx_apps.5Csimple_draw.5Ctarget.5Cd1mx_mango_ghs.5Cobj.5Cr_adc_main.184::
                        4477 .LDWlin184:
0000134c a505*          4478 	br	.L4645
                        4479 .L4658:
                        4480 --line1260
                        4481 ..lin.C.3A.5Cgit.5Crh850.5Csrc.5Capp.5Cgfx_apps.5Csimple_draw.5Ctarget.5Cd1mx_mango_ghs.5Cobj.5Cr_adc_main.185::
                        4482 .LDWlin185:
0000134e 0000           4483 	nop
                        4484 .L4645:
                        4485 --1222:         {
                        4486 --1223:         case R_ADC_ERR_OK              :
                        4487 --1224:             break; 
                        4488 --1225:         case R_ADC_ERR_NG              : 
                        4489 --1226:             break;                                         
                        4490 --1227:         case R_ADC_ERR_RANGE           : 
                        4491 --1228:             R_DISPLAY_ERROR("ADCA: Range error occours");
                        4492 --1229:             break;                                         
                        4493 --1230:         case R_ADC_UNINIT              : 
                        4494 --1231:             R_DISPLAY_ERROR("ADCA: API service called without module initialization");
                        4495 --1232:         case R_ADC_BUSY                : 
                        4496 --1233:             R_DISPLAY_ERROR("ADCA: Start conversion called when the conversion is already running");
                        4497 --1234:             break;                                         
                        4498 --1235:         case R_ADC_IDLE                : 
                        4499 --1236:             R_DISPLAY_ERROR("ADCA: Stop called while no conversion was running");
                        4500 --1237:             break;                                         
                        4501 --1238:         case R_ADC_ALREADY_INITIALIZED : 
                        4502 --1239:             R_DISPLAY_ERROR("ADCA: Init called while ADC is already initialized");

                                                                      Page 77
                                                              C:\Users\Frank\AppData\Local\Temp\gh_0000n141.si
                        4503 --1240:             break;                                         
                        4504 --1241:         case R_ADC_PARAM_CONFIG        : 
                        4505 --1242:             R_DISPLAY_ERROR("ADCA: Init called with incorrect configuration");
                        4506 --1243:             break;                                         
                        4507 --1244:         case R_ADC_PARAM_POINTER       : 
                        4508 --1245:             R_DISPLAY_ERROR("ADCA: Wrong or empry parameter pointer");              
                        4509 --1246:             break;                                         
                        4510 --1247:         case R_ADC_PARAM_GROUP         : 
                        4511 --1248:             R_DISPLAY_ERROR("ADCA: Wrong group configuration");
                        4512 --1249:             break;                                         
                        4513 --1250:         case R_ADC_WRONG_TRIGG_SRC     : 
                        4514 --1251:             R_DISPLAY_ERROR("ADCA: Trigger service function does not match configuration");                                                                  
                        4515 --1252:             break;                                         
                        4516 --1253:         case R_ADC_NOTIF_CAPABILITY    : 
                        4517 --1254:             R_DISPLAY_ERROR("ADCA: No ISR assigned for the current group");              
                        4518 --1255:             break;                                         
                        4519 --1256:         case R_ADC_BUFFER_UNINIT       : 
                        4520 --1257:             R_DISPLAY_ERROR("ADCA: Uninitialised result buffer");
                        4521 --1258:         default                        :
                        4522 --1259:             R_DISPLAY_ERROR("ADCA: Unknown Error");
                        4523 --1260:            break;                                         
                        4524 --1261:         }
                        4525 --1263:         for (;;) 
                        4526 .L4661:
                        4527 --1264:         {                          /* we don't have a handler */
00001350 8505*          4528 	br	.L4661
                        4529 .L4644:
                        4530 --1265:         }                          /* so, let's wait here */
                        4531 --1266:     }
                        4532 --1267: }
                        4533 --	    .ef
                        4534 .LDW68:
                        4535 --line1267
                        4536 ..lin.C.3A.5Cgit.5Crh850.5Csrc.5Capp.5Cgfx_apps.5Csimple_draw.5Ctarget.5Cd1mx_mango_ghs.5Cobj.5Cr_adc_main.186::
                        4537 .LDWlin186:
00001352 4006ff70       4538 	dispose	0,{r25,r26,r27,r28,r29,r31},[lp]
                        4539 	.type	_R_ADC_ErrorHandler,@function
                        4540 	.size	_R_ADC_ErrorHandler,.-_R_ADC_ErrorHandler
                        4541 	.align	2
                        4542 .LDW78:
                        4543 
                        4544 --_Unit	r27	param
                        4545 --_Error	r28	param
                        4546 
                        4547 	.data
                        4548 	.ghsnote jtable,2097156,.L4755,.L4755,.L4755,25
                        4549 	.text
                        4550 
                        4551 
                        4552 --1271: /*******************************************************************************
                        4553 --1272:   Function: R_ADC_ScanGroupProirtyOrder
                        4554 --1273:   
                        4555 --1274:   see: <r_adc_api.h> for details
                        4556 --1275: */
                        4557 --1276: r_adc_Error_t R_ADC_ScanGroupProirtyOrder(uint32_t Unit, uint32_t Order)
                        4558 	.align	2
                        4559 	.align	2
                        4560 	.global	_R_ADC_ScanGroupProirtyOrder
                        4561 _R_ADC_ScanGroupProirtyOrder:
00001356 0660           4562 	mov	r6,r12
00001358 0768           4563 	mov	r7,r13

                                                                      Page 78
                                                              C:\Users\Frank\AppData\Local\Temp\gh_0000n141.si
                        4564 --	    .bf
                        4565 .LDW88:
                        4566 --1277: {
                        4567 --1278:     uint32_t      addr    = 0;
0000135a 00f2           4568 	mov	0,ep
                        4569 --1279:     uint32_t      val     = 0;
0000135c 0072           4570 	mov	0,r14
                        4571 --1280:     r_adc_Error_t ret_val = R_ADC_ERR_NG;
0000135e 010a           4572 	mov	1,r1
                        4573 --1281:     if (Unit < R_ADC_MACRO_NUM)
00001360 6262           4574 	cmp	2,r12
00001362 f91d*          4575 	bnl	.L4823
                        4576 --1282:     {
                        4577 --1283:            addr    = r_adc_Unit[Unit].BaseAddr + R_ADC_SGPRCR;
                        4578 --line1283
                        4579 ..lin.C.3A.5Cgit.5Crh850.5Csrc.5Capp.5Cgfx_apps.5Csimple_draw.5Ctarget.5Cd1mx_mango_ghs.5Cobj.5Cr_adc_main.187::
                        4580 .LDWlin187:
00001364 0c58           4581 	mov	r12,r11
00001366 eb00           4582 	sxh	r11
00001368 eb5e1001       4583 	mulhi	272,r11,r11
0000136c 2a0600000000*  4584 	mov	_r_adc_Unit,r10
00001372 ca59           4585 	add	r10,r11
00001374 2bf70100       4586 	ld.w	0[r11],ep
00001378 1ef68c03       4587 	addi	908,ep,ep
                        4588 --1284:            if(0x43210u == Order)
0000137c 2b0610320400   4589 	mov	274960,r11
00001382 eb69           4590 	cmp	r11,r13
00001384 ba05*          4591 	bne	.L4825
                        4592 --1285:            {
                        4593 --1286:                 val = Order;
                        4594 --line1286
                        4595 ..lin.C.3A.5Cgit.5Crh850.5Csrc.5Capp.5Cgfx_apps.5Csimple_draw.5Ctarget.5Cd1mx_mango_ghs.5Cobj.5Cr_adc_main.188::
                        4596 .LDWlin188:
00001386 0d70           4597 	mov	r13,r14
00001388 950d*          4598 	br	.L4827
                        4599 .L4825:
                        4600 --1287:            }
                        4601 --1288:            else if (0x32401u == Order)
                        4602 --line1288
                        4603 ..lin.C.3A.5Cgit.5Crh850.5Csrc.5Capp.5Cgfx_apps.5Csimple_draw.5Ctarget.5Cd1mx_mango_ghs.5Cobj.5Cr_adc_main.189::
                        4604 .LDWlin189:
0000138a 2b0601240300   4605 	mov	205825,r11
00001390 eb69           4606 	cmp	r11,r13
00001392 ba05*          4607 	bne	.L4828
                        4608 --1289:            {
                        4609 --1290:                 val = Order;
                        4610 --line1290
                        4611 ..lin.C.3A.5Cgit.5Crh850.5Csrc.5Capp.5Cgfx_apps.5Csimple_draw.5Ctarget.5Cd1mx_mango_ghs.5Cobj.5Cr_adc_main.190::
                        4612 .LDWlin190:
00001394 0d70           4613 	mov	r13,r14
00001396 a505*          4614 	br	.L4827
                        4615 .L4828:
                        4616 --1291:            }  
                        4617 --1292:            else
                        4618 --1293:            {
                        4619 --1294:                /* error */
                        4620 --1295:                ret_val = R_ADC_PARAM_CONFIG;
                        4621 --line1295
                        4622 ..lin.C.3A.5Cgit.5Crh850.5Csrc.5Capp.5Cgfx_apps.5Csimple_draw.5Ctarget.5Cd1mx_mango_ghs.5Cobj.5Cr_adc_main.191::
                        4623 .LDWlin191:
00001398 0e0a           4624 	mov	14,r1

                                                                      Page 79
                                                              C:\Users\Frank\AppData\Local\Temp\gh_0000n141.si
                        4625 .L4827:
                        4626 --1296:            } 
                        4627 --1298:            R_ADC_WRITE_REG(32, addr, val);                                      
0000139a 0175           4628 	sst.w	r14,0[ep]
                        4629 --1299:            ret_val = R_ADC_ERR_OK;
0000139c 000a           4630 	mov	0,r1
0000139e a505*          4631 	br	.L4831
                        4632 .L4823:
                        4633 --1300:     }
                        4634 --1301:     else
                        4635 --1302:     {
                        4636 --1303:         ret_val = R_ADC_ERR_RANGE;
                        4637 --line1303
                        4638 ..lin.C.3A.5Cgit.5Crh850.5Csrc.5Capp.5Cgfx_apps.5Csimple_draw.5Ctarget.5Cd1mx_mango_ghs.5Cobj.5Cr_adc_main.192::
                        4639 .LDWlin192:
000013a0 020a           4640 	mov	2,r1
                        4641 .L4831:
                        4642 --1304:     }
                        4643 --1305:     return ret_val;
000013a2 0150           4644 	mov	r1,r10
                        4645 --	    .ef
                        4646 .LDW98:
000013a4 7f00           4647 	jmp	[lp]
                        4648 	.type	_R_ADC_ScanGroupProirtyOrder,@function
                        4649 	.size	_R_ADC_ScanGroupProirtyOrder,.-_R_ADC_ScanGroupProirtyOrder
                        4650 	.align	2
                        4651 .LDW09:
                        4652 --_addr	ep	local
                        4653 --_val	r14	local
                        4654 --_ret_val	r1	local
                        4655 
                        4656 --_Unit	r12	param
                        4657 --_Order	r13	param
                        4658 
                        4659 	.section ".bss","awb"
                        4660 .L4898:
                        4661 	.type	.L4898,@object
                        4662 	.size	.L4898,0
                        4663 	.data
                        4664 	.text
                        4665 
                        4666 --1306: }
                        4667 
                        4668 --1309: /* support for the temperature sensor */
                        4669 --1312: /*******************************************************************************
                        4670 --1313:   Function: R_ADC_StartGroupConversionTsn
                        4671 --1314:   
                        4672 --1315:   see: <r_adc_api.h> for details
                        4673 --1316: */
                        4674 --1317: r_adc_Error_t R_ADC_StartGroupConversionTsn(uint32_t Unit)
                        4675 	.align	2
                        4676 	.align	2
                        4677 	.global	_R_ADC_StartGroupConversionTsn
                        4678 _R_ADC_StartGroupConversionTsn:
000013a6 0670           4679 	mov	r6,r14
                        4680 --	    .bf
                        4681 .LDW19:
                        4682 --1318: {
                        4683 --1319:     uint32_t      addr    = 0;
000013a8 00f2           4684 	mov	0,ep
                        4685 --1320:     r_adc_Error_t ret_val = R_ADC_ERR_NG;

                                                                      Page 80
                                                              C:\Users\Frank\AppData\Local\Temp\gh_0000n141.si
000013aa 010a           4686 	mov	1,r1
                        4687 --1321:     if (Unit < R_ADC_MACRO_NUM)
000013ac 6272           4688 	cmp	2,r14
000013ae 9915*          4689 	bnl	.L4951
                        4690 --1322:     {
                        4691 --1323:            addr    = r_adc_Unit[Unit].BaseAddr + R_ADC_TSNSGCR;
                        4692 --line1323
                        4693 ..lin.C.3A.5Cgit.5Crh850.5Csrc.5Capp.5Cgfx_apps.5Csimple_draw.5Ctarget.5Cd1mx_mango_ghs.5Cobj.5Cr_adc_main.193::
                        4694 .LDWlin193:
000013b0 0e68           4695 	mov	r14,r13
000013b2 ed00           4696 	sxh	r13
000013b4 ed6e1001       4697 	mulhi	272,r13,r13
000013b8 2c0600000000*  4698 	mov	_r_adc_Unit,r12
000013be cc69           4699 	add	r12,r13
000013c0 2df70100       4700 	ld.w	0[r13],ep
000013c4 1ef60804       4701 	addi	1032,ep,ep
                        4702 --1324:            R_ADC_WRITE_REG(8, addr, 0x1);                                      
000013c8 016a           4703 	mov	1,r13
000013ca 806b           4704 	sst.b	r13,0[ep]
                        4705 --1325:            ret_val = R_ADC_ERR_OK;
000013cc 000a           4706 	mov	0,r1
000013ce a505*          4707 	br	.L4953
                        4708 .L4951:
                        4709 --1326:     }
                        4710 --1327:     else
                        4711 --1328:     {
                        4712 --1329:         ret_val = R_ADC_ERR_RANGE;
                        4713 --line1329
                        4714 ..lin.C.3A.5Cgit.5Crh850.5Csrc.5Capp.5Cgfx_apps.5Csimple_draw.5Ctarget.5Cd1mx_mango_ghs.5Cobj.5Cr_adc_main.194::
                        4715 .LDWlin194:
000013d0 020a           4716 	mov	2,r1
                        4717 .L4953:
                        4718 --1330:     }
                        4719 --1331:     return ret_val;
000013d2 0150           4720 	mov	r1,r10
                        4721 --	    .ef
                        4722 .LDW29:
000013d4 7f00           4723 	jmp	[lp]
                        4724 	.type	_R_ADC_StartGroupConversionTsn,@function
                        4725 	.size	_R_ADC_StartGroupConversionTsn,.-_R_ADC_StartGroupConversionTsn
                        4726 	.align	2
                        4727 .LDW39:
                        4728 --_addr	ep	local
                        4729 --_ret_val	r1	local
                        4730 
                        4731 --_Unit	r14	param
                        4732 
                        4733 	.section ".bss","awb"
                        4734 .L5002:
                        4735 	.type	.L5002,@object
                        4736 	.size	.L5002,0
                        4737 	.data
                        4738 	.text
                        4739 
                        4740 --1332: }
                        4741 
                        4742 --1335: /*******************************************************************************
                        4743 --1336:   Function: R_ADC_GetTemperatureTsn
                        4744 --1337:   
                        4745 --1338:   see: <r_adc_api.h> for details
                        4746 --1339: */

                                                                      Page 81
                                                              C:\Users\Frank\AppData\Local\Temp\gh_0000n141.si
                        4747 --1340: uint16_t R_ADC_GetTemperatureTsn(uint32_t Unit)
                        4748 	.align	2
                        4749 	.align	2
                        4750 	.global	_R_ADC_GetTemperatureTsn
                        4751 _R_ADC_GetTemperatureTsn:
000013d6 0670           4752 	mov	r6,r14
                        4753 --	    .bf
                        4754 .LDW49:
                        4755 --1341: {
                        4756 --1342:     uint32_t      addr    = 0;
000013d8 00f2           4757 	mov	0,ep
                        4758 --1343:     uint32_t      ret_val = 0;
000013da 000a           4759 	mov	0,r1
                        4760 --1345:     if (Unit < R_ADC_MACRO_NUM)
000013dc 6272           4761 	cmp	2,r14
000013de e90d*          4762 	bnl	.L5039
                        4763 --1346:     {
                        4764 --1347:            addr    = r_adc_Unit[Unit].BaseAddr + R_ADC_PWDTSNDR;
                        4765 --line1347
                        4766 ..lin.C.3A.5Cgit.5Crh850.5Csrc.5Capp.5Cgfx_apps.5Csimple_draw.5Ctarget.5Cd1mx_mango_ghs.5Cobj.5Cr_adc_main.195::
                        4767 .LDWlin195:
000013e0 0e68           4768 	mov	r14,r13
000013e2 ed00           4769 	sxh	r13
000013e4 ed6e1001       4770 	mulhi	272,r13,r13
000013e8 2c0600000000*  4771 	mov	_r_adc_Unit,r12
000013ee cc69           4772 	add	r12,r13
000013f0 2df70100       4773 	ld.w	0[r13],ep
000013f4 1ef67801       4774 	addi	376,ep,ep
                        4775 --1348:            ret_val = R_ADC_READ_REG(32, addr);                                      
000013f8 000d           4776 	sld.w	0[ep],r1
                        4777 .L5039:
                        4778 --1349:     }
                        4779 --1350:     else
                        4780 --1351:     {
                        4781 --1352:         /* error */
                        4782 --1353:     }
                        4783 --1355:     /* only the lower 16 bits required */
                        4784 --1356:     return (uint16_t) (ret_val & 0x0000FFFFu);
000013fa 0168           4785 	mov	r1,r13
000013fc cd00           4786 	zxh	r13
000013fe cd00           4787 	zxh	r13
00001400 0d50           4788 	mov	r13,r10
                        4789 --	    .ef
                        4790 .LDW59:
00001402 7f00           4791 	jmp	[lp]
                        4792 	.type	_R_ADC_GetTemperatureTsn,@function
                        4793 	.size	_R_ADC_GetTemperatureTsn,.-_R_ADC_GetTemperatureTsn
                        4794 	.align	2
                        4795 .LDW69:
                        4796 --_addr	ep	local
                        4797 --_ret_val	r1	local
                        4798 
                        4799 --_Unit	r14	param
                        4800 
                        4801 	.section ".bss","awb"
                        4802 .L5074:
                        4803 	.type	.L5074,@object
                        4804 	.size	.L5074,0
                        4805 	.data
                        4806 	.text
                        4807 

                                                                      Page 82
                                                              C:\Users\Frank\AppData\Local\Temp\gh_0000n141.si
                        4808 --1357: }
                        4809 
                        4810 --1360: /*******************************************************************************
                        4811 --1361:   Function: R_ADC_ConfigLimitsTsn
                        4812 --1362:   
                        4813 --1363:   see: <r_adc_api.h> for details
                        4814 --1364: */
                        4815 --1365: r_adc_Error_t R_ADC_ConfigLimitsTsn(uint32_t Unit, r_adc_ULLTableCfg_t Config)
                        4816 	.align	2
                        4817 	.align	2
                        4818 	.global	_R_ADC_ConfigLimitsTsn
                        4819 _R_ADC_ConfigLimitsTsn:
00001404 0660           4820 	mov	r6,r12
00001406 0768           4821 	mov	r7,r13
                        4822 --	    .bf
                        4823 .LDW79:
                        4824 --1366: {
                        4825 --1367:     uint32_t      addr    = 0;
00001408 00f2           4826 	mov	0,ep
                        4827 --1368:     uint32_t      val     = 0;
0000140a 000a           4828 	mov	0,r1
                        4829 --1369:     r_adc_Error_t ret_val = R_ADC_ERR_NG;
0000140c 0172           4830 	mov	1,r14
                        4831 --1370:     if (Unit < R_ADC_MACRO_NUM)
0000140e 6262           4832 	cmp	2,r12
00001410 e925*          4833 	bnl	.L5103
                        4834 --1371:     {
                        4835 --1372:            addr    = r_adc_Unit[Unit].BaseAddr + R_ADC_TSNVCR;
                        4836 --line1372
                        4837 ..lin.C.3A.5Cgit.5Crh850.5Csrc.5Capp.5Cgfx_apps.5Csimple_draw.5Ctarget.5Cd1mx_mango_ghs.5Cobj.5Cr_adc_main.196::
                        4838 .LDWlin196:
00001412 0c58           4839 	mov	r12,r11
00001414 eb00           4840 	sxh	r11
00001416 eb5e1001       4841 	mulhi	272,r11,r11
0000141a 2a0600000000*  4842 	mov	_r_adc_Unit,r10
00001420 ca59           4843 	add	r10,r11
00001422 2bf70100       4844 	ld.w	0[r11],ep
00001426 1ef6f000       4845 	addi	240,ep,ep
                        4846 --1373:            if(R_ADC_SEL_ULLMTBR0 == Config)
0000142a 616a           4847 	cmp	1,r13
0000142c ba05*          4848 	bne	.L5105
                        4849 --1374:            {
                        4850 --1375:                 val = 0;
                        4851 --line1375
                        4852 ..lin.C.3A.5Cgit.5Crh850.5Csrc.5Capp.5Cgfx_apps.5Csimple_draw.5Ctarget.5Cd1mx_mango_ghs.5Cobj.5Cr_adc_main.197::
                        4853 .LDWlin197:
0000142e 000a           4854 	mov	0,r1
00001430 9515*          4855 	br	.L5107
                        4856 .L5105:
                        4857 --1376:            }
                        4858 --1377:            else if (R_ADC_SEL_ULLMTBR0 == Config)
                        4859 --line1377
                        4860 ..lin.C.3A.5Cgit.5Crh850.5Csrc.5Capp.5Cgfx_apps.5Csimple_draw.5Ctarget.5Cd1mx_mango_ghs.5Cobj.5Cr_adc_main.198::
                        4861 .LDWlin198:
00001432 616a           4862 	cmp	1,r13
00001434 ca05*          4863 	bne	.L5108
                        4864 --1378:            {
                        4865 --1379:                 val = (uint8_t) 0x01u  << 6;
                        4866 --line1379
                        4867 ..lin.C.3A.5Cgit.5Crh850.5Csrc.5Capp.5Cgfx_apps.5Csimple_draw.5Ctarget.5Cd1mx_mango_ghs.5Cobj.5Cr_adc_main.199::
                        4868 .LDWlin199:

                                                                      Page 83
                                                              C:\Users\Frank\AppData\Local\Temp\gh_0000n141.si
00001436 200e4000       4869 	movea	64,zero,r1
0000143a c50d*          4870 	br	.L5107
                        4871 .L5108:
                        4872 --1380:            }
                        4873 --1381:            else if (R_ADC_SEL_ULLMTBR1 == Config)
                        4874 --line1381
                        4875 ..lin.C.3A.5Cgit.5Crh850.5Csrc.5Capp.5Cgfx_apps.5Csimple_draw.5Ctarget.5Cd1mx_mango_ghs.5Cobj.5Cr_adc_main.200::
                        4876 .LDWlin200:
0000143c 626a           4877 	cmp	2,r13
0000143e ca05*          4878 	bne	.L5111
                        4879 --1382:            {
                        4880 --1383:                 val = (uint8_t) 0x02u << 6;
                        4881 --line1383
                        4882 ..lin.C.3A.5Cgit.5Crh850.5Csrc.5Capp.5Cgfx_apps.5Csimple_draw.5Ctarget.5Cd1mx_mango_ghs.5Cobj.5Cr_adc_main.201::
                        4883 .LDWlin201:
00001440 200e8000       4884 	movea	128,zero,r1
00001444 f505*          4885 	br	.L5107
                        4886 .L5111:
                        4887 --1384:            }
                        4888 --1385:            else if (R_ADC_SEL_ULLMTBR2 == Config)
                        4889 --line1385
                        4890 ..lin.C.3A.5Cgit.5Crh850.5Csrc.5Capp.5Cgfx_apps.5Csimple_draw.5Ctarget.5Cd1mx_mango_ghs.5Cobj.5Cr_adc_main.202::
                        4891 .LDWlin202:
00001446 636a           4892 	cmp	3,r13
00001448 ca05*          4893 	bne	.L5114
                        4894 --1386:            {
                        4895 --1387:                 val = (uint8_t) 0x03u << 6;
                        4896 --line1387
                        4897 ..lin.C.3A.5Cgit.5Crh850.5Csrc.5Capp.5Cgfx_apps.5Csimple_draw.5Ctarget.5Cd1mx_mango_ghs.5Cobj.5Cr_adc_main.203::
                        4898 .LDWlin203:
0000144a 200ec000       4899 	movea	192,zero,r1
0000144e a505*          4900 	br	.L5107
                        4901 .L5114:
                        4902 --1388:            }           
                        4903 --1389:            else
                        4904 --1390:            {
                        4905 --1391:                /* error */
                        4906 --1392:                ret_val = R_ADC_PARAM_CONFIG;
                        4907 --line1392
                        4908 ..lin.C.3A.5Cgit.5Crh850.5Csrc.5Capp.5Cgfx_apps.5Csimple_draw.5Ctarget.5Cd1mx_mango_ghs.5Cobj.5Cr_adc_main.204::
                        4909 .LDWlin204:
00001450 0e72           4910 	mov	14,r14
                        4911 .L5107:
                        4912 --1393:            } 
                        4913 --1395:            R_ADC_WRITE_REG(32, addr, val | 0x25u);                                      
00001452 815e2500       4914 	ori	37,r1,r11
00001456 015d           4915 	sst.w	r11,0[ep]
                        4916 --1396:            ret_val = R_ADC_ERR_OK;
00001458 0072           4917 	mov	0,r14
0000145a a505*          4918 	br	.L5117
                        4919 .L5103:
                        4920 --1397:     }
                        4921 --1398:     else
                        4922 --1399:     {
                        4923 --1400:         ret_val = R_ADC_ERR_RANGE;
                        4924 --line1400
                        4925 ..lin.C.3A.5Cgit.5Crh850.5Csrc.5Capp.5Cgfx_apps.5Csimple_draw.5Ctarget.5Cd1mx_mango_ghs.5Cobj.5Cr_adc_main.205::
                        4926 .LDWlin205:
0000145c 0272           4927 	mov	2,r14
                        4928 .L5117:
                        4929 --1401:     }

                                                                      Page 84
                                                              C:\Users\Frank\AppData\Local\Temp\gh_0000n141.si
                        4930 --1402:     return ret_val;
0000145e 0e50           4931 	mov	r14,r10
                        4932 --	    .ef
                        4933 .LDW89:
00001460 7f00           4934 	jmp	[lp]
                        4935 	.type	_R_ADC_ConfigLimitsTsn,@function
                        4936 	.size	_R_ADC_ConfigLimitsTsn,.-_R_ADC_ConfigLimitsTsn
                        4937 	.align	2
                        4938 .LDW99:
                        4939 --_addr	ep	local
                        4940 --_val	r1	local
                        4941 --_ret_val	r14	local
                        4942 
                        4943 --_Unit	r12	param
                        4944 --_Config	r13	param
                        4945 
                        4946 	.section ".bss","awb"
                        4947 .L5202:
                        4948 	.type	.L5202,@object
                        4949 	.size	.L5202,0
                        4950 	.data
                        4951 	.text
                        4952 
                        4953 --1403: }
                        4954 	.align	2
                        4955 --_loc_ErrorHandler	_loc_ErrorHandler	static
                        4956 
                        4957 	.data
                        4958 	.section ".bss","awb"
                        4959 	.align	4
                        4960 	.align	4
                        4961 	.global	_r_adc_InitFlag
00000000 000000000000   4962 _r_adc_InitFlag:	.space	8
00000006 0000 
                        4963 	.type	_r_adc_InitFlag,@object
                        4964 	.size	_r_adc_InitFlag,8
                        4965 	.align	4
                        4966 	.global	_r_adc_StrFlag
00000008 000000000000   4967 _r_adc_StrFlag:	.space	8
0000000e 0000 
                        4968 	.type	_r_adc_StrFlag,@object
                        4969 	.size	_r_adc_StrFlag,8
                        4970 	.align	4
                        4971 	.global	_r_adc_OWInitFlag
00000010 000000000000   4972 _r_adc_OWInitFlag:	.space	8
00000016 0000 
                        4973 	.type	_r_adc_OWInitFlag,@object
                        4974 	.size	_r_adc_OWInitFlag,8
                        4975 	.align	4
                        4976 	.global	_r_adc_ChEndFlag
00000018 000000000000   4977 _r_adc_ChEndFlag:	.space	8
0000001e 0000 
                        4978 	.type	_r_adc_ChEndFlag,@object
                        4979 	.size	_r_adc_ChEndFlag,8
                        4980 	.align	2
                        4981 	.global	_r_adc_CovResult
00000020 000000000000   4982 _r_adc_CovResult:	.space	608
00000026 000000000000 
0000002c 000000000000 
00000032 000000000000 
00000038 000000000000 

                                                                      Page 85
                                                              C:\Users\Frank\AppData\Local\Temp\gh_0000n141.si
0000003e 000000000000 
00000044 000000000000 
0000004a 000000000000 
00000050 000000000000 
00000056 000000000000 
0000005c 000000000000 
00000062 000000000000 
00000068 000000000000 
0000006e 000000000000 
00000074 000000000000 
0000007a 000000000000 
00000080 000000000000 
00000086 000000000000 
0000008c 000000000000 
00000092 000000000000 
00000098 000000000000 
0000009e 000000000000 
000000a4 000000000000 
000000aa 000000000000 
000000b0 000000000000 
000000b6 000000000000 
000000bc 000000000000 
000000c2 000000000000 
000000c8 000000000000 
000000ce 000000000000 
000000d4 000000000000 
000000da 000000000000 
000000e0 000000000000 
000000e6 000000000000 
000000ec 000000000000 
000000f2 000000000000 
000000f8 000000000000 
000000fe 000000000000 
00000104 000000000000 
0000010a 000000000000 
00000110 000000000000 
00000116 000000000000 
0000011c 00000000 
                        4983 	.type	_r_adc_CovResult,@object
                        4984 	.size	_r_adc_CovResult,608
                        4985 	.global	_r_adc_MpxNum
00000280 000000000000   4986 _r_adc_MpxNum:	.space	152
00000286 000000000000 
0000028c 000000000000 
00000292 000000000000 
00000298 000000000000 
0000029e 000000000000 
000002a4 000000000000 
000002aa 000000000000 
000002b0 000000000000 
000002b6 000000000000 
000002bc 000000000000 
000002c2 000000000000 
000002c8 000000000000 
000002ce 000000000000 
000002d4 000000000000 
000002da 000000000000 
000002e0 000000000000 
000002e6 000000000000 
000002ec 000000000000 
000002f2 000000000000 

                                                                      Page 86
                                                              C:\Users\Frank\AppData\Local\Temp\gh_0000n141.si
000002f8 000000000000 
000002fe 000000000000 
00000304 000000000000 
0000030a 000000000000 
00000310 000000000000 
00000316 0000 
                        4987 	.type	_r_adc_MpxNum,@object
                        4988 	.size	_r_adc_MpxNum,152
                        4989 	.global	_r_adc_VChannel
00000318 000000000000   4990 _r_adc_VChannel:	.space	304
0000031e 000000000000 
00000324 000000000000 
0000032a 000000000000 
00000330 000000000000 
00000336 000000000000 
0000033c 000000000000 
00000342 000000000000 
00000348 000000000000 
0000034e 000000000000 
00000354 000000000000 
0000035a 000000000000 
00000360 000000000000 
00000366 000000000000 
0000036c 000000000000 
00000372 000000000000 
00000378 000000000000 
0000037e 000000000000 
00000384 000000000000 
0000038a 000000000000 
00000390 000000000000 
00000396 000000000000 
0000039c 000000000000 
000003a2 000000000000 
000003a8 000000000000 
000003ae 000000000000 
000003b4 000000000000 
000003ba 000000000000 
000003c0 000000000000 
000003c6 000000000000 
000003cc 000000000000 
000003d2 000000000000 
000003d8 000000000000 
000003de 000000000000 
000003e4 000000000000 
000003ea 000000000000 
000003f0 000000000000 
000003f6 000000000000 
000003fc 000000000000 
00000402 000000000000 
00000408 000000000000 
0000040e 000000000000 
00000414 00000000 
                        4991 	.type	_r_adc_VChannel,@object
                        4992 	.size	_r_adc_VChannel,304
                        4993 	.align	4
                        4994 	.global	_r_adc_Unit
00000448 000000000000   4995 _r_adc_Unit:	.space	544
0000044e 000000000000 
00000454 000000000000 
0000045a 000000000000 
00000460 000000000000 

                                                                      Page 87
                                                              C:\Users\Frank\AppData\Local\Temp\gh_0000n141.si
00000466 000000000000 
0000046c 000000000000 
00000472 000000000000 
00000478 000000000000 
0000047e 000000000000 
00000484 000000000000 
0000048a 000000000000 
00000490 000000000000 
00000496 000000000000 
0000049c 000000000000 
000004a2 000000000000 
000004a8 000000000000 
000004ae 000000000000 
000004b4 000000000000 
000004ba 000000000000 
000004c0 000000000000 
000004c6 000000000000 
000004cc 000000000000 
000004d2 000000000000 
000004d8 000000000000 
000004de 000000000000 
000004e4 000000000000 
000004ea 000000000000 
000004f0 000000000000 
000004f6 000000000000 
000004fc 000000000000 
00000502 000000000000 
00000508 000000000000 
0000050e 000000000000 
00000514 000000000000 
0000051a 000000000000 
00000520 000000000000 
00000526 000000000000 
0000052c 000000000000 
00000532 000000000000 
00000538 000000000000 
0000053e 000000000000 
00000544 00000000 
                        4996 	.type	_r_adc_Unit,@object
                        4997 	.size	_r_adc_Unit,544
                        4998 	.global	_r_adc_UllErr
00000668 000000000000   4999 _r_adc_UllErr:	.space	76
0000066e 000000000000 
00000674 000000000000 
0000067a 000000000000 
00000680 000000000000 
00000686 000000000000 
0000068c 000000000000 
00000692 000000000000 
00000698 000000000000 
0000069e 000000000000 
000006a4 000000000000 
000006aa 000000000000 
000006b0 00000000 
                        5000 	.type	_r_adc_UllErr,@object
                        5001 	.size	_r_adc_UllErr,76
                        5002 	.global	_r_adc_OwErr
000006b4 000000000000   5003 _r_adc_OwErr:	.space	76
000006ba 000000000000 
000006c0 000000000000 
000006c6 000000000000 

                                                                      Page 88
                                                              C:\Users\Frank\AppData\Local\Temp\gh_0000n141.si
000006cc 000000000000 
000006d2 000000000000 
000006d8 000000000000 
000006de 000000000000 
000006e4 000000000000 
000006ea 000000000000 
000006f0 000000000000 
000006f6 000000000000 
000006fc 00000000 
                        5004 	.type	_r_adc_OwErr,@object
                        5005 	.size	_r_adc_OwErr,76
                        5006 	.data
                        5007 	.ghsnote version,15
                        5008 	.ghsnote tools,3
                        5009 	.ghsnote options,144
                        5010 	.text
                        5011 	.align	2
                        5012 ..eof.C.3A.5Cgit.5Crh850.5Csrc.5Capp.5Cgfx_apps.5Csimple_draw.5Ctarget.5Cd1mx_mango_ghs.5Cobj.5Cr_adc_main...43.3A.5Cgit.5Crh850.5Csrc.5Capp.5Cgfx_apps.5Csimple_draw.5Ctarget.5Cd1mx_mango_ghs..5BC5D024..0::
                        5013 .rh850_flags REGMODE22,DATA_ALIGN8,GP_FIX,EP_NONFIX,TP_FIX,REG2_RESERVE,G3M
