                                                                      Page 1
                                                              C:\Users\Frank\AppData\Local\Temp\gh_0000oig1.si
Command Line: C:\GHS\V800.V2014.1.7\comp_201417\ease850.exe -w -elf -b0 -I../../../../../app/common/dhd -I../../../../../app/gfx_apps/simple_draw/src -I../../../../../app/gfx_apps/simple_draw/lib -I../../../../../bsp/board//config -I../../../../../bsp/board//src/gfx -I../../../../../bsp/board//src/hmi -I../../../../../bsp/board//src/stdio -I../../../../../bsp/board/d1mx_mango/config -I../../../../../bsp/board/d1mx_mango/src -I../../../../../bsp/board/d1mx_mango/src/gfx -I../../../../../bsp/board/d1mx_mango/src/hmi -I../../../../../bsp/board/d1mx_mango/src/stdio -I../../../../../bsp/gfx/lib -I../../../../../bsp/gfx/src -I../../../../../bsp/hmi/lib -I../../../../../bsp/hmi/src -I../../../../../bsp/lib -I../../../../../bsp/stdio/lib -I../../../../../bsp/stdio/src -I../../../../../cdi/lib -I../../../../../cdi/src -I../../../../../compiler/rh850_ghs/inc -I../../../../../device/d1mx/lib -I../../../../../device/d1mx/macro_cfg -I../../../../../device/d1mx/macro_cfg/csisw -I../../../../../device/d1mx/macro_cfg/davehd -I../../../../../device/d1mx/macro_cfg/ddb -I../../../../../device/d1mx/macro_cfg/drw2d -I../../../../../device/d1mx/macro_cfg/gfxbus -I../../../../../device/d1mx/macro_cfg/gpio -I../../../../../device/d1mx/macro_cfg/hypb -I../../../../../device/d1mx/macro_cfg/hypdb -I../../../../../device/d1mx/macro_cfg/jcua -I../../../../../device/d1mx/macro_cfg/nfmabare -I../../../../../device/d1mx/macro_cfg/octa -I../../../../../device/d1mx/macro_cfg/octacdb -I../../../../../device/d1mx/macro_cfg/ostm -I../../../../../device/d1mx/macro_cfg/pbg -I../../../../../device/d1mx/macro_cfg/riic -I../../../../../device/d1mx/macro_cfg/sfcdb -I../../../../../device/d1mx/macro_cfg/sfma -I../../../../../device/d1mx/macro_cfg/spea -I../../../../../device/d1mx/macro_cfg/tauj -I../../../../../device/d1mx/macro_cfg/tick -I../../../../../device/d1mx/macro_cfg/vdce -I../../../../../device/d1mx/macro_cfg/vowe -I../../../../../device/d1mx/macro_cfg/wm -I../../../../../device/d1mx/macro_cfg/xbus -I../../../../../device/d1mx/src/dev -I../../../../../device/d1mx/src/dhd -I../../../../../device/d1mx/src/hypb -I../../../../../device/d1mx/src/jcua -I../../../../../device/d1mx/src/nfmabare -I../../../../../device/d1mx/src/octa -I../../../../../device/d1mx/src/rh850_ghs -I../../../../../device/d1mx/src/vowe -I../../../../../device/d1x_common/macro_cfg -I../../../../../device/d1x_common/macro_cfg/csisw -I../../../../../device/d1x_common/macro_cfg/davehd -I../../../../../device/d1x_common/macro_cfg/ddb -I../../../../../device/d1x_common/macro_cfg/drw2d -I../../../../../device/d1x_common/macro_cfg/gfxbus -I../../../../../device/d1x_common/macro_cfg/gpio -I../../../../../device/d1x_common/macro_cfg/hypb -I../../../../../device/d1x_common/macro_cfg/hypdb -I../../../../../device/d1x_common/macro_cfg/jcua -I../../../../../device/d1x_common/macro_cfg/nfmabare -I../../../../../device/d1x_common/macro_cfg/octa -I../../../../../device/d1x_common/macro_cfg/octacdb -I../../../../../device/d1x_common/macro_cfg/ostm -I../../../../../device/d1x_common/macro_cfg/pbg -I../../../../../device/d1x_common/macro_cfg/riic -I../../../../../device/d1x_common/macro_cfg/sfcdb -I../../../../../device/d1x_common/macro_cfg/sfma -I../../../../../device/d1x_common/macro_cfg/spea -I../../../../../device/d1x_common/macro_cfg/tauj -I../../../../../device/d1x_common/macro_cfg/tick -I../../../../../device/d1x_common/macro_cfg/vdce -I../../../../../device/d1x_common/macro_cfg/vowe -I../../../../../device/d1x_common/macro_cfg/wm -I../../../../../device/d1x_common/macro_cfg/xbus -I../../../../../device/d1x_common/src/csisw -I../../../../../device/d1x_common/src/ddb -I../../../../../device/d1x_common/src/dev -I../../../../../device/d1x_common/src/gfxbus -I../../../../../device/d1x_common/src/gpio -I../../../../../device/d1x_common/src/ostm -I../../../../../device/d1x_common/src/pbg -I../../../../../device/d1x_common/src/riic -I../../../../../device/d1x_common/src/sfma -I../../../../../device/d1x_common/src/spea -I../../../../../device/d1x_common/src/tauj -I../../../../../device/d1x_common/src/tick -I../../../../../device/d1x_common/src/vdce -I../../../../../device/d1x_common/src/wm -I../../../../../device/d1x_common/src/xbus -I../../../../../device/lib -I../../../../../macro/bus/pbg/lib -I../../../../../macro/bus/pbg/src -I../../../../../macro/csi/csisw/lib -I../../../../../macro/csi/csisw/src -I../../../../../macro/drw2d/lib -I../../../../../macro/drw2d/platform/davehd -I../../../../../macro/drw2d/platform/os/no_os -I../../../../../macro/drw2d/src -I../../../../../macro/flashc/hypb/lib -I../../../../../macro/flashc/hypb/src -I../../../../../macro/flashc/hypdb/lib -I../../../../../macro/flashc/hypdb/src -I../../../../../macro/flashc/nfmabare/lib -I../../../../../macro/flashc/nfmabare/src -I../../../../../macro/flashc/octa/lib -I../../../../../macro/flashc/octa/src -I../../../../../macro/flashc/octacdb/lib -I../../../../../macro/flashc/octacdb/src -I../../../../../macro/flashc/sfcdb/lib -I../../../../../macro/flashc/sfcdb/src -I../../../../../macro/flashc/sfma/lib -I../../../../../macro/flashc/sfma/src -I../../../../../macro/gfxbus/lib -I../../../../../macro/gfxbus/src -I../../../../../macro/gfxbus/xbus/lib -I../../../../../macro/gfxbus/xbus/src -I../../../../../macro/gpio/lib -I../../../../../macro/gpio/src -I../../../../../macro/gpu/davehd/common/inc -I../../../../../macro/gpu/davehd/common/inc/platform -I../../../../../macro/gpu/davehd/common/inc/platform/d1mx -I../../../../../macro/gpu/davehd/docs -I../../../../../macro/gpu/davehd/kernel/inc -I../../../../../macro/gpu/davehd/kernel/platform/d1mx -I../../../../../macro/gpu/davehd/kernel/platform/d1mx/bridge -I../../../../../macro/gpu/davehd/kernel/platform/d1mx/non_threaded -I../../../../../macro/gpu/davehd/kernel/platform/ree -I../../../../../macro/gpu/davehd/kernel/src -I../../../../../macro/gpu/davehd/user/inc -I../../../../../macro/gpu/davehd/user/platform/d1mx/no_os -I../../../../../macro/gpu/davehd/user/src -I../../../../../macro/gpu/jcua/lib -I../../../../../macro/gpu/jcua/src -I../../../../../macro/i2c/riic/lib -I../../../../../macro/i2c/riic/src -I../../../../../macro/tick/lib -I../../../../../macro/tick/src -I../../../../../macro/timer/ostm/lib -I../../../../../macro/timer/ostm/src -I../../../../../macro/timer/tauj/lib -I../../../../../macro/timer/tauj/src -I../../../../../macro/vdce/lib -I../../../../../macro/vdce/src -I../../../../../macro/vo/ddb/lib -I../../../../../macro/vo/ddb/src -I../../../../../macro/vo/spea/lib -I../../../../../macro/vo/spea/src -I../../../../../macro/vo/vowe/lib -I../../../../../macro/vo/vowe/src -I../../../../../macro/wm/lib -I../../../../../macro/wm/src -I../../../../../macro/pwm/lib -I../../../../../macro/reset/lib -I../../../../../macro/rscan/lib -I../../../../../macro/uart/rlin3/lib -I../../../../../macro/uart/rlin3/src -I../../../../../device/d1x_common/macro_cfg/rlin3 -I../../../../../macro/stbc/lib -I../../../../../macro/adc/lib -I../../../../../device/d1x_common/macro_cfg/adc7010 -IC:\GHS\V800.V2014.1.7\comp_201417\lib\rh850_22 -cg_underscore -cpu=rh850g3m -no_v850_simd -rh850_fpsimd=none -nomacro -patch_dbo=C:\git\rh850\src\app\gfx_apps\simple_draw\target\d1mx_mango_ghs\obj\r_adc_isr.dbo -source=r_adc_isr.c -o .\obj\gh_0000oig1.o -list=.\obj\r_adc_isr.lst C:\Users\Frank\AppData\Local\Temp\gh_0000oig1.si 
Original File: C:\Users\Frank\AppData\Local\Temp\gh_0000oig1.si
Source File: r_adc_isr.c
Directory: C:\git\rh850\src\app\gfx_apps\simple_draw\target\d1mx_mango_ghs
Host OS: Windows
EASE: Copyright (C) 1983-2014 Green Hills Software.  All Rights Reversed.
Release: Compiler v2014.1.7
Build Directory: [Directory] BTOWINBOX:c:/build_2014_1_bto/2014-09-04.2200-2014_1_bto/win32-comp-ecom
Revision: [VCInfo] http://toolsvc/branches/release-branch-2014-1-bto/src@515859 (built by build)
Revision Date: Fri Sep 05 14:05:06 2014

Release Date: Fri Sep 05 14:43:29 2014

                           1 --Driver Command: ccv850 -c -MD -I../../../../../app/common/dhd
                           2 --		-I../../../../../app/gfx_apps/simple_draw/src
                           3 --		-I../../../../../app/gfx_apps/simple_draw/lib
                           4 --		-I../../../../../bsp/board//config
                           5 --		-I../../../../../bsp/board//src/gfx
                           6 --		-I../../../../../bsp/board//src/hmi
                           7 --		-I../../../../../bsp/board//src/stdio
                           8 --		-I../../../../../bsp/board/d1mx_mango/config
                           9 --		-I../../../../../bsp/board/d1mx_mango/src
                          10 --		-I../../../../../bsp/board/d1mx_mango/src/gfx
                          11 --		-I../../../../../bsp/board/d1mx_mango/src/hmi
                          12 --		-I../../../../../bsp/board/d1mx_mango/src/stdio
                          13 --		-I../../../../../bsp/gfx/lib -I../../../../../bsp/gfx/src
                          14 --		-I../../../../../bsp/hmi/lib -I../../../../../bsp/hmi/src
                          15 --		-I../../../../../bsp/lib -I../../../../../bsp/stdio/lib
                          16 --		-I../../../../../bsp/stdio/src -I../../../../../cdi/lib
                          17 --		-I../../../../../cdi/src -I../../../../../compiler/rh850_ghs/inc
                          18 --		-I../../../../../device/d1mx/lib
                          19 --		-I../../../../../device/d1mx/macro_cfg
                          20 --		-I../../../../../device/d1mx/macro_cfg/csisw
                          21 --		-I../../../../../device/d1mx/macro_cfg/davehd
                          22 --		-I../../../../../device/d1mx/macro_cfg/ddb
                          23 --		-I../../../../../device/d1mx/macro_cfg/drw2d
                          24 --		-I../../../../../device/d1mx/macro_cfg/gfxbus
                          25 --		-I../../../../../device/d1mx/macro_cfg/gpio
                          26 --		-I../../../../../device/d1mx/macro_cfg/hypb
                          27 --		-I../../../../../device/d1mx/macro_cfg/hypdb
                          28 --		-I../../../../../device/d1mx/macro_cfg/jcua
                          29 --		-I../../../../../device/d1mx/macro_cfg/nfmabare
                          30 --		-I../../../../../device/d1mx/macro_cfg/octa
                          31 --		-I../../../../../device/d1mx/macro_cfg/octacdb
                          32 --		-I../../../../../device/d1mx/macro_cfg/ostm
                          33 --		-I../../../../../device/d1mx/macro_cfg/pbg
                          34 --		-I../../../../../device/d1mx/macro_cfg/riic
                          35 --		-I../../../../../device/d1mx/macro_cfg/sfcdb
                          36 --		-I../../../../../device/d1mx/macro_cfg/sfma
                          37 --		-I../../../../../device/d1mx/macro_cfg/spea
                          38 --		-I../../../../../device/d1mx/macro_cfg/tauj
                          39 --		-I../../../../../device/d1mx/macro_cfg/tick
                          40 --		-I../../../../../device/d1mx/macro_cfg/vdce
                          41 --		-I../../../../../device/d1mx/macro_cfg/vowe
                          42 --		-I../../../../../device/d1mx/macro_cfg/wm
                          43 --		-I../../../../../device/d1mx/macro_cfg/xbus
                          44 --		-I../../../../../device/d1mx/src/dev
                          45 --		-I../../../../../device/d1mx/src/dhd
                          46 --		-I../../../../../device/d1mx/src/hypb
                          47 --		-I../../../../../device/d1mx/src/jcua
                          48 --		-I../../../../../device/d1mx/src/nfmabare
                          49 --		-I../../../../../device/d1mx/src/octa
                          50 --		-I../../../../../device/d1mx/src/rh850_ghs

                                                                      Page 2
                                                              C:\Users\Frank\AppData\Local\Temp\gh_0000oig1.si
                          51 --		-I../../../../../device/d1mx/src/vowe
                          52 --		-I../../../../../device/d1x_common/macro_cfg
                          53 --		-I../../../../../device/d1x_common/macro_cfg/csisw
                          54 --		-I../../../../../device/d1x_common/macro_cfg/davehd
                          55 --		-I../../../../../device/d1x_common/macro_cfg/ddb
                          56 --		-I../../../../../device/d1x_common/macro_cfg/drw2d
                          57 --		-I../../../../../device/d1x_common/macro_cfg/gfxbus
                          58 --		-I../../../../../device/d1x_common/macro_cfg/gpio
                          59 --		-I../../../../../device/d1x_common/macro_cfg/hypb
                          60 --		-I../../../../../device/d1x_common/macro_cfg/hypdb
                          61 --		-I../../../../../device/d1x_common/macro_cfg/jcua
                          62 --		-I../../../../../device/d1x_common/macro_cfg/nfmabare
                          63 --		-I../../../../../device/d1x_common/macro_cfg/octa
                          64 --		-I../../../../../device/d1x_common/macro_cfg/octacdb
                          65 --		-I../../../../../device/d1x_common/macro_cfg/ostm
                          66 --		-I../../../../../device/d1x_common/macro_cfg/pbg
                          67 --		-I../../../../../device/d1x_common/macro_cfg/riic
                          68 --		-I../../../../../device/d1x_common/macro_cfg/sfcdb
                          69 --		-I../../../../../device/d1x_common/macro_cfg/sfma
                          70 --		-I../../../../../device/d1x_common/macro_cfg/spea
                          71 --		-I../../../../../device/d1x_common/macro_cfg/tauj
                          72 --		-I../../../../../device/d1x_common/macro_cfg/tick
                          73 --		-I../../../../../device/d1x_common/macro_cfg/vdce
                          74 --		-I../../../../../device/d1x_common/macro_cfg/vowe
                          75 --		-I../../../../../device/d1x_common/macro_cfg/wm
                          76 --		-I../../../../../device/d1x_common/macro_cfg/xbus
                          77 --		-I../../../../../device/d1x_common/src/csisw
                          78 --		-I../../../../../device/d1x_common/src/ddb
                          79 --		-I../../../../../device/d1x_common/src/dev
                          80 --		-I../../../../../device/d1x_common/src/gfxbus
                          81 --		-I../../../../../device/d1x_common/src/gpio
                          82 --		-I../../../../../device/d1x_common/src/ostm
                          83 --		-I../../../../../device/d1x_common/src/pbg
                          84 --		-I../../../../../device/d1x_common/src/riic
                          85 --		-I../../../../../device/d1x_common/src/sfma
                          86 --		-I../../../../../device/d1x_common/src/spea
                          87 --		-I../../../../../device/d1x_common/src/tauj
                          88 --		-I../../../../../device/d1x_common/src/tick
                          89 --		-I../../../../../device/d1x_common/src/vdce
                          90 --		-I../../../../../device/d1x_common/src/wm
                          91 --		-I../../../../../device/d1x_common/src/xbus
                          92 --		-I../../../../../device/lib -I../../../../../macro/bus/pbg/lib
                          93 --		-I../../../../../macro/bus/pbg/src
                          94 --		-I../../../../../macro/csi/csisw/lib
                          95 --		-I../../../../../macro/csi/csisw/src
                          96 --		-I../../../../../macro/drw2d/lib
                          97 --		-I../../../../../macro/drw2d/platform/davehd
                          98 --		-I../../../../../macro/drw2d/platform/os/no_os
                          99 --		-I../../../../../macro/drw2d/src
                         100 --		-I../../../../../macro/flashc/hypb/lib
                         101 --		-I../../../../../macro/flashc/hypb/src
                         102 --		-I../../../../../macro/flashc/hypdb/lib
                         103 --		-I../../../../../macro/flashc/hypdb/src
                         104 --		-I../../../../../macro/flashc/nfmabare/lib
                         105 --		-I../../../../../macro/flashc/nfmabare/src
                         106 --		-I../../../../../macro/flashc/octa/lib
                         107 --		-I../../../../../macro/flashc/octa/src
                         108 --		-I../../../../../macro/flashc/octacdb/lib
                         109 --		-I../../../../../macro/flashc/octacdb/src
                         110 --		-I../../../../../macro/flashc/sfcdb/lib
                         111 --		-I../../../../../macro/flashc/sfcdb/src

                                                                      Page 3
                                                              C:\Users\Frank\AppData\Local\Temp\gh_0000oig1.si
                         112 --		-I../../../../../macro/flashc/sfma/lib
                         113 --		-I../../../../../macro/flashc/sfma/src
                         114 --		-I../../../../../macro/gfxbus/lib
                         115 --		-I../../../../../macro/gfxbus/src
                         116 --		-I../../../../../macro/gfxbus/xbus/lib
                         117 --		-I../../../../../macro/gfxbus/xbus/src
                         118 --		-I../../../../../macro/gpio/lib -I../../../../../macro/gpio/src
                         119 --		-I../../../../../macro/gpu/davehd/common/inc
                         120 --		-I../../../../../macro/gpu/davehd/common/inc/platform
                         121 --		-I../../../../../macro/gpu/davehd/common/inc/platform/d1mx
                         122 --		-I../../../../../macro/gpu/davehd/docs
                         123 --		-I../../../../../macro/gpu/davehd/kernel/inc
                         124 --		-I../../../../../macro/gpu/davehd/kernel/platform/d1mx
                         125 --		-I../../../../../macro/gpu/davehd/kernel/platform/d1mx/bridge
                         126 --		-I../../../../../macro/gpu/davehd/kernel/platform/d1mx/non_threaded
                         127 --		-I../../../../../macro/gpu/davehd/kernel/platform/ree
                         128 --		-I../../../../../macro/gpu/davehd/kernel/src
                         129 --		-I../../../../../macro/gpu/davehd/user/inc
                         130 --		-I../../../../../macro/gpu/davehd/user/platform/d1mx/no_os
                         131 --		-I../../../../../macro/gpu/davehd/user/src
                         132 --		-I../../../../../macro/gpu/jcua/lib
                         133 --		-I../../../../../macro/gpu/jcua/src
                         134 --		-I../../../../../macro/i2c/riic/lib
                         135 --		-I../../../../../macro/i2c/riic/src
                         136 --		-I../../../../../macro/tick/lib -I../../../../../macro/tick/src
                         137 --		-I../../../../../macro/timer/ostm/lib
                         138 --		-I../../../../../macro/timer/ostm/src
                         139 --		-I../../../../../macro/timer/tauj/lib
                         140 --		-I../../../../../macro/timer/tauj/src
                         141 --		-I../../../../../macro/vdce/lib -I../../../../../macro/vdce/src
                         142 --		-I../../../../../macro/vo/ddb/lib
                         143 --		-I../../../../../macro/vo/ddb/src
                         144 --		-I../../../../../macro/vo/spea/lib
                         145 --		-I../../../../../macro/vo/spea/src
                         146 --		-I../../../../../macro/vo/vowe/lib
                         147 --		-I../../../../../macro/vo/vowe/src -I../../../../../macro/wm/lib
                         148 --		-I../../../../../macro/wm/src -I../../../../../macro/pwm/lib
                         149 --		-I../../../../../macro/i2c/riic/lib
                         150 --		-I../../../../../macro/reset/lib -I../../../../../macro/rscan/lib
                         151 --		-I../../../../../macro/uart/rlin3/lib
                         152 --		-I../../../../../macro/uart/rlin3/src
                         153 --		-I../../../../../device/d1x_common/macro_cfg/rlin3
                         154 --		-I../../../../../macro/stbc/lib
                         155 --		-I../../../../../app/gfx_apps/simple_draw/lib
                         156 --		-I../../../../../macro/adc/lib
                         157 --		-I../../../../../device/d1x_common/macro_cfg/adc7010 -G
                         158 --		--no_commons --no_implicit_include --prototype_errors
                         159 --		-DRENESAS_D1X -DR_DRW2D_OS_NO_OS -DR_DRW2D_SYS_DHD
                         160 --		-DUSED_CPU=RH850G3M -DUSE_BSP_GFX -DUSE_BSP_HMI -DUSE_BSP_STDIO
                         161 --		-DUSE_CDI -DUSE_CSISW -DUSE_DAVEHD -DUSE_DDB -DUSE_DRW2D
                         162 --		-DUSE_GFXBUS -DUSE_GPIO -DUSE_HYPB -DUSE_HYPDB -DUSE_JCUA
                         163 --		-DUSE_NFMABARE -DUSE_OCTA -DUSE_OCTACDB -DUSE_OSTM -DUSE_PBG
                         164 --		-DUSE_RIIC -DUSE_SFCDB -DUSE_SFMA -DUSE_SPEA -DUSE_TAUJ
                         165 --		-DUSE_TICK -DUSE_VDCE -DUSE_WM -DUSE_XBUS -DMAG -MD -Zuse1bit
                         166 --		-allocate_ep -cpu=rh850g3m -large_sda -list -no_callt -notda
                         167 --		-passsource -preprocess_assembly_files -registermode=22
                         168 --		-reserve_r2 --diag_warning 1 -object_dir=./obj -DUSE_VDCE_OPENLDI
                         169 --		-gnu99 -filetype.c ..\..\..\..\..\macro\adc\src\r_adc_isr.c -o
                         170 --		.\obj\r_adc_isr.o
                         171 --Source File:   ..\..\..\..\..\macro\adc\src\r_adc_isr.c
                         172 --Directory:     

                                                                      Page 4
                                                              C:\Users\Frank\AppData\Local\Temp\gh_0000oig1.si
                         173 --		C:\git\rh850\src\app\gfx_apps\simple_draw\target\d1mx_mango_ghs
                         174 --Compile Date:  Tue Oct 16 19:48:52 2018
                         175 --Host OS:       Win32
                         176 --Version:       C-RH850 2014.1.7 RELEASE VERSION
                         177 --Release:       Compiler v2014.1.7
                         178 --Revision Date: Fri Sep 05 14:10:46 2014
                         179 --Release Date:  Fri Sep 05 14:44:23 2014
                         180 -- ecom  -g -w
                         181 
                         182 --1: /*
                         183 --2: ****************************************************************************
                         184 --3: PROJECT : ADC driver
                         185 --4: FILE    : $Id$
                         186 --5: ============================================================================
                         187 --6: DESCRIPTION
                         188 --7: Driver for ADC macro
                         189 --8: ============================================================================
                         190 --9:                             C O P Y R I G H T
                         191 --10: ============================================================================
                         192 --11:                            Copyright (c) 2012
                         193 --12:                                   by
                         194 --13:                        Renesas Electronics (Europe) GmbH.
                         195 --14:                            Arcadiastrasse 10
                         196 --15:                           D-40472 Duesseldorf
                         197 --16:                                Germany
                         198 --17:                           All rights reserved.
                         199 --18: ============================================================================
                         200 --19: Purpose: only for testing
                         201 --21: DISCLAIMER                                                                   
                         202 --22: This software is supplied by Renesas Electronics Corporation and is only     
                         203 --23: intended for use with Renesas products. No other uses are authorized. This   
                         204 --24: software is owned by Renesas Electronics Corporation and is protected under  
                         205 --25: all applicable laws, including copyright laws.                               
                         206 --26: THIS SOFTWARE IS PROVIDED "AS IS" AND RENESAS MAKES NO WARRANTIES REGARDING  
                         207 --27: THIS SOFTWARE, WHETHER EXPRESS, IMPLIED OR STATUTORY, INCLUDING BUT NOT      
                         208 --28: LIMITED TO WARRANTIES OF MERCHANTABILITY, FITNESS FOR A PARTICULAR PURPOSE   
                         209 --29: AND NON-INFRINGEMENT. ALL SUCH WARRANTIES ARE EXPRESSLY DISCLAIMED.          
                         210 --30: TO THE MAXIMUM EXTENT PERMITTED NOT PROHIBITED BY LAW, NEITHER RENESAS       
                         211 --31: ELECTRONICS CORPORATION NOR ANY OF ITS AFFILIATED COMPANIES SHALL BE LIABLE  
                         212 --32: FOR ANY DIRECT, INDIRECT, SPECIAL, INCIDENTAL OR CONSEQUENTIAL DAMAGES FOR   
                         213 --33: ANY REASON RELATED TO THIS SOFTWARE, EVEN IF RENESAS OR ITS AFFILIATES HAVE  
                         214 --34: BEEN ADVISED OF THE POSSIBILITY OF SUCH DAMAGES.                             
                         215 --35: Renesas reserves the right, without notice, to make changes to this software 
                         216 --36: and to discontinue the availability of this software. By using this software,
                         217 --37: you agree to the additional terms and conditions found by accessing the      
                         218 --38: following link:                                                              
                         219 --39: http://www.renesas.com/disclaimer *                                          
                         220 --40: Copyright (C) 2011 Renesas Electronics Corporation. All rights reserved.     
                         221 --42: ****************************************************************************
                         222 --43: */
                         223 --45: /*******************************************************************************
                         224 --46:   Title: ADC7010 Interrupt Functions
                         225 --48:   Implementation of the macro driver ADC interrupt support functions 
                         226 --49: */
                         227 --51: /*******************************************************************************
                         228 --52:   Section: Includes
                         229 --53: */
                         230 --55: #include "r_typedefs.h"
                         231 --56: #include "r_adc_api.h"
                         232 --57: #include "r_config_adc.h"
                         233 --58: #include "r_dev_api.h"

                                                                      Page 5
                                                              C:\Users\Frank\AppData\Local\Temp\gh_0000oig1.si
                         234 --60: #if defined (R_DBG_PRINT_DEV_REGS) || defined (R_DBG_PRINT_MSG)
                         235 --61:    #include <stdio.h> 
                         236 --62:    #include "r_dbg_api.h"
                         237 --63: #endif
                         238 --65: static void         (*IsrCallback[R_ADC_MACRO_NUM][R_ADC_INT_NUM])(void) =
                         239 --66: {
                         240 --67:     {0,0,0,0},
                         241 --68:     {0,0,0,0}
                         242 --69: }; 
                         243 --71: /*******************************************************************************
                         244 --72:   Section: Global API Functions
                         245 --73:   
                         246 --74:   For comments see file ADC_api.h
                         247 --75: */
                         248 --77: /*******************************************************************************
                         249 --78:   Function: R_ADC_SetIsrCallback
                         250 --79:   
                         251 --80:   See: <ADC_api.h> for details
                         252 --81: */
                         253 --83: r_adc_Error_t R_ADC_SetIsrCallback(uint32_t Unit, r_adc_Interrupt_t IntType, void (*Isr)(void)) 
                         254 	.text
                         255 ..bof.C.3A.5Cgit.5Crh850.5Csrc.5Capp.5Cgfx_apps.5Csimple_draw.5Ctarget.5Cd1mx_mango_ghs.5Cobj.5Cr_adc_isr...43.3A.5Cgit.5Crh850.5Csrc.5Capp.5Cgfx_apps.5Csimple_draw.5Ctarget.5Cd1mx_mango_ghs..5BC5D024..0::
                         256 	.align	2
                         257 	.global	_R_ADC_SetIsrCallback
                         258 _R_ADC_SetIsrCallback:
00000000 0670            259 	mov	r6,r14
00000002 0768            260 	mov	r7,r13
00000004 0860            261 	mov	r8,r12
00000006 210600000000*   262 	mov	.L42,r1
                         263 --	    .bf
                         264 .LDW01:
                         265 --84: {
                         266 --85:     if (Unit >= R_ADC_MACRO_NUM) 
0000000c 6272            267 	cmp	2,r14
0000000e b105*           268 	bl	.L4
                         269 --86:     {
                         270 --87:         return R_ADC_ERR_RANGE; 
                         271 --line87
                         272 ..lin.C.3A.5Cgit.5Crh850.5Csrc.5Capp.5Cgfx_apps.5Csimple_draw.5Ctarget.5Cd1mx_mango_ghs.5Cobj.5Cr_adc_isr.1::
                         273 .LDWlin1:
00000010 0252            274 	mov	2,r10
00000012 b50d*           275 	br	.L2
                         276 .L4:
                         277 --88:     } 
                         278 --89:     IsrCallback[Unit][IntType] = Isr;
                         279 --line89
                         280 ..lin.C.3A.5Cgit.5Crh850.5Csrc.5Capp.5Cgfx_apps.5Csimple_draw.5Ctarget.5Cd1mx_mango_ghs.5Cobj.5Cr_adc_isr.2::
                         281 .LDWlin2:
00000014 0e58            282 	mov	r14,r11
00000016 eb00            283 	sxh	r11
00000018 eb5e0500        284 	mulhi	5,r11,r11
0000001c cd59            285 	add	r13,r11
0000001e c25a            286 	shl	2,r11
00000020 0bf0            287 	mov	r11,ep
00000022 c1f1            288 	add	r1,ep
00000024 0165            289 	sst.w	r12,0[ep]
                         290 --90:     return R_ADC_ERR_OK;
00000026 0052            291 	mov	0,r10
                         292 .L2:
                         293 --	    .ef
                         294 .LDW11:

                                                                      Page 6
                                                              C:\Users\Frank\AppData\Local\Temp\gh_0000oig1.si
00000028 7f00            295 	jmp	[lp]
                         296 	.type	_R_ADC_SetIsrCallback,@function
                         297 	.size	_R_ADC_SetIsrCallback,.-_R_ADC_SetIsrCallback
                         298 	.align	2
                         299 .LDW21:
                         300 
                         301 --_Unit	r14	param
                         302 --_IntType	r13	param
                         303 --_Isr	r12	param
                         304 
                         305 	.data
                         306 	.align	4
                         307 .L42:
                         308 	.type	.L42,@object
                         309 	.size	.L42,0
                         310 	.global	_IsrCallback..C.3A.5Cgit.5Crh850.5Csrc.5Capp.5Cgfx_apps.5Csimple_draw.5Ctarget.5Cd1mx_mango_ghs.5Cobj.5Cr_adc_isr.
                         311 _IsrCallback..C.3A.5Cgit.5Crh850.5Csrc.5Capp.5Cgfx_apps.5Csimple_draw.5Ctarget.5Cd1mx_mango_ghs.5Cobj.5Cr_adc_isr.:
00000000 00000000        312 _IsrCallback:	.space	4
00000004 00000000        313 	.space	4
00000008 00000000        314 	.space	4
0000000c 00000000        315 	.space	4
00000010 00000000        316 	.space	4
00000014 00000000        317 	.space	4
00000018 00000000        318 	.space	4
0000001c 00000000        319 	.space	4
00000020 00000000        320 	.space	4
00000024 00000000        321 	.space	4
                         322 	.type	_IsrCallback..C.3A.5Cgit.5Crh850.5Csrc.5Capp.5Cgfx_apps.5Csimple_draw.5Ctarget.5Cd1mx_mango_ghs.5Cobj.5Cr_adc_isr.,@object
                         323 	.size	_IsrCallback..C.3A.5Cgit.5Crh850.5Csrc.5Capp.5Cgfx_apps.5Csimple_draw.5Ctarget.5Cd1mx_mango_ghs.5Cobj.5Cr_adc_isr.,40
                         324 	.type	_IsrCallback,@object
                         325 	.size	_IsrCallback,40
                         326 	.text
                         327 
                         328 --91: }
                         329 
                         330 --93: /********************************************************************************
                         331 --94:   Function: R_ADC_IsrErr
                         332 --95:   
                         333 --96:   See: <ADC_api.h> for details
                         334 --97: */
                         335 --99: void R_ADC_IsrTsn(uint32_t Unit) 
                         336 	.align	2
                         337 	.align	2
                         338 	.global	_R_ADC_IsrTsn
                         339 _R_ADC_IsrTsn:
0000002a 8007e130        340 	prepare	{r26,r27,r28,r29,r31},0
0000002e 3d0600000000*   341 	mov	_IsrCallback,r29
00000034 06e0            342 	mov	r6,r28
00000036 1dd8            343 	mov	r29,r27
                         344 --	    .bf
                         345 .LDW31:
                         346 --100: {
                         347 --101:     if (Unit >= R_ADC_MACRO_NUM) 
00000038 62e2            348 	cmp	2,r28
0000003a e105*           349 	bl	.L65
                         350 --102:     {
                         351 --103:         R_DEV_ERROR(Unit, R_DEV_ERR_UNIT, "The Unit in question does not exist!");
                         352 --line103
                         353 ..lin.C.3A.5Cgit.5Crh850.5Csrc.5Capp.5Cgfx_apps.5Csimple_draw.5Ctarget.5Cd1mx_mango_ghs.5Cobj.5Cr_adc_isr.3::
                         354 .LDWlin3:
0000003c 1c30            355 	mov	r28,r6

                                                                      Page 7
                                                              C:\Users\Frank\AppData\Local\Temp\gh_0000oig1.si
0000003e 023a            356 	mov	2,r7
                         357 	jarl	_R_DEV_ErrorHandler,lp
                         357 <EXPANSION BEGIN>
                         357 jarl22 _R_DEV_ErrorHandler , lp 
00000040 80ff0000*       357 <EXPANSION END>
00000044 d515*           358 	br	.L67
                         359 .L65:
                         360 --104:     }
                         361 --105:     else
                         362 --106:     {
                         363 --107:         if (IsrCallback[Unit][R_ADC_INT_TSN]) 
                         364 --line107
                         365 ..lin.C.3A.5Cgit.5Crh850.5Csrc.5Capp.5Cgfx_apps.5Csimple_draw.5Ctarget.5Cd1mx_mango_ghs.5Cobj.5Cr_adc_isr.4::
                         366 .LDWlin4:
00000046 1c08            367 	mov	r28,r1
00000048 e100            368 	sxh	r1
0000004a e10e0500        369 	mulhi	5,r1,r1
0000004e c20a            370 	shl	2,r1
00000050 01f0            371 	mov	r1,ep
00000052 dbf1            372 	add	r27,ep
00000054 000d            373 	sld.w	0[ep],r1
00000056 e009            374 	cmp	zero,r1
00000058 b20d*           375 	be	.L67
                         376 --108:         {
                         377 --109:             IsrCallback[Unit][R_ADC_INT_TSN]();
                         378 --line109
                         379 ..lin.C.3A.5Cgit.5Crh850.5Csrc.5Capp.5Cgfx_apps.5Csimple_draw.5Ctarget.5Cd1mx_mango_ghs.5Cobj.5Cr_adc_isr.5::
                         380 .LDWlin5:
0000005a 1c08            381 	mov	r28,r1
0000005c e100            382 	sxh	r1
0000005e e10e0500        383 	mulhi	5,r1,r1
00000062 c20a            384 	shl	2,r1
00000064 01f0            385 	mov	r1,ep
00000066 dbf1            386 	add	r27,ep
00000068 00d5            387 	sld.w	0[ep],r26
0000006a fac760f9        388 	jarl	[r26],lp
                         389 .L67:
                         390 --110:         }
                         391 --111:     }
                         392 --112: }
                         393 --	    .ef
                         394 .LDW41:
                         395 --line112
                         396 ..lin.C.3A.5Cgit.5Crh850.5Csrc.5Capp.5Cgfx_apps.5Csimple_draw.5Ctarget.5Cd1mx_mango_ghs.5Cobj.5Cr_adc_isr.6::
                         397 .LDWlin6:
0000006e 4006ff30        398 	dispose	0,{r26,r27,r28,r29,r31},[lp]
                         399 	.type	_R_ADC_IsrTsn,@function
                         400 	.size	_R_ADC_IsrTsn,.-_R_ADC_IsrTsn
                         401 	.align	2
                         402 .LDW51:
                         403 
                         404 --_Unit	r28	param
                         405 
                         406 	.data
                         407 	.text
                         408 
                         409 
                         410 --114: /********************************************************************************
                         411 --115:   Function: R_ADC_Isr0
                         412 --116:   
                         413 --117:   See: <ADC_api.h> for details

                                                                      Page 8
                                                              C:\Users\Frank\AppData\Local\Temp\gh_0000oig1.si
                         414 --118: */
                         415 --120: void R_ADC_Isr0(uint32_t Unit) 
                         416 	.align	2
                         417 	.align	2
                         418 	.global	_R_ADC_Isr0
                         419 _R_ADC_Isr0:
00000072 8007e130        420 	prepare	{r26,r27,r28,r29,r31},0
00000076 3d0600000000*   421 	mov	_IsrCallback,r29
0000007c 06e0            422 	mov	r6,r28
0000007e 1dd8            423 	mov	r29,r27
                         424 --	    .bf
                         425 .LDW61:
                         426 --121: {
                         427 --122:     if (Unit >= R_ADC_MACRO_NUM) 
00000080 62e2            428 	cmp	2,r28
00000082 e105*           429 	bl	.L135
                         430 --123:     {
                         431 --124:         R_DEV_ERROR(Unit, R_DEV_ERR_UNIT, "The Unit in question does not exist!");
                         432 --line124
                         433 ..lin.C.3A.5Cgit.5Crh850.5Csrc.5Capp.5Cgfx_apps.5Csimple_draw.5Ctarget.5Cd1mx_mango_ghs.5Cobj.5Cr_adc_isr.7::
                         434 .LDWlin7:
00000084 1c30            435 	mov	r28,r6
00000086 023a            436 	mov	2,r7
                         437 	jarl	_R_DEV_ErrorHandler,lp
                         437 <EXPANSION BEGIN>
                         437 jarl22 _R_DEV_ErrorHandler , lp 
00000088 80ff0000*       437 <EXPANSION END>
0000008c f515*           438 	br	.L137
                         439 .L135:
                         440 --125:     }
                         441 --126:     else
                         442 --127:     {
                         443 --128:         if (IsrCallback[Unit][R_ADC_INT_CG0]) 
                         444 --line128
                         445 ..lin.C.3A.5Cgit.5Crh850.5Csrc.5Capp.5Cgfx_apps.5Csimple_draw.5Ctarget.5Cd1mx_mango_ghs.5Cobj.5Cr_adc_isr.8::
                         446 .LDWlin8:
0000008e 1c08            447 	mov	r28,r1
00000090 e100            448 	sxh	r1
00000092 e10e0500        449 	mulhi	5,r1,r1
00000096 1bf60400        450 	addi	4,r27,ep
0000009a c20a            451 	shl	2,r1
0000009c c1f1            452 	add	r1,ep
0000009e 000d            453 	sld.w	0[ep],r1
000000a0 e009            454 	cmp	zero,r1
000000a2 c20d*           455 	be	.L137
                         456 --129:         {
                         457 --130:             IsrCallback[Unit][R_ADC_INT_CG0]();
                         458 --line130
                         459 ..lin.C.3A.5Cgit.5Crh850.5Csrc.5Capp.5Cgfx_apps.5Csimple_draw.5Ctarget.5Cd1mx_mango_ghs.5Cobj.5Cr_adc_isr.9::
                         460 .LDWlin9:
000000a4 1c08            461 	mov	r28,r1
000000a6 e100            462 	sxh	r1
000000a8 e10e0500        463 	mulhi	5,r1,r1
000000ac 1bf60400        464 	addi	4,r27,ep
000000b0 c20a            465 	shl	2,r1
000000b2 c1f1            466 	add	r1,ep
000000b4 00d5            467 	sld.w	0[ep],r26
000000b6 fac760f9        468 	jarl	[r26],lp
                         469 .L137:
                         470 --131:         }
                         471 --132:     }

                                                                      Page 9
                                                              C:\Users\Frank\AppData\Local\Temp\gh_0000oig1.si
                         472 --133: }
                         473 --	    .ef
                         474 .LDW71:
                         475 --line133
                         476 ..lin.C.3A.5Cgit.5Crh850.5Csrc.5Capp.5Cgfx_apps.5Csimple_draw.5Ctarget.5Cd1mx_mango_ghs.5Cobj.5Cr_adc_isr.10::
                         477 .LDWlin10:
000000ba 4006ff30        478 	dispose	0,{r26,r27,r28,r29,r31},[lp]
                         479 	.type	_R_ADC_Isr0,@function
                         480 	.size	_R_ADC_Isr0,.-_R_ADC_Isr0
                         481 	.align	2
                         482 .LDW81:
                         483 
                         484 --_Unit	r28	param
                         485 
                         486 	.data
                         487 	.text
                         488 
                         489 
                         490 --135: /********************************************************************************
                         491 --136:   Function: R_ADC_Isr1
                         492 --137:   
                         493 --138:   See: <ADC_api.h> for details
                         494 --139: */
                         495 --141: void R_ADC_Isr1(uint32_t Unit) 
                         496 	.align	2
                         497 	.align	2
                         498 	.global	_R_ADC_Isr1
                         499 _R_ADC_Isr1:
000000be 8007e130        500 	prepare	{r26,r27,r28,r29,r31},0
000000c2 3d0600000000*   501 	mov	_IsrCallback,r29
000000c8 06e0            502 	mov	r6,r28
000000ca 1dd8            503 	mov	r29,r27
                         504 --	    .bf
                         505 .LDW91:
                         506 --142: {
                         507 --143:     if (Unit >= R_ADC_MACRO_NUM) 
000000cc 62e2            508 	cmp	2,r28
000000ce e105*           509 	bl	.L199
                         510 --144:     {
                         511 --145:         R_DEV_ERROR(Unit, R_DEV_ERR_UNIT, "The Unit in question does not exist!");
                         512 --line145
                         513 ..lin.C.3A.5Cgit.5Crh850.5Csrc.5Capp.5Cgfx_apps.5Csimple_draw.5Ctarget.5Cd1mx_mango_ghs.5Cobj.5Cr_adc_isr.11::
                         514 .LDWlin11:
000000d0 1c30            515 	mov	r28,r6
000000d2 023a            516 	mov	2,r7
                         517 	jarl	_R_DEV_ErrorHandler,lp
                         517 <EXPANSION BEGIN>
                         517 jarl22 _R_DEV_ErrorHandler , lp 
000000d4 80ff0000*       517 <EXPANSION END>
000000d8 f515*           518 	br	.L201
                         519 .L199:
                         520 --146:     }
                         521 --147:     else
                         522 --148:     {
                         523 --149:         if (IsrCallback[Unit][R_ADC_INT_CG1]) 
                         524 --line149
                         525 ..lin.C.3A.5Cgit.5Crh850.5Csrc.5Capp.5Cgfx_apps.5Csimple_draw.5Ctarget.5Cd1mx_mango_ghs.5Cobj.5Cr_adc_isr.12::
                         526 .LDWlin12:
000000da 1c08            527 	mov	r28,r1
000000dc e100            528 	sxh	r1
000000de e10e0500        529 	mulhi	5,r1,r1

                                                                      Page 10
                                                              C:\Users\Frank\AppData\Local\Temp\gh_0000oig1.si
000000e2 1bf60800        530 	addi	8,r27,ep
000000e6 c20a            531 	shl	2,r1
000000e8 c1f1            532 	add	r1,ep
000000ea 000d            533 	sld.w	0[ep],r1
000000ec e009            534 	cmp	zero,r1
000000ee c20d*           535 	be	.L201
                         536 --150:         {
                         537 --151:             IsrCallback[Unit][R_ADC_INT_CG1]();
                         538 --line151
                         539 ..lin.C.3A.5Cgit.5Crh850.5Csrc.5Capp.5Cgfx_apps.5Csimple_draw.5Ctarget.5Cd1mx_mango_ghs.5Cobj.5Cr_adc_isr.13::
                         540 .LDWlin13:
000000f0 1c08            541 	mov	r28,r1
000000f2 e100            542 	sxh	r1
000000f4 e10e0500        543 	mulhi	5,r1,r1
000000f8 1bf60800        544 	addi	8,r27,ep
000000fc c20a            545 	shl	2,r1
000000fe c1f1            546 	add	r1,ep
00000100 00d5            547 	sld.w	0[ep],r26
00000102 fac760f9        548 	jarl	[r26],lp
                         549 .L201:
                         550 --152:         }
                         551 --153:     }
                         552 --154: }
                         553 --	    .ef
                         554 .LDW02:
                         555 --line154
                         556 ..lin.C.3A.5Cgit.5Crh850.5Csrc.5Capp.5Cgfx_apps.5Csimple_draw.5Ctarget.5Cd1mx_mango_ghs.5Cobj.5Cr_adc_isr.14::
                         557 .LDWlin14:
00000106 4006ff30        558 	dispose	0,{r26,r27,r28,r29,r31},[lp]
                         559 	.type	_R_ADC_Isr1,@function
                         560 	.size	_R_ADC_Isr1,.-_R_ADC_Isr1
                         561 	.align	2
                         562 .LDW12:
                         563 
                         564 --_Unit	r28	param
                         565 
                         566 	.data
                         567 	.text
                         568 
                         569 
                         570 --156: /********************************************************************************
                         571 --157:   Function: R_ADC_Isr2
                         572 --158:   
                         573 --159:   See: <ADC_api.h> for details
                         574 --160: */
                         575 --162: void R_ADC_Isr2(uint32_t Unit) 
                         576 	.align	2
                         577 	.align	2
                         578 	.global	_R_ADC_Isr2
                         579 _R_ADC_Isr2:
0000010a 8007e130        580 	prepare	{r26,r27,r28,r29,r31},0
0000010e 3d0600000000*   581 	mov	_IsrCallback,r29
00000114 06e0            582 	mov	r6,r28
00000116 1dd8            583 	mov	r29,r27
                         584 --	    .bf
                         585 .LDW22:
                         586 --163: {
                         587 --164:     if (Unit >= R_ADC_MACRO_NUM) 
00000118 62e2            588 	cmp	2,r28
0000011a e105*           589 	bl	.L263
                         590 --165:     {

                                                                      Page 11
                                                              C:\Users\Frank\AppData\Local\Temp\gh_0000oig1.si
                         591 --166:         R_DEV_ERROR(Unit, R_DEV_ERR_UNIT, "The Unit in question does not exist!");
                         592 --line166
                         593 ..lin.C.3A.5Cgit.5Crh850.5Csrc.5Capp.5Cgfx_apps.5Csimple_draw.5Ctarget.5Cd1mx_mango_ghs.5Cobj.5Cr_adc_isr.15::
                         594 .LDWlin15:
0000011c 1c30            595 	mov	r28,r6
0000011e 023a            596 	mov	2,r7
                         597 	jarl	_R_DEV_ErrorHandler,lp
                         597 <EXPANSION BEGIN>
                         597 jarl22 _R_DEV_ErrorHandler , lp 
00000120 80ff0000*       597 <EXPANSION END>
00000124 f515*           598 	br	.L265
                         599 .L263:
                         600 --167:     }
                         601 --168:     else
                         602 --169:     {
                         603 --170:         if (IsrCallback[Unit][R_ADC_INT_CG2]) 
                         604 --line170
                         605 ..lin.C.3A.5Cgit.5Crh850.5Csrc.5Capp.5Cgfx_apps.5Csimple_draw.5Ctarget.5Cd1mx_mango_ghs.5Cobj.5Cr_adc_isr.16::
                         606 .LDWlin16:
00000126 1c08            607 	mov	r28,r1
00000128 e100            608 	sxh	r1
0000012a e10e0500        609 	mulhi	5,r1,r1
0000012e 1bf60c00        610 	addi	12,r27,ep
00000132 c20a            611 	shl	2,r1
00000134 c1f1            612 	add	r1,ep
00000136 000d            613 	sld.w	0[ep],r1
00000138 e009            614 	cmp	zero,r1
0000013a c20d*           615 	be	.L265
                         616 --171:         {
                         617 --172:             IsrCallback[Unit][R_ADC_INT_CG2]();
                         618 --line172
                         619 ..lin.C.3A.5Cgit.5Crh850.5Csrc.5Capp.5Cgfx_apps.5Csimple_draw.5Ctarget.5Cd1mx_mango_ghs.5Cobj.5Cr_adc_isr.17::
                         620 .LDWlin17:
0000013c 1c08            621 	mov	r28,r1
0000013e e100            622 	sxh	r1
00000140 e10e0500        623 	mulhi	5,r1,r1
00000144 1bf60c00        624 	addi	12,r27,ep
00000148 c20a            625 	shl	2,r1
0000014a c1f1            626 	add	r1,ep
0000014c 00d5            627 	sld.w	0[ep],r26
0000014e fac760f9        628 	jarl	[r26],lp
                         629 .L265:
                         630 --173:         }
                         631 --174:     }
                         632 --175: }
                         633 --	    .ef
                         634 .LDW32:
                         635 --line175
                         636 ..lin.C.3A.5Cgit.5Crh850.5Csrc.5Capp.5Cgfx_apps.5Csimple_draw.5Ctarget.5Cd1mx_mango_ghs.5Cobj.5Cr_adc_isr.18::
                         637 .LDWlin18:
00000152 4006ff30        638 	dispose	0,{r26,r27,r28,r29,r31},[lp]
                         639 	.type	_R_ADC_Isr2,@function
                         640 	.size	_R_ADC_Isr2,.-_R_ADC_Isr2
                         641 	.align	2
                         642 .LDW42:
                         643 
                         644 --_Unit	r28	param
                         645 
                         646 	.data
                         647 	.text
                         648 

                                                                      Page 12
                                                              C:\Users\Frank\AppData\Local\Temp\gh_0000oig1.si
                         649 	.align	2
                         650 --_IsrCallback	_IsrCallback	static
                         651 
                         652 	.data
                         653 	.ghsnote version,15
                         654 	.ghsnote tools,3
                         655 	.ghsnote options,144
                         656 	.text
                         657 	.align	2
                         658 ..eof.C.3A.5Cgit.5Crh850.5Csrc.5Capp.5Cgfx_apps.5Csimple_draw.5Ctarget.5Cd1mx_mango_ghs.5Cobj.5Cr_adc_isr...43.3A.5Cgit.5Crh850.5Csrc.5Capp.5Cgfx_apps.5Csimple_draw.5Ctarget.5Cd1mx_mango_ghs..5BC5D024..0::
                         659 .rh850_flags REGMODE22,DATA_ALIGN8,GP_FIX,EP_NONFIX,TP_FIX,REG2_RESERVE,G3M
