                                                                      Page 1
                                                              C:\Users\Frank\AppData\Local\Temp\gh_0000p9g1.si
Command Line: C:\GHS\V800.V2014.1.7\comp_201417\ease850.exe -w -elf -b0 -I../../../../../app/common/dhd -I../../../../../app/gfx_apps/simple_draw/src -I../../../../../app/gfx_apps/simple_draw/lib -I../../../../../bsp/board//config -I../../../../../bsp/board//src/gfx -I../../../../../bsp/board//src/hmi -I../../../../../bsp/board//src/stdio -I../../../../../bsp/board/d1mx_mango/config -I../../../../../bsp/board/d1mx_mango/src -I../../../../../bsp/board/d1mx_mango/src/gfx -I../../../../../bsp/board/d1mx_mango/src/hmi -I../../../../../bsp/board/d1mx_mango/src/stdio -I../../../../../bsp/gfx/lib -I../../../../../bsp/gfx/src -I../../../../../bsp/hmi/lib -I../../../../../bsp/hmi/src -I../../../../../bsp/lib -I../../../../../bsp/stdio/lib -I../../../../../bsp/stdio/src -I../../../../../cdi/lib -I../../../../../cdi/src -I../../../../../compiler/rh850_ghs/inc -I../../../../../device/d1mx/lib -I../../../../../device/d1mx/macro_cfg -I../../../../../device/d1mx/macro_cfg/csisw -I../../../../../device/d1mx/macro_cfg/davehd -I../../../../../device/d1mx/macro_cfg/ddb -I../../../../../device/d1mx/macro_cfg/drw2d -I../../../../../device/d1mx/macro_cfg/gfxbus -I../../../../../device/d1mx/macro_cfg/gpio -I../../../../../device/d1mx/macro_cfg/hypb -I../../../../../device/d1mx/macro_cfg/hypdb -I../../../../../device/d1mx/macro_cfg/jcua -I../../../../../device/d1mx/macro_cfg/nfmabare -I../../../../../device/d1mx/macro_cfg/octa -I../../../../../device/d1mx/macro_cfg/octacdb -I../../../../../device/d1mx/macro_cfg/ostm -I../../../../../device/d1mx/macro_cfg/pbg -I../../../../../device/d1mx/macro_cfg/riic -I../../../../../device/d1mx/macro_cfg/sfcdb -I../../../../../device/d1mx/macro_cfg/sfma -I../../../../../device/d1mx/macro_cfg/spea -I../../../../../device/d1mx/macro_cfg/tauj -I../../../../../device/d1mx/macro_cfg/tick -I../../../../../device/d1mx/macro_cfg/vdce -I../../../../../device/d1mx/macro_cfg/vowe -I../../../../../device/d1mx/macro_cfg/wm -I../../../../../device/d1mx/macro_cfg/xbus -I../../../../../device/d1mx/src/dev -I../../../../../device/d1mx/src/dhd -I../../../../../device/d1mx/src/hypb -I../../../../../device/d1mx/src/jcua -I../../../../../device/d1mx/src/nfmabare -I../../../../../device/d1mx/src/octa -I../../../../../device/d1mx/src/rh850_ghs -I../../../../../device/d1mx/src/vowe -I../../../../../device/d1x_common/macro_cfg -I../../../../../device/d1x_common/macro_cfg/csisw -I../../../../../device/d1x_common/macro_cfg/davehd -I../../../../../device/d1x_common/macro_cfg/ddb -I../../../../../device/d1x_common/macro_cfg/drw2d -I../../../../../device/d1x_common/macro_cfg/gfxbus -I../../../../../device/d1x_common/macro_cfg/gpio -I../../../../../device/d1x_common/macro_cfg/hypb -I../../../../../device/d1x_common/macro_cfg/hypdb -I../../../../../device/d1x_common/macro_cfg/jcua -I../../../../../device/d1x_common/macro_cfg/nfmabare -I../../../../../device/d1x_common/macro_cfg/octa -I../../../../../device/d1x_common/macro_cfg/octacdb -I../../../../../device/d1x_common/macro_cfg/ostm -I../../../../../device/d1x_common/macro_cfg/pbg -I../../../../../device/d1x_common/macro_cfg/riic -I../../../../../device/d1x_common/macro_cfg/sfcdb -I../../../../../device/d1x_common/macro_cfg/sfma -I../../../../../device/d1x_common/macro_cfg/spea -I../../../../../device/d1x_common/macro_cfg/tauj -I../../../../../device/d1x_common/macro_cfg/tick -I../../../../../device/d1x_common/macro_cfg/vdce -I../../../../../device/d1x_common/macro_cfg/vowe -I../../../../../device/d1x_common/macro_cfg/wm -I../../../../../device/d1x_common/macro_cfg/xbus -I../../../../../device/d1x_common/src/csisw -I../../../../../device/d1x_common/src/ddb -I../../../../../device/d1x_common/src/dev -I../../../../../device/d1x_common/src/gfxbus -I../../../../../device/d1x_common/src/gpio -I../../../../../device/d1x_common/src/ostm -I../../../../../device/d1x_common/src/pbg -I../../../../../device/d1x_common/src/riic -I../../../../../device/d1x_common/src/sfma -I../../../../../device/d1x_common/src/spea -I../../../../../device/d1x_common/src/tauj -I../../../../../device/d1x_common/src/tick -I../../../../../device/d1x_common/src/vdce -I../../../../../device/d1x_common/src/wm -I../../../../../device/d1x_common/src/xbus -I../../../../../device/lib -I../../../../../macro/bus/pbg/lib -I../../../../../macro/bus/pbg/src -I../../../../../macro/csi/csisw/lib -I../../../../../macro/csi/csisw/src -I../../../../../macro/drw2d/lib -I../../../../../macro/drw2d/platform/davehd -I../../../../../macro/drw2d/platform/os/no_os -I../../../../../macro/drw2d/src -I../../../../../macro/flashc/hypb/lib -I../../../../../macro/flashc/hypb/src -I../../../../../macro/flashc/hypdb/lib -I../../../../../macro/flashc/hypdb/src -I../../../../../macro/flashc/nfmabare/lib -I../../../../../macro/flashc/nfmabare/src -I../../../../../macro/flashc/octa/lib -I../../../../../macro/flashc/octa/src -I../../../../../macro/flashc/octacdb/lib -I../../../../../macro/flashc/octacdb/src -I../../../../../macro/flashc/sfcdb/lib -I../../../../../macro/flashc/sfcdb/src -I../../../../../macro/flashc/sfma/lib -I../../../../../macro/flashc/sfma/src -I../../../../../macro/gfxbus/lib -I../../../../../macro/gfxbus/src -I../../../../../macro/gfxbus/xbus/lib -I../../../../../macro/gfxbus/xbus/src -I../../../../../macro/gpio/lib -I../../../../../macro/gpio/src -I../../../../../macro/gpu/davehd/common/inc -I../../../../../macro/gpu/davehd/common/inc/platform -I../../../../../macro/gpu/davehd/common/inc/platform/d1mx -I../../../../../macro/gpu/davehd/docs -I../../../../../macro/gpu/davehd/kernel/inc -I../../../../../macro/gpu/davehd/kernel/platform/d1mx -I../../../../../macro/gpu/davehd/kernel/platform/d1mx/bridge -I../../../../../macro/gpu/davehd/kernel/platform/d1mx/non_threaded -I../../../../../macro/gpu/davehd/kernel/platform/ree -I../../../../../macro/gpu/davehd/kernel/src -I../../../../../macro/gpu/davehd/user/inc -I../../../../../macro/gpu/davehd/user/platform/d1mx/no_os -I../../../../../macro/gpu/davehd/user/src -I../../../../../macro/gpu/jcua/lib -I../../../../../macro/gpu/jcua/src -I../../../../../macro/i2c/riic/lib -I../../../../../macro/i2c/riic/src -I../../../../../macro/tick/lib -I../../../../../macro/tick/src -I../../../../../macro/timer/ostm/lib -I../../../../../macro/timer/ostm/src -I../../../../../macro/timer/tauj/lib -I../../../../../macro/timer/tauj/src -I../../../../../macro/vdce/lib -I../../../../../macro/vdce/src -I../../../../../macro/vo/ddb/lib -I../../../../../macro/vo/ddb/src -I../../../../../macro/vo/spea/lib -I../../../../../macro/vo/spea/src -I../../../../../macro/vo/vowe/lib -I../../../../../macro/vo/vowe/src -I../../../../../macro/wm/lib -I../../../../../macro/wm/src -I../../../../../macro/pwm/lib -I../../../../../macro/reset/lib -I../../../../../macro/rscan/lib -I../../../../../macro/uart/rlin3/lib -I../../../../../macro/uart/rlin3/src -I../../../../../device/d1x_common/macro_cfg/rlin3 -I../../../../../macro/stbc/lib -I../../../../../macro/adc/lib -I../../../../../device/d1x_common/macro_cfg/adc7010 -IC:\GHS\V800.V2014.1.7\comp_201417\lib\rh850_22 -cg_underscore -cpu=rh850g3m -no_v850_simd -rh850_fpsimd=none -nomacro -patch_dbo=C:\git\rh850\src\app\gfx_apps\simple_draw\target\d1mx_mango_ghs\obj\r_dev_clk.dbo -source=r_dev_clk.c -o .\obj\gh_0000p9g1.o -list=.\obj\r_dev_clk.lst C:\Users\Frank\AppData\Local\Temp\gh_0000p9g1.si 
Original File: C:\Users\Frank\AppData\Local\Temp\gh_0000p9g1.si
Source File: r_dev_clk.c
Directory: C:\git\rh850\src\app\gfx_apps\simple_draw\target\d1mx_mango_ghs
Host OS: Windows
EASE: Copyright (C) 1983-2014 Green Hills Software.  All Rights Reversed.
Release: Compiler v2014.1.7
Build Directory: [Directory] BTOWINBOX:c:/build_2014_1_bto/2014-09-04.2200-2014_1_bto/win32-comp-ecom
Revision: [VCInfo] http://toolsvc/branches/release-branch-2014-1-bto/src@515859 (built by build)
Revision Date: Fri Sep 05 14:05:06 2014

Release Date: Fri Sep 05 14:43:29 2014

                           1 --Driver Command: ccv850 -c -MD -I../../../../../app/common/dhd
                           2 --		-I../../../../../app/gfx_apps/simple_draw/src
                           3 --		-I../../../../../app/gfx_apps/simple_draw/lib
                           4 --		-I../../../../../bsp/board//config
                           5 --		-I../../../../../bsp/board//src/gfx
                           6 --		-I../../../../../bsp/board//src/hmi
                           7 --		-I../../../../../bsp/board//src/stdio
                           8 --		-I../../../../../bsp/board/d1mx_mango/config
                           9 --		-I../../../../../bsp/board/d1mx_mango/src
                          10 --		-I../../../../../bsp/board/d1mx_mango/src/gfx
                          11 --		-I../../../../../bsp/board/d1mx_mango/src/hmi
                          12 --		-I../../../../../bsp/board/d1mx_mango/src/stdio
                          13 --		-I../../../../../bsp/gfx/lib -I../../../../../bsp/gfx/src
                          14 --		-I../../../../../bsp/hmi/lib -I../../../../../bsp/hmi/src
                          15 --		-I../../../../../bsp/lib -I../../../../../bsp/stdio/lib
                          16 --		-I../../../../../bsp/stdio/src -I../../../../../cdi/lib
                          17 --		-I../../../../../cdi/src -I../../../../../compiler/rh850_ghs/inc
                          18 --		-I../../../../../device/d1mx/lib
                          19 --		-I../../../../../device/d1mx/macro_cfg
                          20 --		-I../../../../../device/d1mx/macro_cfg/csisw
                          21 --		-I../../../../../device/d1mx/macro_cfg/davehd
                          22 --		-I../../../../../device/d1mx/macro_cfg/ddb
                          23 --		-I../../../../../device/d1mx/macro_cfg/drw2d
                          24 --		-I../../../../../device/d1mx/macro_cfg/gfxbus
                          25 --		-I../../../../../device/d1mx/macro_cfg/gpio
                          26 --		-I../../../../../device/d1mx/macro_cfg/hypb
                          27 --		-I../../../../../device/d1mx/macro_cfg/hypdb
                          28 --		-I../../../../../device/d1mx/macro_cfg/jcua
                          29 --		-I../../../../../device/d1mx/macro_cfg/nfmabare
                          30 --		-I../../../../../device/d1mx/macro_cfg/octa
                          31 --		-I../../../../../device/d1mx/macro_cfg/octacdb
                          32 --		-I../../../../../device/d1mx/macro_cfg/ostm
                          33 --		-I../../../../../device/d1mx/macro_cfg/pbg
                          34 --		-I../../../../../device/d1mx/macro_cfg/riic
                          35 --		-I../../../../../device/d1mx/macro_cfg/sfcdb
                          36 --		-I../../../../../device/d1mx/macro_cfg/sfma
                          37 --		-I../../../../../device/d1mx/macro_cfg/spea
                          38 --		-I../../../../../device/d1mx/macro_cfg/tauj
                          39 --		-I../../../../../device/d1mx/macro_cfg/tick
                          40 --		-I../../../../../device/d1mx/macro_cfg/vdce
                          41 --		-I../../../../../device/d1mx/macro_cfg/vowe
                          42 --		-I../../../../../device/d1mx/macro_cfg/wm
                          43 --		-I../../../../../device/d1mx/macro_cfg/xbus
                          44 --		-I../../../../../device/d1mx/src/dev
                          45 --		-I../../../../../device/d1mx/src/dhd
                          46 --		-I../../../../../device/d1mx/src/hypb
                          47 --		-I../../../../../device/d1mx/src/jcua
                          48 --		-I../../../../../device/d1mx/src/nfmabare
                          49 --		-I../../../../../device/d1mx/src/octa
                          50 --		-I../../../../../device/d1mx/src/rh850_ghs

                                                                      Page 2
                                                              C:\Users\Frank\AppData\Local\Temp\gh_0000p9g1.si
                          51 --		-I../../../../../device/d1mx/src/vowe
                          52 --		-I../../../../../device/d1x_common/macro_cfg
                          53 --		-I../../../../../device/d1x_common/macro_cfg/csisw
                          54 --		-I../../../../../device/d1x_common/macro_cfg/davehd
                          55 --		-I../../../../../device/d1x_common/macro_cfg/ddb
                          56 --		-I../../../../../device/d1x_common/macro_cfg/drw2d
                          57 --		-I../../../../../device/d1x_common/macro_cfg/gfxbus
                          58 --		-I../../../../../device/d1x_common/macro_cfg/gpio
                          59 --		-I../../../../../device/d1x_common/macro_cfg/hypb
                          60 --		-I../../../../../device/d1x_common/macro_cfg/hypdb
                          61 --		-I../../../../../device/d1x_common/macro_cfg/jcua
                          62 --		-I../../../../../device/d1x_common/macro_cfg/nfmabare
                          63 --		-I../../../../../device/d1x_common/macro_cfg/octa
                          64 --		-I../../../../../device/d1x_common/macro_cfg/octacdb
                          65 --		-I../../../../../device/d1x_common/macro_cfg/ostm
                          66 --		-I../../../../../device/d1x_common/macro_cfg/pbg
                          67 --		-I../../../../../device/d1x_common/macro_cfg/riic
                          68 --		-I../../../../../device/d1x_common/macro_cfg/sfcdb
                          69 --		-I../../../../../device/d1x_common/macro_cfg/sfma
                          70 --		-I../../../../../device/d1x_common/macro_cfg/spea
                          71 --		-I../../../../../device/d1x_common/macro_cfg/tauj
                          72 --		-I../../../../../device/d1x_common/macro_cfg/tick
                          73 --		-I../../../../../device/d1x_common/macro_cfg/vdce
                          74 --		-I../../../../../device/d1x_common/macro_cfg/vowe
                          75 --		-I../../../../../device/d1x_common/macro_cfg/wm
                          76 --		-I../../../../../device/d1x_common/macro_cfg/xbus
                          77 --		-I../../../../../device/d1x_common/src/csisw
                          78 --		-I../../../../../device/d1x_common/src/ddb
                          79 --		-I../../../../../device/d1x_common/src/dev
                          80 --		-I../../../../../device/d1x_common/src/gfxbus
                          81 --		-I../../../../../device/d1x_common/src/gpio
                          82 --		-I../../../../../device/d1x_common/src/ostm
                          83 --		-I../../../../../device/d1x_common/src/pbg
                          84 --		-I../../../../../device/d1x_common/src/riic
                          85 --		-I../../../../../device/d1x_common/src/sfma
                          86 --		-I../../../../../device/d1x_common/src/spea
                          87 --		-I../../../../../device/d1x_common/src/tauj
                          88 --		-I../../../../../device/d1x_common/src/tick
                          89 --		-I../../../../../device/d1x_common/src/vdce
                          90 --		-I../../../../../device/d1x_common/src/wm
                          91 --		-I../../../../../device/d1x_common/src/xbus
                          92 --		-I../../../../../device/lib -I../../../../../macro/bus/pbg/lib
                          93 --		-I../../../../../macro/bus/pbg/src
                          94 --		-I../../../../../macro/csi/csisw/lib
                          95 --		-I../../../../../macro/csi/csisw/src
                          96 --		-I../../../../../macro/drw2d/lib
                          97 --		-I../../../../../macro/drw2d/platform/davehd
                          98 --		-I../../../../../macro/drw2d/platform/os/no_os
                          99 --		-I../../../../../macro/drw2d/src
                         100 --		-I../../../../../macro/flashc/hypb/lib
                         101 --		-I../../../../../macro/flashc/hypb/src
                         102 --		-I../../../../../macro/flashc/hypdb/lib
                         103 --		-I../../../../../macro/flashc/hypdb/src
                         104 --		-I../../../../../macro/flashc/nfmabare/lib
                         105 --		-I../../../../../macro/flashc/nfmabare/src
                         106 --		-I../../../../../macro/flashc/octa/lib
                         107 --		-I../../../../../macro/flashc/octa/src
                         108 --		-I../../../../../macro/flashc/octacdb/lib
                         109 --		-I../../../../../macro/flashc/octacdb/src
                         110 --		-I../../../../../macro/flashc/sfcdb/lib
                         111 --		-I../../../../../macro/flashc/sfcdb/src

                                                                      Page 3
                                                              C:\Users\Frank\AppData\Local\Temp\gh_0000p9g1.si
                         112 --		-I../../../../../macro/flashc/sfma/lib
                         113 --		-I../../../../../macro/flashc/sfma/src
                         114 --		-I../../../../../macro/gfxbus/lib
                         115 --		-I../../../../../macro/gfxbus/src
                         116 --		-I../../../../../macro/gfxbus/xbus/lib
                         117 --		-I../../../../../macro/gfxbus/xbus/src
                         118 --		-I../../../../../macro/gpio/lib -I../../../../../macro/gpio/src
                         119 --		-I../../../../../macro/gpu/davehd/common/inc
                         120 --		-I../../../../../macro/gpu/davehd/common/inc/platform
                         121 --		-I../../../../../macro/gpu/davehd/common/inc/platform/d1mx
                         122 --		-I../../../../../macro/gpu/davehd/docs
                         123 --		-I../../../../../macro/gpu/davehd/kernel/inc
                         124 --		-I../../../../../macro/gpu/davehd/kernel/platform/d1mx
                         125 --		-I../../../../../macro/gpu/davehd/kernel/platform/d1mx/bridge
                         126 --		-I../../../../../macro/gpu/davehd/kernel/platform/d1mx/non_threaded
                         127 --		-I../../../../../macro/gpu/davehd/kernel/platform/ree
                         128 --		-I../../../../../macro/gpu/davehd/kernel/src
                         129 --		-I../../../../../macro/gpu/davehd/user/inc
                         130 --		-I../../../../../macro/gpu/davehd/user/platform/d1mx/no_os
                         131 --		-I../../../../../macro/gpu/davehd/user/src
                         132 --		-I../../../../../macro/gpu/jcua/lib
                         133 --		-I../../../../../macro/gpu/jcua/src
                         134 --		-I../../../../../macro/i2c/riic/lib
                         135 --		-I../../../../../macro/i2c/riic/src
                         136 --		-I../../../../../macro/tick/lib -I../../../../../macro/tick/src
                         137 --		-I../../../../../macro/timer/ostm/lib
                         138 --		-I../../../../../macro/timer/ostm/src
                         139 --		-I../../../../../macro/timer/tauj/lib
                         140 --		-I../../../../../macro/timer/tauj/src
                         141 --		-I../../../../../macro/vdce/lib -I../../../../../macro/vdce/src
                         142 --		-I../../../../../macro/vo/ddb/lib
                         143 --		-I../../../../../macro/vo/ddb/src
                         144 --		-I../../../../../macro/vo/spea/lib
                         145 --		-I../../../../../macro/vo/spea/src
                         146 --		-I../../../../../macro/vo/vowe/lib
                         147 --		-I../../../../../macro/vo/vowe/src -I../../../../../macro/wm/lib
                         148 --		-I../../../../../macro/wm/src -I../../../../../macro/pwm/lib
                         149 --		-I../../../../../macro/i2c/riic/lib
                         150 --		-I../../../../../macro/reset/lib -I../../../../../macro/rscan/lib
                         151 --		-I../../../../../macro/uart/rlin3/lib
                         152 --		-I../../../../../macro/uart/rlin3/src
                         153 --		-I../../../../../device/d1x_common/macro_cfg/rlin3
                         154 --		-I../../../../../macro/stbc/lib
                         155 --		-I../../../../../app/gfx_apps/simple_draw/lib
                         156 --		-I../../../../../macro/adc/lib
                         157 --		-I../../../../../device/d1x_common/macro_cfg/adc7010 -G
                         158 --		--no_commons --no_implicit_include --prototype_errors
                         159 --		-DRENESAS_D1X -DR_DRW2D_OS_NO_OS -DR_DRW2D_SYS_DHD
                         160 --		-DUSED_CPU=RH850G3M -DUSE_BSP_GFX -DUSE_BSP_HMI -DUSE_BSP_STDIO
                         161 --		-DUSE_CDI -DUSE_CSISW -DUSE_DAVEHD -DUSE_DDB -DUSE_DRW2D
                         162 --		-DUSE_GFXBUS -DUSE_GPIO -DUSE_HYPB -DUSE_HYPDB -DUSE_JCUA
                         163 --		-DUSE_NFMABARE -DUSE_OCTA -DUSE_OCTACDB -DUSE_OSTM -DUSE_PBG
                         164 --		-DUSE_RIIC -DUSE_SFCDB -DUSE_SFMA -DUSE_SPEA -DUSE_TAUJ
                         165 --		-DUSE_TICK -DUSE_VDCE -DUSE_WM -DUSE_XBUS -DMAG -MD -Zuse1bit
                         166 --		-allocate_ep -cpu=rh850g3m -large_sda -list -no_callt -notda
                         167 --		-passsource -preprocess_assembly_files -registermode=22
                         168 --		-reserve_r2 --diag_warning 1 -object_dir=./obj -DUSE_VDCE_OPENLDI
                         169 --		-gnu99 -filetype.c ..\..\..\..\..\device\d1mx\src\dev\r_dev_clk.c
                         170 --		-o .\obj\r_dev_clk.o
                         171 --Source File:   ..\..\..\..\..\device\d1mx\src\dev\r_dev_clk.c
                         172 --Directory:     

                                                                      Page 4
                                                              C:\Users\Frank\AppData\Local\Temp\gh_0000p9g1.si
                         173 --		C:\git\rh850\src\app\gfx_apps\simple_draw\target\d1mx_mango_ghs
                         174 --Compile Date:  Tue Oct 16 19:48:52 2018
                         175 --Host OS:       Win32
                         176 --Version:       C-RH850 2014.1.7 RELEASE VERSION
                         177 --Release:       Compiler v2014.1.7
                         178 --Revision Date: Fri Sep 05 14:10:46 2014
                         179 --Release Date:  Fri Sep 05 14:44:23 2014
                         180 -- ecom  -g -w
                         181 
                         182 --1: /*
                         183 --2: ****************************************************************************
                         184 --3: PROJECT : clock device driver
                         185 --4: FILE    : $Id: r_dev_clk.c 13461 2017-05-16 07:42:55Z matthias.nippert $
                         186 --5: ============================================================================
                         187 --6: DESCRIPTION
                         188 --7: clock driver system functions for D1Mx (D1M1(H) .. D1M2(H))
                         189 --8: ============================================================================
                         190 --9:                             C O P Y R I G H T
                         191 --10: ============================================================================
                         192 --11:                        Copyright (c) 2016
                         193 --12:                                   by
                         194 --13:                     Renesas Electronics (Europe) GmbH.
                         195 --14:                            Arcadiastrasse 10
                         196 --15:                           D-40472 Duesseldorf
                         197 --16:                                Germany
                         198 --17:                           All rights reserved.
                         199 --18: ============================================================================
                         200 --19: Purpose: only for testing, not for mass production
                         201 --21: DISCLAIMER
                         202 --23: LICENSEE has read, understood and accepted the terms and conditions defined in
                         203 --24: the license agreement, especially the usage rights. In any case, it is
                         204 --25: LICENSEE's responsibility to make sure that any user of the software complies
                         205 --26: with the terms and conditions of the signed license agreement.
                         206 --28: SAMPLE CODE is not part of the licensed software, as such it must not be used in
                         207 --29: mass-production applications. It can only be used for evaluation and
                         208 --30: demonstration purposes at customer's premises listed in the signed license
                         209 --31: agreement.
                         210 --33: ****************************************************************************
                         211 --34: */
                         212 --37: /*******************************************************************************
                         213 --38:   Title: D1Mx clock driver
                         214 --40: */
                         215 --41: /*******************************************************************************
                         216 --42:   Section: Local Constants
                         217 --43: */
                         218 --45: /*******************************************************************************
                         219 --46:   Section: Includes
                         220 --47: */
                         221 --48: #include "r_typedefs.h"
                         222 --49: #include "r_dev_api.h"
                         223 --51: #if defined (R_DBG_PRINT_DEV_REGS) || defined (R_DBG_PRINT_MSG)
                         224 --52:    #include <stdio.h>
                         225 --53:    #include "r_dbg_api.h"
                         226 --54: #endif
                         227 --56: /*******************************************************************************
                         228 --57:   Section: Local Types
                         229 --58: */
                         230 --60: /*******************************************************************************
                         231 --61:   Type: loc_PllCfgReg_t
                         232 --62:   
                         233 --63:   Contents of the PLL clock control/configuration register

                                                                      Page 5
                                                              C:\Users\Frank\AppData\Local\Temp\gh_0000p9g1.si
                         234 --64:   
                         235 --65:   Members:
                         236 --66:   NI                - Integer part of Divider Nr
                         237 --67:   P                 - Pr
                         238 --68:   M                 - Mr
                         239 --69:   SSMode            - Spread Spectrum Mode
                         240 --70:   NF                - real part of Nr
                         241 --71:   SSPerc            - Spread Spectrum Percentage
                         242 --72:   SSFreq            - Spread Spectrum middle frequency
                         243 --73:   FVV               - VCO output frequency range
                         244 --74: */
                         245 --76: typedef struct {
                         246 --77:     uint32_t  NI        : 7;
                         247 --78:     uint32_t  P         : 3;
                         248 --79:     uint32_t  M         : 2;
                         249 --80:     uint32_t  SSMode    : 2;
                         250 --81:     uint32_t  NF        : 4;
                         251 --82:     uint32_t  SSPerc    : 3;
                         252 --83:     uint32_t  SMFreq    : 5;
                         253 --84:     uint32_t  FVV       : 3;
                         254 --85: } loc_PllCfgReg_t;
                         255 --88: /*******************************************************************************
                         256 --89:   Type: loc_CksBase_t
                         257 --90:   
                         258 --91:   Cks Base address type
                         259 --92:   If there is no selection, because only one source clock is there,
                         260 --93:   the ID of the clock is put instead the selector address
                         261 --94:   If there is no divider register, the address is 0
                         262 --95:   
                         263 --96:   Members:
                         264 --97:   Sel           - Address of clock source selection register
                         265 --98:   Div           - Address of divider
                         266 --99:   DivIdx        - index of the corresponding entry in the  divider table
                         267 --100:   DivMsk        - Mask - valid divider bits
                         268 --101: */
                         269 --103: typedef struct {
                         270 --104:     uint32_t  Sel;
                         271 --105:     uint32_t  Div;
                         272 --106:     uint16_t  DivIdx;
                         273 --107:     uint16_t  DivMsk;
                         274 --108: } loc_CksBase_t;
                         275 --111: /*******************************************************************************
                         276 --112:   Section: Local Constants
                         277 --113: */
                         278 --115: /*******************************************************************************
                         279 --116:   Constant: LOC_HIGHS_FRQ_HZ
                         280 --117:   
                         281 --118:   The frequency of the internal High speed oscillator
                         282 --119:   
                         283 --120: */
                         284 --122: #define LOC_HIGHS_FRQ_HZ     (8000000uL)
                         285 --124: /*******************************************************************************
                         286 --125:   Constant: LOC_LOWS_FRQ_HZ
                         287 --126:   
                         288 --127:   The frequency of the internal High speed oscillator
                         289 --128:   
                         290 --129: */
                         291 --131: #define LOC_LOWS_FRQ_HZ     (240000uL)
                         292 --134: /*******************************************************************************
                         293 --135:   Constants: Register Offsets for clockgenerator registers
                         294 --137:   LOC_GEN_E       - Enable register

                                                                      Page 6
                                                              C:\Users\Frank\AppData\Local\Temp\gh_0000p9g1.si
                         295 --138:   LOC_GEN_S       - Status register
                         296 --139:   LOC_GEN_C       - Control register
                         297 --140:   LOC_GEN_STABI   - Stabilisation time
                         298 --141:   LOC_GEN_STPMSK  - Stop mask
                         299 --142: */
                         300 --144: #define LOC_GEN_E       0x00u
                         301 --145: #define LOC_GEN_S       0x04u
                         302 --146: #define LOC_GEN_C       0x08u
                         303 --147: #define LOC_GEN_STABI   0x0Cu
                         304 --148: #define LOC_GEN_STPMSK  0x18u
                         305 --151: /*******************************************************************************
                         306 --152:   Constants: Register Offsets for clock selector registers
                         307 --154:  LOC_CKS_S       - Status
                         308 --155:  LOC_CKS_A       - Active selection
                         309 --156:  LOC_CKS_STPMSK  - Stop mask
                         310 --157: */
                         311 --159: #define LOC_CKS_S       0x04u
                         312 --160: #define LOC_CKS_A       0x08u
                         313 --161: #define LOC_CKS_STPMSK  0x18u
                         314 --164: /*******************************************************************************
                         315 --165:   Constant: LOC_GEN_ACTIVE_MASK
                         316 --166:  
                         317 --167: */
                         318 --168: #define LOC_GEN_ACTIVE_MASK     (0x04u)
                         319 --170: /*******************************************************************************
                         320 --171:   Constant: LOC_STOP_MASKED_SET
                         321 --172:  
                         322 --173: */
                         323 --175: #define LOC_STOP_MASKED_SET     (0x01u)
                         324 --177: /*******************************************************************************
                         325 --178:   Constant: LOC_AWO_CKS_BASE_ADDR
                         326 --179:   
                         327 --180:   Register base adress for AWO clock selectors
                         328 --181: */
                         329 --182:          
                         330 --183: #define LOC_AWO_CKS_BASE_ADDR  0xfff82000u
                         331 --185: /*******************************************************************************
                         332 --186:   Constant: LOC_CPUSS_CKS_BASE_ADDR
                         333 --187:   
                         334 --188:    Register base adress for ISO clock selectors
                         335 --189: */
                         336 --190:          
                         337 --191: #define LOC_CPUSS_CKS_BASE_ADDR  0xfff8A000u
                         338 --193: /*******************************************************************************
                         339 --194:   Constant: LOC_ISO_BASEADDRESS
                         340 --195:   
                         341 --196:    Register base adress for ISO clock selectors
                         342 --197: */
                         343 --198:          
                         344 --199: #define LOC_ISO_CKS_BASE_ADDR  0xfff85000u
                         345 --201: /*******************************************************************************
                         346 --202:   Constant: loc_Base
                         347 --203:   
                         348 --204:   Register base adress for clock generators
                         349 --205: */
                         350 --206: static const uint32_t loc_Base[R_DEV_CLK_GEN_NUM] =
                         351 --207: {
                         352 --208:     /*R_DEV_PLL0       */ 0xFFF89000u,
                         353 --209:     /*R_DEV_PLL1       */ 0xFFF89100u,
                         354 --210:     /*R_DEV_PLL2       */ 0xFFF850C0u,
                         355 --211:     /*R_DEV_HS_RING    */ 0xFFF81000u,

                                                                      Page 7
                                                              C:\Users\Frank\AppData\Local\Temp\gh_0000p9g1.si
                         356 --212:     /*R_DEV_MOSC       */ 0xFFF81100u,
                         357 --213:     /*R_DEV_SUB_OSC    */ 0xFFF81200u
                         358 --214: };
                         359 --216: /*******************************************************************************
                         360 --217:   Constant: LOC_PROTCMD0
                         361 --218:   
                         362 --219:   Address of the AWO protection register
                         363 --220:   
                         364 --221: */
                         365 --223: #define LOC_PROTCMD0     (0xfff80000u)
                         366 --225: /*******************************************************************************
                         367 --226:   Constant: LOC_PROTCMD1
                         368 --227:   
                         369 --228:   Address of the ISO protection register
                         370 --229:   
                         371 --230: */
                         372 --232: #define LOC_PROTCMD1     (0xfff88000u)
                         373 --234: /*******************************************************************************
                         374 --235:   Constant: LOC_PROTCMDD1
                         375 --236:   
                         376 --237:   Address of the another ISO protection cluster
                         377 --238:   
                         378 --239: */
                         379 --241: #define LOC_PROTCMDD1     (0xfff87000u)
                         380 --243: /*******************************************************************************
                         381 --244:   Constant: LOC_PBUS_RATIO
                         382 --245:   
                         383 --246:   Address of the PBUS CLOCK ratio setting register
                         384 --247:   Old header: 0xfff8f504 UM: 0xfff8f510u
                         385 --248: */
                         386 --249: #define LOC_PBUS_RATIO    (0xfff8f510u)
                         387 --251: /*******************************************************************************
                         388 --252:   Constant: LOC_PROTCMDPWRGD
                         389 --253:   
                         390 --254:   Address of the PBUS CLOCK ratio protection register
                         391 --255:   
                         392 --256: */
                         393 --257: #define LOC_PROTCMDPWRGD    (0xfff8f580u)
                         394 --259: /*******************************************************************************
                         395 --260:    Constant: LOC_F
                         396 --261:    Placeholder, marker
                         397 --262:    If the divider slot 0 has this value in the
                         398 --263:    allowed settings table, the divider value is not taken from any slot
                         399 --264:    but literaly from the given register */
                         400 --265: #define LOC_F           0xFEFEu
                         401 --267: /*******************************************************************************
                         402 --268:    Constant: LOC_D
                         403 --269:    Placeholder, marker
                         404 --270:    If the divider slot  has this value, the setting is not available
                         405 --271:  */
                         406 --272: #define LOC_N           0xFFFFu
                         407 --275: static const uint32_t locBusRegAddr[R_DEV_CLK_BUS_LAST] =
                         408 --276: {
                         409 --277: /* R_DEV_CLK_PLL0     */    0xFFF89200u,
                         410 --278: /* R_DEV_CLK_PLL1     */    0xFFF89300u,
                         411 --279: /* R_DEV_CLK_PLL2     */    0xFFF85100u,
                         412 --280: /* R_DEV_CLK_PLL0PIX  */    0xFFF85640u,
                         413 --281: /* R_DEV_CLK_SDRB     */    0xFFF85140u,
                         414 --282: /* R_DEV_CLK_ETNBP    */    0xFFF85280u,
                         415 --283: /* R_DEV_CLK_MLBP     */    0xFFF852C0u,
                         416 --284: /* R_DEV_CLK_RSCANP   */    0xFFF85240u,

                                                                      Page 8
                                                              C:\Users\Frank\AppData\Local\Temp\gh_0000p9g1.si
                         417 --285: /* R_DEV_CLK_XCC      */    0xFFF85180u,
                         418 --286: /* R_DEV_CLK_ETNBXCC  */    0xFFF851C0u,
                         419 --287: /* R_DEV_CLK_MLBXCC   */    0xFFF85200u,
                         420 --288: };
                         421 --289: /*******************************************************************************
                         422 --290:   Constant: loc_ClkSelOffset
                         423 --291:   
                         424 --292:   Register base adress for clock selectors
                         425 --294:   The clock selection for RLIN and RLIN30 uses the same register
                         426 --295:   But the RLIN30 has an additional divider regiaster
                         427 --296:  */
                         428 --299: static const loc_CksBase_t loc_CkcsBaseAddr[R_DEV_CKS_LAST] =
                         429 --300: {
                         430 --302:   /*    Clock selector      sourceID or selector addr     , divider addr or 0                DivIdx  DivMsk*/
                         431 --303:   /*  R_DEV_CKS_WDT0    */ {R_DEV_CKS_SRC_LRNG,             LOC_AWO_CKS_BASE_ADDR           , 0    , 0x7Eu},
                         432 --304:   /*  R_DEV_CKS_AWOT    */ {LOC_AWO_CKS_BASE_ADDR + 0x100u, LOC_AWO_CKS_BASE_ADDR +   0x200u, 1    , 0x3Eu},
                         433 --305:   /*  R_DEV_CKS_RTCA    */ {LOC_AWO_CKS_BASE_ADDR + 0x300u, LOC_AWO_CKS_BASE_ADDR +   0x400u, 2    , 0x3Fu},
                         434 --306:   /*  R_DEV_CKS_FOUT    */ {LOC_AWO_CKS_BASE_ADDR + 0x700u, LOC_AWO_CKS_BASE_ADDR +   0x800u, 3    , 0xFFu},
                         435 --307:   /*  R_DEV_CKS_CPU     */ {LOC_CPUSS_CKS_BASE_ADDR       , LOC_CPUSS_CKS_BASE_ADDR + 0x100u, 4    , 0x3Eu},
                         436 --308:   /*  R_DEV_CKS_MLB     */ {LOC_ISO_CKS_BASE_ADDR + 0x300u,                                0, 0xFFu, 0x0} ,
                         437 --309:   /*  R_DEV_CKS_SFMA    */ {LOC_ISO_CKS_BASE_ADDR + 0x340u, LOC_ISO_CKS_BASE_ADDR +   0x380u, 5    , 0x1Fu},
                         438 --310:   /*  R_DEV_CKS_RSCAN   */ {R_DEV_CKS_SRC_PLLFIX          , LOC_ISO_CKS_BASE_ADDR +   0x780u, 6    , 0x0Fu},
                         439 --311:   /*  R_DEV_CKS_RSCANXIN*/ {LOC_ISO_CKS_BASE_ADDR + 0x800u,                                0, 0xFFu, 0x0},
                         440 --312:   /*  R_DEV_CKS_SSIF    */ {R_DEV_CKS_SRC_PLLFIX          , LOC_ISO_CKS_BASE_ADDR +   0x7C0u, 7    , 0x01u},
                         441 --313:   /*  R_DEV_CKS_TAUB0   */ {LOC_ISO_CKS_BASE_ADDR + 0x540u,                                0, 0xFFu, 0x0},
                         442 --314:   /*  R_DEV_CKS_TAUB2   */ {LOC_ISO_CKS_BASE_ADDR + 0x580u,                                0, 0xFFu, 0x0},
                         443 --315:   /*  R_DEV_CKS_TAUJ    */ {LOC_ISO_CKS_BASE_ADDR + 0x5C0u,                                0, 0xFFu, 0x0},
                         444 --316:   /*  R_DEV_CKS_OSTM    */ {LOC_ISO_CKS_BASE_ADDR + 0x600u,                                0, 0xFFu, 0x0},
                         445 --317:   /*  R_DEV_CKS_LCBI    */ {LOC_ISO_CKS_BASE_ADDR + 0x4C0u,                                0, 0xFFu, 0x0},
                         446 --318:   /*  R_DEV_CKS_ADCE    */ {R_DEV_CKS_SRC_CLKJIT          , LOC_ISO_CKS_BASE_ADDR +   0x480u, 8    , 0x06u},
                         447 --319:   /*  R_DEV_CKS_ISM     */ {LOC_ISO_CKS_BASE_ADDR + 0x440u,                                0, 0xFFu, 0x0},
                         448 --320:   /*  R_DEV_CKS_RLIN    */ {LOC_ISO_CKS_BASE_ADDR + 0x500u,                                0, 0xFFu, 0x0},
                         449 --321:   /*  R_DEV_CKS_CLKJIT  */ {LOC_ISO_CKS_BASE_ADDR + 0x400u, LOC_ISO_CKS_BASE_ADDR +   0x3C0u, 9    , 0x02u},
                         450 --322:   /*  R_DEV_CKS_CLKFIX  */ {LOC_ISO_CKS_BASE_ADDR + 0x740u, LOC_ISO_CKS_BASE_ADDR +   0x700u, 10   , 0x02u},
                         451 --323:   /*  R_DEV_CKS_PLLFIX  */ {LOC_ISO_CKS_BASE_ADDR         ,                                0, 0xFFu, 0x0},
                         452 --324:   /*  R_DEV_CKS_PLL2IN  */ {LOC_ISO_CKS_BASE_ADDR + 0x080u, LOC_ISO_CKS_BASE_ADDR +   0x040u, 11   , 0x02u},
                         453 --325:   /*  R_DEV_CKS_DOTCK0  */ {LOC_ISO_CKS_BASE_ADDR + 0x940u, LOC_ISO_CKS_BASE_ADDR +   0x9C0u, 12   , 0x02u},
                         454 --326:   /*  R_DEV_CKS_DOTCK1  */ {LOC_ISO_CKS_BASE_ADDR + 0x980u, LOC_ISO_CKS_BASE_ADDR +   0xA00u, 13   , 0x02u},
                         455 --327:   /*  R_DEV_CKS_VDCE0CK */ {LOC_ISO_CKS_BASE_ADDR + 0x880u,                                0, 0xFFu, 0x0},
                         456 --328:   /*  R_DEV_CKS_VDCE1CK */ {LOC_ISO_CKS_BASE_ADDR + 0x8C0u,                                0, 0xFFu, 0x0},
                         457 --329:   /*  R_DEV_CKS_RSDSCK  */ {LOC_ISO_CKS_BASE_ADDR + 0xA40u,                                0, 0xFFu, 0x0},
                         458 --330:   /*  R_DEV_CKS_VI0CLK  */ {LOC_ISO_CKS_BASE_ADDR + 0x840u,                                0, 0xFFu, 0x0},
                         459 --331:   /*  R_DEV_CKS_MIPIPLL */ {LOC_ISO_CKS_BASE_ADDR + 0x680u,                                0, 0xFFu, 0x0},
                         460 --332:   /*  R_DEV_CKS_MIPIPXL */ {R_DEV_CKS_SRC_MIPIPLL         , LOC_ISO_CKS_BASE_ADDR +   0x6C0u, 14   , 0x0Fu}
                         461 --333:  };
                         462 --334:  
                         463 --335: #define LOC_DIS        (R_DEV_CKS_SRC_DISABLED)
                         464 --336: #define LOC_LRNG       (R_DEV_CKS_SRC_LRNG)
                         465 --337: #define LOC_HRING      (R_DEV_CKS_SRC_HRING)
                         466 --338: #define LOC_EM         (R_DEV_CKS_SRC_ERING)
                         467 --339: #define LOC_MOSC       (R_DEV_CKS_SRC_MOSC)
                         468 --340: #define LOC_SOSC       (R_DEV_CKS_SRC_SOSC)
                         469 --341: #define LOC_PLL0       (R_DEV_CKS_SRC_PLL0)
                         470 --342: #define LOC_PLL0_2     (R_DEV_CKS_SRC_PLL0_2)
                         471 --343: #define LOC_PLL0_4     (R_DEV_CKS_SRC_PLL0_4)
                         472 --344: #define LOC_PLL1       (R_DEV_CKS_SRC_PLL1)
                         473 --345: #define LOC_PLL1_4     (R_DEV_CKS_SRC_PLL1_4)
                         474 --346: #define LOC_PLL2       (R_DEV_CKS_SRC_PLL2)
                         475 --347: #define LOC_PLL2_4     (R_DEV_CKS_SRC_PLL2_4)
                         476 --348: #define LOC_ISOCPU_4   (R_DEV_CKS_SRC_ISOCPU_4)
                         477 --349: #define LOC_CLKFIX     (R_DEV_CKS_SRC_CLKFIX)

                                                                      Page 9
                                                              C:\Users\Frank\AppData\Local\Temp\gh_0000p9g1.si
                         478 --350: #define LOC_CLKFIX_8   (R_DEV_CKS_SRC_CLKFIX_8)
                         479 --351: #define LOC_CLKJIT     (R_DEV_CKS_SRC_CLKJIT)
                         480 --352: #define LOC_CLKJIT_2   (R_DEV_CKS_SRC_CLKJIT_2)
                         481 --353: #define LOC_CLKJIT_4   (R_DEV_CKS_SRC_CLKJIT_4)
                         482 --354: #define LOC_CLKJIT_8   (R_DEV_CKS_SRC_CLKJIT_8)
                         483 --355: #define LOC_PLLFIX_10  (R_DEV_CKS_SRC_PLLFIX_10)
                         484 --356: #define LOC_PLLFIX_20  (R_DEV_CKS_SRC_PLLFIX_20)
                         485 --357: #define LOC_PLL0PIX    (R_DEV_CKS_SRC_PLL0PIX)
                         486 --358: #define LOC_PLLFIX     (R_DEV_CKS_SRC_PLLFIX)
                         487 --359: #define LOC_PLL0PIX_3  (R_DEV_CKS_SRC_PLL0PIX_3)
                         488 --360: #define LOC_PLLFIX_3   (R_DEV_CKS_SRC_PLLFIX_3)
                         489 --361: #define LOC_DOTC0      (R_DEV_CKS_SRC_DOTCK0)
                         490 --362: #define LOC_DOTC0_4    (R_DEV_CKS_SRC_DOTCK0_4)
                         491 --363: #define LOC_DOTC0_7    (R_DEV_CKS_SRC_DOTCK0_7)
                         492 --364: #define LOC_DOTC1      (R_DEV_CKS_SRC_DOTCK1)
                         493 --365: #define LOC_DOTC1_4    (R_DEV_CKS_SRC_DOTCK1_4)
                         494 --366: #define LOC_DOTC1_7    (R_DEV_CKS_SRC_DOTCK1_7)
                         495 --367: #define LOC_V1PIX      (R_DEV_CKS_SRC_VI1PIX)
                         496 --368: #define LOC_V0PIX      (R_DEV_CKS_SRC_VI0PIX)
                         497 --369: #define LOC_VI0CLK     (R_DEV_CKS_SRC_VI0CLK)
                         498 --370: #define LOC_MIPIPIX    (R_DEV_CKS_SRC_MIPIPXL)
                         499 --371: #define LOC_MIPIPLL    (R_DEV_CKS_SRC_MIPIPLL)
                         500 --372: #define LOC_XX         (R_DEV_CKS_SRC_LAST)
                         501 --373: #define LOC_DIV        (R_DEV_CKS_SRC_DIV)
                         502 --375: static const r_dev_CksSrc_t loc_ClockTree[R_DEV_CKS_LAST][8] =
                         503 --376: {
                         504 --377: /* there are max 8 slots,
                         505 --378:    LOC_XX means forbidden value/selection */
                         506 --379:    
                         507 --380:    /* Clock selector domain    cks source slot
                         508 --381:                               0        1              2             3           4             5            6             7   */
                         509 --382:    /* R_DEV_CKS_WDT0    */{LOC_XX,     LOC_LRNG,      LOC_XX,       LOC_XX,     LOC_XX,       LOC_XX,      LOC_XX,       LOC_XX },
                         510 --383:    /* R_DEV_CKS_AWOT    */{LOC_DIS,    LOC_HRING,     LOC_MOSC,     LOC_LRNG,   LOC_XX,       LOC_XX,      LOC_XX,       LOC_XX },
                         511 --384:    /* R_DEV_CKS_RTCA    */{LOC_DIS,    LOC_SOSC,      LOC_MOSC,     LOC_LRNG,   LOC_HRING,    LOC_XX,      LOC_XX,       LOC_XX },
                         512 --385:    /* R_DEV_CKS_FOUT    */{LOC_DIS,    LOC_MOSC,      LOC_HRING,    LOC_LRNG,   LOC_SOSC,     LOC_PLL0_4,  LOC_PLL1_4,   LOC_PLL2_4},
                         513 --386:    /* R_DEV_CKS_CPU     */{LOC_XX,     LOC_EM,        LOC_XX,       LOC_PLL0,   LOC_PLL1,     LOC_XX,      LOC_XX,       LOC_XX },
                         514 --387:    /* R_DEV_CKS_MLB     */{LOC_DIS,    LOC_PLL0_2,    LOC_PLL0_4,   LOC_XX,     LOC_XX,       LOC_XX,      LOC_XX,       LOC_XX },
                         515 --388:    /* R_DEV_CKS_SFMA    */{LOC_XX,     LOC_PLL0,      LOC_PLL1,     LOC_XX,     LOC_XX,       LOC_XX,      LOC_XX,       LOC_XX },
                         516 --389:    /* R_DEV_CKS_RSCAN   */{LOC_PLLFIX, LOC_XX,        LOC_XX,       LOC_XX,     LOC_XX,       LOC_XX,      LOC_XX,       LOC_XX },
                         517 --390:    /* R_DEV_CKS_RSCANXIN*/{LOC_DIS,    LOC_MOSC,      LOC_XX,       LOC_XX,     LOC_XX,       LOC_XX,      LOC_XX,       LOC_XX },
                         518 --391:    /* R_DEV_CKS_SSIF    */{LOC_PLLFIX, LOC_XX,        LOC_XX,       LOC_XX,     LOC_XX,       LOC_XX,      LOC_XX,       LOC_XX },
                         519 --392:    /* R_DEV_CKS_TAUB0   */{LOC_DIS,    LOC_CLKFIX,    LOC_CLKFIX_8, LOC_CLKJIT, LOC_CLKJIT_8, LOC_XX,      LOC_XX,       LOC_XX },
                         520 --393:    /* R_DEV_CKS_TAUB2   */{LOC_DIS,    LOC_CLKFIX,    LOC_CLKFIX_8, LOC_CLKJIT, LOC_CLKJIT_8, LOC_MOSC,    LOC_XX,       LOC_XX },
                         521 --394:    /* R_DEV_CKS_TAUJ    */{LOC_DIS,    LOC_CLKFIX,    LOC_CLKFIX_8, LOC_CLKJIT, LOC_CLKJIT_8, LOC_MOSC,    LOC_ISOCPU_4, LOC_XX },
                         522 --395:    /* R_DEV_CKS_OSTM    */{LOC_DIS,    LOC_CLKJIT,    LOC_ISOCPU_4, LOC_MOSC,   LOC_XX,       LOC_XX,      LOC_XX,       LOC_XX },
                         523 --396:    /* R_DEV_CKS_LCBI    */{LOC_DIS,    LOC_CLKJIT,    LOC_XX,       LOC_XX,     LOC_XX,       LOC_XX,      LOC_XX,       LOC_XX },
                         524 --397:    /* R_DEV_CKS_ADCE    */{LOC_XX,     LOC_CLKJIT_2,  LOC_CLKJIT_4, LOC_XX,     LOC_XX,       LOC_XX,      LOC_XX,       LOC_XX },
                         525 --398:    /* R_DEV_CKS_ISM     */{LOC_DIS,    LOC_CLKJIT,    LOC_XX,       LOC_XX,     LOC_XX,       LOC_XX,      LOC_XX,       LOC_XX },
                         526 --399:    /* R_DEV_CKS_RLIN    */{LOC_XX,     LOC_PLLFIX_10, LOC_CLKJIT,   LOC_PLLFIX_20, LOC_XX,    LOC_XX,      LOC_XX,       LOC_XX },
                         527 --400:    /* R_DEV_CKS_CLKJIT  */{LOC_XX,     LOC_DIV,       LOC_HRING,    LOC_XX,     LOC_XX,       LOC_XX,      LOC_XX,       LOC_XX },
                         528 --401:    /* R_DEV_CKS_CLKFIX  */{LOC_XX,     LOC_DIV,       LOC_HRING,    LOC_XX,     LOC_XX,       LOC_XX,      LOC_XX,       LOC_XX },
                         529 --402:    /* R_DEV_CKS_PLLFIX  */{LOC_XX,     LOC_PLL1,      LOC_PLL2,     LOC_XX,     LOC_XX,       LOC_XX,      LOC_XX,       LOC_XX },
                         530 --403:    /* R_DEV_CKS_PLL2IN  */{LOC_XX,     LOC_DIV,       LOC_MOSC,     LOC_XX,     LOC_XX,       LOC_XX,      LOC_XX,       LOC_XX },
                         531 --404:    /* R_DEV_CKS_DOTCK0  */{LOC_DIS,    LOC_PLL0PIX,   LOC_PLL1,     LOC_PLL2,   LOC_XX,       LOC_XX,      LOC_XX,       LOC_XX },
                         532 --405:    /* R_DEV_CKS_DOTCK1  */{LOC_DIS,    LOC_PLL0PIX,   LOC_PLLFIX,   LOC_PLL2,   LOC_XX,       LOC_XX,      LOC_XX,       LOC_XX },
                         533 --406:    /* R_DEV_CKS_VDCE0CK */{LOC_DIS,    LOC_DOTC0,     LOC_DOTC0_4,  LOC_V0PIX,  LOC_V1PIX,    LOC_DOTC0_7, LOC_XX,       LOC_XX },
                         534 --407:    /* R_DEV_CKS_VDCE1CK */{LOC_DIS,    LOC_DOTC1,     LOC_DOTC1_4,  LOC_V0PIX,  LOC_V1PIX,    LOC_DOTC1_7, LOC_XX,       LOC_XX },
                         535 --408:    /* R_DEV_CKS_RSDSCK  */{LOC_XX,     LOC_DOTC1,     LOC_DOTC0,    LOC_XX,     LOC_XX,       LOC_XX,      LOC_XX,       LOC_XX },
                         536 --409:    /* R_DEV_CKS_VI0CLK  */{LOC_XX,     LOC_VI0CLK,    LOC_MIPIPIX,  LOC_XX,     LOC_XX,       LOC_XX,      LOC_XX,       LOC_XX },
                         537 --410:    /* R_DEV_CKS_MIPIPLL */{LOC_XX,     LOC_PLL0PIX_3, LOC_PLLFIX_3, LOC_XX,     LOC_XX,       LOC_XX,      LOC_XX,       LOC_XX },
                         538 --411:    /* R_DEV_CKS_MIPIPXL */{LOC_XX,     LOC_MIPIPLL,   LOC_XX,       LOC_XX,     LOC_XX,       LOC_XX,      LOC_XX,       LOC_XX }

                                                                      Page 10
                                                              C:\Users\Frank\AppData\Local\Temp\gh_0000p9g1.si
                         539 --412: };
                         540 --415: /*******************************************************************************
                         541 --416:   Constant: loc_ClkDivSel
                         542 --417:   
                         543 --418:   For each divider, the register value has different meaning.
                         544 --419:   Sometimes it is a divider selection, sometimes it is the divider value itself
                         545 --420:   
                         546 --421:   Explanation of settings:
                         547 --422:   LOC_N     : Setting not valid  (the corresponding value is not allowed for the given register)
                         548 --423:   LOC_F     : Full register is used (no translation of values) as divider for the selected source
                         549 --424:               The source selection is determined by the value stored in  loc_ClockTree
                         550 --425:               That means if for the sourceID the div value in the corresponding slot is LOC_F,
                         551 --426:               the register value of the divider register is used as divider for the corresponding
                         552 --427:               clock source
                         553 --428:   any number: Divider for the selected source clock
                         554 --429:   
                         555 --430:   Following selectors have dividers:
                         556 --431:   R_DEV_CKS_WDT0    7E
                         557 --432:   R_DEV_CKS_AWOT    3E
                         558 --433:   R_DEV_CKS_RTC     3F
                         559 --434:   R_DEV_CKS_FOUT    FF
                         560 --435:   R_DEV_CKS_CPU     3E
                         561 --436:   R_DEV_CKS_SFMA    1F
                         562 --437:   R_DEV_CKS_RSCAN   0F
                         563 --438:   R_DEV_CKS_SSIF    01
                         564 --439:   R_DEV_CKS_ADCE    06
                         565 --440:   R_DEV_CKS_CLKJIT  02
                         566 --441:   R_DEV_CKS_CLKFIX  02
                         567 --442:   R_DEV_CKS_PLL2IN  02
                         568 --443:   R_DEV_CKS_DOTCK0  02
                         569 --444:   R_DEV_CKS_DOTCK1  02
                         570 --445:   R_DEV_CKS_MIPIPXL 0F
                         571 --446: */
                         572 --448: static const uint16_t loc_ClkSelDiv[15][8] =
                         573 --449: {
                         574 --450:    /*                       (0xFF - setting prohibited)   */
                         575 --451:    /*          div slot          0,     1,     2,     3,     4,     5,     6 ,    7*/
                         576 --452:    /* R_DEV_CKS_WDT0    */  {LOC_N,  128u,    1u,  256u,  512u, 1024u, 2048u, LOC_N},
                         577 --453:    /* R_DEV_CKS_AWOT    */  {LOC_N,    1u,    2u,    4u,    8u,   16u, LOC_N, LOC_N},
                         578 --454:    /* R_DEV_CKS_RTC     */  {    0,    1u,    2u,    4u,    8u,   16u, LOC_N, LOC_N},
                         579 --455:    /* R_DEV_CKS_FOUT    */  {LOC_F, LOC_F, LOC_F, LOC_F, LOC_F, LOC_F, LOC_F, LOC_F},
                         580 --456:    /* R_DEV_CKS_CPU     */  {LOC_N,    1u,    2u,    4u,    8u,    3u, LOC_N, LOC_N},
                         581 --457:    /* R_DEV_CKS_SFMA    */  {    0,    2u,    3u,    4u,    6u, LOC_N, LOC_N, LOC_N},
                         582 --458:    /* R_DEV_CKS_RSCAN   */  {    0,   30u,   40u,   60u,   12u,   24u, LOC_N, LOC_N},
                         583 --459:    /* R_DEV_CKS_SSIF    */  {LOC_F, LOC_N, LOC_N, LOC_N, LOC_N, LOC_N, LOC_N, LOC_N},
                         584 --460:    /* R_DEV_CKS_ADCE    */  {LOC_N,    2u,    4u, LOC_N, LOC_N, LOC_N, LOC_N, LOC_N},
                         585 --461:    /* R_DEV_CKS_CLKJIT  */  {LOC_N, LOC_F, LOC_N, LOC_N, LOC_N, LOC_N, LOC_N, LOC_N},
                         586 --462:    /* R_DEV_CKS_CLKFIX  */  {LOC_N, LOC_F, LOC_N, LOC_N, LOC_N, LOC_N, LOC_N, LOC_N},
                         587 --463:    /* R_DEV_CKS_PLL2IN  */  {LOC_N, LOC_F, LOC_N, LOC_N, LOC_N, LOC_N, LOC_N, LOC_N},
                         588 --464:    /* R_DEV_CKS_DOTCK0  */  {LOC_N, LOC_F, LOC_F, LOC_F, LOC_N, LOC_N, LOC_N, LOC_N},
                         589 --465:    /* R_DEV_CKS_DOTCK1  */  {LOC_N, LOC_F, LOC_F, LOC_F, LOC_N, LOC_N, LOC_N, LOC_N},
                         590 --466:    /* R_DEV_CKS_MIPIPXL */  {    0,    3u,    6u,   12u, LOC_N, LOC_N, LOC_N, LOC_N},
                         591 --467:    
                         592 --468: };
                         593 --470: static const uint16_t loc_SscgDiv[32] =
                         594 --471: {
                         595 --472:     10  ,
                         596 --473:     12  ,
                         597 --474:     18  ,
                         598 --475:     20  ,
                         599 --476:     22  ,

                                                                      Page 11
                                                              C:\Users\Frank\AppData\Local\Temp\gh_0000p9g1.si
                         600 --477:     26  ,
                         601 --478:     28  ,
                         602 --479:     30  ,
                         603 --480:     34  ,
                         604 --481:     38  ,
                         605 --482:     40  ,
                         606 --483:     44  ,
                         607 --484:     50  ,
                         608 --485:     56  ,
                         609 --486:     58  ,
                         610 --487:     60  ,
                         611 --488:     62  ,
                         612 --489:     66  ,
                         613 --490:     72  ,
                         614 --491:     76  ,
                         615 --492:     80  ,
                         616 --493:     84  ,
                         617 --494:     86  ,
                         618 --495:     100 ,
                         619 --496:     120 ,
                         620 --497:     126 ,
                         621 --498:     134 ,
                         622 --499:     150 ,
                         623 --500:     166 ,
                         624 --501:     200 ,
                         625 --502:     250 ,
                         626 --503:     300
                         627 --504: };
                         628 --506: static const uint8_t loc_SscgPercent[8] =
                         629 --507: {
                         630 --508:     1  ,
                         631 --509:     2  ,
                         632 --510:     3  ,
                         633 --511:     4  ,
                         634 --512:     5  ,
                         635 --513:     6  ,
                         636 --514:     8  ,
                         637 --515:     10 ,
                         638 --516: };
                         639 --518: /*******************************************************************************
                         640 --519:   Section: Local Variables
                         641 --520: */
                         642 --522: /*******************************************************************************
                         643 --523:   Variable: LocPbusRatio
                         644 --524:   Store the PBUS clock ration (it's configurable for D1M1 only)
                         645 --526: */
                         646 --527: volatile static uint32_t LocPbusRatio = 2;
                         647 --529: /*
                         648 --530:    loc_ClkGenCfg - local Clock generator configuration
                         649 --531: */
                         650 --532: static r_dev_ClkGenConfig_t loc_ClkGenCfg;
                         651 --534: /*******************************************************************************
                         652 --535:   Variable: loc_Vdce0ViFreq
                         653 --536:   Store the frequency (in Hz) of the external input VDCE0_VI_CLK
                         654 --537: */
                         655 --538: static uint32_t loc_Vdce0ViFreq = 0;
                         656 --540: /*******************************************************************************
                         657 --541:   Variable: loc_Vdce1ViFreq
                         658 --542:   Store the frequency (in Hz) of the external input VDCE1_VI_CLK
                         659 --543: */
                         660 --544: static uint32_t loc_Vdce1ViFreq = 0;

                                                                      Page 12
                                                              C:\Users\Frank\AppData\Local\Temp\gh_0000p9g1.si
                         661 --547: /*******************************************************************************
                         662 --548:   Section: Local functions
                         663 --550: */
                         664 --551: static void loc_WritePllCfg (r_dev_ClkGen_t Pll, loc_PllCfgReg_t * PllCfgReg);
                         665 --552: static r_Error_t loc_CalcFreqPll0(uint32_t FrqIn, loc_PllCfgReg_t * PllCfgReg, uint32_t *FrqOut);
                         666 --553: static r_Error_t loc_CalcFreqPll1(uint32_t FrqIn, loc_PllCfgReg_t * PllCfgReg, uint32_t *FrqOut);
                         667 --554: static r_Error_t loc_CalcFreqPll2(uint32_t FrqIn, loc_PllCfgReg_t * PllCfgReg, uint32_t *FrqOut);
                         668 --555: static uint32_t loc_SrcFrequencyHz(r_dev_CksSrc_t ClkSrc);
                         669 --556: static r_Error_t loc_CalcSscgPll0(uint32_t FrqIn, loc_PllCfgReg_t * PllCfgReg, const r_dev_PllCfg_t * PllCfg);
                         670 --557: static void loc_PllCfgStore(uint32_t FrqIn, r_dev_ClkGen_t Pll, const r_dev_PllCfg_t *PllCfg);
                         671 --559: /*******************************************************************************
                         672 --560:   Function: loc_PllCfgStore
                         673 --562:     this is a copy of the PllConfig function, used to store the settings after low init
                         674 --563:     whre all the structures were deleted
                         675 --564: */
                         676 --566: static void loc_PllCfgStore(uint32_t FrqIn, r_dev_ClkGen_t Pll, const r_dev_PllCfg_t *PllCfg)
                         677 	.text
                         678 ..bof.C.3A.5Cgit.5Crh850.5Csrc.5Capp.5Cgfx_apps.5Csimple_draw.5Ctarget.5Cd1mx_mango_ghs.5Cobj.5Cr_dev_clk...43.3A.5Cgit.5Crh850.5Csrc.5Capp.5Cgfx_apps.5Csimple_draw.5Ctarget.5Cd1mx_mango_ghs..5BC5D024..0::
                         679 	.align	2
                         680 	.global	_loc_PllCfgStore..C.3A.5Cgit.5Crh850.5Csrc.5Capp.5Cgfx_apps.5Csimple_draw.5Ctarget.5Cd1mx_mango_ghs.5Cobj.5Cr_dev_clk.
                         681 _loc_PllCfgStore..C.3A.5Cgit.5Crh850.5Csrc.5Capp.5Cgfx_apps.5Csimple_draw.5Ctarget.5Cd1mx_mango_ghs.5Cobj.5Cr_dev_clk.:
                         682 _loc_PllCfgStore:
00000000 8807e170        683 	prepare	{r25,r26,r27,r28,r29,r31},4
00000004 3d0600000000*   684 	mov	.L166,r29
0000000a 63370d00        685 	st.w	r6,12[sp]
0000000e 07d0            686 	mov	r7,r26
00000010 08d8            687 	mov	r8,r27
00000012 1dce1400        688 	addi	20,r29,r25
                         689 --	    .bf
                         690 .LDW01:
                         691 --567: {
                         692 --568:     uint32_t          freq_out  = PllCfg->FrequencyHz/1000000u;
00000016 3b771100        693 	ld.w	16[r27],r14
0000001a 2c0683de1b43    694 	mov	1125899907,r12
00000020 ee67226a        695 	mulu	r14,r12,r13
00000024 0d08            696 	mov	r13,r1
00000026 920a            697 	shr	18,r1
00000028 630f0100        698 	st.w	r1,0[sp]
                         699 --569:     r_Error_t         ret_val   = R_NG;
0000002c 01e2            700 	mov	1,r28
                         701 --570:     uint32_t          regval    = 0;
0000002e 63070900        702 	st.w	zero,8[sp]
00000032 005a            703 	mov	0,r11
                         704 --571:     loc_PllCfgReg_t   pllcfg_reg;
                         705 --572:     /* This one is not needed here */
                         706 --573:     Pll = Pll;
00000034 0000            707 	nop
                         708 --574:     
                         709 --575:     /* Clear Config */
                         710 --576:     pllcfg_reg.NI       = 0;
00000036 830f0500        711 	ld.bu	4[sp],r1
0000003a c10e8000        712 	andi	128,r1,r1
0000003e 430f0400        713 	st.b	r1,4[sp]
                         714 --577:     pllcfg_reg.P        = 0;
00000042 e30f0500        715 	ld.hu	4[sp],r1
00000046 c10e7ffc        716 	andi	64639,r1,r1
0000004a 630f0400        717 	st.h	r1,4[sp]
                         718 --578:     pllcfg_reg.M        = 0;
0000004e a30f0500        719 	ld.bu	5[sp],r1
00000052 c10ef300        720 	andi	243,r1,r1
00000056 430f0500        721 	st.b	r1,5[sp]

                                                                      Page 13
                                                              C:\Users\Frank\AppData\Local\Temp\gh_0000p9g1.si
                         722 --579:     pllcfg_reg.NF       = 0;
0000005a 230f0500        723 	ld.w	4[sp],r1
0000005e e00fbc18        724 	bins	zero,14,4,r1
00000062 630f0500        725 	st.w	r1,4[sp]
                         726 --580:     pllcfg_reg.SSMode   = 0;
00000066 a30f0500        727 	ld.bu	5[sp],r1
0000006a c10ecf00        728 	andi	207,r1,r1
0000006e 430f0500        729 	st.b	r1,5[sp]
                         730 --581:     pllcfg_reg.SSPerc   = 0;
00000072 830f0700        731 	ld.bu	6[sp],r1
00000076 c10ee300        732 	andi	227,r1,r1
0000007a 430f0600        733 	st.b	r1,6[sp]
                         734 --582:     pllcfg_reg.SMFreq   = 0;
0000007e e30f0700        735 	ld.hu	6[sp],r1
00000082 c10e1ffc        736 	andi	64543,r1,r1
00000086 630f0600        737 	st.h	r1,6[sp]
                         738 --583:     
                         739 --584:     /* VC = freq = fin * Nr/Pr */
                         740 --585:     /* Set/Check the frequency */
                         741 --586:     switch (Pll)
0000008a 1a08            742 	mov	r26,r1
0000008c 610a            743 	cmp	1,r1
0000008e d105*           744 	bl	.L6
00000090 a22d*           745 	be	.L10
00000092 620a            746 	cmp	2,r1
00000094 da5d*           747 	bne	.L12
00000096 853d*           748 	br	.L11
                         749 .L6:
                         750 --587:     {
                         751 --588:     case R_DEV_PLL0:
                         752 --589:         ret_val =  loc_CalcFreqPll0(FrqIn/1000000, &pllcfg_reg, &freq_out);
                         753 --line589
                         754 ..lin.C.3A.5Cgit.5Crh850.5Csrc.5Capp.5Cgfx_apps.5Csimple_draw.5Ctarget.5Cd1mx_mango_ghs.5Cobj.5Cr_dev_clk.1::
                         755 .LDWlin1:
00000098 235f0d00        756 	ld.w	12[sp],r11
0000009c 233e0400        757 	movea	4,sp,r7
000000a0 2c0683de1b43    758 	mov	1125899907,r12
000000a6 23460000        759 	movea	0,sp,r8
000000aa eb67226a        760 	mulu	r11,r12,r13
000000ae 0d30            761 	mov	r13,r6
000000b0 9232            762 	shr	18,r6
                         763 	jarl	_loc_CalcFreqPll0,lp
                         763 <EXPANSION BEGIN>
                         763 jarl22 _loc_CalcFreqPll0 , lp 
000000b2 80ff9c02*       763 <EXPANSION END>
000000b6 0ae0            764 	mov	r10,r28
                         765 --590:         if ((R_ERR_OK == ret_val) && (R_DEV_PLL_SSCG == PllCfg->Mode))
                         766 --line590
                         767 ..lin.C.3A.5Cgit.5Crh850.5Csrc.5Capp.5Cgfx_apps.5Csimple_draw.5Ctarget.5Cd1mx_mango_ghs.5Cobj.5Cr_dev_clk.2::
                         768 .LDWlin2:
000000b8 e0e1            769 	cmp	zero,r28
000000ba ca15*           770 	bne	.L7
000000bc 3b0f0100        771 	ld.w	0[r27],r1
000000c0 610a            772 	cmp	1,r1
000000c2 8a15*           773 	bne	.L7
                         774 --591:         {
                         775 --592:             /*The input frequency is provided in KHz here */
                         776 --593:             ret_val = loc_CalcSscgPll0(FrqIn/1000, &pllcfg_reg, PllCfg);
                         777 --line593
                         778 ..lin.C.3A.5Cgit.5Crh850.5Csrc.5Capp.5Cgfx_apps.5Csimple_draw.5Ctarget.5Cd1mx_mango_ghs.5Cobj.5Cr_dev_clk.3::
                         779 .LDWlin3:

                                                                      Page 14
                                                              C:\Users\Frank\AppData\Local\Temp\gh_0000p9g1.si
000000c4 235f0d00        780 	ld.w	12[sp],r11
000000c8 1b40            781 	mov	r27,r8
000000ca 2c06d34d6210    782 	mov	274877907,r12
000000d0 233e0400        783 	movea	4,sp,r7
000000d4 eb67226a        784 	mulu	r11,r12,r13
000000d8 0d30            785 	mov	r13,r6
000000da 8632            786 	shr	6,r6
                         787 	jarl	_loc_CalcSscgPll0,lp
                         787 <EXPANSION BEGIN>
                         787 jarl22 _loc_CalcSscgPll0 , lp 
000000dc 80ff5801*       787 <EXPANSION END>
000000e0 0ae0            788 	mov	r10,r28
                         789 .L7:
                         790 --line595
                         791 ..lin.C.3A.5Cgit.5Crh850.5Csrc.5Capp.5Cgfx_apps.5Csimple_draw.5Ctarget.5Cd1mx_mango_ghs.5Cobj.5Cr_dev_clk.4::
                         792 .LDWlin4:
000000e2 853d*           793 	br	.L4
                         794 .L10:
                         795 --594:         }
                         796 --595:         break;
                         797 --596:     case R_DEV_PLL1:
                         798 --597:         ret_val =  loc_CalcFreqPll1(FrqIn/1000000, &pllcfg_reg, &freq_out);
                         799 --line597
                         800 ..lin.C.3A.5Cgit.5Crh850.5Csrc.5Capp.5Cgfx_apps.5Csimple_draw.5Ctarget.5Cd1mx_mango_ghs.5Cobj.5Cr_dev_clk.5::
                         801 .LDWlin5:
000000e4 235f0d00        802 	ld.w	12[sp],r11
000000e8 233e0400        803 	movea	4,sp,r7
000000ec 2c0683de1b43    804 	mov	1125899907,r12
000000f2 23460000        805 	movea	0,sp,r8
000000f6 eb67226a        806 	mulu	r11,r12,r13
000000fa 0d30            807 	mov	r13,r6
000000fc 9232            808 	shr	18,r6
                         809 	jarl	_loc_CalcFreqPll1,lp
                         809 <EXPANSION BEGIN>
                         809 jarl22 _loc_CalcFreqPll1 , lp 
000000fe 80ffd203*       809 <EXPANSION END>
00000102 0ae0            810 	mov	r10,r28
                         811 --line598
                         812 ..lin.C.3A.5Cgit.5Crh850.5Csrc.5Capp.5Cgfx_apps.5Csimple_draw.5Ctarget.5Cd1mx_mango_ghs.5Cobj.5Cr_dev_clk.6::
                         813 .LDWlin6:
00000104 f525*           814 	br	.L4
                         815 .L11:
                         816 --598:         break;
                         817 --599:     case R_DEV_PLL2 :
                         818 --600:         /* First, get the input frquency  */
                         819 --601:         regval  =  R_DEV_ClkFrequencyHz(R_DEV_CKS_PLL2IN);
                         820 --line601
                         821 ..lin.C.3A.5Cgit.5Crh850.5Csrc.5Capp.5Cgfx_apps.5Csimple_draw.5Ctarget.5Cd1mx_mango_ghs.5Cobj.5Cr_dev_clk.7::
                         822 .LDWlin7:
00000106 20361500        823 	movea	21,zero,r6
                         824 	jarl	_R_DEV_ClkFrequencyHz,lp
                         824 <EXPANSION BEGIN>
                         824 jarl22 _R_DEV_ClkFrequencyHz , lp 
0000010a 80fff40f*       824 <EXPANSION END>
0000010e 63570900        825 	st.w	r10,8[sp]
                         826 --602:         ret_val =  loc_CalcFreqPll2(regval/1000000, &pllcfg_reg, &freq_out);
                         827 --line602
                         828 ..lin.C.3A.5Cgit.5Crh850.5Csrc.5Capp.5Cgfx_apps.5Csimple_draw.5Ctarget.5Cd1mx_mango_ghs.5Cobj.5Cr_dev_clk.8::
                         829 .LDWlin8:
00000112 235f0900        830 	ld.w	8[sp],r11
00000116 233e0400        831 	movea	4,sp,r7

                                                                      Page 15
                                                              C:\Users\Frank\AppData\Local\Temp\gh_0000p9g1.si
0000011a 2c0683de1b43    832 	mov	1125899907,r12
00000120 23460000        833 	movea	0,sp,r8
00000124 eb67226a        834 	mulu	r11,r12,r13
00000128 0d30            835 	mov	r13,r6
0000012a 9232            836 	shr	18,r6
                         837 	jarl	_loc_CalcFreqPll2,lp
                         837 <EXPANSION BEGIN>
                         837 jarl22 _loc_CalcFreqPll2 , lp 
0000012c 80ff1206*       837 <EXPANSION END>
00000130 0ae0            838 	mov	r10,r28
                         839 --603:         pllcfg_reg.FVV       = 0; /* Init value */
                         840 --line603
                         841 ..lin.C.3A.5Cgit.5Crh850.5Csrc.5Capp.5Cgfx_apps.5Csimple_draw.5Ctarget.5Cd1mx_mango_ghs.5Cobj.5Cr_dev_clk.9::
                         842 .LDWlin9:
00000132 a30f0700        843 	ld.bu	7[sp],r1
00000136 c10ee300        844 	andi	227,r1,r1
0000013a 430f0700        845 	st.b	r1,7[sp]
                         846 --604:         pllcfg_reg.NF        = 1;
0000013e 230f0500        847 	ld.w	4[sp],r1
00000142 0172            848 	mov	1,r14
00000144 ee0fbc18        849 	bins	r14,14,4,r1
00000148 630f0500        850 	st.w	r1,4[sp]
0000014c b505*           851 	br	.L4
                         852 .L12:
                         853 --605:         break;
                         854 --606:     default:
                         855 --607:         ret_val = R_PARAMETER_RANGE;
                         856 --line607
                         857 ..lin.C.3A.5Cgit.5Crh850.5Csrc.5Capp.5Cgfx_apps.5Csimple_draw.5Ctarget.5Cd1mx_mango_ghs.5Cobj.5Cr_dev_clk.10::
                         858 .LDWlin10:
0000014e 03e2            859 	mov	3,r28
00000150 0000            860 	nop
                         861 .L4:
                         862 --608:         break;
                         863 --609:     }
                         864 --610:     /* If everything went smooth, store the values */
                         865 --611:     if (R_ERR_OK == ret_val)
00000152 e0e1            866 	cmp	zero,r28
00000154 fa35*           867 	bne	.L13
                         868 --612:     {
                         869 --613:         /* Store the config */
                         870 --614:         loc_ClkGenCfg.Pll[Pll].Mode         = PllCfg->Mode         ;
                         871 --line614
                         872 ..lin.C.3A.5Cgit.5Crh850.5Csrc.5Capp.5Cgfx_apps.5Csimple_draw.5Ctarget.5Cd1mx_mango_ghs.5Cobj.5Cr_dev_clk.11::
                         873 .LDWlin11:
00000156 3b0f0100        874 	ld.w	0[r27],r1
0000015a 1af0            875 	mov	r26,ep
0000015c fcf74002        876 	mul	28,ep,zero
00000160 d9f1            877 	add	r25,ep
00000162 010d            878 	sst.w	r1,0[ep]
                         879 --615:         loc_ClkGenCfg.Pll[Pll].DithMode     = PllCfg->DithMode     ;
00000164 3b0f0500        880 	ld.w	4[r27],r1
00000168 1af0            881 	mov	r26,ep
0000016a fcf74002        882 	mul	28,ep,zero
0000016e d9f1            883 	add	r25,ep
00000170 030d            884 	sst.w	r1,4[ep]
                         885 --616:         loc_ClkGenCfg.Pll[Pll].DithRange    = PllCfg->DithRange    ;
00000172 9b0f0900        886 	ld.bu	8[r27],r1
00000176 1af0            887 	mov	r26,ep
00000178 fcf74002        888 	mul	28,ep,zero
0000017c d9f1            889 	add	r25,ep

                                                                      Page 16
                                                              C:\Users\Frank\AppData\Local\Temp\gh_0000p9g1.si
0000017e 880b            890 	sst.b	r1,8[ep]
                         891 --617:         loc_ClkGenCfg.Pll[Pll].ModFreq      = PllCfg->ModFreq      ;
00000180 3b0f0d00        892 	ld.w	12[r27],r1
00000184 1af0            893 	mov	r26,ep
00000186 fcf74002        894 	mul	28,ep,zero
0000018a d9f1            895 	add	r25,ep
0000018c 070d            896 	sst.w	r1,12[ep]
                         897 --618:         loc_ClkGenCfg.Pll[Pll].FrequencyHz  = freq_out * 1000000u  ;
0000018e 230f0100        898 	ld.w	0[sp],r1
00000192 1af0            899 	mov	r26,ep
00000194 fcf74002        900 	mul	28,ep,zero
00000198 2e0640420f00    901 	mov	1000000,r14
0000019e ee0f2202        902 	mulu	r14,r1,zero
000001a2 d9f1            903 	add	r25,ep
000001a4 090d            904 	sst.w	r1,16[ep]
                         905 --619:         loc_ClkGenCfg.Pll[Pll].StabiTimeNs  = PllCfg->StabiTimeNs  ;
000001a6 3b0f1500        906 	ld.w	20[r27],r1
000001aa 1af0            907 	mov	r26,ep
000001ac fcf74002        908 	mul	28,ep,zero
000001b0 d9f1            909 	add	r25,ep
000001b2 0b0d            910 	sst.w	r1,20[ep]
                         911 --620:         loc_ClkGenCfg.Pll[Pll].StpReqMsk    = PllCfg->StpReqMsk    ;
000001b4 9b0f1900        912 	ld.bu	24[r27],r1
000001b8 1af0            913 	mov	r26,ep
000001ba fcf74002        914 	mul	28,ep,zero
000001be d9f1            915 	add	r25,ep
000001c0 980b            916 	sst.b	r1,24[ep]
                         917 .L13:
                         918 --621:     }
                         919 --622: }
                         920 --	    .ef
                         921 .LDW11:
000001c2 4806ff70        922 	dispose	4,{r25,r26,r27,r28,r29,r31},[lp]
                         923 	.type	_loc_PllCfgStore,@function
                         924 	.size	_loc_PllCfgStore,.-_loc_PllCfgStore
                         925 	.type	_loc_PllCfgStore..C.3A.5Cgit.5Crh850.5Csrc.5Capp.5Cgfx_apps.5Csimple_draw.5Ctarget.5Cd1mx_mango_ghs.5Cobj.5Cr_dev_clk.,@function
                         926 	.size	_loc_PllCfgStore..C.3A.5Cgit.5Crh850.5Csrc.5Capp.5Cgfx_apps.5Csimple_draw.5Ctarget.5Cd1mx_mango_ghs.5Cobj.5Cr_dev_clk.,.-_loc_PllCfgStore..C.3A.5Cgit.5Crh850.5Csrc.5Capp.5Cgfx_apps.5Csimple_draw.5Ctarget.5Cd1mx_mango_ghs.5Cobj.5Cr_dev_clk.
                         927 	.align	2
                         928 .LDW21:
                         929 --_freq_out	0[sp]	local
                         930 --_ret_val	r28	local
                         931 --_regval	8[sp]	local
                         932 --_pllcfg_reg	4[sp]	local
                         933 
                         934 --_FrqIn	12[sp]	param
                         935 --_Pll	r26	param
                         936 --_PllCfg	r27	param
                         937 
                         938 	.section ".bss","awb"
                         939 	.align	4
                         940 .L166:
                         941 	.type	.L166,@object
                         942 	.size	.L166,0
                         943 	.section ".rodata","a"
                         944 	.align	4
                         945 	.global	_loc_SscgPercent..C.3A.5Cgit.5Crh850.5Csrc.5Capp.5Cgfx_apps.5Csimple_draw.5Ctarget.5Cd1mx_mango_ghs.5Cobj.5Cr_dev_clk.
                         946 _loc_SscgPercent..C.3A.5Cgit.5Crh850.5Csrc.5Capp.5Cgfx_apps.5Csimple_draw.5Ctarget.5Cd1mx_mango_ghs.5Cobj.5Cr_dev_clk.:
00000000 01020304        947 _loc_SscgPercent:	.byte	1,2,3,4
00000004 0506080a        948 	.byte	5,6,8,10
                         949 	.type	_loc_SscgPercent..C.3A.5Cgit.5Crh850.5Csrc.5Capp.5Cgfx_apps.5Csimple_draw.5Ctarget.5Cd1mx_mango_ghs.5Cobj.5Cr_dev_clk.,@object
                         950 	.size	_loc_SscgPercent..C.3A.5Cgit.5Crh850.5Csrc.5Capp.5Cgfx_apps.5Csimple_draw.5Ctarget.5Cd1mx_mango_ghs.5Cobj.5Cr_dev_clk.,8

                                                                      Page 17
                                                              C:\Users\Frank\AppData\Local\Temp\gh_0000p9g1.si
                         951 	.type	_loc_SscgPercent,@object
                         952 	.size	_loc_SscgPercent,8
                         953 	.data
                         954 	.align	4
                         955 	.global	_LocPbusRatio..C.3A.5Cgit.5Crh850.5Csrc.5Capp.5Cgfx_apps.5Csimple_draw.5Ctarget.5Cd1mx_mango_ghs.5Cobj.5Cr_dev_clk.
                         956 _LocPbusRatio..C.3A.5Cgit.5Crh850.5Csrc.5Capp.5Cgfx_apps.5Csimple_draw.5Ctarget.5Cd1mx_mango_ghs.5Cobj.5Cr_dev_clk.:
00000000 02000000        957 _LocPbusRatio:	.byte	2,0,0,0
                         958 	.type	_LocPbusRatio..C.3A.5Cgit.5Crh850.5Csrc.5Capp.5Cgfx_apps.5Csimple_draw.5Ctarget.5Cd1mx_mango_ghs.5Cobj.5Cr_dev_clk.,@object
                         959 	.size	_LocPbusRatio..C.3A.5Cgit.5Crh850.5Csrc.5Capp.5Cgfx_apps.5Csimple_draw.5Ctarget.5Cd1mx_mango_ghs.5Cobj.5Cr_dev_clk.,4
                         960 	.type	_LocPbusRatio,@object
                         961 	.size	_LocPbusRatio,4
                         962 	.global	_loc_Vdce0ViFreq..C.3A.5Cgit.5Crh850.5Csrc.5Capp.5Cgfx_apps.5Csimple_draw.5Ctarget.5Cd1mx_mango_ghs.5Cobj.5Cr_dev_clk.
                         963 _loc_Vdce0ViFreq..C.3A.5Cgit.5Crh850.5Csrc.5Capp.5Cgfx_apps.5Csimple_draw.5Ctarget.5Cd1mx_mango_ghs.5Cobj.5Cr_dev_clk.:
00000004 00000000        964 _loc_Vdce0ViFreq:	.byte	0,0,0,0
                         965 	.type	_loc_Vdce0ViFreq..C.3A.5Cgit.5Crh850.5Csrc.5Capp.5Cgfx_apps.5Csimple_draw.5Ctarget.5Cd1mx_mango_ghs.5Cobj.5Cr_dev_clk.,@object
                         966 	.size	_loc_Vdce0ViFreq..C.3A.5Cgit.5Crh850.5Csrc.5Capp.5Cgfx_apps.5Csimple_draw.5Ctarget.5Cd1mx_mango_ghs.5Cobj.5Cr_dev_clk.,4
                         967 	.type	_loc_Vdce0ViFreq,@object
                         968 	.size	_loc_Vdce0ViFreq,4
                         969 	.global	_loc_Vdce1ViFreq..C.3A.5Cgit.5Crh850.5Csrc.5Capp.5Cgfx_apps.5Csimple_draw.5Ctarget.5Cd1mx_mango_ghs.5Cobj.5Cr_dev_clk.
                         970 _loc_Vdce1ViFreq..C.3A.5Cgit.5Crh850.5Csrc.5Capp.5Cgfx_apps.5Csimple_draw.5Ctarget.5Cd1mx_mango_ghs.5Cobj.5Cr_dev_clk.:
00000008 00000000        971 _loc_Vdce1ViFreq:	.byte	0,0,0,0
                         972 	.type	_loc_Vdce1ViFreq..C.3A.5Cgit.5Crh850.5Csrc.5Capp.5Cgfx_apps.5Csimple_draw.5Ctarget.5Cd1mx_mango_ghs.5Cobj.5Cr_dev_clk.,@object
                         973 	.size	_loc_Vdce1ViFreq..C.3A.5Cgit.5Crh850.5Csrc.5Capp.5Cgfx_apps.5Csimple_draw.5Ctarget.5Cd1mx_mango_ghs.5Cobj.5Cr_dev_clk.,4
                         974 	.type	_loc_Vdce1ViFreq,@object
                         975 	.size	_loc_Vdce1ViFreq,4
                         976 	.section ".rodata","a"
                         977 	.global	_loc_Base..C.3A.5Cgit.5Crh850.5Csrc.5Capp.5Cgfx_apps.5Csimple_draw.5Ctarget.5Cd1mx_mango_ghs.5Cobj.5Cr_dev_clk.
                         978 _loc_Base..C.3A.5Cgit.5Crh850.5Csrc.5Capp.5Cgfx_apps.5Csimple_draw.5Ctarget.5Cd1mx_mango_ghs.5Cobj.5Cr_dev_clk.:
00000008 0090f8ff        979 _loc_Base:	.byte	0,144,248,255
0000000c 0091f8ff        980 	.byte	0,145,248,255
00000010 c050f8ff        981 	.byte	192,80,248,255
00000014 0010f8ff        982 	.byte	0,16,248,255
00000018 0011f8ff        983 	.byte	0,17,248,255
0000001c 0012f8ff        984 	.byte	0,18,248,255
                         985 	.type	_loc_Base..C.3A.5Cgit.5Crh850.5Csrc.5Capp.5Cgfx_apps.5Csimple_draw.5Ctarget.5Cd1mx_mango_ghs.5Cobj.5Cr_dev_clk.,@object
                         986 	.size	_loc_Base..C.3A.5Cgit.5Crh850.5Csrc.5Capp.5Cgfx_apps.5Csimple_draw.5Ctarget.5Cd1mx_mango_ghs.5Cobj.5Cr_dev_clk.,24
                         987 	.type	_loc_Base,@object
                         988 	.size	_loc_Base,24
                         989 	.global	_loc_SscgDiv..C.3A.5Cgit.5Crh850.5Csrc.5Capp.5Cgfx_apps.5Csimple_draw.5Ctarget.5Cd1mx_mango_ghs.5Cobj.5Cr_dev_clk.
                         990 _loc_SscgDiv..C.3A.5Cgit.5Crh850.5Csrc.5Capp.5Cgfx_apps.5Csimple_draw.5Ctarget.5Cd1mx_mango_ghs.5Cobj.5Cr_dev_clk.:
00000020 0a000c00        991 _loc_SscgDiv:	.byte	10,0,12,0
00000024 12001400        992 	.byte	18,0,20,0
00000028 16001a00        993 	.byte	22,0,26,0
0000002c 1c001e00        994 	.byte	28,0,30,0
00000030 22002600        995 	.byte	34,0,38,0
00000034 28002c00        996 	.byte	40,0,44,0
00000038 32003800        997 	.byte	50,0,56,0
0000003c 3a003c00        998 	.byte	58,0,60,0
00000040 3e004200        999 	.byte	62,0,66,0
00000044 48004c00       1000 	.byte	72,0,76,0
00000048 50005400       1001 	.byte	80,0,84,0
0000004c 56006400       1002 	.byte	86,0,100,0
00000050 78007e00       1003 	.byte	120,0,126,0
00000054 86009600       1004 	.byte	134,0,150,0
00000058 a600c800       1005 	.byte	166,0,200,0
0000005c fa002c01       1006 	.byte	250,0,44,1
                        1007 	.type	_loc_SscgDiv..C.3A.5Cgit.5Crh850.5Csrc.5Capp.5Cgfx_apps.5Csimple_draw.5Ctarget.5Cd1mx_mango_ghs.5Cobj.5Cr_dev_clk.,@object
                        1008 	.size	_loc_SscgDiv..C.3A.5Cgit.5Crh850.5Csrc.5Capp.5Cgfx_apps.5Csimple_draw.5Ctarget.5Cd1mx_mango_ghs.5Cobj.5Cr_dev_clk.,64
                        1009 	.type	_loc_SscgDiv,@object
                        1010 	.size	_loc_SscgDiv,64
                        1011 	.global	_locBusRegAddr..C.3A.5Cgit.5Crh850.5Csrc.5Capp.5Cgfx_apps.5Csimple_draw.5Ctarget.5Cd1mx_mango_ghs.5Cobj.5Cr_dev_clk.

                                                                      Page 18
                                                              C:\Users\Frank\AppData\Local\Temp\gh_0000p9g1.si
                        1012 _locBusRegAddr..C.3A.5Cgit.5Crh850.5Csrc.5Capp.5Cgfx_apps.5Csimple_draw.5Ctarget.5Cd1mx_mango_ghs.5Cobj.5Cr_dev_clk.:
00000060 0092f8ff       1013 _locBusRegAddr:	.byte	0,146,248,255
00000064 0093f8ff       1014 	.byte	0,147,248,255
00000068 0051f8ff       1015 	.byte	0,81,248,255
0000006c 4056f8ff       1016 	.byte	64,86,248,255
00000070 4051f8ff       1017 	.byte	64,81,248,255
00000074 8052f8ff       1018 	.byte	128,82,248,255
00000078 c052f8ff       1019 	.byte	192,82,248,255
0000007c 4052f8ff       1020 	.byte	64,82,248,255
00000080 8051f8ff       1021 	.byte	128,81,248,255
00000084 c051f8ff       1022 	.byte	192,81,248,255
00000088 0052f8ff       1023 	.byte	0,82,248,255
                        1024 	.type	_locBusRegAddr..C.3A.5Cgit.5Crh850.5Csrc.5Capp.5Cgfx_apps.5Csimple_draw.5Ctarget.5Cd1mx_mango_ghs.5Cobj.5Cr_dev_clk.,@object
                        1025 	.size	_locBusRegAddr..C.3A.5Cgit.5Crh850.5Csrc.5Capp.5Cgfx_apps.5Csimple_draw.5Ctarget.5Cd1mx_mango_ghs.5Cobj.5Cr_dev_clk.,44
                        1026 	.type	_locBusRegAddr,@object
                        1027 	.size	_locBusRegAddr,44
                        1028 	.global	_loc_CkcsBaseAddr..C.3A.5Cgit.5Crh850.5Csrc.5Capp.5Cgfx_apps.5Csimple_draw.5Ctarget.5Cd1mx_mango_ghs.5Cobj.5Cr_dev_clk.
                        1029 _loc_CkcsBaseAddr..C.3A.5Cgit.5Crh850.5Csrc.5Capp.5Cgfx_apps.5Csimple_draw.5Ctarget.5Cd1mx_mango_ghs.5Cobj.5Cr_dev_clk.:
0000008c 01000000       1030 _loc_CkcsBaseAddr:	.byte	1,0,0,0
00000090 0020f8ff       1031 	.byte	0,32,248,255
00000094 0000           1032 	.space	2
00000096 7e00           1033 	.byte	126,0
00000098 0021f8ff       1034 	.byte	0,33,248,255
0000009c 0022f8ff       1035 	.byte	0,34,248,255
000000a0 01003e00       1036 	.byte	1,0,62,0
000000a4 0023f8ff       1037 	.byte	0,35,248,255
000000a8 0024f8ff       1038 	.byte	0,36,248,255
000000ac 02003f00       1039 	.byte	2,0,63,0
000000b0 0027f8ff       1040 	.byte	0,39,248,255
000000b4 0028f8ff       1041 	.byte	0,40,248,255
000000b8 0300ff00       1042 	.byte	3,0,255,0
000000bc 00a0f8ff       1043 	.byte	0,160,248,255
000000c0 00a1f8ff       1044 	.byte	0,161,248,255
000000c4 04003e00       1045 	.byte	4,0,62,0
000000c8 0053f8ff       1046 	.byte	0,83,248,255
000000cc 00000000       1047 	.space	4
000000d0 ff00           1048 	.byte	255,0
000000d2 0000           1049 	.space	2
000000d4 4053f8ff       1050 	.byte	64,83,248,255
000000d8 8053f8ff       1051 	.byte	128,83,248,255
000000dc 05001f00       1052 	.byte	5,0,31,0
000000e0 14000000       1053 	.byte	20,0,0,0
000000e4 8057f8ff       1054 	.byte	128,87,248,255
000000e8 06000f00       1055 	.byte	6,0,15,0
000000ec 0058f8ff       1056 	.byte	0,88,248,255
000000f0 00000000       1057 	.space	4
000000f4 ff00           1058 	.byte	255,0
000000f6 0000           1059 	.space	2
000000f8 14000000       1060 	.byte	20,0,0,0
000000fc c057f8ff       1061 	.byte	192,87,248,255
00000100 07000100       1062 	.byte	7,0,1,0
00000104 4055f8ff       1063 	.byte	64,85,248,255
00000108 00000000       1064 	.space	4
0000010c ff00           1065 	.byte	255,0
0000010e 0000           1066 	.space	2
00000110 8055f8ff       1067 	.byte	128,85,248,255
00000114 00000000       1068 	.space	4
00000118 ff00           1069 	.byte	255,0
0000011a 0000           1070 	.space	2
0000011c c055f8ff       1071 	.byte	192,85,248,255
00000120 00000000       1072 	.space	4

                                                                      Page 19
                                                              C:\Users\Frank\AppData\Local\Temp\gh_0000p9g1.si
00000124 ff00           1073 	.byte	255,0
00000126 0000           1074 	.space	2
00000128 0056f8ff       1075 	.byte	0,86,248,255
0000012c 00000000       1076 	.space	4
00000130 ff00           1077 	.byte	255,0
00000132 0000           1078 	.space	2
00000134 c054f8ff       1079 	.byte	192,84,248,255
00000138 00000000       1080 	.space	4
0000013c ff00           1081 	.byte	255,0
0000013e 0000           1082 	.space	2
00000140 10000000       1083 	.byte	16,0,0,0
00000144 8054f8ff       1084 	.byte	128,84,248,255
00000148 08000600       1085 	.byte	8,0,6,0
0000014c 4054f8ff       1086 	.byte	64,84,248,255
00000150 00000000       1087 	.space	4
00000154 ff00           1088 	.byte	255,0
00000156 0000           1089 	.space	2
00000158 0055f8ff       1090 	.byte	0,85,248,255
0000015c 00000000       1091 	.space	4
00000160 ff00           1092 	.byte	255,0
00000162 0000           1093 	.space	2
00000164 0054f8ff       1094 	.byte	0,84,248,255
00000168 c053f8ff       1095 	.byte	192,83,248,255
0000016c 09000200       1096 	.byte	9,0,2,0
00000170 4057f8ff       1097 	.byte	64,87,248,255
00000174 0057f8ff       1098 	.byte	0,87,248,255
00000178 0a000200       1099 	.byte	10,0,2,0
0000017c 0050f8ff       1100 	.byte	0,80,248,255
00000180 00000000       1101 	.space	4
00000184 ff00           1102 	.byte	255,0
00000186 0000           1103 	.space	2
00000188 8050f8ff       1104 	.byte	128,80,248,255
0000018c 4050f8ff       1105 	.byte	64,80,248,255
00000190 0b000200       1106 	.byte	11,0,2,0
00000194 4059f8ff       1107 	.byte	64,89,248,255
00000198 c059f8ff       1108 	.byte	192,89,248,255
0000019c 0c000200       1109 	.byte	12,0,2,0
000001a0 8059f8ff       1110 	.byte	128,89,248,255
000001a4 005af8ff       1111 	.byte	0,90,248,255
000001a8 0d000200       1112 	.byte	13,0,2,0
000001ac 8058f8ff       1113 	.byte	128,88,248,255
000001b0 00000000       1114 	.space	4
000001b4 ff00           1115 	.byte	255,0
000001b6 0000           1116 	.space	2
000001b8 c058f8ff       1117 	.byte	192,88,248,255
000001bc 00000000       1118 	.space	4
000001c0 ff00           1119 	.byte	255,0
000001c2 0000           1120 	.space	2
000001c4 405af8ff       1121 	.byte	64,90,248,255
000001c8 00000000       1122 	.space	4
000001cc ff00           1123 	.byte	255,0
000001ce 0000           1124 	.space	2
000001d0 4058f8ff       1125 	.byte	64,88,248,255
000001d4 00000000       1126 	.space	4
000001d8 ff00           1127 	.byte	255,0
000001da 0000           1128 	.space	2
000001dc 8056f8ff       1129 	.byte	128,86,248,255
000001e0 00000000       1130 	.space	4
000001e4 ff00           1131 	.byte	255,0
000001e6 0000           1132 	.space	2
000001e8 24000000       1133 	.byte	36,0,0,0

                                                                      Page 20
                                                              C:\Users\Frank\AppData\Local\Temp\gh_0000p9g1.si
000001ec c056f8ff       1134 	.byte	192,86,248,255
000001f0 0e000f00       1135 	.byte	14,0,15,0
                        1136 	.type	_loc_CkcsBaseAddr..C.3A.5Cgit.5Crh850.5Csrc.5Capp.5Cgfx_apps.5Csimple_draw.5Ctarget.5Cd1mx_mango_ghs.5Cobj.5Cr_dev_clk.,@object
                        1137 	.size	_loc_CkcsBaseAddr..C.3A.5Cgit.5Crh850.5Csrc.5Capp.5Cgfx_apps.5Csimple_draw.5Ctarget.5Cd1mx_mango_ghs.5Cobj.5Cr_dev_clk.,360
                        1138 	.type	_loc_CkcsBaseAddr,@object
                        1139 	.size	_loc_CkcsBaseAddr,360
                        1140 	.global	_loc_ClockTree..C.3A.5Cgit.5Crh850.5Csrc.5Capp.5Cgfx_apps.5Csimple_draw.5Ctarget.5Cd1mx_mango_ghs.5Cobj.5Cr_dev_clk.
                        1141 _loc_ClockTree..C.3A.5Cgit.5Crh850.5Csrc.5Capp.5Cgfx_apps.5Csimple_draw.5Ctarget.5Cd1mx_mango_ghs.5Cobj.5Cr_dev_clk.:
000001f4 25000000       1142 _loc_ClockTree:	.byte	37,0,0,0
000001f8 01000000       1143 	.byte	1,0,0,0
000001fc 25000000       1144 	.byte	37,0,0,0
00000200 25000000       1145 	.byte	37,0,0,0
00000204 25000000       1146 	.byte	37,0,0,0
00000208 25000000       1147 	.byte	37,0,0,0
0000020c 25000000       1148 	.byte	37,0,0,0
00000210 25000000       1149 	.byte	37,0,0,0
00000214 00000000       1150 	.space	4
00000218 02000000       1151 	.byte	2,0,0,0
0000021c 04000000       1152 	.byte	4,0,0,0
00000220 01000000       1153 	.byte	1,0,0,0
00000224 25000000       1154 	.byte	37,0,0,0
00000228 25000000       1155 	.byte	37,0,0,0
0000022c 25000000       1156 	.byte	37,0,0,0
00000230 25000000       1157 	.byte	37,0,0,0
00000234 00000000       1158 	.space	4
00000238 05000000       1159 	.byte	5,0,0,0
0000023c 04000000       1160 	.byte	4,0,0,0
00000240 01000000       1161 	.byte	1,0,0,0
00000244 02000000       1162 	.byte	2,0,0,0
00000248 25000000       1163 	.byte	37,0,0,0
0000024c 25000000       1164 	.byte	37,0,0,0
00000250 25000000       1165 	.byte	37,0,0,0
00000254 00000000       1166 	.space	4
00000258 04000000       1167 	.byte	4,0,0,0
0000025c 02000000       1168 	.byte	2,0,0,0
00000260 01000000       1169 	.byte	1,0,0,0
00000264 05000000       1170 	.byte	5,0,0,0
00000268 08000000       1171 	.byte	8,0,0,0
0000026c 0a000000       1172 	.byte	10,0,0,0
00000270 0c000000       1173 	.byte	12,0,0,0
00000274 25000000       1174 	.byte	37,0,0,0
00000278 03000000       1175 	.byte	3,0,0,0
0000027c 25000000       1176 	.byte	37,0,0,0
00000280 06000000       1177 	.byte	6,0,0,0
00000284 09000000       1178 	.byte	9,0,0,0
00000288 25000000       1179 	.byte	37,0,0,0
0000028c 25000000       1180 	.byte	37,0,0,0
00000290 25000000       1181 	.byte	37,0,0,0
00000294 00000000       1182 	.space	4
00000298 07000000       1183 	.byte	7,0,0,0
0000029c 08000000       1184 	.byte	8,0,0,0
000002a0 25000000       1185 	.byte	37,0,0,0
000002a4 25000000       1186 	.byte	37,0,0,0
000002a8 25000000       1187 	.byte	37,0,0,0
000002ac 25000000       1188 	.byte	37,0,0,0
000002b0 25000000       1189 	.byte	37,0,0,0
000002b4 25000000       1190 	.byte	37,0,0,0
000002b8 06000000       1191 	.byte	6,0,0,0
000002bc 09000000       1192 	.byte	9,0,0,0
000002c0 25000000       1193 	.byte	37,0,0,0
000002c4 25000000       1194 	.byte	37,0,0,0

                                                                      Page 21
                                                              C:\Users\Frank\AppData\Local\Temp\gh_0000p9g1.si
000002c8 25000000       1195 	.byte	37,0,0,0
000002cc 25000000       1196 	.byte	37,0,0,0
000002d0 25000000       1197 	.byte	37,0,0,0
000002d4 14000000       1198 	.byte	20,0,0,0
000002d8 25000000       1199 	.byte	37,0,0,0
000002dc 25000000       1200 	.byte	37,0,0,0
000002e0 25000000       1201 	.byte	37,0,0,0
000002e4 25000000       1202 	.byte	37,0,0,0
000002e8 25000000       1203 	.byte	37,0,0,0
000002ec 25000000       1204 	.byte	37,0,0,0
000002f0 25000000       1205 	.byte	37,0,0,0
000002f4 00000000       1206 	.space	4
000002f8 04000000       1207 	.byte	4,0,0,0
000002fc 25000000       1208 	.byte	37,0,0,0
00000300 25000000       1209 	.byte	37,0,0,0
00000304 25000000       1210 	.byte	37,0,0,0
00000308 25000000       1211 	.byte	37,0,0,0
0000030c 25000000       1212 	.byte	37,0,0,0
00000310 25000000       1213 	.byte	37,0,0,0
00000314 14000000       1214 	.byte	20,0,0,0
00000318 25000000       1215 	.byte	37,0,0,0
0000031c 25000000       1216 	.byte	37,0,0,0
00000320 25000000       1217 	.byte	37,0,0,0
00000324 25000000       1218 	.byte	37,0,0,0
00000328 25000000       1219 	.byte	37,0,0,0
0000032c 25000000       1220 	.byte	37,0,0,0
00000330 25000000       1221 	.byte	37,0,0,0
00000334 00000000       1222 	.space	4
00000338 0e000000       1223 	.byte	14,0,0,0
0000033c 0f000000       1224 	.byte	15,0,0,0
00000340 10000000       1225 	.byte	16,0,0,0
00000344 13000000       1226 	.byte	19,0,0,0
00000348 25000000       1227 	.byte	37,0,0,0
0000034c 25000000       1228 	.byte	37,0,0,0
00000350 25000000       1229 	.byte	37,0,0,0
00000354 00000000       1230 	.space	4
00000358 0e000000       1231 	.byte	14,0,0,0
0000035c 0f000000       1232 	.byte	15,0,0,0
00000360 10000000       1233 	.byte	16,0,0,0
00000364 13000000       1234 	.byte	19,0,0,0
00000368 04000000       1235 	.byte	4,0,0,0
0000036c 25000000       1236 	.byte	37,0,0,0
00000370 25000000       1237 	.byte	37,0,0,0
00000374 00000000       1238 	.space	4
00000378 0e000000       1239 	.byte	14,0,0,0
0000037c 0f000000       1240 	.byte	15,0,0,0
00000380 10000000       1241 	.byte	16,0,0,0
00000384 13000000       1242 	.byte	19,0,0,0
00000388 04000000       1243 	.byte	4,0,0,0
0000038c 0d000000       1244 	.byte	13,0,0,0
00000390 25000000       1245 	.byte	37,0,0,0
00000394 00000000       1246 	.space	4
00000398 10000000       1247 	.byte	16,0,0,0
0000039c 0d000000       1248 	.byte	13,0,0,0
000003a0 04000000       1249 	.byte	4,0,0,0
000003a4 25000000       1250 	.byte	37,0,0,0
000003a8 25000000       1251 	.byte	37,0,0,0
000003ac 25000000       1252 	.byte	37,0,0,0
000003b0 25000000       1253 	.byte	37,0,0,0
000003b4 00000000       1254 	.space	4
000003b8 10000000       1255 	.byte	16,0,0,0

                                                                      Page 22
                                                              C:\Users\Frank\AppData\Local\Temp\gh_0000p9g1.si
000003bc 25000000       1256 	.byte	37,0,0,0
000003c0 25000000       1257 	.byte	37,0,0,0
000003c4 25000000       1258 	.byte	37,0,0,0
000003c8 25000000       1259 	.byte	37,0,0,0
000003cc 25000000       1260 	.byte	37,0,0,0
000003d0 25000000       1261 	.byte	37,0,0,0
000003d4 25000000       1262 	.byte	37,0,0,0
000003d8 11000000       1263 	.byte	17,0,0,0
000003dc 12000000       1264 	.byte	18,0,0,0
000003e0 25000000       1265 	.byte	37,0,0,0
000003e4 25000000       1266 	.byte	37,0,0,0
000003e8 25000000       1267 	.byte	37,0,0,0
000003ec 25000000       1268 	.byte	37,0,0,0
000003f0 25000000       1269 	.byte	37,0,0,0
000003f4 00000000       1270 	.space	4
000003f8 10000000       1271 	.byte	16,0,0,0
000003fc 25000000       1272 	.byte	37,0,0,0
00000400 25000000       1273 	.byte	37,0,0,0
00000404 25000000       1274 	.byte	37,0,0,0
00000408 25000000       1275 	.byte	37,0,0,0
0000040c 25000000       1276 	.byte	37,0,0,0
00000410 25000000       1277 	.byte	37,0,0,0
00000414 25000000       1278 	.byte	37,0,0,0
00000418 15000000       1279 	.byte	21,0,0,0
0000041c 10000000       1280 	.byte	16,0,0,0
00000420 16000000       1281 	.byte	22,0,0,0
00000424 25000000       1282 	.byte	37,0,0,0
00000428 25000000       1283 	.byte	37,0,0,0
0000042c 25000000       1284 	.byte	37,0,0,0
00000430 25000000       1285 	.byte	37,0,0,0
00000434 25000000       1286 	.byte	37,0,0,0
00000438 26000000       1287 	.byte	38,0,0,0
0000043c 02000000       1288 	.byte	2,0,0,0
00000440 25000000       1289 	.byte	37,0,0,0
00000444 25000000       1290 	.byte	37,0,0,0
00000448 25000000       1291 	.byte	37,0,0,0
0000044c 25000000       1292 	.byte	37,0,0,0
00000450 25000000       1293 	.byte	37,0,0,0
00000454 25000000       1294 	.byte	37,0,0,0
00000458 26000000       1295 	.byte	38,0,0,0
0000045c 02000000       1296 	.byte	2,0,0,0
00000460 25000000       1297 	.byte	37,0,0,0
00000464 25000000       1298 	.byte	37,0,0,0
00000468 25000000       1299 	.byte	37,0,0,0
0000046c 25000000       1300 	.byte	37,0,0,0
00000470 25000000       1301 	.byte	37,0,0,0
00000474 25000000       1302 	.byte	37,0,0,0
00000478 09000000       1303 	.byte	9,0,0,0
0000047c 0b000000       1304 	.byte	11,0,0,0
00000480 25000000       1305 	.byte	37,0,0,0
00000484 25000000       1306 	.byte	37,0,0,0
00000488 25000000       1307 	.byte	37,0,0,0
0000048c 25000000       1308 	.byte	37,0,0,0
00000490 25000000       1309 	.byte	37,0,0,0
00000494 25000000       1310 	.byte	37,0,0,0
00000498 26000000       1311 	.byte	38,0,0,0
0000049c 04000000       1312 	.byte	4,0,0,0
000004a0 25000000       1313 	.byte	37,0,0,0
000004a4 25000000       1314 	.byte	37,0,0,0
000004a8 25000000       1315 	.byte	37,0,0,0
000004ac 25000000       1316 	.byte	37,0,0,0

                                                                      Page 23
                                                              C:\Users\Frank\AppData\Local\Temp\gh_0000p9g1.si
000004b0 25000000       1317 	.byte	37,0,0,0
000004b4 00000000       1318 	.space	4
000004b8 17000000       1319 	.byte	23,0,0,0
000004bc 09000000       1320 	.byte	9,0,0,0
000004c0 0b000000       1321 	.byte	11,0,0,0
000004c4 25000000       1322 	.byte	37,0,0,0
000004c8 25000000       1323 	.byte	37,0,0,0
000004cc 25000000       1324 	.byte	37,0,0,0
000004d0 25000000       1325 	.byte	37,0,0,0
000004d4 00000000       1326 	.space	4
000004d8 17000000       1327 	.byte	23,0,0,0
000004dc 14000000       1328 	.byte	20,0,0,0
000004e0 0b000000       1329 	.byte	11,0,0,0
000004e4 25000000       1330 	.byte	37,0,0,0
000004e8 25000000       1331 	.byte	37,0,0,0
000004ec 25000000       1332 	.byte	37,0,0,0
000004f0 25000000       1333 	.byte	37,0,0,0
000004f4 00000000       1334 	.space	4
000004f8 1a000000       1335 	.byte	26,0,0,0
000004fc 1b000000       1336 	.byte	27,0,0,0
00000500 21000000       1337 	.byte	33,0,0,0
00000504 22000000       1338 	.byte	34,0,0,0
00000508 1c000000       1339 	.byte	28,0,0,0
0000050c 25000000       1340 	.byte	37,0,0,0
00000510 25000000       1341 	.byte	37,0,0,0
00000514 00000000       1342 	.space	4
00000518 1d000000       1343 	.byte	29,0,0,0
0000051c 1e000000       1344 	.byte	30,0,0,0
00000520 21000000       1345 	.byte	33,0,0,0
00000524 22000000       1346 	.byte	34,0,0,0
00000528 1f000000       1347 	.byte	31,0,0,0
0000052c 25000000       1348 	.byte	37,0,0,0
00000530 25000000       1349 	.byte	37,0,0,0
00000534 25000000       1350 	.byte	37,0,0,0
00000538 1d000000       1351 	.byte	29,0,0,0
0000053c 1a000000       1352 	.byte	26,0,0,0
00000540 25000000       1353 	.byte	37,0,0,0
00000544 25000000       1354 	.byte	37,0,0,0
00000548 25000000       1355 	.byte	37,0,0,0
0000054c 25000000       1356 	.byte	37,0,0,0
00000550 25000000       1357 	.byte	37,0,0,0
00000554 25000000       1358 	.byte	37,0,0,0
00000558 20000000       1359 	.byte	32,0,0,0
0000055c 23000000       1360 	.byte	35,0,0,0
00000560 25000000       1361 	.byte	37,0,0,0
00000564 25000000       1362 	.byte	37,0,0,0
00000568 25000000       1363 	.byte	37,0,0,0
0000056c 25000000       1364 	.byte	37,0,0,0
00000570 25000000       1365 	.byte	37,0,0,0
00000574 25000000       1366 	.byte	37,0,0,0
00000578 18000000       1367 	.byte	24,0,0,0
0000057c 19000000       1368 	.byte	25,0,0,0
00000580 25000000       1369 	.byte	37,0,0,0
00000584 25000000       1370 	.byte	37,0,0,0
00000588 25000000       1371 	.byte	37,0,0,0
0000058c 25000000       1372 	.byte	37,0,0,0
00000590 25000000       1373 	.byte	37,0,0,0
00000594 25000000       1374 	.byte	37,0,0,0
00000598 24000000       1375 	.byte	36,0,0,0
0000059c 25000000       1376 	.byte	37,0,0,0
000005a0 25000000       1377 	.byte	37,0,0,0

                                                                      Page 24
                                                              C:\Users\Frank\AppData\Local\Temp\gh_0000p9g1.si
000005a4 25000000       1378 	.byte	37,0,0,0
000005a8 25000000       1379 	.byte	37,0,0,0
000005ac 25000000       1380 	.byte	37,0,0,0
000005b0 25000000       1381 	.byte	37,0,0,0
                        1382 	.type	_loc_ClockTree..C.3A.5Cgit.5Crh850.5Csrc.5Capp.5Cgfx_apps.5Csimple_draw.5Ctarget.5Cd1mx_mango_ghs.5Cobj.5Cr_dev_clk.,@object
                        1383 	.size	_loc_ClockTree..C.3A.5Cgit.5Crh850.5Csrc.5Capp.5Cgfx_apps.5Csimple_draw.5Ctarget.5Cd1mx_mango_ghs.5Cobj.5Cr_dev_clk.,960
                        1384 	.type	_loc_ClockTree,@object
                        1385 	.size	_loc_ClockTree,960
                        1386 	.global	_loc_ClkSelDiv..C.3A.5Cgit.5Crh850.5Csrc.5Capp.5Cgfx_apps.5Csimple_draw.5Ctarget.5Cd1mx_mango_ghs.5Cobj.5Cr_dev_clk.
                        1387 _loc_ClkSelDiv..C.3A.5Cgit.5Crh850.5Csrc.5Capp.5Cgfx_apps.5Csimple_draw.5Ctarget.5Cd1mx_mango_ghs.5Cobj.5Cr_dev_clk.:
000005b4 ffff8000       1388 _loc_ClkSelDiv:	.byte	255,255,128,0
000005b8 01000001       1389 	.byte	1,0,0,1
000005bc 00020004       1390 	.byte	0,2,0,4
000005c0 0008ffff       1391 	.byte	0,8,255,255
000005c4 ffff0100       1392 	.byte	255,255,1,0
000005c8 02000400       1393 	.byte	2,0,4,0
000005cc 08001000       1394 	.byte	8,0,16,0
000005d0 ffffffff       1395 	.byte	255,255,255,255
000005d4 0000           1396 	.space	2
000005d6 01000200       1397 	.byte	1,0,2,0
000005da 04000800       1398 	.byte	4,0,8,0
000005de 1000ffff       1399 	.byte	16,0,255,255
000005e2 ffff           1400 	.byte	255,255
000005e4 fefefefe       1401 	.byte	254,254,254,254
000005e8 fefefefe       1402 	.byte	254,254,254,254
000005ec fefefefe       1403 	.byte	254,254,254,254
000005f0 fefefefe       1404 	.byte	254,254,254,254
000005f4 ffff0100       1405 	.byte	255,255,1,0
000005f8 02000400       1406 	.byte	2,0,4,0
000005fc 08000300       1407 	.byte	8,0,3,0
00000600 ffffffff       1408 	.byte	255,255,255,255
00000604 0000           1409 	.space	2
00000606 02000300       1410 	.byte	2,0,3,0
0000060a 04000600       1411 	.byte	4,0,6,0
0000060e ffffffff       1412 	.byte	255,255,255,255
00000612 ffff           1413 	.byte	255,255
00000614 0000           1414 	.space	2
00000616 1e002800       1415 	.byte	30,0,40,0
0000061a 3c000c00       1416 	.byte	60,0,12,0
0000061e 1800ffff       1417 	.byte	24,0,255,255
00000622 ffff           1418 	.byte	255,255
00000624 fefeffff       1419 	.byte	254,254,255,255
00000628 ffffffff       1420 	.byte	255,255,255,255
0000062c ffffffff       1421 	.byte	255,255,255,255
00000630 ffffffff       1422 	.byte	255,255,255,255
00000634 ffff0200       1423 	.byte	255,255,2,0
00000638 0400ffff       1424 	.byte	4,0,255,255
0000063c ffffffff       1425 	.byte	255,255,255,255
00000640 ffffffff       1426 	.byte	255,255,255,255
00000644 fffffefe       1427 	.byte	255,255,254,254
00000648 ffffffff       1428 	.byte	255,255,255,255
0000064c ffffffff       1429 	.byte	255,255,255,255
00000650 ffffffff       1430 	.byte	255,255,255,255
00000654 fffffefe       1431 	.byte	255,255,254,254
00000658 ffffffff       1432 	.byte	255,255,255,255
0000065c ffffffff       1433 	.byte	255,255,255,255
00000660 ffffffff       1434 	.byte	255,255,255,255
00000664 fffffefe       1435 	.byte	255,255,254,254
00000668 ffffffff       1436 	.byte	255,255,255,255
0000066c ffffffff       1437 	.byte	255,255,255,255
00000670 ffffffff       1438 	.byte	255,255,255,255

                                                                      Page 25
                                                              C:\Users\Frank\AppData\Local\Temp\gh_0000p9g1.si
00000674 fffffefe       1439 	.byte	255,255,254,254
00000678 fefefefe       1440 	.byte	254,254,254,254
0000067c ffffffff       1441 	.byte	255,255,255,255
00000680 ffffffff       1442 	.byte	255,255,255,255
00000684 fffffefe       1443 	.byte	255,255,254,254
00000688 fefefefe       1444 	.byte	254,254,254,254
0000068c ffffffff       1445 	.byte	255,255,255,255
00000690 ffffffff       1446 	.byte	255,255,255,255
00000694 0000           1447 	.space	2
00000696 03000600       1448 	.byte	3,0,6,0
0000069a 0c00ffff       1449 	.byte	12,0,255,255
0000069e ffffffff       1450 	.byte	255,255,255,255
000006a2 ffff           1451 	.byte	255,255
                        1452 	.type	_loc_ClkSelDiv..C.3A.5Cgit.5Crh850.5Csrc.5Capp.5Cgfx_apps.5Csimple_draw.5Ctarget.5Cd1mx_mango_ghs.5Cobj.5Cr_dev_clk.,@object
                        1453 	.size	_loc_ClkSelDiv..C.3A.5Cgit.5Crh850.5Csrc.5Capp.5Cgfx_apps.5Csimple_draw.5Ctarget.5Cd1mx_mango_ghs.5Cobj.5Cr_dev_clk.,240
                        1454 	.type	_loc_ClkSelDiv,@object
                        1455 	.size	_loc_ClkSelDiv,240
                        1456 	.section ".bss","awb"
                        1457 	.global	_loc_ClkGenCfg..C.3A.5Cgit.5Crh850.5Csrc.5Capp.5Cgfx_apps.5Csimple_draw.5Ctarget.5Cd1mx_mango_ghs.5Cobj.5Cr_dev_clk.
                        1458 _loc_ClkGenCfg..C.3A.5Cgit.5Crh850.5Csrc.5Capp.5Cgfx_apps.5Csimple_draw.5Ctarget.5Cd1mx_mango_ghs.5Cobj.5Cr_dev_clk.:
00000000 000000000000   1459 _loc_ClkGenCfg:	.space	116
00000006 000000000000 
0000000c 000000000000 
00000012 000000000000 
00000018 000000000000 
0000001e 000000000000 
00000024 000000000000 
0000002a 000000000000 
00000030 000000000000 
00000036 000000000000 
0000003c 000000000000 
00000042 000000000000 
00000048 000000000000 
0000004e 000000000000 
00000054 000000000000 
0000005a 000000000000 
00000060 000000000000 
00000066 000000000000 
0000006c 000000000000 
00000072 0000 
                        1460 	.type	_loc_ClkGenCfg..C.3A.5Cgit.5Crh850.5Csrc.5Capp.5Cgfx_apps.5Csimple_draw.5Ctarget.5Cd1mx_mango_ghs.5Cobj.5Cr_dev_clk.,@object
                        1461 	.size	_loc_ClkGenCfg..C.3A.5Cgit.5Crh850.5Csrc.5Capp.5Cgfx_apps.5Csimple_draw.5Ctarget.5Cd1mx_mango_ghs.5Cobj.5Cr_dev_clk.,116
                        1462 	.type	_loc_ClkGenCfg,@object
                        1463 	.size	_loc_ClkGenCfg,116
                        1464 	.data
                        1465 	.text
                        1466 
                        1467 
                        1468 --624: /*******************************************************************************
                        1469 --625:   Function: loc_WritePLLCfg
                        1470 --626:   
                        1471 --627:   Write the PLL configuration to the PLL config register
                        1472 --628:   
                        1473 --629:   Parameters:
                        1474 --630:   
                        1475 --631:   Returns:
                        1476 --632:   void
                        1477 --634:     r_dev_PllMode_t     Mode
                        1478 --635:     r_dev_PllDithMode_t DithMode
                        1479 --636:     uint8_t             DithRange
                        1480 --637:     uint32_t            ModFreq

                                                                      Page 26
                                                              C:\Users\Frank\AppData\Local\Temp\gh_0000p9g1.si
                        1481 --638:     uint32_t            FrequencyHz
                        1482 --639:     uint32_t            StabiTimeNs
                        1483 --640:     uint8_t             StpReqMsk
                        1484 --642: */
                        1485 --643: static void loc_WritePllCfg (r_dev_ClkGen_t Pll, loc_PllCfgReg_t * PllCfgReg)
                        1486 	.align	2
                        1487 	.align	2
                        1488 	.global	_loc_WritePllCfg..C.3A.5Cgit.5Crh850.5Csrc.5Capp.5Cgfx_apps.5Csimple_draw.5Ctarget.5Cd1mx_mango_ghs.5Cobj.5Cr_dev_clk.
                        1489 _loc_WritePllCfg..C.3A.5Cgit.5Crh850.5Csrc.5Capp.5Cgfx_apps.5Csimple_draw.5Ctarget.5Cd1mx_mango_ghs.5Cobj.5Cr_dev_clk.:
                        1490 _loc_WritePllCfg:
000001c6 0660           1491 	mov	r6,r12
000001c8 07f0           1492 	mov	r7,ep
                        1493 --	    .bf
                        1494 .LDW31:
                        1495 --644: {
                        1496 --646:     uint32_t addr    = 0;
000001ca 0072           1497 	mov	0,r14
                        1498 --647:     uint32_t reg_val = 0;
000001cc 000a           1499 	mov	0,r1
                        1500 --648:     /* Allign the inforemation */
                        1501 --649:     reg_val    |= ((uint32_t) PllCfgReg->NI     << 0u);
000001ce 6068           1502 	sld.bu	0[ep],r13
000001d0 cd6e7f00       1503 	andi	127,r13,r13
000001d4 0d09           1504 	or	r13,r1
                        1505 --650:     reg_val    |= ((uint32_t) PllCfgReg->P      << 8u);
000001d6 7068           1506 	sld.hu	0[ep],r13
000001d8 d66a           1507 	shl	22,r13
000001da 9d6a           1508 	shr	29,r13
000001dc c86a           1509 	shl	8,r13
000001de 0d09           1510 	or	r13,r1
                        1511 --651:     reg_val    |= ((uint32_t) PllCfgReg->M      << 11u);
000001e0 6168           1512 	sld.bu	1[ep],r13
000001e2 dc6a           1513 	shl	28,r13
000001e4 9e6a           1514 	shr	30,r13
000001e6 cb6a           1515 	shl	11,r13
000001e8 0d09           1516 	or	r13,r1
                        1517 --652:     reg_val    |= ((uint32_t) PllCfgReg->SSMode << 13u);
000001ea 6168           1518 	sld.bu	1[ep],r13
000001ec da6a           1519 	shl	26,r13
000001ee 9e6a           1520 	shr	30,r13
000001f0 cd6a           1521 	shl	13,r13
000001f2 0d09           1522 	or	r13,r1
                        1523 --653:     reg_val    |= ((uint32_t) PllCfgReg->NF     << 16u);
000001f4 006d           1524 	sld.w	0[ep],r13
000001f6 ce6a           1525 	shl	14,r13
000001f8 9c6a           1526 	shr	28,r13
000001fa d06a           1527 	shl	16,r13
000001fc 0d09           1528 	or	r13,r1
                        1529 --654:     reg_val    |= ((uint32_t) PllCfgReg->SSPerc << 20u);
000001fe 6268           1530 	sld.bu	2[ep],r13
00000200 db6a           1531 	shl	27,r13
00000202 9d6a           1532 	shr	29,r13
00000204 d46a           1533 	shl	20,r13
00000206 0d09           1534 	or	r13,r1
                        1535 --655:     reg_val    |= ((uint32_t) PllCfgReg->SMFreq << 24u);
00000208 7168           1536 	sld.hu	2[ep],r13
0000020a d66a           1537 	shl	22,r13
0000020c 9b6a           1538 	shr	27,r13
0000020e d86a           1539 	shl	24,r13
00000210 0d09           1540 	or	r13,r1
                        1541 --656:     reg_val    |= ((uint32_t) PllCfgReg->FVV    << 29u);

                                                                      Page 27
                                                              C:\Users\Frank\AppData\Local\Temp\gh_0000p9g1.si
00000212 6368           1542 	sld.bu	3[ep],r13
00000214 db6a           1543 	shl	27,r13
00000216 9d6a           1544 	shr	29,r13
00000218 dd6a           1545 	shl	29,r13
0000021a 0d09           1546 	or	r13,r1
                        1547 --658:     /* Write the value */
                        1548 --659:     addr    = loc_Base[Pll] + LOC_GEN_C;
0000021c 0c68           1549 	mov	r12,r13
0000021e c26a           1550 	shl	2,r13
00000220 2b0600000000*  1551 	mov	_loc_Base,r11
00000226 cb69           1552 	add	r11,r13
00000228 2d770100       1553 	ld.w	0[r13],r14
0000022c 4872           1554 	add	8,r14
                        1555 --660:     R_DEV_WRITE_REG(32, addr, reg_val);
0000022e 6e0f0100       1556 	st.w	r1,0[r14]
                        1557 --661: }
                        1558 --	    .ef
                        1559 .LDW41:
00000232 7f00           1560 	jmp	[lp]
                        1561 	.type	_loc_WritePllCfg,@function
                        1562 	.size	_loc_WritePllCfg,.-_loc_WritePllCfg
                        1563 	.type	_loc_WritePllCfg..C.3A.5Cgit.5Crh850.5Csrc.5Capp.5Cgfx_apps.5Csimple_draw.5Ctarget.5Cd1mx_mango_ghs.5Cobj.5Cr_dev_clk.,@function
                        1564 	.size	_loc_WritePllCfg..C.3A.5Cgit.5Crh850.5Csrc.5Capp.5Cgfx_apps.5Csimple_draw.5Ctarget.5Cd1mx_mango_ghs.5Cobj.5Cr_dev_clk.,.-_loc_WritePllCfg..C.3A.5Cgit.5Crh850.5Csrc.5Capp.5Cgfx_apps.5Csimple_draw.5Ctarget.5Cd1mx_mango_ghs.5Cobj.5Cr_dev_clk.
                        1565 	.align	2
                        1566 .LDW51:
                        1567 --_addr	r14	local
                        1568 --_reg_val	r1	local
                        1569 
                        1570 --_Pll	r12	param
                        1571 --_PllCfgReg	ep	param
                        1572 
                        1573 	.section ".bss","awb"
                        1574 .L350:
                        1575 	.type	.L350,@object
                        1576 	.size	.L350,0
                        1577 	.data
                        1578 	.text
                        1579 
                        1580 
                        1581 --664: /*******************************************************************************
                        1582 --665:   Function: loc_CalcSscgPll0
                        1583 --666:   Calculate the right paramaters to set the SSCG function for PLL0
                        1584 --667:     
                        1585 --668:     Parameters:
                        1586 --669:     FrqIn         - input frequency in KHz
                        1587 --670:     PllCfgReg     - pointer to PLLC register structure, see <loc_PllCfgReg_t>
                        1588 --671:     PllCfg        - pointer to PLLC config structure, see <r_dev_PllCfg_t>
                        1589 --672:     
                        1590 --673:     Returns:
                        1591 --674:        == R_ERR_OK - found apropriate settings
                        1592 --675:        != R_ERR_OK - no matching parameters found
                        1593 --676:     
                        1594 --677:     
                        1595 --678: */
                        1596 --679: static r_Error_t loc_CalcSscgPll0(uint32_t FrqIn, loc_PllCfgReg_t *PllCfgReg, const r_dev_PllCfg_t *PllCfg)
                        1597 	.align	2
                        1598 	.align	2
                        1599 	.global	_loc_CalcSscgPll0..C.3A.5Cgit.5Crh850.5Csrc.5Capp.5Cgfx_apps.5Csimple_draw.5Ctarget.5Cd1mx_mango_ghs.5Cobj.5Cr_dev_clk.
                        1600 _loc_CalcSscgPll0..C.3A.5Cgit.5Crh850.5Csrc.5Capp.5Cgfx_apps.5Csimple_draw.5Ctarget.5Cd1mx_mango_ghs.5Cobj.5Cr_dev_clk.:
                        1601 _loc_CalcSscgPll0:
00000234 8007c100       1602 	prepare	{r28,r29},0

                                                                      Page 28
                                                              C:\Users\Frank\AppData\Local\Temp\gh_0000p9g1.si
00000238 0648           1603 	mov	r6,r9
0000023a 07f0           1604 	mov	r7,ep
0000023c 0870           1605 	mov	r8,r14
                        1606 --	    .bf
                        1607 .LDW61:
                        1608 --680: {
                        1609 --682:     uint32_t  vc_in  = 0;
0000023e 006a           1610 	mov	0,r13
                        1611 --683:     uint16_t  d_r    = 0;
00000240 0062           1612 	mov	0,r12
                        1613 --684:     uint32_t  i      = 0;
00000242 000a           1614 	mov	0,r1
                        1615 --685:     uint16_t  perc   = 0;
00000244 005a           1616 	mov	0,r11
                        1617 --686:     r_Error_t retval = R_ERR_OK;
00000246 00ea           1618 	mov	0,r29
                        1619 --688:     if (R_DEV_PLL_DITH_CENTER == PllCfg->DithMode)
00000248 2e570500       1620 	ld.w	4[r14],r10
0000024c 6452           1621 	cmp	4,r10
0000024e ea15*          1622 	bne	.L400
                        1623 --689:     {
                        1624 --690:         PllCfgReg->SSMode    = 3u;
                        1625 --line690
                        1626 ..lin.C.3A.5Cgit.5Crh850.5Csrc.5Capp.5Cgfx_apps.5Csimple_draw.5Ctarget.5Cd1mx_mango_ghs.5Cobj.5Cr_dev_clk.12::
                        1627 .LDWlin12:
00000250 6150           1628 	sld.bu	1[ep],r10
00000252 8a563000       1629 	ori	48,r10,r10
00000256 8153           1630 	sst.b	r10,1[ep]
                        1631 --691:         if ((0 < PllCfg->DithRange) && (PllCfg->DithRange < 6))
00000258 8e570900       1632 	ld.bu	8[r14],r10
0000025c e051           1633 	cmp	zero,r10
0000025e c20d*          1634 	be	.L402
00000260 8e570900       1635 	ld.bu	8[r14],r10
00000264 6652           1636 	cmp	6,r10
00000266 890d*          1637 	bnl	.L402
                        1638 --692:         {
                        1639 --693:             perc = PllCfg->DithRange * 2u;
                        1640 --line693
                        1641 ..lin.C.3A.5Cgit.5Crh850.5Csrc.5Capp.5Cgfx_apps.5Csimple_draw.5Ctarget.5Cd1mx_mango_ghs.5Cobj.5Cr_dev_clk.13::
                        1642 .LDWlin13:
00000268 8e570900       1643 	ld.bu	8[r14],r10
0000026c c152           1644 	shl	1,r10
0000026e ca5effff       1645 	andi	65535,r10,r11
00000272 cb00           1646 	zxh	r11
00000274 d515*          1647 	br	.L407
                        1648 .L402:
                        1649 --694:         }
                        1650 --695:         else
                        1651 --696:         {
                        1652 --697:             return R_PARAMETER_INCORRECT;
                        1653 --line697
                        1654 ..lin.C.3A.5Cgit.5Crh850.5Csrc.5Capp.5Cgfx_apps.5Csimple_draw.5Ctarget.5Cd1mx_mango_ghs.5Cobj.5Cr_dev_clk.14::
                        1655 .LDWlin14:
00000276 0452           1656 	mov	4,r10
00000278 956d*          1657 	br	.L398
                        1658 .L400:
                        1659 --698:         }
                        1660 --699:     }
                        1661 --700:     else
                        1662 --701:     {
                        1663 --702:         PllCfgReg->SSMode    = 2u;

                                                                      Page 29
                                                              C:\Users\Frank\AppData\Local\Temp\gh_0000p9g1.si
                        1664 --line702
                        1665 ..lin.C.3A.5Cgit.5Crh850.5Csrc.5Capp.5Cgfx_apps.5Csimple_draw.5Ctarget.5Cd1mx_mango_ghs.5Cobj.5Cr_dev_clk.15::
                        1666 .LDWlin15:
0000027a 6150           1667 	sld.bu	1[ep],r10
0000027c 02e2           1668 	mov	2,r28
0000027e fc57d850       1669 	bins	r28,4,2,r10
00000282 8153           1670 	sst.b	r10,1[ep]
                        1671 --703:         if ((0 < PllCfg->DithRange) && (PllCfg->DithRange < 11))
00000284 8e570900       1672 	ld.bu	8[r14],r10
00000288 e051           1673 	cmp	zero,r10
0000028a 820d*          1674 	be	.L408
0000028c 8e570900       1675 	ld.bu	8[r14],r10
00000290 6b52           1676 	cmp	11,r10
00000292 c905*          1677 	bnl	.L408
                        1678 --704:         {
                        1679 --705:             perc = PllCfg->DithRange;
                        1680 --line705
                        1681 ..lin.C.3A.5Cgit.5Crh850.5Csrc.5Capp.5Cgfx_apps.5Csimple_draw.5Ctarget.5Cd1mx_mango_ghs.5Cobj.5Cr_dev_clk.16::
                        1682 .LDWlin16:
00000294 8e5f0900       1683 	ld.bu	8[r14],r11
00000298 b505*          1684 	br	.L407
                        1685 .L408:
                        1686 --706:         }
                        1687 --707:         else
                        1688 --708:         {
                        1689 --709:             return R_PARAMETER_INCORRECT;
                        1690 --line709
                        1691 ..lin.C.3A.5Cgit.5Crh850.5Csrc.5Capp.5Cgfx_apps.5Csimple_draw.5Ctarget.5Cd1mx_mango_ghs.5Cobj.5Cr_dev_clk.17::
                        1692 .LDWlin17:
0000029a 0452           1693 	mov	4,r10
0000029c f555*          1694 	br	.L398
                        1695 .L407:
                        1696 --710:         }
                        1697 --711:     }
                        1698 --712:     d_r = 0;
                        1699 --line712
                        1700 ..lin.C.3A.5Cgit.5Crh850.5Csrc.5Capp.5Cgfx_apps.5Csimple_draw.5Ctarget.5Cd1mx_mango_ghs.5Cobj.5Cr_dev_clk.18::
                        1701 .LDWlin18:
0000029e 0062           1702 	mov	0,r12
                        1703 --713:     if(PllCfgReg->M != 0)
000002a0 6150           1704 	sld.bu	1[ep],r10
000002a2 ca060c00       1705 	andi	12,r10,zero
000002a6 820d*          1706 	be	.L413
                        1707 --714:     {
                        1708 --715:         vc_in = FrqIn / PllCfgReg->M;
                        1709 --line715
                        1710 ..lin.C.3A.5Cgit.5Crh850.5Csrc.5Capp.5Cgfx_apps.5Csimple_draw.5Ctarget.5Cd1mx_mango_ghs.5Cobj.5Cr_dev_clk.19::
                        1711 .LDWlin19:
000002a8 6150           1712 	sld.bu	1[ep],r10
000002aa 0968           1713 	mov	r9,r13
000002ac dc52           1714 	shl	28,r10
000002ae 9e52           1715 	shr	30,r10
000002b0 ea6ffe02       1716 	divqu	r10,r13,zero
000002b4 a505*          1717 	br	.L415
                        1718 .L413:
                        1719 --716:     }
                        1720 --717:     else
                        1721 --718:     {
                        1722 --719:         vc_in = FrqIn;
                        1723 --line719
                        1724 ..lin.C.3A.5Cgit.5Crh850.5Csrc.5Capp.5Cgfx_apps.5Csimple_draw.5Ctarget.5Cd1mx_mango_ghs.5Cobj.5Cr_dev_clk.20::

                                                                      Page 30
                                                              C:\Users\Frank\AppData\Local\Temp\gh_0000p9g1.si
                        1725 .LDWlin20:
000002b6 0968           1726 	mov	r9,r13
                        1727 .L415:
                        1728 --720:     }
                        1729 --721:     /* F_mod = vc_in / (4* Dr)
                        1730 --722:        Dr    = vc_in / (4 * f_mod)
                        1731 --723:     */
                        1732 --724:     if ((PllCfg->ModFreq > 19u) && (PllCfg->ModFreq < 101u))
000002b8 2e570d00       1733 	ld.w	12[r14],r10
000002bc 0a06ecff       1734 	addi	-20,r10,zero
000002c0 8915*          1735 	bnl	.L416
000002c2 2e570d00       1736 	ld.w	12[r14],r10
000002c6 0a069bff       1737 	addi	-101,r10,zero
000002ca b10d*          1738 	bl	.L416
                        1739 --725:      {
                        1740 --726:         d_r = vc_in  / (4u * PllCfg->ModFreq);
                        1741 --line726
                        1742 ..lin.C.3A.5Cgit.5Crh850.5Csrc.5Capp.5Cgfx_apps.5Csimple_draw.5Ctarget.5Cd1mx_mango_ghs.5Cobj.5Cr_dev_clk.21::
                        1743 .LDWlin21:
000002cc 2e570d00       1744 	ld.w	12[r14],r10
000002d0 0de0           1745 	mov	r13,r28
000002d2 c252           1746 	shl	2,r10
000002d4 eae7fe02       1747 	divqu	r10,r28,zero
000002d8 dc66ffff       1748 	andi	65535,r28,r12
000002dc cc00           1749 	zxh	r12
000002de b505*          1750 	br	.L419
                        1751 .L416:
                        1752 --727:         
                        1753 --728:     }
                        1754 --729:     else
                        1755 --730:     {
                        1756 --731:         return R_PARAMETER_INCORRECT;
                        1757 --line731
                        1758 ..lin.C.3A.5Cgit.5Crh850.5Csrc.5Capp.5Cgfx_apps.5Csimple_draw.5Ctarget.5Cd1mx_mango_ghs.5Cobj.5Cr_dev_clk.22::
                        1759 .LDWlin22:
000002e0 0452           1760 	mov	4,r10
000002e2 c535*          1761 	br	.L398
                        1762 .L419:
                        1763 --732:     }
                        1764 --733:     for (i = 0; i < 32; i ++)
                        1765 --line733
                        1766 ..lin.C.3A.5Cgit.5Crh850.5Csrc.5Capp.5Cgfx_apps.5Csimple_draw.5Ctarget.5Cd1mx_mango_ghs.5Cobj.5Cr_dev_clk.23::
                        1767 .LDWlin23:
000002e4 000a           1768 	mov	0,r1
000002e6 0000           1769 	nop
                        1770 .L423:
                        1771 --734:     {
                        1772 --735:         if (loc_SscgDiv[i] >= d_r)
000002e8 0150           1773 	mov	r1,r10
000002ea c152           1774 	shl	1,r10
000002ec 3c0600000000*  1775 	mov	_loc_SscgDiv,r28
000002f2 dc51           1776 	add	r28,r10
000002f4 ea570100       1777 	ld.hu	0[r10],r10
000002f8 ec51           1778 	cmp	r12,r10
000002fa a105*          1779 	bl	.L424
                        1780 --736:         {
                        1781 --737:             break;
                        1782 --line737
                        1783 ..lin.C.3A.5Cgit.5Crh850.5Csrc.5Capp.5Cgfx_apps.5Csimple_draw.5Ctarget.5Cd1mx_mango_ghs.5Cobj.5Cr_dev_clk.24::
                        1784 .LDWlin24:
000002fc d505*          1785 	br	.L426

                                                                      Page 31
                                                              C:\Users\Frank\AppData\Local\Temp\gh_0000p9g1.si
                        1786 .L424:
                        1787 --line733
                        1788 ..lin.C.3A.5Cgit.5Crh850.5Csrc.5Capp.5Cgfx_apps.5Csimple_draw.5Ctarget.5Cd1mx_mango_ghs.5Cobj.5Cr_dev_clk.25::
                        1789 .LDWlin25:
000002fe 410a           1790 	add	1,r1
00000300 0106e0ff       1791 	addi	-32,r1,zero
00000304 a9f5*          1792 	bnl	.L423
                        1793 .L426:
                        1794 --738:         }
                        1795 --739:     }
                        1796 --740:     /* check if the search was successfull */
                        1797 --741:     if (i < 32)
                        1798 --line741
                        1799 ..lin.C.3A.5Cgit.5Crh850.5Csrc.5Capp.5Cgfx_apps.5Csimple_draw.5Ctarget.5Cd1mx_mango_ghs.5Cobj.5Cr_dev_clk.26::
                        1800 .LDWlin26:
00000306 0106e0ff       1801 	addi	-32,r1,zero
0000030a e105*          1802 	bl	.L428
                        1803 --742:     {
                        1804 --743:         /* Yes, we found some */
                        1805 --744:         PllCfgReg->SMFreq = i;
                        1806 --line744
                        1807 ..lin.C.3A.5Cgit.5Crh850.5Csrc.5Capp.5Cgfx_apps.5Csimple_draw.5Ctarget.5Cd1mx_mango_ghs.5Cobj.5Cr_dev_clk.27::
                        1808 .LDWlin27:
0000030c 7150           1809 	sld.hu	2[ep],r10
0000030e e157da90       1810 	bins	r1,5,5,r10
00000312 8154           1811 	sst.h	r10,2[ep]
00000314 b505*          1812 	br	.L430
                        1813 .L428:
                        1814 --745:     }
                        1815 --746:     else
                        1816 --747:     {
                        1817 --748:         return R_PARAMETER_INCORRECT;
                        1818 --line748
                        1819 ..lin.C.3A.5Cgit.5Crh850.5Csrc.5Capp.5Cgfx_apps.5Csimple_draw.5Ctarget.5Cd1mx_mango_ghs.5Cobj.5Cr_dev_clk.28::
                        1820 .LDWlin28:
00000316 0452           1821 	mov	4,r10
00000318 951d*          1822 	br	.L398
                        1823 .L430:
                        1824 --749:     }
                        1825 --750:     for (i = 0; i < 8; i ++)
                        1826 --line750
                        1827 ..lin.C.3A.5Cgit.5Crh850.5Csrc.5Capp.5Cgfx_apps.5Csimple_draw.5Ctarget.5Cd1mx_mango_ghs.5Cobj.5Cr_dev_clk.29::
                        1828 .LDWlin29:
0000031a 000a           1829 	mov	0,r1
0000031c 0000           1830 	nop
                        1831 .L434:
                        1832 --751:     {
                        1833 --752:         if (loc_SscgPercent[i] >= perc)
0000031e 2a0600000000*  1834 	mov	_loc_SscgPercent,r10
00000324 c151           1835 	add	r1,r10
00000326 8a570100       1836 	ld.bu	0[r10],r10
0000032a eb51           1837 	cmp	r11,r10
0000032c a105*          1838 	bl	.L435
                        1839 --753:         {
                        1840 --754:             break;
                        1841 --line754
                        1842 ..lin.C.3A.5Cgit.5Crh850.5Csrc.5Capp.5Cgfx_apps.5Csimple_draw.5Ctarget.5Cd1mx_mango_ghs.5Cobj.5Cr_dev_clk.30::
                        1843 .LDWlin30:
0000032e c505*          1844 	br	.L437
                        1845 .L435:
                        1846 --line750

                                                                      Page 32
                                                              C:\Users\Frank\AppData\Local\Temp\gh_0000p9g1.si
                        1847 ..lin.C.3A.5Cgit.5Crh850.5Csrc.5Capp.5Cgfx_apps.5Csimple_draw.5Ctarget.5Cd1mx_mango_ghs.5Cobj.5Cr_dev_clk.31::
                        1848 .LDWlin31:
00000330 410a           1849 	add	1,r1
00000332 680a           1850 	cmp	8,r1
00000334 d1f5*          1851 	bl	.L434
                        1852 .L437:
                        1853 --755:         }
                        1854 --756:     }
                        1855 --757:     if (i < 8)
                        1856 --line757
                        1857 ..lin.C.3A.5Cgit.5Crh850.5Csrc.5Capp.5Cgfx_apps.5Csimple_draw.5Ctarget.5Cd1mx_mango_ghs.5Cobj.5Cr_dev_clk.32::
                        1858 .LDWlin32:
00000336 680a           1859 	cmp	8,r1
00000338 e905*          1860 	bnl	.L439
                        1861 --758:     {
                        1862 --759:         /* Yes, we found some */
                        1863 --760:         PllCfgReg->SSPerc    = i;
                        1864 --line760
                        1865 ..lin.C.3A.5Cgit.5Crh850.5Csrc.5Capp.5Cgfx_apps.5Csimple_draw.5Ctarget.5Cd1mx_mango_ghs.5Cobj.5Cr_dev_clk.33::
                        1866 .LDWlin33:
0000033a 6250           1867 	sld.bu	2[ep],r10
0000033c e157d440       1868 	bins	r1,2,3,r10
00000340 8253           1869 	sst.b	r10,2[ep]
00000342 b505*          1870 	br	.L441
                        1871 .L439:
                        1872 --761:     }
                        1873 --762:     else
                        1874 --763:     {
                        1875 --764:         return R_PARAMETER_INCORRECT;
                        1876 --line764
                        1877 ..lin.C.3A.5Cgit.5Crh850.5Csrc.5Capp.5Cgfx_apps.5Csimple_draw.5Ctarget.5Cd1mx_mango_ghs.5Cobj.5Cr_dev_clk.34::
                        1878 .LDWlin34:
00000344 0452           1879 	mov	4,r10
00000346 a505*          1880 	br	.L398
                        1881 .L441:
                        1882 --765:     }
                        1883 --766:     return retval;
                        1884 --line766
                        1885 ..lin.C.3A.5Cgit.5Crh850.5Csrc.5Capp.5Cgfx_apps.5Csimple_draw.5Ctarget.5Cd1mx_mango_ghs.5Cobj.5Cr_dev_clk.35::
                        1886 .LDWlin35:
00000348 1d50           1887 	mov	r29,r10
                        1888 .L398:
                        1889 --	    .ef
                        1890 .LDW71:
0000034a 4006df00       1891 	dispose	0,{r28,r29},[lp]
                        1892 	.type	_loc_CalcSscgPll0,@function
                        1893 	.size	_loc_CalcSscgPll0,.-_loc_CalcSscgPll0
                        1894 	.type	_loc_CalcSscgPll0..C.3A.5Cgit.5Crh850.5Csrc.5Capp.5Cgfx_apps.5Csimple_draw.5Ctarget.5Cd1mx_mango_ghs.5Cobj.5Cr_dev_clk.,@function
                        1895 	.size	_loc_CalcSscgPll0..C.3A.5Cgit.5Crh850.5Csrc.5Capp.5Cgfx_apps.5Csimple_draw.5Ctarget.5Cd1mx_mango_ghs.5Cobj.5Cr_dev_clk.,.-_loc_CalcSscgPll0..C.3A.5Cgit.5Crh850.5Csrc.5Capp.5Cgfx_apps.5Csimple_draw.5Ctarget.5Cd1mx_mango_ghs.5Cobj.5Cr_dev_clk.
                        1896 	.align	2
                        1897 .LDW81:
                        1898 --_vc_in	r13	local
                        1899 --_d_r	r12	local
                        1900 --_i	r1	local
                        1901 --_perc	r11	local
                        1902 --_retval	r29	local
                        1903 
                        1904 --_FrqIn	r9	param
                        1905 --_PllCfgReg	ep	param
                        1906 --_PllCfg	r14	param
                        1907 

                                                                      Page 33
                                                              C:\Users\Frank\AppData\Local\Temp\gh_0000p9g1.si
                        1908 	.section ".bss","awb"
                        1909 .L630:
                        1910 	.type	.L630,@object
                        1911 	.size	.L630,0
                        1912 	.data
                        1913 	.text
                        1914 
                        1915 --767: }
                        1916 
                        1917 --770: /*******************************************************************************
                        1918 --771:   Function: loc_CalcFreqPlln
                        1919 --772:     Calculate the right paramaters to set the desired PLL Frequency
                        1920 --773:     
                        1921 --774:     Parameters:
                        1922 --775:     FrqIn         - input frequency in MHz
                        1923 --776:     PllCfgReg     - pointer to PLLC register structure, see <loc_PllCfgReg_t>
                        1924 --777:     *FreqOut      - desired output frequency in Mhz
                        1925 --778:     
                        1926 --779:     Returns:
                        1927 --780:        == R_ERR_OK - found apropriate settings
                        1928 --781:        != R_ERR_OK - no matching parameters found
                        1929 --782:     
                        1930 --783:     
                        1931 --784: */
                        1932 --785: static r_Error_t loc_CalcFreqPll0(uint32_t FrqIn, loc_PllCfgReg_t * PllCfgReg, uint32_t *FrqOut)
                        1933 	.align	2
                        1934 	.align	2
                        1935 	.global	_loc_CalcFreqPll0..C.3A.5Cgit.5Crh850.5Csrc.5Capp.5Cgfx_apps.5Csimple_draw.5Ctarget.5Cd1mx_mango_ghs.5Cobj.5Cr_dev_clk.
                        1936 _loc_CalcFreqPll0..C.3A.5Cgit.5Crh850.5Csrc.5Capp.5Cgfx_apps.5Csimple_draw.5Ctarget.5Cd1mx_mango_ghs.5Cobj.5Cr_dev_clk.:
                        1937 _loc_CalcFreqPll0:
0000034e 8007c170       1938 	prepare	{r25,r26,r27,r28,r29},0
00000352 0650           1939 	mov	r6,r10
00000354 07f0           1940 	mov	r7,ep
00000356 08e8           1941 	mov	r8,r29
                        1942 --	    .bf
                        1943 .LDW91:
                        1944 --786: {
                        1945 --788:     /* Caculate the right values */
                        1946 --789:     /*F = (Fx * Nr) / (Mr * Pr) :
                        1947 --790:       Mr = PLLkC.M[1:0] + 1
                        1948 --791:       Pr = 1, 2, 3, 4, 8 16
                        1949 --792:       P[2:0]  = log_2(Pr); 2^(P[]) = Pr
                        1950 --793:       Nr = PLLkC.NI + 1 + PLLkC.NF.
                        1951 --794:       We set PLLkC.NF to 0
                        1952 --795:       Nr = PLLkC.NI + 1
                        1953 --796:       PLL0:
                        1954 --797:       NI[6:0] = Nr - 1
                        1955 --798:       PLL1:
                        1956 --799:       NI[6:0] = Nr/2 - 1
                        1957 --800:     */
                        1958 --801:     uint32_t  p_r    = 0;
00000358 0072           1959 	mov	0,r14
                        1960 --802:     uint32_t  m_r    = 0;
0000035a 0062           1961 	mov	0,r12
                        1962 --803:     uint32_t  n_r    = 0;
0000035c 006a           1963 	mov	0,r13
                        1964 --804:     uint32_t  freq   = 0;
0000035e 000a           1965 	mov	0,r1
                        1966 --805:     uint32_t  vc_out = 0;
00000360 00e2           1967 	mov	0,r28
                        1968 --806:     uint32_t  i      = 1;

                                                                      Page 34
                                                              C:\Users\Frank\AppData\Local\Temp\gh_0000p9g1.si
00000362 015a           1969 	mov	1,r11
                        1970 --807:     r_Error_t retval = R_NG;
00000364 014a           1971 	mov	1,r9
                        1972 --809:     PllCfgReg->NI    = 0;
00000366 60d8           1973 	sld.bu	0[ep],r27
00000368 dbde8000       1974 	andi	128,r27,r27
0000036c 80db           1975 	sst.b	r27,0[ep]
                        1976 --810:     PllCfgReg->P     = 0;
0000036e 70d8           1977 	sld.hu	0[ep],r27
00000370 dbde7ffc       1978 	andi	64639,r27,r27
00000374 80dc           1979 	sst.h	r27,0[ep]
                        1980 --811:     PllCfgReg->M     = 0;
00000376 61d8           1981 	sld.bu	1[ep],r27
00000378 dbdef300       1982 	andi	243,r27,r27
0000037c 81db           1983 	sst.b	r27,1[ep]
                        1984 --813:     freq = *FrqOut;
0000037e 3d0f0100       1985 	ld.w	0[r29],r1
                        1986 --815:     if (freq > 480u)
00000382 01061ffe       1987 	addi	-481,r1,zero
00000386 c905*          1988 	bnl	.L770
                        1989 --816:     {
                        1990 --817:         /* the desired frequency is not valid */
                        1991 --818:         return R_PARAMETER_INCORRECT;
                        1992 --line818
                        1993 ..lin.C.3A.5Cgit.5Crh850.5Csrc.5Capp.5Cgfx_apps.5Csimple_draw.5Ctarget.5Cd1mx_mango_ghs.5Cobj.5Cr_dev_clk.36::
                        1994 .LDWlin36:
00000388 04da           1995 	mov	4,r27
0000038a 80074001*      1996 	br	.L768
                        1997 .L770:
                        1998 --819:     }
                        1999 --820:     else if (freq > 320u)
                        2000 --line820
                        2001 ..lin.C.3A.5Cgit.5Crh850.5Csrc.5Capp.5Cgfx_apps.5Csimple_draw.5Ctarget.5Cd1mx_mango_ghs.5Cobj.5Cr_dev_clk.37::
                        2002 .LDWlin37:
0000038e 0106bffe       2003 	addi	-321,r1,zero
00000392 f905*          2004 	bnl	.L774
                        2005 --821:     {
                        2006 --822:         p_r = 1u;
                        2007 --line822
                        2008 ..lin.C.3A.5Cgit.5Crh850.5Csrc.5Capp.5Cgfx_apps.5Csimple_draw.5Ctarget.5Cd1mx_mango_ghs.5Cobj.5Cr_dev_clk.38::
                        2009 .LDWlin38:
00000394 0172           2010 	mov	1,r14
                        2011 --823:         PllCfgReg->P = 0;
00000396 70d8           2012 	sld.hu	0[ep],r27
00000398 dbde7ffc       2013 	andi	64639,r27,r27
0000039c 80dc           2014 	sst.h	r27,0[ep]
0000039e c52d*          2015 	br	.L773
                        2016 .L774:
                        2017 --824:     }
                        2018 --825:     else if (freq > 160u)
                        2019 --line825
                        2020 ..lin.C.3A.5Cgit.5Crh850.5Csrc.5Capp.5Cgfx_apps.5Csimple_draw.5Ctarget.5Cd1mx_mango_ghs.5Cobj.5Cr_dev_clk.39::
                        2021 .LDWlin39:
000003a0 01065fff       2022 	addi	-161,r1,zero
000003a4 890d*          2023 	bnl	.L777
                        2024 --826:     {
                        2025 --827:         p_r = 2;
                        2026 --line827
                        2027 ..lin.C.3A.5Cgit.5Crh850.5Csrc.5Capp.5Cgfx_apps.5Csimple_draw.5Ctarget.5Cd1mx_mango_ghs.5Cobj.5Cr_dev_clk.40::
                        2028 .LDWlin40:
000003a6 0272           2029 	mov	2,r14

                                                                      Page 35
                                                              C:\Users\Frank\AppData\Local\Temp\gh_0000p9g1.si
                        2030 --828:         PllCfgReg->P = 1u;
000003a8 70d8           2031 	sld.hu	0[ep],r27
000003aa 01d2           2032 	mov	1,r26
000003ac fadfde90       2033 	bins	r26,7,3,r27
000003b0 80dc           2034 	sst.h	r27,0[ep]
000003b2 a525*          2035 	br	.L773
                        2036 .L777:
                        2037 --829:     }
                        2038 --830:     else if (freq > 80u)
                        2039 --line830
                        2040 ..lin.C.3A.5Cgit.5Crh850.5Csrc.5Capp.5Cgfx_apps.5Csimple_draw.5Ctarget.5Cd1mx_mango_ghs.5Cobj.5Cr_dev_clk.41::
                        2041 .LDWlin41:
000003b4 0106afff       2042 	addi	-81,r1,zero
000003b8 890d*          2043 	bnl	.L780
                        2044 --831:     {
                        2045 --832:         p_r = 4u;
                        2046 --line832
                        2047 ..lin.C.3A.5Cgit.5Crh850.5Csrc.5Capp.5Cgfx_apps.5Csimple_draw.5Ctarget.5Cd1mx_mango_ghs.5Cobj.5Cr_dev_clk.42::
                        2048 .LDWlin42:
000003ba 0472           2049 	mov	4,r14
                        2050 --833:         PllCfgReg->P = 2u;
000003bc 70d8           2051 	sld.hu	0[ep],r27
000003be 02d2           2052 	mov	2,r26
000003c0 fadfde90       2053 	bins	r26,7,3,r27
000003c4 80dc           2054 	sst.h	r27,0[ep]
000003c6 851d*          2055 	br	.L773
                        2056 .L780:
                        2057 --834:     }
                        2058 --835:     else if (freq > 40u)
                        2059 --line835
                        2060 ..lin.C.3A.5Cgit.5Crh850.5Csrc.5Capp.5Cgfx_apps.5Csimple_draw.5Ctarget.5Cd1mx_mango_ghs.5Cobj.5Cr_dev_clk.43::
                        2061 .LDWlin43:
000003c8 0106d7ff       2062 	addi	-41,r1,zero
000003cc 890d*          2063 	bnl	.L783
                        2064 --836:     {
                        2065 --837:         p_r = 8;
                        2066 --line837
                        2067 ..lin.C.3A.5Cgit.5Crh850.5Csrc.5Capp.5Cgfx_apps.5Csimple_draw.5Ctarget.5Cd1mx_mango_ghs.5Cobj.5Cr_dev_clk.44::
                        2068 .LDWlin44:
000003ce 0872           2069 	mov	8,r14
                        2070 --838:         PllCfgReg->P = 3u;
000003d0 70d8           2071 	sld.hu	0[ep],r27
000003d2 03d2           2072 	mov	3,r26
000003d4 fadfde90       2073 	bins	r26,7,3,r27
000003d8 80dc           2074 	sst.h	r27,0[ep]
000003da e50d*          2075 	br	.L773
                        2076 .L783:
                        2077 --839:     }
                        2078 --840:     else if (freq > 20u)
                        2079 --line840
                        2080 ..lin.C.3A.5Cgit.5Crh850.5Csrc.5Capp.5Cgfx_apps.5Csimple_draw.5Ctarget.5Cd1mx_mango_ghs.5Cobj.5Cr_dev_clk.45::
                        2081 .LDWlin45:
000003dc 0106ebff       2082 	addi	-21,r1,zero
000003e0 990d*          2083 	bnl	.L786
                        2084 --841:     {
                        2085 --842:         p_r = 16u;
                        2086 --line842
                        2087 ..lin.C.3A.5Cgit.5Crh850.5Csrc.5Capp.5Cgfx_apps.5Csimple_draw.5Ctarget.5Cd1mx_mango_ghs.5Cobj.5Cr_dev_clk.46::
                        2088 .LDWlin46:
000003e2 20761000       2089 	movea	16,zero,r14
                        2090 --843:         PllCfgReg->P = 4u;

                                                                      Page 36
                                                              C:\Users\Frank\AppData\Local\Temp\gh_0000p9g1.si
000003e6 70d8           2091 	sld.hu	0[ep],r27
000003e8 04d2           2092 	mov	4,r26
000003ea fadfde90       2093 	bins	r26,7,3,r27
000003ee 80dc           2094 	sst.h	r27,0[ep]
000003f0 b505*          2095 	br	.L773
                        2096 .L786:
                        2097 --844:     }
                        2098 --845:     else
                        2099 --846:     {
                        2100 --847:         /* the desired frequency is not valid */
                        2101 --848:         return R_PARAMETER_INCORRECT;
                        2102 --line848
                        2103 ..lin.C.3A.5Cgit.5Crh850.5Csrc.5Capp.5Cgfx_apps.5Csimple_draw.5Ctarget.5Cd1mx_mango_ghs.5Cobj.5Cr_dev_clk.47::
                        2104 .LDWlin47:
000003f2 04da           2105 	mov	4,r27
000003f4 b56d*          2106 	br	.L768
                        2107 .L773:
                        2108 --849:     }
                        2109 --851:     if (24u == FrqIn)
                        2110 --line851
                        2111 ..lin.C.3A.5Cgit.5Crh850.5Csrc.5Capp.5Cgfx_apps.5Csimple_draw.5Ctarget.5Cd1mx_mango_ghs.5Cobj.5Cr_dev_clk.48::
                        2112 .LDWlin48:
000003f6 0a06e8ff       2113 	addi	-24,r10,zero
000003fa ba05*          2114 	bne	.L790
                        2115 --852:     {
                        2116 --853:        m_r = 3u;
                        2117 --line853
                        2118 ..lin.C.3A.5Cgit.5Crh850.5Csrc.5Capp.5Cgfx_apps.5Csimple_draw.5Ctarget.5Cd1mx_mango_ghs.5Cobj.5Cr_dev_clk.49::
                        2119 .LDWlin49:
000003fc 0362           2120 	mov	3,r12
000003fe c50d*          2121 	br	.L792
                        2122 .L790:
                        2123 --854:     }
                        2124 --855:     else if (16u <= FrqIn)
                        2125 --line855
                        2126 ..lin.C.3A.5Cgit.5Crh850.5Csrc.5Capp.5Cgfx_apps.5Csimple_draw.5Ctarget.5Cd1mx_mango_ghs.5Cobj.5Cr_dev_clk.50::
                        2127 .LDWlin50:
00000400 0a06f0ff       2128 	addi	-16,r10,zero
00000404 b905*          2129 	bnl	.L793
                        2130 --856:     {
                        2131 --857:        m_r = 2u;
                        2132 --line857
                        2133 ..lin.C.3A.5Cgit.5Crh850.5Csrc.5Capp.5Cgfx_apps.5Csimple_draw.5Ctarget.5Cd1mx_mango_ghs.5Cobj.5Cr_dev_clk.51::
                        2134 .LDWlin51:
00000406 0262           2135 	mov	2,r12
00000408 f505*          2136 	br	.L792
                        2137 .L793:
                        2138 --858:     }
                        2139 --859:     else if  (8u <= FrqIn)
                        2140 --line859
                        2141 ..lin.C.3A.5Cgit.5Crh850.5Csrc.5Capp.5Cgfx_apps.5Csimple_draw.5Ctarget.5Cd1mx_mango_ghs.5Cobj.5Cr_dev_clk.52::
                        2142 .LDWlin52:
0000040a 6852           2143 	cmp	8,r10
0000040c b105*          2144 	bl	.L796
                        2145 --860:     {
                        2146 --861:        m_r = 1u;
                        2147 --line861
                        2148 ..lin.C.3A.5Cgit.5Crh850.5Csrc.5Capp.5Cgfx_apps.5Csimple_draw.5Ctarget.5Cd1mx_mango_ghs.5Cobj.5Cr_dev_clk.53::
                        2149 .LDWlin53:
0000040e 0162           2150 	mov	1,r12
00000410 b505*          2151 	br	.L792

                                                                      Page 37
                                                              C:\Users\Frank\AppData\Local\Temp\gh_0000p9g1.si
                        2152 .L796:
                        2153 --862:     }
                        2154 --863:     else
                        2155 --864:     {
                        2156 --865:         /* the input frequency is not valid */
                        2157 --866:         return R_PARAMETER_INCORRECT;
                        2158 --line866
                        2159 ..lin.C.3A.5Cgit.5Crh850.5Csrc.5Capp.5Cgfx_apps.5Csimple_draw.5Ctarget.5Cd1mx_mango_ghs.5Cobj.5Cr_dev_clk.54::
                        2160 .LDWlin54:
00000412 04da           2161 	mov	4,r27
00000414 b55d*          2162 	br	.L768
                        2163 .L792:
                        2164 --867:     }
                        2165 --868:     
                        2166 --869:     n_r = (freq * m_r * p_r)/FrqIn;
                        2167 --line869
                        2168 ..lin.C.3A.5Cgit.5Crh850.5Csrc.5Capp.5Cgfx_apps.5Csimple_draw.5Ctarget.5Cd1mx_mango_ghs.5Cobj.5Cr_dev_clk.55::
                        2169 .LDWlin55:
00000416 01d8           2170 	mov	r1,r27
00000418 ecdf2202       2171 	mulu	r12,r27,zero
0000041c eedf2202       2172 	mulu	r14,r27,zero
00000420 1b68           2173 	mov	r27,r13
00000422 ea6ffe02       2174 	divqu	r10,r13,zero
                        2175 --870:     /* we omit the check of Nr is even */
                        2176 --871:     /* as all parameters are even and we expect the frequency input to be even too */
                        2177 --872:     /* nr will be also even */
                        2178 --873:     /* do we have a valid parameter */
                        2179 --874:     if ((n_r > 11) && (n_r < 81) )
00000426 6b6a           2180 	cmp	11,r13
00000428 c33d*          2181 	bnh	.L800
0000042a 0d06afff       2182 	addi	-81,r13,zero
0000042e 913d*          2183 	bl	.L800
                        2184 --875:     {
                        2185 --876:         PllCfgReg->NI = (uint8_t) n_r - 1u ;
                        2186 --line876
                        2187 ..lin.C.3A.5Cgit.5Crh850.5Csrc.5Capp.5Cgfx_apps.5Csimple_draw.5Ctarget.5Cd1mx_mango_ghs.5Cobj.5Cr_dev_clk.56::
                        2188 .LDWlin56:
00000430 0dd8           2189 	mov	r13,r27
00000432 9b00           2190 	zxb	r27
00000434 1bd6ffff       2191 	addi	-1,r27,r26
00000438 60d8           2192 	sld.bu	0[ep],r27
0000043a fadfd060       2193 	bins	r26,0,7,r27
0000043e 80db           2194 	sst.b	r27,0[ep]
                        2195 --877:         PllCfgReg->M  = (uint8_t) m_r - 1u ;
00000440 0cd8           2196 	mov	r12,r27
00000442 9b00           2197 	zxb	r27
00000444 1bd6ffff       2198 	addi	-1,r27,r26
00000448 61d8           2199 	sld.bu	1[ep],r27
0000044a fadfd430       2200 	bins	r26,2,2,r27
0000044e 81db           2201 	sst.b	r27,1[ep]
                        2202 --878:         *FrqOut       = (FrqIn * n_r)/(m_r * p_r);
00000450 0ad8           2203 	mov	r10,r27
00000452 0cc8           2204 	mov	r12,r25
00000454 eddf2202       2205 	mulu	r13,r27,zero
00000458 eecf2202       2206 	mulu	r14,r25,zero
0000045c f9dffe02       2207 	divqu	r25,r27,zero
00000460 7ddf0100       2208 	st.w	r27,0[r29]
                        2209 --879:         /* Calculate FVV setting */
                        2210 --880:         vc_out        = *FrqOut * p_r;
00000464 3ddf0100       2211 	ld.w	0[r29],r27
00000468 eedf2202       2212 	mulu	r14,r27,zero

                                                                      Page 38
                                                              C:\Users\Frank\AppData\Local\Temp\gh_0000p9g1.si
0000046c 1be0           2213 	mov	r27,r28
                        2214 --881:         while ((320u + (i * 40u)) <  vc_out)
0000046e a505*          2215 	br	.L803
                        2216 .L805:
                        2217 --882:         {
                        2218 --883:             i++;
                        2219 --line883
                        2220 ..lin.C.3A.5Cgit.5Crh850.5Csrc.5Capp.5Cgfx_apps.5Csimple_draw.5Ctarget.5Cd1mx_mango_ghs.5Cobj.5Cr_dev_clk.57::
                        2221 .LDWlin57:
00000470 415a           2222 	add	1,r11
                        2223 .L803:
00000472 0bd8           2224 	mov	r11,r27
00000474 e8df4602       2225 	mulu	40,r27,zero
00000478 1bde4001       2226 	addi	320,r27,r27
0000047c fcd9           2227 	cmp	r28,r27
0000047e 91fd*          2228 	bl	.L805
                        2229 --884:         }
                        2230 --885:         if (i < 9)
                        2231 --line885
                        2232 ..lin.C.3A.5Cgit.5Crh850.5Csrc.5Capp.5Cgfx_apps.5Csimple_draw.5Ctarget.5Cd1mx_mango_ghs.5Cobj.5Cr_dev_clk.58::
                        2233 .LDWlin58:
00000480 695a           2234 	cmp	9,r11
00000482 890d*          2235 	bnl	.L806
                        2236 --886:         {
                        2237 --887:              PllCfgReg->FVV = i - 1u;
                        2238 --line887
                        2239 ..lin.C.3A.5Cgit.5Crh850.5Csrc.5Capp.5Cgfx_apps.5Csimple_draw.5Ctarget.5Cd1mx_mango_ghs.5Cobj.5Cr_dev_clk.59::
                        2240 .LDWlin59:
00000484 63d8           2241 	sld.bu	3[ep],r27
00000486 0bd6ffff       2242 	addi	-1,r11,r26
0000048a fadfd440       2243 	bins	r26,2,3,r27
0000048e 83db           2244 	sst.b	r27,3[ep]
00000490 e505*          2245 	br	.L808
                        2246 .L806:
                        2247 --888:         }
                        2248 --889:         else
                        2249 --890:         {
                        2250 --891:             PllCfgReg->FVV  = 3; /* init value */
                        2251 --line891
                        2252 ..lin.C.3A.5Cgit.5Crh850.5Csrc.5Capp.5Cgfx_apps.5Csimple_draw.5Ctarget.5Cd1mx_mango_ghs.5Cobj.5Cr_dev_clk.60::
                        2253 .LDWlin60:
00000492 63d8           2254 	sld.bu	3[ep],r27
00000494 03d2           2255 	mov	3,r26
00000496 fadfd440       2256 	bins	r26,2,3,r27
0000049a 83db           2257 	sst.b	r27,3[ep]
                        2258 .L808:
                        2259 --892:         }
                        2260 --893:         retval        = R_ERR_OK;
0000049c 004a           2261 	mov	0,r9
0000049e d515*          2262 	br	.L809
                        2263 .L800:
                        2264 --894:     }
                        2265 --895:     else
                        2266 --896:     {
                        2267 --897:         *FrqOut         = 0;
                        2268 --line897
                        2269 ..lin.C.3A.5Cgit.5Crh850.5Csrc.5Capp.5Cgfx_apps.5Csimple_draw.5Ctarget.5Cd1mx_mango_ghs.5Cobj.5Cr_dev_clk.61::
                        2270 .LDWlin61:
000004a0 7d070100       2271 	st.w	zero,0[r29]
                        2272 --898:         PllCfgReg->NI   = 0;
000004a4 60d8           2273 	sld.bu	0[ep],r27

                                                                      Page 39
                                                              C:\Users\Frank\AppData\Local\Temp\gh_0000p9g1.si
000004a6 dbde8000       2274 	andi	128,r27,r27
000004aa 80db           2275 	sst.b	r27,0[ep]
                        2276 --899:         PllCfgReg->M    = 0;
000004ac 61d8           2277 	sld.bu	1[ep],r27
000004ae dbdef300       2278 	andi	243,r27,r27
000004b2 81db           2279 	sst.b	r27,1[ep]
                        2280 --900:         PllCfgReg->P    = 0;
000004b4 70d8           2281 	sld.hu	0[ep],r27
000004b6 dbde7ffc       2282 	andi	64639,r27,r27
000004ba 80dc           2283 	sst.h	r27,0[ep]
                        2284 --901:         PllCfgReg->FVV  = 3; /* Init value */
000004bc 63d8           2285 	sld.bu	3[ep],r27
000004be 03d2           2286 	mov	3,r26
000004c0 fadfd440       2287 	bins	r26,2,3,r27
000004c4 83db           2288 	sst.b	r27,3[ep]
                        2289 --902:         retval        = R_PARAMETER_INCORRECT;
000004c6 044a           2290 	mov	4,r9
                        2291 .L809:
                        2292 --903:     }
                        2293 --904:     return retval;
000004c8 09d8           2294 	mov	r9,r27
                        2295 .L768:
                        2296 --	    .ef
                        2297 .LDW02:
000004ca 1b50           2298 	mov	r27,r10
000004cc 4006df70       2299 	dispose	0,{r25,r26,r27,r28,r29},[lp]
                        2300 	.type	_loc_CalcFreqPll0,@function
                        2301 	.size	_loc_CalcFreqPll0,.-_loc_CalcFreqPll0
                        2302 	.type	_loc_CalcFreqPll0..C.3A.5Cgit.5Crh850.5Csrc.5Capp.5Cgfx_apps.5Csimple_draw.5Ctarget.5Cd1mx_mango_ghs.5Cobj.5Cr_dev_clk.,@function
                        2303 	.size	_loc_CalcFreqPll0..C.3A.5Cgit.5Crh850.5Csrc.5Capp.5Cgfx_apps.5Csimple_draw.5Ctarget.5Cd1mx_mango_ghs.5Cobj.5Cr_dev_clk.,.-_loc_CalcFreqPll0..C.3A.5Cgit.5Crh850.5Csrc.5Capp.5Cgfx_apps.5Csimple_draw.5Ctarget.5Cd1mx_mango_ghs.5Cobj.5Cr_dev_clk.
                        2304 	.align	2
                        2305 .LDW12:
                        2306 --_p_r	r14	local
                        2307 --_m_r	r12	local
                        2308 --_n_r	r13	local
                        2309 --_freq	r1	local
                        2310 --_vc_out	r28	local
                        2311 --_i	r11	local
                        2312 --_retval	r9	local
                        2313 
                        2314 --_FrqIn	r10	param
                        2315 --_PllCfgReg	ep	param
                        2316 --_FrqOut	r29	param
                        2317 
                        2318 	.section ".bss","awb"
                        2319 .L1058:
                        2320 	.type	.L1058,@object
                        2321 	.size	.L1058,0
                        2322 	.data
                        2323 	.text
                        2324 
                        2325 --905: }
                        2326 
                        2327 --907: static r_Error_t loc_CalcFreqPll1(uint32_t FrqIn, loc_PllCfgReg_t * PllCfgReg, uint32_t *FrqOut)
                        2328 	.align	2
                        2329 	.align	2
                        2330 	.global	_loc_CalcFreqPll1..C.3A.5Cgit.5Crh850.5Csrc.5Capp.5Cgfx_apps.5Csimple_draw.5Ctarget.5Cd1mx_mango_ghs.5Cobj.5Cr_dev_clk.
                        2331 _loc_CalcFreqPll1..C.3A.5Cgit.5Crh850.5Csrc.5Capp.5Cgfx_apps.5Csimple_draw.5Ctarget.5Cd1mx_mango_ghs.5Cobj.5Cr_dev_clk.:
                        2332 _loc_CalcFreqPll1:
000004d0 8c07e170       2333 	prepare	{r25,r26,r27,r28,r29,r31},6
000004d4 63371100       2334 	st.w	r6,16[sp]

                                                                      Page 40
                                                              C:\Users\Frank\AppData\Local\Temp\gh_0000p9g1.si
000004d8 07e8           2335 	mov	r7,r29
000004da 63471500       2336 	st.w	r8,20[sp]
                        2337 --	    .bf
                        2338 .LDW22:
                        2339 --908: {
                        2340 --909:     /* Caculate the right values */
                        2341 --910:     /*F = (Fx * Nr) / (Mr * Pr) :
                        2342 --911:       Mr = PLLkC.M[1:0] + 1
                        2343 --912:       Pr = 1, 2, 3, 4, 8 16
                        2344 --913:       P[2:0]  = log_2(Pr); 2^(P[]) = Pr
                        2345 --914:       Nr = PLLkC.NI + 1 + PLLkC.NF.
                        2346 --915:       We set PLLkC.NF to 0
                        2347 --916:       Nr = PLLkC.NI + 1
                        2348 --917:       PLL0:
                        2349 --918:       NI[6:0] = Nr - 1
                        2350 --919:       PLL1:
                        2351 --920:       NI[6:0] = Nr/2 - 1
                        2352 --921:     */
                        2353 --922:     uint32_t  p_r    = 0;
000004de 00da           2354 	mov	0,r27
                        2355 --923:     uint32_t  m_r    = 0;
000004e0 63070100       2356 	st.w	zero,0[sp]
000004e4 005a           2357 	mov	0,r11
                        2358 --924:     uint32_t  n_r    = 0;
000004e6 00d2           2359 	mov	0,r26
                        2360 --925:     uint32_t  freq   = 0;
000004e8 00e2           2361 	mov	0,r28
                        2362 --926:     uint32_t  vc_out = 0;
000004ea 63070d00       2363 	st.w	zero,12[sp]
000004ee 005a           2364 	mov	0,r11
                        2365 --927:     uint32_t  i      = 1;
000004f0 015a           2366 	mov	1,r11
000004f2 635f0500       2367 	st.w	r11,4[sp]
                        2368 --928:     
                        2369 --929:     r_Error_t retval = R_NG;
000004f6 015a           2370 	mov	1,r11
000004f8 635f0900       2371 	st.w	r11,8[sp]
                        2372 --930:     r_dev_Device_t device;
                        2373 --932:     PllCfgReg->NI    = 0;
000004fc 9d0f0100       2374 	ld.bu	0[r29],r1
00000500 c10e8000       2375 	andi	128,r1,r1
00000504 5d0f0000       2376 	st.b	r1,0[r29]
                        2377 --933:     PllCfgReg->P     = 0;
00000508 fd0f0100       2378 	ld.hu	0[r29],r1
0000050c c10e7ffc       2379 	andi	64639,r1,r1
00000510 7d0f0000       2380 	st.h	r1,0[r29]
                        2381 --934:     PllCfgReg->M     = 0;
00000514 bd0f0100       2382 	ld.bu	1[r29],r1
00000518 c10ef300       2383 	andi	243,r1,r1
0000051c 5d0f0100       2384 	st.b	r1,1[r29]
                        2385 --936:     freq = *FrqOut;
00000520 235f1500       2386 	ld.w	20[sp],r11
00000524 2be70100       2387 	ld.w	0[r11],r28
                        2388 --937:     
                        2389 --938:     /* These functions can cover all devices of the d1l/d1m family including the D1M2(H). */
                        2390 --939:     /* The D1M2(H) has a different HW-configuration for PLL1 which is reflected by the values shown here. */
                        2391 --940:     /* For this function to work with all lower devices, their FrqOut has to be multiplied by 2 */
                        2392 --941:     device = R_DEV_GetDev();
                        2393 	jarl	_R_DEV_GetDev,lp
                        2393 <EXPANSION BEGIN>
                        2393 jarl22 _R_DEV_GetDev , lp 

                                                                      Page 41
                                                              C:\Users\Frank\AppData\Local\Temp\gh_0000p9g1.si
00000528 80ff0000*      2393 <EXPANSION END>
0000052c 0ac8           2394 	mov	r10,r25
                        2395 --942:     if (((device >= R_DEV_R7F701400) && (device <= R_DEV_R7F701407))
                        2396 --line942
                        2397 ..lin.C.3A.5Cgit.5Crh850.5Csrc.5Capp.5Cgfx_apps.5Csimple_draw.5Ctarget.5Cd1mx_mango_ghs.5Cobj.5Cr_dev_clk.62::
                        2398 .LDWlin62:
0000052e 190688fa       2399 	addi	-1400,r25,zero
00000532 c905*          2400 	bnl	.L1247
00000534 190680fa       2401 	addi	-1408,r25,zero
00000538 a90d*          2402 	bnl	.L1244
                        2403 .L1247:
0000053a 19065efa       2404 	addi	-1442,r25,zero
0000053e f205*          2405 	be	.L1244
00000540 190676fa       2406 	addi	-1418,r25,zero
00000544 c205*          2407 	be	.L1244
00000546 19065ffa       2408 	addi	-1441,r25,zero
0000054a ca05*          2409 	bne	.L1243
                        2410 .L1244:
                        2411 --943:         || (device == R_DEV_R7F701442)
                        2412 --944:         || (device == R_DEV_R7F701418)
                        2413 --945:         || (device == R_DEV_R7F701441))
                        2414 --946:     {
                        2415 --947:         freq = freq * 2;
                        2416 --line947
                        2417 ..lin.C.3A.5Cgit.5Crh850.5Csrc.5Capp.5Cgfx_apps.5Csimple_draw.5Ctarget.5Cd1mx_mango_ghs.5Cobj.5Cr_dev_clk.63::
                        2418 .LDWlin63:
0000054c 1c08           2419 	mov	r28,r1
0000054e c10a           2420 	shl	1,r1
00000550 01e0           2421 	mov	r1,r28
                        2422 .L1243:
                        2423 --948:     }
                        2424 --949:     
                        2425 --950:     if (freq > 960u)
00000552 1c063ffc       2426 	addi	-961,r28,zero
00000556 c905*          2427 	bnl	.L1249
                        2428 --951:     {
                        2429 --952:         /* the desired frequency is not valid */
                        2430 --953:         return R_PARAMETER_INCORRECT;
                        2431 --line953
                        2432 ..lin.C.3A.5Cgit.5Crh850.5Csrc.5Capp.5Cgfx_apps.5Csimple_draw.5Ctarget.5Cd1mx_mango_ghs.5Cobj.5Cr_dev_clk.64::
                        2433 .LDWlin64:
00000558 0452           2434 	mov	4,r10
0000055a 8007e001*      2435 	br	.L1241
                        2436 .L1249:
                        2437 --954:     }
                        2438 --955:     else if (freq > 533u)
                        2439 --line955
                        2440 ..lin.C.3A.5Cgit.5Crh850.5Csrc.5Capp.5Cgfx_apps.5Csimple_draw.5Ctarget.5Cd1mx_mango_ghs.5Cobj.5Cr_dev_clk.65::
                        2441 .LDWlin65:
0000055e 1c06eafd       2442 	addi	-534,r28,zero
00000562 990d*          2443 	bnl	.L1253
                        2444 --956:     {
                        2445 --957:         p_r = 1u;
                        2446 --line957
                        2447 ..lin.C.3A.5Cgit.5Crh850.5Csrc.5Capp.5Cgfx_apps.5Csimple_draw.5Ctarget.5Cd1mx_mango_ghs.5Cobj.5Cr_dev_clk.66::
                        2448 .LDWlin66:
00000564 01da           2449 	mov	1,r27
                        2450 --958:         PllCfgReg->P = 0;
00000566 fd0f0100       2451 	ld.hu	0[r29],r1
0000056a c10e7ffc       2452 	andi	64639,r1,r1
0000056e 7d0f0000       2453 	st.h	r1,0[r29]

                                                                      Page 42
                                                              C:\Users\Frank\AppData\Local\Temp\gh_0000p9g1.si
00000572 d535*          2454 	br	.L1252
                        2455 .L1253:
                        2456 --959:         
                        2457 --960:     }
                        2458 --961:     else if (freq > 266u)
                        2459 --line961
                        2460 ..lin.C.3A.5Cgit.5Crh850.5Csrc.5Capp.5Cgfx_apps.5Csimple_draw.5Ctarget.5Cd1mx_mango_ghs.5Cobj.5Cr_dev_clk.67::
                        2461 .LDWlin67:
00000574 1c06f5fe       2462 	addi	-267,r28,zero
00000578 a90d*          2463 	bnl	.L1256
                        2464 --962:     {
                        2465 --963:         p_r = 2;
                        2466 --line963
                        2467 ..lin.C.3A.5Cgit.5Crh850.5Csrc.5Capp.5Cgfx_apps.5Csimple_draw.5Ctarget.5Cd1mx_mango_ghs.5Cobj.5Cr_dev_clk.68::
                        2468 .LDWlin68:
0000057a 02da           2469 	mov	2,r27
                        2470 --964:         PllCfgReg->P = 1u;
0000057c fd0f0100       2471 	ld.hu	0[r29],r1
00000580 0172           2472 	mov	1,r14
00000582 ee0fde90       2473 	bins	r14,7,3,r1
00000586 7d0f0000       2474 	st.h	r1,0[r29]
0000058a 952d*          2475 	br	.L1252
                        2476 .L1256:
                        2477 --965:     }
                        2478 --966:     else if (freq > 160u)
                        2479 --line966
                        2480 ..lin.C.3A.5Cgit.5Crh850.5Csrc.5Capp.5Cgfx_apps.5Csimple_draw.5Ctarget.5Cd1mx_mango_ghs.5Cobj.5Cr_dev_clk.69::
                        2481 .LDWlin69:
0000058c 1c065fff       2482 	addi	-161,r28,zero
00000590 a90d*          2483 	bnl	.L1259
                        2484 --967:     {
                        2485 --968:         p_r = 4u;
                        2486 --line968
                        2487 ..lin.C.3A.5Cgit.5Crh850.5Csrc.5Capp.5Cgfx_apps.5Csimple_draw.5Ctarget.5Cd1mx_mango_ghs.5Cobj.5Cr_dev_clk.70::
                        2488 .LDWlin70:
00000592 04da           2489 	mov	4,r27
                        2490 --969:         PllCfgReg->P = 2u;
00000594 fd0f0100       2491 	ld.hu	0[r29],r1
00000598 0272           2492 	mov	2,r14
0000059a ee0fde90       2493 	bins	r14,7,3,r1
0000059e 7d0f0000       2494 	st.h	r1,0[r29]
000005a2 d51d*          2495 	br	.L1252
                        2496 .L1259:
                        2497 --970:     }
                        2498 --971:     else if (freq > 67u)
                        2499 --line971
                        2500 ..lin.C.3A.5Cgit.5Crh850.5Csrc.5Capp.5Cgfx_apps.5Csimple_draw.5Ctarget.5Cd1mx_mango_ghs.5Cobj.5Cr_dev_clk.71::
                        2501 .LDWlin71:
000005a4 1c06bcff       2502 	addi	-68,r28,zero
000005a8 a90d*          2503 	bnl	.L1262
                        2504 --972:     {
                        2505 --973:         p_r = 8;
                        2506 --line973
                        2507 ..lin.C.3A.5Cgit.5Crh850.5Csrc.5Capp.5Cgfx_apps.5Csimple_draw.5Ctarget.5Cd1mx_mango_ghs.5Cobj.5Cr_dev_clk.72::
                        2508 .LDWlin72:
000005aa 08da           2509 	mov	8,r27
                        2510 --974:         PllCfgReg->P = 3u;
000005ac fd0f0100       2511 	ld.hu	0[r29],r1
000005b0 0372           2512 	mov	3,r14
000005b2 ee0fde90       2513 	bins	r14,7,3,r1
000005b6 7d0f0000       2514 	st.h	r1,0[r29]

                                                                      Page 43
                                                              C:\Users\Frank\AppData\Local\Temp\gh_0000p9g1.si
000005ba 9515*          2515 	br	.L1252
                        2516 .L1262:
                        2517 --975:     }
                        2518 --976:     else if (freq > 40u)
                        2519 --line976
                        2520 ..lin.C.3A.5Cgit.5Crh850.5Csrc.5Capp.5Cgfx_apps.5Csimple_draw.5Ctarget.5Cd1mx_mango_ghs.5Cobj.5Cr_dev_clk.73::
                        2521 .LDWlin73:
000005bc 1c06d7ff       2522 	addi	-41,r28,zero
000005c0 b90d*          2523 	bnl	.L1265
                        2524 --977:     {
                        2525 --978:         p_r = 16u;
                        2526 --line978
                        2527 ..lin.C.3A.5Cgit.5Crh850.5Csrc.5Capp.5Cgfx_apps.5Csimple_draw.5Ctarget.5Cd1mx_mango_ghs.5Cobj.5Cr_dev_clk.74::
                        2528 .LDWlin74:
000005c2 20de1000       2529 	movea	16,zero,r27
                        2530 --979:         PllCfgReg->P = 4u;
000005c6 fd0f0100       2531 	ld.hu	0[r29],r1
000005ca 0472           2532 	mov	4,r14
000005cc ee0fde90       2533 	bins	r14,7,3,r1
000005d0 7d0f0000       2534 	st.h	r1,0[r29]
000005d4 c505*          2535 	br	.L1252
                        2536 .L1265:
                        2537 --980:     }
                        2538 --981:     else
                        2539 --982:     {
                        2540 --983:         /* the desired frequency is not valid */
                        2541 --984:         return R_PARAMETER_INCORRECT;
                        2542 --line984
                        2543 ..lin.C.3A.5Cgit.5Crh850.5Csrc.5Capp.5Cgfx_apps.5Csimple_draw.5Ctarget.5Cd1mx_mango_ghs.5Cobj.5Cr_dev_clk.75::
                        2544 .LDWlin75:
000005d6 0452           2545 	mov	4,r10
000005d8 80076201*      2546 	br	.L1241
                        2547 .L1252:
                        2548 --985:     }
                        2549 --987:     if (24u == FrqIn)
                        2550 --line987
                        2551 ..lin.C.3A.5Cgit.5Crh850.5Csrc.5Capp.5Cgfx_apps.5Csimple_draw.5Ctarget.5Cd1mx_mango_ghs.5Cobj.5Cr_dev_clk.76::
                        2552 .LDWlin76:
000005dc 235f1100       2553 	ld.w	16[sp],r11
000005e0 0b06e8ff       2554 	addi	-24,r11,zero
000005e4 da05*          2555 	bne	.L1269
                        2556 --988:     {
                        2557 --989:        m_r = 3u;
                        2558 --line989
                        2559 ..lin.C.3A.5Cgit.5Crh850.5Csrc.5Capp.5Cgfx_apps.5Csimple_draw.5Ctarget.5Cd1mx_mango_ghs.5Cobj.5Cr_dev_clk.77::
                        2560 .LDWlin77:
000005e6 035a           2561 	mov	3,r11
000005e8 635f0100       2562 	st.w	r11,0[sp]
000005ec d515*          2563 	br	.L1271
                        2564 .L1269:
                        2565 --990:     }
                        2566 --991:     else if (16u <= FrqIn)
                        2567 --line991
                        2568 ..lin.C.3A.5Cgit.5Crh850.5Csrc.5Capp.5Cgfx_apps.5Csimple_draw.5Ctarget.5Cd1mx_mango_ghs.5Cobj.5Cr_dev_clk.78::
                        2569 .LDWlin78:
000005ee 235f1100       2570 	ld.w	16[sp],r11
000005f2 0b06f0ff       2571 	addi	-16,r11,zero
000005f6 d905*          2572 	bnl	.L1272
                        2573 --992:     {
                        2574 --993:        m_r = 2u;
                        2575 --line993

                                                                      Page 44
                                                              C:\Users\Frank\AppData\Local\Temp\gh_0000p9g1.si
                        2576 ..lin.C.3A.5Cgit.5Crh850.5Csrc.5Capp.5Cgfx_apps.5Csimple_draw.5Ctarget.5Cd1mx_mango_ghs.5Cobj.5Cr_dev_clk.79::
                        2577 .LDWlin79:
000005f8 025a           2578 	mov	2,r11
000005fa 635f0100       2579 	st.w	r11,0[sp]
000005fe c50d*          2580 	br	.L1271
                        2581 .L1272:
                        2582 --994:     }
                        2583 --995:     else if  (8u <= FrqIn)
                        2584 --line995
                        2585 ..lin.C.3A.5Cgit.5Crh850.5Csrc.5Capp.5Cgfx_apps.5Csimple_draw.5Ctarget.5Cd1mx_mango_ghs.5Cobj.5Cr_dev_clk.80::
                        2586 .LDWlin80:
00000600 235f1100       2587 	ld.w	16[sp],r11
00000604 685a           2588 	cmp	8,r11
00000606 d105*          2589 	bl	.L1275
                        2590 --996:     {
                        2591 --997:        m_r = 1u;
                        2592 --line997
                        2593 ..lin.C.3A.5Cgit.5Crh850.5Csrc.5Capp.5Cgfx_apps.5Csimple_draw.5Ctarget.5Cd1mx_mango_ghs.5Cobj.5Cr_dev_clk.81::
                        2594 .LDWlin81:
00000608 015a           2595 	mov	1,r11
0000060a 635f0100       2596 	st.w	r11,0[sp]
0000060e c505*          2597 	br	.L1271
                        2598 .L1275:
                        2599 --998:     }
                        2600 --999:     else
                        2601 --1000:     {
                        2602 --1001:         /* the input frequency is not valid */
                        2603 --1002:         return R_PARAMETER_INCORRECT;
                        2604 --line1002
                        2605 ..lin.C.3A.5Cgit.5Crh850.5Csrc.5Capp.5Cgfx_apps.5Csimple_draw.5Ctarget.5Cd1mx_mango_ghs.5Cobj.5Cr_dev_clk.82::
                        2606 .LDWlin82:
00000610 0452           2607 	mov	4,r10
00000612 80072801*      2608 	br	.L1241
                        2609 .L1271:
                        2610 --1003:     }
                        2611 --1004:     
                        2612 --1005:     n_r = (freq * m_r * p_r)/FrqIn;
                        2613 --line1005
                        2614 ..lin.C.3A.5Cgit.5Crh850.5Csrc.5Capp.5Cgfx_apps.5Csimple_draw.5Ctarget.5Cd1mx_mango_ghs.5Cobj.5Cr_dev_clk.83::
                        2615 .LDWlin83:
00000616 235f0100       2616 	ld.w	0[sp],r11
0000061a 1c08           2617 	mov	r28,r1
0000061c 23671100       2618 	ld.w	16[sp],r12
00000620 eb0f2202       2619 	mulu	r11,r1,zero
00000624 fb0f2202       2620 	mulu	r27,r1,zero
00000628 01d0           2621 	mov	r1,r26
0000062a ecd7fe02       2622 	divqu	r12,r26,zero
                        2623 --1007:     /* do we have a valid parameter */
                        2624 --1008:     if ((n_r > 23) && (n_r < 161) )
0000062e 1a06e8ff       2625 	addi	-24,r26,zero
00000632 996d*          2626 	bnl	.L1279
00000634 1a065fff       2627 	addi	-161,r26,zero
00000638 e165*          2628 	bl	.L1279
                        2629 --1009:     {
                        2630 --1010:         *FrqOut       = (FrqIn * n_r)/(m_r * p_r);
                        2631 --line1010
                        2632 ..lin.C.3A.5Cgit.5Crh850.5Csrc.5Capp.5Cgfx_apps.5Csimple_draw.5Ctarget.5Cd1mx_mango_ghs.5Cobj.5Cr_dev_clk.84::
                        2633 .LDWlin84:
0000063a 230f1100       2634 	ld.w	16[sp],r1
0000063e 235f1500       2635 	ld.w	20[sp],r11
00000642 fa0f2202       2636 	mulu	r26,r1,zero

                                                                      Page 45
                                                              C:\Users\Frank\AppData\Local\Temp\gh_0000p9g1.si
00000646 0170           2637 	mov	r1,r14
00000648 230f0100       2638 	ld.w	0[sp],r1
0000064c fb0f2202       2639 	mulu	r27,r1,zero
00000650 0168           2640 	mov	r1,r13
00000652 0e08           2641 	mov	r14,r1
00000654 ed0ffe02       2642 	divqu	r13,r1,zero
00000658 6b0f0100       2643 	st.w	r1,0[r11]
                        2644 --1011:         PllCfgReg->NI = (uint8_t) (n_r/2) - 1u ;
0000065c 1a08           2645 	mov	r26,r1
0000065e 810a           2646 	shr	1,r1
00000660 8100           2647 	zxb	r1
00000662 0176ffff       2648 	addi	-1,r1,r14
00000666 9d0f0100       2649 	ld.bu	0[r29],r1
0000066a ee0fd060       2650 	bins	r14,0,7,r1
0000066e 5d0f0000       2651 	st.b	r1,0[r29]
                        2652 --1012:         PllCfgReg->M  = (uint8_t) m_r     - 1u ;
00000672 235f0100       2653 	ld.w	0[sp],r11
00000676 0b08           2654 	mov	r11,r1
00000678 8100           2655 	zxb	r1
0000067a 0176ffff       2656 	addi	-1,r1,r14
0000067e bd0f0100       2657 	ld.bu	1[r29],r1
00000682 ee0fd430       2658 	bins	r14,2,2,r1
00000686 5d0f0100       2659 	st.b	r1,1[r29]
                        2660 --1013:         /* Calculate FVV setting */
                        2661 --1014:         vc_out        = *FrqOut * p_r;
0000068a 235f1500       2662 	ld.w	20[sp],r11
0000068e 2b0f0100       2663 	ld.w	0[r11],r1
00000692 fb0f2202       2664 	mulu	r27,r1,zero
00000696 630f0d00       2665 	st.w	r1,12[sp]
                        2666 --1015:         i = 1;
0000069a 015a           2667 	mov	1,r11
0000069c 635f0500       2668 	st.w	r11,4[sp]
                        2669 --1016:         while ((640u + (i * 80u)) <  vc_out)
000006a0 e505*          2670 	br	.L1282
                        2671 .L1284:
                        2672 --1017:         {
                        2673 --1018:             i++;
                        2674 --line1018
                        2675 ..lin.C.3A.5Cgit.5Crh850.5Csrc.5Capp.5Cgfx_apps.5Csimple_draw.5Ctarget.5Cd1mx_mango_ghs.5Cobj.5Cr_dev_clk.85::
                        2676 .LDWlin85:
000006a2 235f0500       2677 	ld.w	4[sp],r11
000006a6 415a           2678 	add	1,r11
000006a8 635f0500       2679 	st.w	r11,4[sp]
                        2680 .L1282:
000006ac 230f0500       2681 	ld.w	4[sp],r1
000006b0 235f0d00       2682 	ld.w	12[sp],r11
000006b4 f00f4a02       2683 	mulu	80,r1,zero
000006b8 010e8002       2684 	addi	640,r1,r1
000006bc eb09           2685 	cmp	r11,r1
000006be a1f5*          2686 	bl	.L1284
                        2687 --1019:         }
                        2688 --1020:         if (i < 8)
                        2689 --line1020
                        2690 ..lin.C.3A.5Cgit.5Crh850.5Csrc.5Capp.5Cgfx_apps.5Csimple_draw.5Ctarget.5Cd1mx_mango_ghs.5Cobj.5Cr_dev_clk.86::
                        2691 .LDWlin86:
000006c0 235f0500       2692 	ld.w	4[sp],r11
000006c4 685a           2693 	cmp	8,r11
000006c6 c90d*          2694 	bnl	.L1285
                        2695 --1021:         {
                        2696 --1022:              PllCfgReg->FVV = i -1u;
                        2697 --line1022

                                                                      Page 46
                                                              C:\Users\Frank\AppData\Local\Temp\gh_0000p9g1.si
                        2698 ..lin.C.3A.5Cgit.5Crh850.5Csrc.5Capp.5Cgfx_apps.5Csimple_draw.5Ctarget.5Cd1mx_mango_ghs.5Cobj.5Cr_dev_clk.87::
                        2699 .LDWlin87:
000006c8 235f0500       2700 	ld.w	4[sp],r11
000006cc bd0f0300       2701 	ld.bu	3[r29],r1
000006d0 0b76ffff       2702 	addi	-1,r11,r14
000006d4 ee0fd440       2703 	bins	r14,2,3,r1
000006d8 5d0f0300       2704 	st.b	r1,3[r29]
000006dc 850d*          2705 	br	.L1287
                        2706 .L1285:
                        2707 --1023:         }
                        2708 --1024:         else
                        2709 --1025:         {
                        2710 --1026:             PllCfgReg->FVV  = 3; /* init value */
                        2711 --line1026
                        2712 ..lin.C.3A.5Cgit.5Crh850.5Csrc.5Capp.5Cgfx_apps.5Csimple_draw.5Ctarget.5Cd1mx_mango_ghs.5Cobj.5Cr_dev_clk.88::
                        2713 .LDWlin88:
000006de bd0f0300       2714 	ld.bu	3[r29],r1
000006e2 0372           2715 	mov	3,r14
000006e4 ee0fd440       2716 	bins	r14,2,3,r1
000006e8 5d0f0300       2717 	st.b	r1,3[r29]
                        2718 .L1287:
                        2719 --1027:         }
                        2720 --1028:         /* D1Lx and D1M1(H): See comment at begin of function. */
                        2721 --1029:         /* => Divide back the factor of 2 added at the begin of this function. */
                        2722 --1030:         /* D1M2(H): The PLL1 is followed by a DIVIDE 2, so in the end, */
                        2723 --1031:         /* we ALWAYS divide by two. */
                        2724 --1032:         *FrqOut /= 2;
000006ec 235f1500       2725 	ld.w	20[sp],r11
000006f0 2b0f0100       2726 	ld.w	0[r11],r1
000006f4 0b60           2727 	mov	r11,r12
000006f6 810a           2728 	shr	1,r1
000006f8 6c0f0100       2729 	st.w	r1,0[r12]
                        2730 --1033:         
                        2731 --1034:         retval        = R_ERR_OK;
000006fc 63070900       2732 	st.w	zero,8[sp]
00000700 005a           2733 	mov	0,r11
00000702 a51d*          2734 	br	.L1288
                        2735 .L1279:
                        2736 --1035:     }
                        2737 --1036:     else
                        2738 --1037:     {
                        2739 --1038:         *FrqOut       = 0;
                        2740 --line1038
                        2741 ..lin.C.3A.5Cgit.5Crh850.5Csrc.5Capp.5Cgfx_apps.5Csimple_draw.5Ctarget.5Cd1mx_mango_ghs.5Cobj.5Cr_dev_clk.89::
                        2742 .LDWlin89:
00000704 235f1500       2743 	ld.w	20[sp],r11
00000708 6b070100       2744 	st.w	zero,0[r11]
                        2745 --1039:         PllCfgReg->NI = 0;
0000070c 9d0f0100       2746 	ld.bu	0[r29],r1
00000710 c10e8000       2747 	andi	128,r1,r1
00000714 5d0f0000       2748 	st.b	r1,0[r29]
                        2749 --1040:         PllCfgReg->M  = 0;
00000718 bd0f0100       2750 	ld.bu	1[r29],r1
0000071c c10ef300       2751 	andi	243,r1,r1
00000720 5d0f0100       2752 	st.b	r1,1[r29]
                        2753 --1041:         PllCfgReg->P  = 0;
00000724 fd0f0100       2754 	ld.hu	0[r29],r1
00000728 c10e7ffc       2755 	andi	64639,r1,r1
0000072c 7d0f0000       2756 	st.h	r1,0[r29]
                        2757 --1042:         retval        = R_PARAMETER_INCORRECT;
00000730 045a           2758 	mov	4,r11

                                                                      Page 47
                                                              C:\Users\Frank\AppData\Local\Temp\gh_0000p9g1.si
00000732 635f0900       2759 	st.w	r11,8[sp]
                        2760 .L1288:
                        2761 --1043:     }
                        2762 --1044:     return retval;
00000736 23570900       2763 	ld.w	8[sp],r10
                        2764 .L1241:
                        2765 --	    .ef
                        2766 .LDW32:
0000073a 4c06ff70       2767 	dispose	6,{r25,r26,r27,r28,r29,r31},[lp]
                        2768 	.type	_loc_CalcFreqPll1,@function
                        2769 	.size	_loc_CalcFreqPll1,.-_loc_CalcFreqPll1
                        2770 	.type	_loc_CalcFreqPll1..C.3A.5Cgit.5Crh850.5Csrc.5Capp.5Cgfx_apps.5Csimple_draw.5Ctarget.5Cd1mx_mango_ghs.5Cobj.5Cr_dev_clk.,@function
                        2771 	.size	_loc_CalcFreqPll1..C.3A.5Cgit.5Crh850.5Csrc.5Capp.5Cgfx_apps.5Csimple_draw.5Ctarget.5Cd1mx_mango_ghs.5Cobj.5Cr_dev_clk.,.-_loc_CalcFreqPll1..C.3A.5Cgit.5Crh850.5Csrc.5Capp.5Cgfx_apps.5Csimple_draw.5Ctarget.5Cd1mx_mango_ghs.5Cobj.5Cr_dev_clk.
                        2772 	.align	2
                        2773 .LDW42:
                        2774 --_p_r	r27	local
                        2775 --_m_r	0[sp]	local
                        2776 --_n_r	r26	local
                        2777 --_freq	r28	local
                        2778 --_vc_out	12[sp]	local
                        2779 --_i	4[sp]	local
                        2780 --_retval	8[sp]	local
                        2781 --_device	r25	local
                        2782 
                        2783 --_FrqIn	16[sp]	param
                        2784 --_PllCfgReg	r29	param
                        2785 --_FrqOut	20[sp]	param
                        2786 
                        2787 	.section ".bss","awb"
                        2788 .L1570:
                        2789 	.type	.L1570,@object
                        2790 	.size	.L1570,0
                        2791 	.data
                        2792 	.text
                        2793 
                        2794 --1045: }
                        2795 
                        2796 --1047: static r_Error_t loc_CalcFreqPll2(uint32_t FrqIn, loc_PllCfgReg_t * PllCfgReg, uint32_t *FrqOut)
                        2797 	.align	2
                        2798 	.align	2
                        2799 	.global	_loc_CalcFreqPll2..C.3A.5Cgit.5Crh850.5Csrc.5Capp.5Cgfx_apps.5Csimple_draw.5Ctarget.5Cd1mx_mango_ghs.5Cobj.5Cr_dev_clk.
                        2800 _loc_CalcFreqPll2..C.3A.5Cgit.5Crh850.5Csrc.5Capp.5Cgfx_apps.5Csimple_draw.5Ctarget.5Cd1mx_mango_ghs.5Cobj.5Cr_dev_clk.:
                        2801 _loc_CalcFreqPll2:
0000073e 8007c110       2802 	prepare	{r27,r28,r29},0
00000742 0658           2803 	mov	r6,r11
00000744 07f0           2804 	mov	r7,ep
00000746 0848           2805 	mov	r8,r9
                        2806 --	    .bf
                        2807 .LDW52:
                        2808 --1048: {
                        2809 --1049:     /* Caculate the right values */
                        2810 --1050:     /*F = (Fx * Nr) / (Mr * Pr) :
                        2811 --1051:       Mr = PLLkC.M[1:0] + 1
                        2812 --1052:       Pr = 1, 2, 3, 4, 8 16
                        2813 --1053:       P[2:0]  = log_2(Pr); 2^(P[]) = Pr
                        2814 --1054:       Nr = PLLkC.NI + 1 + PLLkC.NF.
                        2815 --1055:       We set PLLkC.NF to 0
                        2816 --1056:       Nr = PLLkC.NI + 1
                        2817 --1057:       PLL0:
                        2818 --1058:       NI[6:0] = Nr - 1
                        2819 --1059:       PLL1:

                                                                      Page 48
                                                              C:\Users\Frank\AppData\Local\Temp\gh_0000p9g1.si
                        2820 --1060:       NI[6:0] = Nr/2 - 1
                        2821 --1061:     */
                        2822 --1062:     uint32_t  p_r    = 0;
00000748 0072           2823 	mov	0,r14
                        2824 --1063:     uint32_t  m_r    = 0;
0000074a 0062           2825 	mov	0,r12
                        2826 --1064:     uint32_t  n_r    = 0;
0000074c 006a           2827 	mov	0,r13
                        2828 --1065:     uint32_t  freq   = 0;
0000074e 000a           2829 	mov	0,r1
                        2830 --1066:     r_Error_t retval = R_NG;
00000750 0152           2831 	mov	1,r10
                        2832 --1068:     PllCfgReg->NI    = 0;
00000752 60e8           2833 	sld.bu	0[ep],r29
00000754 ddee8000       2834 	andi	128,r29,r29
00000758 80eb           2835 	sst.b	r29,0[ep]
                        2836 --1069:     PllCfgReg->P     = 0;
0000075a 70e8           2837 	sld.hu	0[ep],r29
0000075c ddee7ffc       2838 	andi	64639,r29,r29
00000760 80ec           2839 	sst.h	r29,0[ep]
                        2840 --1070:     PllCfgReg->M     = 0;
00000762 61e8           2841 	sld.bu	1[ep],r29
00000764 ddeef300       2842 	andi	243,r29,r29
00000768 81eb           2843 	sst.b	r29,1[ep]
                        2844 --1072:     freq = *FrqOut;
0000076a 290f0100       2845 	ld.w	0[r9],r1
                        2846 --1074:     if (freq > 480u)
0000076e 01061ffe       2847 	addi	-481,r1,zero
00000772 c905*          2848 	bnl	.L1779
                        2849 --1075:     {
                        2850 --1076:         /* the desired frequency is not valid */
                        2851 --1077:         return R_PARAMETER_INCORRECT;
                        2852 --line1077
                        2853 ..lin.C.3A.5Cgit.5Crh850.5Csrc.5Capp.5Cgfx_apps.5Csimple_draw.5Ctarget.5Cd1mx_mango_ghs.5Cobj.5Cr_dev_clk.90::
                        2854 .LDWlin90:
00000774 04ea           2855 	mov	4,r29
00000776 80071401*      2856 	br	.L1777
                        2857 .L1779:
                        2858 --1078:     }
                        2859 --1079:     else if (freq > 240u)
                        2860 --line1079
                        2861 ..lin.C.3A.5Cgit.5Crh850.5Csrc.5Capp.5Cgfx_apps.5Csimple_draw.5Ctarget.5Cd1mx_mango_ghs.5Cobj.5Cr_dev_clk.91::
                        2862 .LDWlin91:
0000077a 01060fff       2863 	addi	-241,r1,zero
0000077e f905*          2864 	bnl	.L1783
                        2865 --1080:     {
                        2866 --1081:         p_r = 1u;
                        2867 --line1081
                        2868 ..lin.C.3A.5Cgit.5Crh850.5Csrc.5Capp.5Cgfx_apps.5Csimple_draw.5Ctarget.5Cd1mx_mango_ghs.5Cobj.5Cr_dev_clk.92::
                        2869 .LDWlin92:
00000780 0172           2870 	mov	1,r14
                        2871 --1082:         PllCfgReg->P = 0;
00000782 70e8           2872 	sld.hu	0[ep],r29
00000784 ddee7ffc       2873 	andi	64639,r29,r29
00000788 80ec           2874 	sst.h	r29,0[ep]
0000078a e535*          2875 	br	.L1782
                        2876 .L1783:
                        2877 --1083:     }
                        2878 --1084:     else if (freq > 120u)
                        2879 --line1084
                        2880 ..lin.C.3A.5Cgit.5Crh850.5Csrc.5Capp.5Cgfx_apps.5Csimple_draw.5Ctarget.5Cd1mx_mango_ghs.5Cobj.5Cr_dev_clk.93::

                                                                      Page 49
                                                              C:\Users\Frank\AppData\Local\Temp\gh_0000p9g1.si
                        2881 .LDWlin93:
0000078c 010687ff       2882 	addi	-121,r1,zero
00000790 890d*          2883 	bnl	.L1786
                        2884 --1085:     {
                        2885 --1086:         p_r = 2;
                        2886 --line1086
                        2887 ..lin.C.3A.5Cgit.5Crh850.5Csrc.5Capp.5Cgfx_apps.5Csimple_draw.5Ctarget.5Cd1mx_mango_ghs.5Cobj.5Cr_dev_clk.94::
                        2888 .LDWlin94:
00000792 0272           2889 	mov	2,r14
                        2890 --1087:         PllCfgReg->P = 1u;
00000794 70e8           2891 	sld.hu	0[ep],r29
00000796 01e2           2892 	mov	1,r28
00000798 fcefde90       2893 	bins	r28,7,3,r29
0000079c 80ec           2894 	sst.h	r29,0[ep]
0000079e c52d*          2895 	br	.L1782
                        2896 .L1786:
                        2897 --1088:     }
                        2898 --1089:     else if (freq > 60u)
                        2899 --line1089
                        2900 ..lin.C.3A.5Cgit.5Crh850.5Csrc.5Capp.5Cgfx_apps.5Csimple_draw.5Ctarget.5Cd1mx_mango_ghs.5Cobj.5Cr_dev_clk.95::
                        2901 .LDWlin95:
000007a0 0106c3ff       2902 	addi	-61,r1,zero
000007a4 890d*          2903 	bnl	.L1789
                        2904 --1090:     {
                        2905 --1091:         p_r = 4u;
                        2906 --line1091
                        2907 ..lin.C.3A.5Cgit.5Crh850.5Csrc.5Capp.5Cgfx_apps.5Csimple_draw.5Ctarget.5Cd1mx_mango_ghs.5Cobj.5Cr_dev_clk.96::
                        2908 .LDWlin96:
000007a6 0472           2909 	mov	4,r14
                        2910 --1092:         PllCfgReg->P = 2u;
000007a8 70e8           2911 	sld.hu	0[ep],r29
000007aa 02e2           2912 	mov	2,r28
000007ac fcefde90       2913 	bins	r28,7,3,r29
000007b0 80ec           2914 	sst.h	r29,0[ep]
000007b2 a525*          2915 	br	.L1782
                        2916 .L1789:
                        2917 --1093:     }
                        2918 --1094:     else if (freq > 40u)
                        2919 --line1094
                        2920 ..lin.C.3A.5Cgit.5Crh850.5Csrc.5Capp.5Cgfx_apps.5Csimple_draw.5Ctarget.5Cd1mx_mango_ghs.5Cobj.5Cr_dev_clk.97::
                        2921 .LDWlin97:
000007b4 0106d7ff       2922 	addi	-41,r1,zero
000007b8 890d*          2923 	bnl	.L1792
                        2924 --1095:     {
                        2925 --1096:         p_r = 6;
                        2926 --line1096
                        2927 ..lin.C.3A.5Cgit.5Crh850.5Csrc.5Capp.5Cgfx_apps.5Csimple_draw.5Ctarget.5Cd1mx_mango_ghs.5Cobj.5Cr_dev_clk.98::
                        2928 .LDWlin98:
000007ba 0672           2929 	mov	6,r14
                        2930 --1097:         PllCfgReg->P = 3u;
000007bc 70e8           2931 	sld.hu	0[ep],r29
000007be 03e2           2932 	mov	3,r28
000007c0 fcefde90       2933 	bins	r28,7,3,r29
000007c4 80ec           2934 	sst.h	r29,0[ep]
000007c6 851d*          2935 	br	.L1782
                        2936 .L1792:
                        2937 --1098:     }
                        2938 --1099:     else if (freq > 30u)
                        2939 --line1099
                        2940 ..lin.C.3A.5Cgit.5Crh850.5Csrc.5Capp.5Cgfx_apps.5Csimple_draw.5Ctarget.5Cd1mx_mango_ghs.5Cobj.5Cr_dev_clk.99::
                        2941 .LDWlin99:

                                                                      Page 50
                                                              C:\Users\Frank\AppData\Local\Temp\gh_0000p9g1.si
000007c8 0106e1ff       2942 	addi	-31,r1,zero
000007cc 890d*          2943 	bnl	.L1795
                        2944 --1100:     {
                        2945 --1101:         p_r = 8u;
                        2946 --line1101
                        2947 ..lin.C.3A.5Cgit.5Crh850.5Csrc.5Capp.5Cgfx_apps.5Csimple_draw.5Ctarget.5Cd1mx_mango_ghs.5Cobj.5Cr_dev_clk.100::
                        2948 .LDWlin100:
000007ce 0872           2949 	mov	8,r14
                        2950 --1102:         PllCfgReg->P = 4u;
000007d0 70e8           2951 	sld.hu	0[ep],r29
000007d2 04e2           2952 	mov	4,r28
000007d4 fcefde90       2953 	bins	r28,7,3,r29
000007d8 80ec           2954 	sst.h	r29,0[ep]
000007da e50d*          2955 	br	.L1782
                        2956 .L1795:
                        2957 --1103:     }
                        2958 --1104:     else if (freq > 20u)
                        2959 --line1104
                        2960 ..lin.C.3A.5Cgit.5Crh850.5Csrc.5Capp.5Cgfx_apps.5Csimple_draw.5Ctarget.5Cd1mx_mango_ghs.5Cobj.5Cr_dev_clk.101::
                        2961 .LDWlin101:
000007dc 0106ebff       2962 	addi	-21,r1,zero
000007e0 990d*          2963 	bnl	.L1798
                        2964 --1105:     {
                        2965 --1106:         p_r = 16u;
                        2966 --line1106
                        2967 ..lin.C.3A.5Cgit.5Crh850.5Csrc.5Capp.5Cgfx_apps.5Csimple_draw.5Ctarget.5Cd1mx_mango_ghs.5Cobj.5Cr_dev_clk.102::
                        2968 .LDWlin102:
000007e2 20761000       2969 	movea	16,zero,r14
                        2970 --1107:         PllCfgReg->P = 4u;
000007e6 70e8           2971 	sld.hu	0[ep],r29
000007e8 04e2           2972 	mov	4,r28
000007ea fcefde90       2973 	bins	r28,7,3,r29
000007ee 80ec           2974 	sst.h	r29,0[ep]
000007f0 b505*          2975 	br	.L1782
                        2976 .L1798:
                        2977 --1108:     }
                        2978 --1109:     else
                        2979 --1110:     {
                        2980 --1111:         /* the desired frequency is not valid */
                        2981 --1112:         return R_PARAMETER_INCORRECT;
                        2982 --line1112
                        2983 ..lin.C.3A.5Cgit.5Crh850.5Csrc.5Capp.5Cgfx_apps.5Csimple_draw.5Ctarget.5Cd1mx_mango_ghs.5Cobj.5Cr_dev_clk.103::
                        2984 .LDWlin103:
000007f2 04ea           2985 	mov	4,r29
000007f4 b54d*          2986 	br	.L1777
                        2987 .L1782:
                        2988 --1113:     }
                        2989 --1115:     if (24u == FrqIn)
                        2990 --line1115
                        2991 ..lin.C.3A.5Cgit.5Crh850.5Csrc.5Capp.5Cgfx_apps.5Csimple_draw.5Ctarget.5Cd1mx_mango_ghs.5Cobj.5Cr_dev_clk.104::
                        2992 .LDWlin104:
000007f6 0b06e8ff       2993 	addi	-24,r11,zero
000007fa ba05*          2994 	bne	.L1802
                        2995 --1116:     {
                        2996 --1117:        m_r = 3u;
                        2997 --line1117
                        2998 ..lin.C.3A.5Cgit.5Crh850.5Csrc.5Capp.5Cgfx_apps.5Csimple_draw.5Ctarget.5Cd1mx_mango_ghs.5Cobj.5Cr_dev_clk.105::
                        2999 .LDWlin105:
000007fc 0362           3000 	mov	3,r12
000007fe c50d*          3001 	br	.L1804
                        3002 .L1802:

                                                                      Page 51
                                                              C:\Users\Frank\AppData\Local\Temp\gh_0000p9g1.si
                        3003 --1118:     }
                        3004 --1119:     else if (16u <= FrqIn)
                        3005 --line1119
                        3006 ..lin.C.3A.5Cgit.5Crh850.5Csrc.5Capp.5Cgfx_apps.5Csimple_draw.5Ctarget.5Cd1mx_mango_ghs.5Cobj.5Cr_dev_clk.106::
                        3007 .LDWlin106:
00000800 0b06f0ff       3008 	addi	-16,r11,zero
00000804 b905*          3009 	bnl	.L1805
                        3010 --1120:     {
                        3011 --1121:        m_r = 2u;
                        3012 --line1121
                        3013 ..lin.C.3A.5Cgit.5Crh850.5Csrc.5Capp.5Cgfx_apps.5Csimple_draw.5Ctarget.5Cd1mx_mango_ghs.5Cobj.5Cr_dev_clk.107::
                        3014 .LDWlin107:
00000806 0262           3015 	mov	2,r12
00000808 f505*          3016 	br	.L1804
                        3017 .L1805:
                        3018 --1122:     }
                        3019 --1123:     else if  (8u <= FrqIn)
                        3020 --line1123
                        3021 ..lin.C.3A.5Cgit.5Crh850.5Csrc.5Capp.5Cgfx_apps.5Csimple_draw.5Ctarget.5Cd1mx_mango_ghs.5Cobj.5Cr_dev_clk.108::
                        3022 .LDWlin108:
0000080a 685a           3023 	cmp	8,r11
0000080c b105*          3024 	bl	.L1808
                        3025 --1124:     {
                        3026 --1125:        m_r = 1u;
                        3027 --line1125
                        3028 ..lin.C.3A.5Cgit.5Crh850.5Csrc.5Capp.5Cgfx_apps.5Csimple_draw.5Ctarget.5Cd1mx_mango_ghs.5Cobj.5Cr_dev_clk.109::
                        3029 .LDWlin109:
0000080e 0162           3030 	mov	1,r12
00000810 b505*          3031 	br	.L1804
                        3032 .L1808:
                        3033 --1126:     }
                        3034 --1127:     else
                        3035 --1128:     {
                        3036 --1129:         /* the input frequency is not valid */
                        3037 --1130:         return R_PARAMETER_INCORRECT;
                        3038 --line1130
                        3039 ..lin.C.3A.5Cgit.5Crh850.5Csrc.5Capp.5Cgfx_apps.5Csimple_draw.5Ctarget.5Cd1mx_mango_ghs.5Cobj.5Cr_dev_clk.110::
                        3040 .LDWlin110:
00000812 04ea           3041 	mov	4,r29
00000814 b53d*          3042 	br	.L1777
                        3043 .L1804:
                        3044 --1131:     }
                        3045 --1132:     
                        3046 --1133:     n_r = (freq * m_r * p_r)/FrqIn;
                        3047 --line1133
                        3048 ..lin.C.3A.5Cgit.5Crh850.5Csrc.5Capp.5Cgfx_apps.5Csimple_draw.5Ctarget.5Cd1mx_mango_ghs.5Cobj.5Cr_dev_clk.111::
                        3049 .LDWlin111:
00000816 01e8           3050 	mov	r1,r29
00000818 ecef2202       3051 	mulu	r12,r29,zero
0000081c eeef2202       3052 	mulu	r14,r29,zero
00000820 1d68           3053 	mov	r29,r13
00000822 eb6ffe02       3054 	divqu	r11,r13,zero
                        3055 --1135:     /* do we have a valid parameter */
                        3056 --1136:     if ((n_r > 19) && (n_r < 61) )
00000826 0d06ecff       3057 	addi	-20,r13,zero
0000082a 8925*          3058 	bnl	.L1812
0000082c 0d06c3ff       3059 	addi	-61,r13,zero
00000830 d11d*          3060 	bl	.L1812
                        3061 --1137:     {
                        3062 --1138:         *FrqOut       = (FrqIn * n_r)/(m_r * p_r);
                        3063 --line1138

                                                                      Page 52
                                                              C:\Users\Frank\AppData\Local\Temp\gh_0000p9g1.si
                        3064 ..lin.C.3A.5Cgit.5Crh850.5Csrc.5Capp.5Cgfx_apps.5Csimple_draw.5Ctarget.5Cd1mx_mango_ghs.5Cobj.5Cr_dev_clk.112::
                        3065 .LDWlin112:
00000832 0be8           3066 	mov	r11,r29
00000834 0cd8           3067 	mov	r12,r27
00000836 edef2202       3068 	mulu	r13,r29,zero
0000083a eedf2202       3069 	mulu	r14,r27,zero
0000083e fbeffe02       3070 	divqu	r27,r29,zero
00000842 69ef0100       3071 	st.w	r29,0[r9]
                        3072 --1139:         PllCfgReg->NI = (uint8_t) n_r - 1u;
00000846 0de8           3073 	mov	r13,r29
00000848 9d00           3074 	zxb	r29
0000084a 1de6ffff       3075 	addi	-1,r29,r28
0000084e 60e8           3076 	sld.bu	0[ep],r29
00000850 fcefd060       3077 	bins	r28,0,7,r29
00000854 80eb           3078 	sst.b	r29,0[ep]
                        3079 --1140:         PllCfgReg->M  = (uint8_t) m_r - 1u;
00000856 0ce8           3080 	mov	r12,r29
00000858 9d00           3081 	zxb	r29
0000085a 1de6ffff       3082 	addi	-1,r29,r28
0000085e 61e8           3083 	sld.bu	1[ep],r29
00000860 fcefd430       3084 	bins	r28,2,2,r29
00000864 81eb           3085 	sst.b	r29,1[ep]
                        3086 --1142:         retval        = R_ERR_OK;
00000866 0052           3087 	mov	0,r10
00000868 8515*          3088 	br	.L1815
                        3089 .L1812:
                        3090 --1143:     }
                        3091 --1144:     else
                        3092 --1145:     {
                        3093 --1146:         *FrqOut       = 0;
                        3094 --line1146
                        3095 ..lin.C.3A.5Cgit.5Crh850.5Csrc.5Capp.5Cgfx_apps.5Csimple_draw.5Ctarget.5Cd1mx_mango_ghs.5Cobj.5Cr_dev_clk.113::
                        3096 .LDWlin113:
0000086a 69070100       3097 	st.w	zero,0[r9]
                        3098 --1147:         PllCfgReg->NI = 0;
0000086e 60e8           3099 	sld.bu	0[ep],r29
00000870 ddee8000       3100 	andi	128,r29,r29
00000874 80eb           3101 	sst.b	r29,0[ep]
                        3102 --1148:         PllCfgReg->M  = 0;
00000876 61e8           3103 	sld.bu	1[ep],r29
00000878 ddeef300       3104 	andi	243,r29,r29
0000087c 81eb           3105 	sst.b	r29,1[ep]
                        3106 --1149:         PllCfgReg->P  = 0;
0000087e 70e8           3107 	sld.hu	0[ep],r29
00000880 ddee7ffc       3108 	andi	64639,r29,r29
00000884 80ec           3109 	sst.h	r29,0[ep]
                        3110 --1150:         retval        = R_PARAMETER_INCORRECT;
00000886 0452           3111 	mov	4,r10
                        3112 .L1815:
                        3113 --1151:     }
                        3114 --1152:     return retval;
00000888 0ae8           3115 	mov	r10,r29
                        3116 .L1777:
                        3117 --	    .ef
                        3118 .LDW62:
0000088a 1d50           3119 	mov	r29,r10
0000088c 4006df10       3120 	dispose	0,{r27,r28,r29},[lp]
                        3121 	.type	_loc_CalcFreqPll2,@function
                        3122 	.size	_loc_CalcFreqPll2,.-_loc_CalcFreqPll2
                        3123 	.type	_loc_CalcFreqPll2..C.3A.5Cgit.5Crh850.5Csrc.5Capp.5Cgfx_apps.5Csimple_draw.5Ctarget.5Cd1mx_mango_ghs.5Cobj.5Cr_dev_clk.,@function
                        3124 	.size	_loc_CalcFreqPll2..C.3A.5Cgit.5Crh850.5Csrc.5Capp.5Cgfx_apps.5Csimple_draw.5Ctarget.5Cd1mx_mango_ghs.5Cobj.5Cr_dev_clk.,.-_loc_CalcFreqPll2..C.3A.5Cgit.5Crh850.5Csrc.5Capp.5Cgfx_apps.5Csimple_draw.5Ctarget.5Cd1mx_mango_ghs.5Cobj.5Cr_dev_clk.

                                                                      Page 53
                                                              C:\Users\Frank\AppData\Local\Temp\gh_0000p9g1.si
                        3125 	.align	2
                        3126 .LDW72:
                        3127 --_p_r	r14	local
                        3128 --_m_r	r12	local
                        3129 --_n_r	r13	local
                        3130 --_freq	r1	local
                        3131 --_retval	r10	local
                        3132 
                        3133 --_FrqIn	r11	param
                        3134 --_PllCfgReg	ep	param
                        3135 --_FrqOut	r9	param
                        3136 
                        3137 	.section ".bss","awb"
                        3138 .L2034:
                        3139 	.type	.L2034,@object
                        3140 	.size	.L2034,0
                        3141 	.data
                        3142 	.text
                        3143 
                        3144 --1153: }
                        3145 
                        3146 --1156: /*******************************************************************************
                        3147 --1157:   Function: loc_SrcFrequencyHz
                        3148 --1159:     Get the frequency setting for the given source
                        3149 --1160: */
                        3150 --1163: static uint32_t loc_SrcFrequencyHz(r_dev_CksSrc_t ClkSrc)
                        3151 	.align	2
                        3152 	.align	2
                        3153 	.global	_loc_SrcFrequencyHz..C.3A.5Cgit.5Crh850.5Csrc.5Capp.5Cgfx_apps.5Csimple_draw.5Ctarget.5Cd1mx_mango_ghs.5Cobj.5Cr_dev_clk.
                        3154 _loc_SrcFrequencyHz..C.3A.5Cgit.5Crh850.5Csrc.5Capp.5Cgfx_apps.5Csimple_draw.5Ctarget.5Cd1mx_mango_ghs.5Cobj.5Cr_dev_clk.:
                        3155 _loc_SrcFrequencyHz:
00000890 8007e110       3156 	prepare	{r27,r28,r29,r31},0
00000894 06d8           3157 	mov	r6,r27
00000896 210600000000*  3158 	mov	_loc_Vdce0ViFreq,r1
0000089c 3c0600000000*  3159 	mov	_loc_ClkGenCfg,r28
                        3160 --	    .bf
                        3161 .LDW82:
                        3162 --1164: {
                        3163 --1165:     uint32_t freq    = 0;
000008a2 00ea           3164 	mov	0,r29
                        3165 --1166:     switch (ClkSrc)
000008a4 1b70           3166 	mov	r27,r14
000008a6 0e06dbff       3167 	addi	-37,r14,zero
000008aa e1073f03*      3168 	bl	.L2264
000008ae c272           3169 	shl	2,r14
000008b0 ee0600000000*  3170 	jmp	.L2679[r14]
                        3171 .L2679:
000008b6 80079400*      3172 	jr	.L2197
000008ba 80079600*      3173 	jr	.L2198
000008be 80079c00*      3174 	jr	.L2199
000008c2 8007a200*      3175 	jr	.L2200
000008c6 8007ba00*      3176 	jr	.L2204
000008ca 8007ce00*      3177 	jr	.L2208
000008ce 8007e000*      3178 	jr	.L2212
000008d2 8007f200*      3179 	jr	.L2216
000008d6 80070801*      3180 	jr	.L2220
000008da 80071e01*      3181 	jr	.L2224
000008de 80073001*      3182 	jr	.L2228
000008e2 80074601*      3183 	jr	.L2232
000008e6 80075801*      3184 	jr	.L2236
000008ea 80076e01*      3185 	jr	.L2240

                                                                      Page 54
                                                              C:\Users\Frank\AppData\Local\Temp\gh_0000p9g1.si
000008ee 80077801*      3186 	jr	.L2241
000008f2 80078001*      3187 	jr	.L2242
000008f6 80078a01*      3188 	jr	.L2243
000008fa 80079401*      3189 	jr	.L2244
000008fe 8007a001*      3190 	jr	.L2245
00000902 8007ac01*      3191 	jr	.L2246
00000906 8007b801*      3192 	jr	.L2247
0000090a 8007de01*      3193 	jr	.L2249
0000090e 8007f401*      3194 	jr	.L2250
00000912 80070a02*      3195 	jr	.L2251
00000916 80071002*      3196 	jr	.L2252
0000091a 8007b201*      3197 	jr	.L2248
0000091e 80072002*      3198 	jr	.L2253
00000922 80072802*      3199 	jr	.L2254
00000926 80073202*      3200 	jr	.L2255
0000092a 80074e02*      3201 	jr	.L2256
0000092e 80075602*      3202 	jr	.L2257
00000932 80076002*      3203 	jr	.L2258
00000936 80077c02*      3204 	jr	.L2259
0000093a 80078402*      3205 	jr	.L2260
0000093e 80078c02*      3206 	jr	.L2261
00000942 80078e02*      3207 	jr	.L2262
00000946 80079602*      3208 	jr	.L2263
                        3209 .L2197:
                        3210 --1167:     {
                        3211 --1168:         case R_DEV_CKS_SRC_DISABLED :
                        3212 --1169:             freq = 0;
                        3213 --line1169
                        3214 ..lin.C.3A.5Cgit.5Crh850.5Csrc.5Capp.5Cgfx_apps.5Csimple_draw.5Ctarget.5Cd1mx_mango_ghs.5Cobj.5Cr_dev_clk.114::
                        3215 .LDWlin114:
0000094a 00ea           3216 	mov	0,r29
0000094c 8007a602*      3217 	br	.L2195
                        3218 .L2198:
                        3219 --1170:             break;
                        3220 --1171:         case R_DEV_CKS_SRC_LRNG     :
                        3221 --1172:             freq = LOC_LOWS_FRQ_HZ;
                        3222 --line1172
                        3223 ..lin.C.3A.5Cgit.5Crh850.5Csrc.5Capp.5Cgfx_apps.5Csimple_draw.5Ctarget.5Cd1mx_mango_ghs.5Cobj.5Cr_dev_clk.115::
                        3224 .LDWlin115:
00000950 3d0680a90300   3225 	mov	240000,r29
00000956 80079c02*      3226 	br	.L2195
                        3227 .L2199:
                        3228 --1173:             break;
                        3229 --1174:         case R_DEV_CKS_SRC_HRING    :
                        3230 --1175:             freq = LOC_HIGHS_FRQ_HZ;
                        3231 --line1175
                        3232 ..lin.C.3A.5Cgit.5Crh850.5Csrc.5Capp.5Cgfx_apps.5Csimple_draw.5Ctarget.5Cd1mx_mango_ghs.5Cobj.5Cr_dev_clk.116::
                        3233 .LDWlin116:
0000095a 3d0600127a00   3234 	mov	8000000,r29
00000960 80079202*      3235 	br	.L2195
                        3236 .L2200:
                        3237 --1176:             break;
                        3238 --1177:         case R_DEV_CKS_SRC_ERING    :
                        3239 --1178:            /* select the right OSC */
                        3240 --1179:             if (0 != R_DEV_ClkGenActive(R_DEV_HS_RING))
                        3241 --line1179
                        3242 ..lin.C.3A.5Cgit.5Crh850.5Csrc.5Capp.5Cgfx_apps.5Csimple_draw.5Ctarget.5Cd1mx_mango_ghs.5Cobj.5Cr_dev_clk.117::
                        3243 .LDWlin117:
00000964 0332           3244 	mov	3,r6
                        3245 	jarl	_R_DEV_ClkGenActive,lp
                        3245 <EXPANSION BEGIN>

                                                                      Page 55
                                                              C:\Users\Frank\AppData\Local\Temp\gh_0000p9g1.si
                        3245 jarl22 _R_DEV_ClkGenActive , lp 
00000966 80ff9202*      3245 <EXPANSION END>
0000096a e051           3246 	cmp	zero,r10
0000096c d205*          3247 	be	.L2201
                        3248 --1180:             {
                        3249 --1181:                 freq = LOC_HIGHS_FRQ_HZ;
                        3250 --line1181
                        3251 ..lin.C.3A.5Cgit.5Crh850.5Csrc.5Capp.5Cgfx_apps.5Csimple_draw.5Ctarget.5Cd1mx_mango_ghs.5Cobj.5Cr_dev_clk.118::
                        3252 .LDWlin118:
0000096e 3d0600127a00   3253 	mov	8000000,r29
00000974 c505*          3254 	br	.L2203
                        3255 .L2201:
                        3256 --1182:             }
                        3257 --1183:             else
                        3258 --1184:             {
                        3259 --1185:                  freq = LOC_LOWS_FRQ_HZ;
                        3260 --line1185
                        3261 ..lin.C.3A.5Cgit.5Crh850.5Csrc.5Capp.5Cgfx_apps.5Csimple_draw.5Ctarget.5Cd1mx_mango_ghs.5Cobj.5Cr_dev_clk.119::
                        3262 .LDWlin119:
00000976 3d0680a90300   3263 	mov	240000,r29
                        3264 .L2203:
0000097c 80077602*      3265 	br	.L2195
                        3266 .L2204:
                        3267 --1186:             }
                        3268 --1187:             break;
                        3269 --1188:         case R_DEV_CKS_SRC_MOSC     :
                        3270 --1189:             if (0 != R_DEV_ClkGenActive(R_DEV_MOSC))
                        3271 --line1189
                        3272 ..lin.C.3A.5Cgit.5Crh850.5Csrc.5Capp.5Cgfx_apps.5Csimple_draw.5Ctarget.5Cd1mx_mango_ghs.5Cobj.5Cr_dev_clk.120::
                        3273 .LDWlin120:
00000980 0432           3274 	mov	4,r6
                        3275 	jarl	_R_DEV_ClkGenActive,lp
                        3275 <EXPANSION BEGIN>
                        3275 jarl22 _R_DEV_ClkGenActive , lp 
00000982 80ff7602*      3275 <EXPANSION END>
00000986 e051           3276 	cmp	zero,r10
00000988 d205*          3277 	be	.L2205
                        3278 --1190:             {
                        3279 --1191:                 freq = R_DEV_MOSC_FRQ_HZ;
                        3280 --line1191
                        3281 ..lin.C.3A.5Cgit.5Crh850.5Csrc.5Capp.5Cgfx_apps.5Csimple_draw.5Ctarget.5Cd1mx_mango_ghs.5Cobj.5Cr_dev_clk.121::
                        3282 .LDWlin121:
0000098a 3d0600127a00   3283 	mov	8000000,r29
00000990 a505*          3284 	br	.L2207
                        3285 .L2205:
                        3286 --1192:             }
                        3287 --1193:             else
                        3288 --1194:             {
                        3289 --1195:                 freq = 0;
                        3290 --line1195
                        3291 ..lin.C.3A.5Cgit.5Crh850.5Csrc.5Capp.5Cgfx_apps.5Csimple_draw.5Ctarget.5Cd1mx_mango_ghs.5Cobj.5Cr_dev_clk.122::
                        3292 .LDWlin122:
00000992 00ea           3293 	mov	0,r29
                        3294 .L2207:
00000994 80075e02*      3295 	br	.L2195
                        3296 .L2208:
                        3297 --1196:             }
                        3298 --1197:             break;
                        3299 --1198:         case R_DEV_CKS_SRC_SOSC     :
                        3300 --1199:             if (0 != R_DEV_ClkGenActive(R_DEV_SOSC))
                        3301 --line1199

                                                                      Page 56
                                                              C:\Users\Frank\AppData\Local\Temp\gh_0000p9g1.si
                        3302 ..lin.C.3A.5Cgit.5Crh850.5Csrc.5Capp.5Cgfx_apps.5Csimple_draw.5Ctarget.5Cd1mx_mango_ghs.5Cobj.5Cr_dev_clk.123::
                        3303 .LDWlin123:
00000998 0532           3304 	mov	5,r6
                        3305 	jarl	_R_DEV_ClkGenActive,lp
                        3305 <EXPANSION BEGIN>
                        3305 jarl22 _R_DEV_ClkGenActive , lp 
0000099a 80ff5e02*      3305 <EXPANSION END>
0000099e e051           3306 	cmp	zero,r10
000009a0 c205*          3307 	be	.L2209
                        3308 --1200:             {
                        3309 --1201:                 freq = loc_ClkGenCfg.SubOsc.FrequencyHz;
                        3310 --line1201
                        3311 ..lin.C.3A.5Cgit.5Crh850.5Csrc.5Capp.5Cgfx_apps.5Csimple_draw.5Ctarget.5Cd1mx_mango_ghs.5Cobj.5Cr_dev_clk.124::
                        3312 .LDWlin124:
000009a2 3cef0d00       3313 	ld.w	12[r28],r29
000009a6 a505*          3314 	br	.L2211
                        3315 .L2209:
                        3316 --1202:             }
                        3317 --1203:             else
                        3318 --1204:             {
                        3319 --1205:                 freq = 0;
                        3320 --line1205
                        3321 ..lin.C.3A.5Cgit.5Crh850.5Csrc.5Capp.5Cgfx_apps.5Csimple_draw.5Ctarget.5Cd1mx_mango_ghs.5Cobj.5Cr_dev_clk.125::
                        3322 .LDWlin125:
000009a8 00ea           3323 	mov	0,r29
                        3324 .L2211:
000009aa 80074802*      3325 	br	.L2195
                        3326 .L2212:
                        3327 --1206:             }
                        3328 --1207:             break;
                        3329 --1208:         case R_DEV_CKS_SRC_PLL0     :
                        3330 --1209:             if (0 != R_DEV_ClkGenActive(R_DEV_PLL0))
                        3331 --line1209
                        3332 ..lin.C.3A.5Cgit.5Crh850.5Csrc.5Capp.5Cgfx_apps.5Csimple_draw.5Ctarget.5Cd1mx_mango_ghs.5Cobj.5Cr_dev_clk.126::
                        3333 .LDWlin126:
000009ae 0032           3334 	mov	0,r6
                        3335 	jarl	_R_DEV_ClkGenActive,lp
                        3335 <EXPANSION BEGIN>
                        3335 jarl22 _R_DEV_ClkGenActive , lp 
000009b0 80ff4802*      3335 <EXPANSION END>
000009b4 e051           3336 	cmp	zero,r10
000009b6 c205*          3337 	be	.L2213
                        3338 --1210:             {
                        3339 --1211:                 freq = loc_ClkGenCfg.Pll[0].FrequencyHz;
                        3340 --line1211
                        3341 ..lin.C.3A.5Cgit.5Crh850.5Csrc.5Capp.5Cgfx_apps.5Csimple_draw.5Ctarget.5Cd1mx_mango_ghs.5Cobj.5Cr_dev_clk.127::
                        3342 .LDWlin127:
000009b8 3cef2500       3343 	ld.w	36[r28],r29
000009bc a505*          3344 	br	.L2215
                        3345 .L2213:
                        3346 --1212:             }
                        3347 --1213:             else
                        3348 --1214:             {
                        3349 --1215:                 freq = 0;
                        3350 --line1215
                        3351 ..lin.C.3A.5Cgit.5Crh850.5Csrc.5Capp.5Cgfx_apps.5Csimple_draw.5Ctarget.5Cd1mx_mango_ghs.5Cobj.5Cr_dev_clk.128::
                        3352 .LDWlin128:
000009be 00ea           3353 	mov	0,r29
                        3354 .L2215:
000009c0 80073202*      3355 	br	.L2195
                        3356 .L2216:

                                                                      Page 57
                                                              C:\Users\Frank\AppData\Local\Temp\gh_0000p9g1.si
                        3357 --1216:             }
                        3358 --1217:             break;
                        3359 --1218:         case R_DEV_CKS_SRC_PLL0_2   :
                        3360 --1219:             if (0 != R_DEV_ClkGenActive(R_DEV_PLL0))
                        3361 --line1219
                        3362 ..lin.C.3A.5Cgit.5Crh850.5Csrc.5Capp.5Cgfx_apps.5Csimple_draw.5Ctarget.5Cd1mx_mango_ghs.5Cobj.5Cr_dev_clk.129::
                        3363 .LDWlin129:
000009c4 0032           3364 	mov	0,r6
                        3365 	jarl	_R_DEV_ClkGenActive,lp
                        3365 <EXPANSION BEGIN>
                        3365 jarl22 _R_DEV_ClkGenActive , lp 
000009c6 80ff3202*      3365 <EXPANSION END>
000009ca e051           3366 	cmp	zero,r10
000009cc e205*          3367 	be	.L2217
                        3368 --1220:             {
                        3369 --1221:                 freq = loc_ClkGenCfg.Pll[0].FrequencyHz / 2;
                        3370 --line1221
                        3371 ..lin.C.3A.5Cgit.5Crh850.5Csrc.5Capp.5Cgfx_apps.5Csimple_draw.5Ctarget.5Cd1mx_mango_ghs.5Cobj.5Cr_dev_clk.130::
                        3372 .LDWlin130:
000009ce 3c0f2500       3373 	ld.w	36[r28],r1
000009d2 01e8           3374 	mov	r1,r29
000009d4 81ea           3375 	shr	1,r29
000009d6 a505*          3376 	br	.L2219
                        3377 .L2217:
                        3378 --1222:             }
                        3379 --1223:             else
                        3380 --1224:             {
                        3381 --1225:                 freq = 0;
                        3382 --line1225
                        3383 ..lin.C.3A.5Cgit.5Crh850.5Csrc.5Capp.5Cgfx_apps.5Csimple_draw.5Ctarget.5Cd1mx_mango_ghs.5Cobj.5Cr_dev_clk.131::
                        3384 .LDWlin131:
000009d8 00ea           3385 	mov	0,r29
                        3386 .L2219:
000009da 80071802*      3387 	br	.L2195
                        3388 .L2220:
                        3389 --1226:             }
                        3390 --1227:             break;
                        3391 --1228:         case R_DEV_CKS_SRC_PLL0_4   :
                        3392 --1229:             if (0 != R_DEV_ClkGenActive(R_DEV_PLL0))
                        3393 --line1229
                        3394 ..lin.C.3A.5Cgit.5Crh850.5Csrc.5Capp.5Cgfx_apps.5Csimple_draw.5Ctarget.5Cd1mx_mango_ghs.5Cobj.5Cr_dev_clk.132::
                        3395 .LDWlin132:
000009de 0032           3396 	mov	0,r6
                        3397 	jarl	_R_DEV_ClkGenActive,lp
                        3397 <EXPANSION BEGIN>
                        3397 jarl22 _R_DEV_ClkGenActive , lp 
000009e0 80ff1802*      3397 <EXPANSION END>
000009e4 e051           3398 	cmp	zero,r10
000009e6 e205*          3399 	be	.L2221
                        3400 --1230:             {
                        3401 --1231:                 freq = loc_ClkGenCfg.Pll[0].FrequencyHz / 4;
                        3402 --line1231
                        3403 ..lin.C.3A.5Cgit.5Crh850.5Csrc.5Capp.5Cgfx_apps.5Csimple_draw.5Ctarget.5Cd1mx_mango_ghs.5Cobj.5Cr_dev_clk.133::
                        3404 .LDWlin133:
000009e8 3c0f2500       3405 	ld.w	36[r28],r1
000009ec 01e8           3406 	mov	r1,r29
000009ee 82ea           3407 	shr	2,r29
000009f0 a505*          3408 	br	.L2223
                        3409 .L2221:
                        3410 --1232:             }
                        3411 --1233:             else

                                                                      Page 58
                                                              C:\Users\Frank\AppData\Local\Temp\gh_0000p9g1.si
                        3412 --1234:             {
                        3413 --1235:                 freq = 0;
                        3414 --line1235
                        3415 ..lin.C.3A.5Cgit.5Crh850.5Csrc.5Capp.5Cgfx_apps.5Csimple_draw.5Ctarget.5Cd1mx_mango_ghs.5Cobj.5Cr_dev_clk.134::
                        3416 .LDWlin134:
000009f2 00ea           3417 	mov	0,r29
                        3418 .L2223:
000009f4 8007fe01*      3419 	br	.L2195
                        3420 .L2224:
                        3421 --1236:             }
                        3422 --1237:             break;
                        3423 --1238:         case R_DEV_CKS_SRC_PLL1     :
                        3424 --1239:             if (0 != R_DEV_ClkGenActive(R_DEV_PLL1))
                        3425 --line1239
                        3426 ..lin.C.3A.5Cgit.5Crh850.5Csrc.5Capp.5Cgfx_apps.5Csimple_draw.5Ctarget.5Cd1mx_mango_ghs.5Cobj.5Cr_dev_clk.135::
                        3427 .LDWlin135:
000009f8 0132           3428 	mov	1,r6
                        3429 	jarl	_R_DEV_ClkGenActive,lp
                        3429 <EXPANSION BEGIN>
                        3429 jarl22 _R_DEV_ClkGenActive , lp 
000009fa 80fffe01*      3429 <EXPANSION END>
000009fe e051           3430 	cmp	zero,r10
00000a00 c205*          3431 	be	.L2225
                        3432 --1240:             {
                        3433 --1241:                 freq = loc_ClkGenCfg.Pll[1].FrequencyHz / 1;
                        3434 --line1241
                        3435 ..lin.C.3A.5Cgit.5Crh850.5Csrc.5Capp.5Cgfx_apps.5Csimple_draw.5Ctarget.5Cd1mx_mango_ghs.5Cobj.5Cr_dev_clk.136::
                        3436 .LDWlin136:
00000a02 3cef4100       3437 	ld.w	64[r28],r29
00000a06 a505*          3438 	br	.L2227
                        3439 .L2225:
                        3440 --1242:             }
                        3441 --1243:             else
                        3442 --1244:             {
                        3443 --1245:                 freq = 0;
                        3444 --line1245
                        3445 ..lin.C.3A.5Cgit.5Crh850.5Csrc.5Capp.5Cgfx_apps.5Csimple_draw.5Ctarget.5Cd1mx_mango_ghs.5Cobj.5Cr_dev_clk.137::
                        3446 .LDWlin137:
00000a08 00ea           3447 	mov	0,r29
                        3448 .L2227:
00000a0a 8007e801*      3449 	br	.L2195
                        3450 .L2228:
                        3451 --1246:             }
                        3452 --1247:             break;
                        3453 --1248:         case R_DEV_CKS_SRC_PLL1_4   :
                        3454 --1249:             if (0 != R_DEV_ClkGenActive(R_DEV_PLL1))
                        3455 --line1249
                        3456 ..lin.C.3A.5Cgit.5Crh850.5Csrc.5Capp.5Cgfx_apps.5Csimple_draw.5Ctarget.5Cd1mx_mango_ghs.5Cobj.5Cr_dev_clk.138::
                        3457 .LDWlin138:
00000a0e 0132           3458 	mov	1,r6
                        3459 	jarl	_R_DEV_ClkGenActive,lp
                        3459 <EXPANSION BEGIN>
                        3459 jarl22 _R_DEV_ClkGenActive , lp 
00000a10 80ffe801*      3459 <EXPANSION END>
00000a14 e051           3460 	cmp	zero,r10
00000a16 e205*          3461 	be	.L2229
                        3462 --1250:             {
                        3463 --1251:                 freq = loc_ClkGenCfg.Pll[1].FrequencyHz / 4;
                        3464 --line1251
                        3465 ..lin.C.3A.5Cgit.5Crh850.5Csrc.5Capp.5Cgfx_apps.5Csimple_draw.5Ctarget.5Cd1mx_mango_ghs.5Cobj.5Cr_dev_clk.139::
                        3466 .LDWlin139:

                                                                      Page 59
                                                              C:\Users\Frank\AppData\Local\Temp\gh_0000p9g1.si
00000a18 3c0f4100       3467 	ld.w	64[r28],r1
00000a1c 01e8           3468 	mov	r1,r29
00000a1e 82ea           3469 	shr	2,r29
00000a20 a505*          3470 	br	.L2231
                        3471 .L2229:
                        3472 --1252:             }
                        3473 --1253:             else
                        3474 --1254:             {
                        3475 --1255:                 freq = 0;
                        3476 --line1255
                        3477 ..lin.C.3A.5Cgit.5Crh850.5Csrc.5Capp.5Cgfx_apps.5Csimple_draw.5Ctarget.5Cd1mx_mango_ghs.5Cobj.5Cr_dev_clk.140::
                        3478 .LDWlin140:
00000a22 00ea           3479 	mov	0,r29
                        3480 .L2231:
00000a24 8007ce01*      3481 	br	.L2195
                        3482 .L2232:
                        3483 --1256:             }
                        3484 --1257:             break;
                        3485 --1258:         case R_DEV_CKS_SRC_PLL2     :
                        3486 --1259:             if (0 != R_DEV_ClkGenActive(R_DEV_PLL2))
                        3487 --line1259
                        3488 ..lin.C.3A.5Cgit.5Crh850.5Csrc.5Capp.5Cgfx_apps.5Csimple_draw.5Ctarget.5Cd1mx_mango_ghs.5Cobj.5Cr_dev_clk.141::
                        3489 .LDWlin141:
00000a28 0232           3490 	mov	2,r6
                        3491 	jarl	_R_DEV_ClkGenActive,lp
                        3491 <EXPANSION BEGIN>
                        3491 jarl22 _R_DEV_ClkGenActive , lp 
00000a2a 80ffce01*      3491 <EXPANSION END>
00000a2e e051           3492 	cmp	zero,r10
00000a30 c205*          3493 	be	.L2233
                        3494 --1260:             {
                        3495 --1261:                 freq = loc_ClkGenCfg.Pll[2].FrequencyHz;
                        3496 --line1261
                        3497 ..lin.C.3A.5Cgit.5Crh850.5Csrc.5Capp.5Cgfx_apps.5Csimple_draw.5Ctarget.5Cd1mx_mango_ghs.5Cobj.5Cr_dev_clk.142::
                        3498 .LDWlin142:
00000a32 3cef5d00       3499 	ld.w	92[r28],r29
00000a36 a505*          3500 	br	.L2235
                        3501 .L2233:
                        3502 --1262:             }
                        3503 --1263:             else
                        3504 --1264:             {
                        3505 --1265:                 freq = 0;
                        3506 --line1265
                        3507 ..lin.C.3A.5Cgit.5Crh850.5Csrc.5Capp.5Cgfx_apps.5Csimple_draw.5Ctarget.5Cd1mx_mango_ghs.5Cobj.5Cr_dev_clk.143::
                        3508 .LDWlin143:
00000a38 00ea           3509 	mov	0,r29
                        3510 .L2235:
00000a3a 8007b801*      3511 	br	.L2195
                        3512 .L2236:
                        3513 --1266:             }
                        3514 --1267:             break;
                        3515 --1268:         case R_DEV_CKS_SRC_PLL2_4   :
                        3516 --1269:             if (0 != R_DEV_ClkGenActive(R_DEV_PLL2))
                        3517 --line1269
                        3518 ..lin.C.3A.5Cgit.5Crh850.5Csrc.5Capp.5Cgfx_apps.5Csimple_draw.5Ctarget.5Cd1mx_mango_ghs.5Cobj.5Cr_dev_clk.144::
                        3519 .LDWlin144:
00000a3e 0232           3520 	mov	2,r6
                        3521 	jarl	_R_DEV_ClkGenActive,lp
                        3521 <EXPANSION BEGIN>
                        3521 jarl22 _R_DEV_ClkGenActive , lp 
00000a40 80ffb801*      3521 <EXPANSION END>

                                                                      Page 60
                                                              C:\Users\Frank\AppData\Local\Temp\gh_0000p9g1.si
00000a44 e051           3522 	cmp	zero,r10
00000a46 e205*          3523 	be	.L2237
                        3524 --1270:             {
                        3525 --1271:                 freq = loc_ClkGenCfg.Pll[2].FrequencyHz / 4;
                        3526 --line1271
                        3527 ..lin.C.3A.5Cgit.5Crh850.5Csrc.5Capp.5Cgfx_apps.5Csimple_draw.5Ctarget.5Cd1mx_mango_ghs.5Cobj.5Cr_dev_clk.145::
                        3528 .LDWlin145:
00000a48 3c0f5d00       3529 	ld.w	92[r28],r1
00000a4c 01e8           3530 	mov	r1,r29
00000a4e 82ea           3531 	shr	2,r29
00000a50 a505*          3532 	br	.L2239
                        3533 .L2237:
                        3534 --1272:             }
                        3535 --1273:             else
                        3536 --1274:             {
                        3537 --1275:                 freq = 0;
                        3538 --line1275
                        3539 ..lin.C.3A.5Cgit.5Crh850.5Csrc.5Capp.5Cgfx_apps.5Csimple_draw.5Ctarget.5Cd1mx_mango_ghs.5Cobj.5Cr_dev_clk.146::
                        3540 .LDWlin146:
00000a52 00ea           3541 	mov	0,r29
                        3542 .L2239:
00000a54 80079e01*      3543 	br	.L2195
                        3544 .L2240:
                        3545 --1276:             }
                        3546 --1277:             break;
                        3547 --1278:         case R_DEV_CKS_SRC_ISOCPU_4 :
                        3548 --1279:             freq = R_DEV_BusFrequencyHz(R_DEV_CLK_CPU) / 4;
                        3549 --line1279
                        3550 ..lin.C.3A.5Cgit.5Crh850.5Csrc.5Capp.5Cgfx_apps.5Csimple_draw.5Ctarget.5Cd1mx_mango_ghs.5Cobj.5Cr_dev_clk.147::
                        3551 .LDWlin147:
00000a58 0b32           3552 	mov	11,r6
                        3553 	jarl	_R_DEV_BusFrequencyHz,lp
                        3553 <EXPANSION BEGIN>
                        3553 jarl22 _R_DEV_BusFrequencyHz , lp 
00000a5a 80ff840b*      3553 <EXPANSION END>
00000a5e 0ae8           3554 	mov	r10,r29
00000a60 82ea           3555 	shr	2,r29
                        3556 --line1280
                        3557 ..lin.C.3A.5Cgit.5Crh850.5Csrc.5Capp.5Cgfx_apps.5Csimple_draw.5Ctarget.5Cd1mx_mango_ghs.5Cobj.5Cr_dev_clk.148::
                        3558 .LDWlin148:
00000a62 80079001*      3559 	br	.L2195
                        3560 .L2241:
                        3561 --1280:             break;
                        3562 --1281:         case R_DEV_CKS_SRC_CLKFIX   :
                        3563 --1282:             freq = R_DEV_BusFrequencyHz(R_DEV_CLK_FIX);
                        3564 --line1282
                        3565 ..lin.C.3A.5Cgit.5Crh850.5Csrc.5Capp.5Cgfx_apps.5Csimple_draw.5Ctarget.5Cd1mx_mango_ghs.5Cobj.5Cr_dev_clk.149::
                        3566 .LDWlin149:
00000a66 0f32           3567 	mov	15,r6
                        3568 	jarl	_R_DEV_BusFrequencyHz,lp
                        3568 <EXPANSION BEGIN>
                        3568 jarl22 _R_DEV_BusFrequencyHz , lp 
00000a68 80ff760b*      3568 <EXPANSION END>
00000a6c 0ae8           3569 	mov	r10,r29
                        3570 --line1283
                        3571 ..lin.C.3A.5Cgit.5Crh850.5Csrc.5Capp.5Cgfx_apps.5Csimple_draw.5Ctarget.5Cd1mx_mango_ghs.5Cobj.5Cr_dev_clk.150::
                        3572 .LDWlin150:
00000a6e 80078401*      3573 	br	.L2195
                        3574 .L2242:
                        3575 --1283:             break;
                        3576 --1284:         case R_DEV_CKS_SRC_CLKFIX_8 :

                                                                      Page 61
                                                              C:\Users\Frank\AppData\Local\Temp\gh_0000p9g1.si
                        3577 --1285:             freq = R_DEV_BusFrequencyHz(R_DEV_CLK_FIX) / 8;
                        3578 --line1285
                        3579 ..lin.C.3A.5Cgit.5Crh850.5Csrc.5Capp.5Cgfx_apps.5Csimple_draw.5Ctarget.5Cd1mx_mango_ghs.5Cobj.5Cr_dev_clk.151::
                        3580 .LDWlin151:
00000a72 0f32           3581 	mov	15,r6
                        3582 	jarl	_R_DEV_BusFrequencyHz,lp
                        3582 <EXPANSION BEGIN>
                        3582 jarl22 _R_DEV_BusFrequencyHz , lp 
00000a74 80ff6a0b*      3582 <EXPANSION END>
00000a78 0ae8           3583 	mov	r10,r29
00000a7a 83ea           3584 	shr	3,r29
                        3585 --line1286
                        3586 ..lin.C.3A.5Cgit.5Crh850.5Csrc.5Capp.5Cgfx_apps.5Csimple_draw.5Ctarget.5Cd1mx_mango_ghs.5Cobj.5Cr_dev_clk.152::
                        3587 .LDWlin152:
00000a7c 80077601*      3588 	br	.L2195
                        3589 .L2243:
                        3590 --1286:             break;
                        3591 --1287:         case R_DEV_CKS_SRC_CLKJIT   :
                        3592 --1288:             freq = R_DEV_ClkFrequencyHz(R_DEV_CKS_CLKJIT);
                        3593 --line1288
                        3594 ..lin.C.3A.5Cgit.5Crh850.5Csrc.5Capp.5Cgfx_apps.5Csimple_draw.5Ctarget.5Cd1mx_mango_ghs.5Cobj.5Cr_dev_clk.153::
                        3595 .LDWlin153:
00000a80 20361200       3596 	movea	18,zero,r6
                        3597 	jarl	_R_DEV_ClkFrequencyHz,lp
                        3597 <EXPANSION BEGIN>
                        3597 jarl22 _R_DEV_ClkFrequencyHz , lp 
00000a84 80ff7a06*      3597 <EXPANSION END>
00000a88 0ae8           3598 	mov	r10,r29
                        3599 --line1289
                        3600 ..lin.C.3A.5Cgit.5Crh850.5Csrc.5Capp.5Cgfx_apps.5Csimple_draw.5Ctarget.5Cd1mx_mango_ghs.5Cobj.5Cr_dev_clk.154::
                        3601 .LDWlin154:
00000a8a 80076801*      3602 	br	.L2195
                        3603 .L2244:
                        3604 --1289:             break;
                        3605 --1290:         case R_DEV_CKS_SRC_CLKJIT_2 :
                        3606 --1291:             freq = R_DEV_ClkFrequencyHz(R_DEV_CKS_CLKJIT) / 2;
                        3607 --line1291
                        3608 ..lin.C.3A.5Cgit.5Crh850.5Csrc.5Capp.5Cgfx_apps.5Csimple_draw.5Ctarget.5Cd1mx_mango_ghs.5Cobj.5Cr_dev_clk.155::
                        3609 .LDWlin155:
00000a8e 20361200       3610 	movea	18,zero,r6
                        3611 	jarl	_R_DEV_ClkFrequencyHz,lp
                        3611 <EXPANSION BEGIN>
                        3611 jarl22 _R_DEV_ClkFrequencyHz , lp 
00000a92 80ff6c06*      3611 <EXPANSION END>
00000a96 0ae8           3612 	mov	r10,r29
00000a98 81ea           3613 	shr	1,r29
                        3614 --line1292
                        3615 ..lin.C.3A.5Cgit.5Crh850.5Csrc.5Capp.5Cgfx_apps.5Csimple_draw.5Ctarget.5Cd1mx_mango_ghs.5Cobj.5Cr_dev_clk.156::
                        3616 .LDWlin156:
00000a9a 80075801*      3617 	br	.L2195
                        3618 .L2245:
                        3619 --1292:             break;
                        3620 --1293:         case R_DEV_CKS_SRC_CLKJIT_4 :
                        3621 --1294:             freq = R_DEV_ClkFrequencyHz(R_DEV_CKS_CLKJIT) / 4;
                        3622 --line1294
                        3623 ..lin.C.3A.5Cgit.5Crh850.5Csrc.5Capp.5Cgfx_apps.5Csimple_draw.5Ctarget.5Cd1mx_mango_ghs.5Cobj.5Cr_dev_clk.157::
                        3624 .LDWlin157:
00000a9e 20361200       3625 	movea	18,zero,r6
                        3626 	jarl	_R_DEV_ClkFrequencyHz,lp
                        3626 <EXPANSION BEGIN>
                        3626 jarl22 _R_DEV_ClkFrequencyHz , lp 

                                                                      Page 62
                                                              C:\Users\Frank\AppData\Local\Temp\gh_0000p9g1.si
00000aa2 80ff5c06*      3626 <EXPANSION END>
00000aa6 0ae8           3627 	mov	r10,r29
00000aa8 82ea           3628 	shr	2,r29
                        3629 --line1295
                        3630 ..lin.C.3A.5Cgit.5Crh850.5Csrc.5Capp.5Cgfx_apps.5Csimple_draw.5Ctarget.5Cd1mx_mango_ghs.5Cobj.5Cr_dev_clk.158::
                        3631 .LDWlin158:
00000aaa 80074801*      3632 	br	.L2195
                        3633 .L2246:
                        3634 --1295:             break;
                        3635 --1296:         case R_DEV_CKS_SRC_CLKJIT_8 :
                        3636 --1297:             freq = R_DEV_ClkFrequencyHz(R_DEV_CKS_CLKJIT) / 8;
                        3637 --line1297
                        3638 ..lin.C.3A.5Cgit.5Crh850.5Csrc.5Capp.5Cgfx_apps.5Csimple_draw.5Ctarget.5Cd1mx_mango_ghs.5Cobj.5Cr_dev_clk.159::
                        3639 .LDWlin159:
00000aae 20361200       3640 	movea	18,zero,r6
                        3641 	jarl	_R_DEV_ClkFrequencyHz,lp
                        3641 <EXPANSION BEGIN>
                        3641 jarl22 _R_DEV_ClkFrequencyHz , lp 
00000ab2 80ff4c06*      3641 <EXPANSION END>
00000ab6 0ae8           3642 	mov	r10,r29
00000ab8 83ea           3643 	shr	3,r29
                        3644 --line1298
                        3645 ..lin.C.3A.5Cgit.5Crh850.5Csrc.5Capp.5Cgfx_apps.5Csimple_draw.5Ctarget.5Cd1mx_mango_ghs.5Cobj.5Cr_dev_clk.160::
                        3646 .LDWlin160:
00000aba 80073801*      3647 	br	.L2195
                        3648 .L2247:
                        3649 --1298:             break;
                        3650 --1299:         case R_DEV_CKS_SRC_PLLFIX   :
                        3651 --1300:             freq = R_DEV_ClkFrequencyHz(R_DEV_CKS_PLLFIX);
                        3652 --line1300
                        3653 ..lin.C.3A.5Cgit.5Crh850.5Csrc.5Capp.5Cgfx_apps.5Csimple_draw.5Ctarget.5Cd1mx_mango_ghs.5Cobj.5Cr_dev_clk.161::
                        3654 .LDWlin161:
00000abe 20361400       3655 	movea	20,zero,r6
                        3656 	jarl	_R_DEV_ClkFrequencyHz,lp
                        3656 <EXPANSION BEGIN>
                        3656 jarl22 _R_DEV_ClkFrequencyHz , lp 
00000ac2 80ff3c06*      3656 <EXPANSION END>
00000ac6 0ae8           3657 	mov	r10,r29
                        3658 --line1301
                        3659 ..lin.C.3A.5Cgit.5Crh850.5Csrc.5Capp.5Cgfx_apps.5Csimple_draw.5Ctarget.5Cd1mx_mango_ghs.5Cobj.5Cr_dev_clk.162::
                        3660 .LDWlin162:
00000ac8 80072a01*      3661 	br	.L2195
                        3662 .L2248:
                        3663 --1301:             break;
                        3664 --1302:         case R_DEV_CKS_SRC_PLLFIX_3 :
                        3665 --1303:             freq = R_DEV_ClkFrequencyHz(R_DEV_CKS_PLLFIX) / 3;
                        3666 --line1303
                        3667 ..lin.C.3A.5Cgit.5Crh850.5Csrc.5Capp.5Cgfx_apps.5Csimple_draw.5Ctarget.5Cd1mx_mango_ghs.5Cobj.5Cr_dev_clk.163::
                        3668 .LDWlin163:
00000acc 20361400       3669 	movea	20,zero,r6
                        3670 	jarl	_R_DEV_ClkFrequencyHz,lp
                        3670 <EXPANSION BEGIN>
                        3670 jarl22 _R_DEV_ClkFrequencyHz , lp 
00000ad0 80ff2e06*      3670 <EXPANSION END>
00000ad4 2106abaaaaaa   3671 	mov	-1431655765,r1
00000ada 0160           3672 	mov	r1,r12
00000adc ea67226a       3673 	mulu	r10,r12,r13
00000ae0 0de8           3674 	mov	r13,r29
00000ae2 81ea           3675 	shr	1,r29
                        3676 --line1304
                        3677 ..lin.C.3A.5Cgit.5Crh850.5Csrc.5Capp.5Cgfx_apps.5Csimple_draw.5Ctarget.5Cd1mx_mango_ghs.5Cobj.5Cr_dev_clk.164::

                                                                      Page 63
                                                              C:\Users\Frank\AppData\Local\Temp\gh_0000p9g1.si
                        3678 .LDWlin164:
00000ae4 80070e01*      3679 	br	.L2195
                        3680 .L2249:
                        3681 --1304:             break;
                        3682 --1305:         case R_DEV_CKS_SRC_PLLFIX_10:
                        3683 --1306:             freq = R_DEV_ClkFrequencyHz(R_DEV_CKS_PLLFIX) / 10;
                        3684 --line1306
                        3685 ..lin.C.3A.5Cgit.5Crh850.5Csrc.5Capp.5Cgfx_apps.5Csimple_draw.5Ctarget.5Cd1mx_mango_ghs.5Cobj.5Cr_dev_clk.165::
                        3686 .LDWlin165:
00000ae8 20361400       3687 	movea	20,zero,r6
                        3688 	jarl	_R_DEV_ClkFrequencyHz,lp
                        3688 <EXPANSION BEGIN>
                        3688 jarl22 _R_DEV_ClkFrequencyHz , lp 
00000aec 80ff1206*      3688 <EXPANSION END>
00000af0 2106cdcccccc   3689 	mov	-858993459,r1
00000af6 0160           3690 	mov	r1,r12
00000af8 ea67226a       3691 	mulu	r10,r12,r13
00000afc 0de8           3692 	mov	r13,r29
00000afe 83ea           3693 	shr	3,r29
                        3694 --line1307
                        3695 ..lin.C.3A.5Cgit.5Crh850.5Csrc.5Capp.5Cgfx_apps.5Csimple_draw.5Ctarget.5Cd1mx_mango_ghs.5Cobj.5Cr_dev_clk.166::
                        3696 .LDWlin166:
00000b00 957d*          3697 	br	.L2195
                        3698 .L2250:
                        3699 --1307:             break;
                        3700 --1308:         case R_DEV_CKS_SRC_PLLFIX_20:
                        3701 --1309:             freq = R_DEV_ClkFrequencyHz(R_DEV_CKS_PLLFIX) / 20;
                        3702 --line1309
                        3703 ..lin.C.3A.5Cgit.5Crh850.5Csrc.5Capp.5Cgfx_apps.5Csimple_draw.5Ctarget.5Cd1mx_mango_ghs.5Cobj.5Cr_dev_clk.167::
                        3704 .LDWlin167:
00000b02 20361400       3705 	movea	20,zero,r6
                        3706 	jarl	_R_DEV_ClkFrequencyHz,lp
                        3706 <EXPANSION BEGIN>
                        3706 jarl22 _R_DEV_ClkFrequencyHz , lp 
00000b06 80fff805*      3706 <EXPANSION END>
00000b0a 2106cdcccccc   3707 	mov	-858993459,r1
00000b10 0160           3708 	mov	r1,r12
00000b12 ea67226a       3709 	mulu	r10,r12,r13
00000b16 0de8           3710 	mov	r13,r29
00000b18 84ea           3711 	shr	4,r29
                        3712 --line1310
                        3713 ..lin.C.3A.5Cgit.5Crh850.5Csrc.5Capp.5Cgfx_apps.5Csimple_draw.5Ctarget.5Cd1mx_mango_ghs.5Cobj.5Cr_dev_clk.168::
                        3714 .LDWlin168:
00000b1a c56d*          3715 	br	.L2195
                        3716 .L2251:
                        3717 --1310:             break;
                        3718 --1311:         case R_DEV_CKS_SRC_PLL0PIX:
                        3719 --1312:             freq = R_DEV_BusFrequencyHz(R_DEV_CLK_PLL0PIX);
                        3720 --line1312
                        3721 ..lin.C.3A.5Cgit.5Crh850.5Csrc.5Capp.5Cgfx_apps.5Csimple_draw.5Ctarget.5Cd1mx_mango_ghs.5Cobj.5Cr_dev_clk.169::
                        3722 .LDWlin169:
00000b1c 0332           3723 	mov	3,r6
                        3724 	jarl	_R_DEV_BusFrequencyHz,lp
                        3724 <EXPANSION BEGIN>
                        3724 jarl22 _R_DEV_BusFrequencyHz , lp 
00000b1e 80ffc00a*      3724 <EXPANSION END>
00000b22 0ae8           3725 	mov	r10,r29
                        3726 --line1313
                        3727 ..lin.C.3A.5Cgit.5Crh850.5Csrc.5Capp.5Cgfx_apps.5Csimple_draw.5Ctarget.5Cd1mx_mango_ghs.5Cobj.5Cr_dev_clk.170::
                        3728 .LDWlin170:
00000b24 f565*          3729 	br	.L2195

                                                                      Page 64
                                                              C:\Users\Frank\AppData\Local\Temp\gh_0000p9g1.si
                        3730 .L2252:
                        3731 --1313:             break;
                        3732 --1314:         case R_DEV_CKS_SRC_PLL0PIX_3:
                        3733 --1315:             freq = R_DEV_BusFrequencyHz(R_DEV_CLK_PLL0PIX) / 3;
                        3734 --line1315
                        3735 ..lin.C.3A.5Cgit.5Crh850.5Csrc.5Capp.5Cgfx_apps.5Csimple_draw.5Ctarget.5Cd1mx_mango_ghs.5Cobj.5Cr_dev_clk.171::
                        3736 .LDWlin171:
00000b26 0332           3737 	mov	3,r6
                        3738 	jarl	_R_DEV_BusFrequencyHz,lp
                        3738 <EXPANSION BEGIN>
                        3738 jarl22 _R_DEV_BusFrequencyHz , lp 
00000b28 80ffb60a*      3738 <EXPANSION END>
00000b2c 2106abaaaaaa   3739 	mov	-1431655765,r1
00000b32 0160           3740 	mov	r1,r12
00000b34 ea67226a       3741 	mulu	r10,r12,r13
00000b38 0de8           3742 	mov	r13,r29
00000b3a 81ea           3743 	shr	1,r29
                        3744 --line1316
                        3745 ..lin.C.3A.5Cgit.5Crh850.5Csrc.5Capp.5Cgfx_apps.5Csimple_draw.5Ctarget.5Cd1mx_mango_ghs.5Cobj.5Cr_dev_clk.172::
                        3746 .LDWlin172:
00000b3c b55d*          3747 	br	.L2195
                        3748 .L2253:
                        3749 --1316:             break;
                        3750 --1317:         case R_DEV_CKS_SRC_DOTCK0   :
                        3751 --1318:             freq  = R_DEV_ClkFrequencyHz(R_DEV_CKS_DOTCK0);
                        3752 --line1318
                        3753 ..lin.C.3A.5Cgit.5Crh850.5Csrc.5Capp.5Cgfx_apps.5Csimple_draw.5Ctarget.5Cd1mx_mango_ghs.5Cobj.5Cr_dev_clk.173::
                        3754 .LDWlin173:
00000b3e 20361600       3755 	movea	22,zero,r6
                        3756 	jarl	_R_DEV_ClkFrequencyHz,lp
                        3756 <EXPANSION BEGIN>
                        3756 jarl22 _R_DEV_ClkFrequencyHz , lp 
00000b42 80ffbc05*      3756 <EXPANSION END>
00000b46 0ae8           3757 	mov	r10,r29
                        3758 --line1319
                        3759 ..lin.C.3A.5Cgit.5Crh850.5Csrc.5Capp.5Cgfx_apps.5Csimple_draw.5Ctarget.5Cd1mx_mango_ghs.5Cobj.5Cr_dev_clk.174::
                        3760 .LDWlin174:
00000b48 d555*          3761 	br	.L2195
                        3762 .L2254:
                        3763 --1319:             break;
                        3764 --1320:         case R_DEV_CKS_SRC_DOTCK0_4 :
                        3765 --1321:             freq  = R_DEV_ClkFrequencyHz(R_DEV_CKS_DOTCK0) / 4;
                        3766 --line1321
                        3767 ..lin.C.3A.5Cgit.5Crh850.5Csrc.5Capp.5Cgfx_apps.5Csimple_draw.5Ctarget.5Cd1mx_mango_ghs.5Cobj.5Cr_dev_clk.175::
                        3768 .LDWlin175:
00000b4a 20361600       3769 	movea	22,zero,r6
                        3770 	jarl	_R_DEV_ClkFrequencyHz,lp
                        3770 <EXPANSION BEGIN>
                        3770 jarl22 _R_DEV_ClkFrequencyHz , lp 
00000b4e 80ffb005*      3770 <EXPANSION END>
00000b52 0ae8           3771 	mov	r10,r29
00000b54 82ea           3772 	shr	2,r29
                        3773 --line1322
                        3774 ..lin.C.3A.5Cgit.5Crh850.5Csrc.5Capp.5Cgfx_apps.5Csimple_draw.5Ctarget.5Cd1mx_mango_ghs.5Cobj.5Cr_dev_clk.176::
                        3775 .LDWlin176:
00000b56 e54d*          3776 	br	.L2195
                        3777 .L2255:
                        3778 --1322:             break;
                        3779 --1323:         case R_DEV_CKS_SRC_DOTCK0_7 :
                        3780 --1324:             freq  = R_DEV_ClkFrequencyHz(R_DEV_CKS_DOTCK0) / 7;
                        3781 --line1324

                                                                      Page 65
                                                              C:\Users\Frank\AppData\Local\Temp\gh_0000p9g1.si
                        3782 ..lin.C.3A.5Cgit.5Crh850.5Csrc.5Capp.5Cgfx_apps.5Csimple_draw.5Ctarget.5Cd1mx_mango_ghs.5Cobj.5Cr_dev_clk.177::
                        3783 .LDWlin177:
00000b58 20361600       3784 	movea	22,zero,r6
                        3785 	jarl	_R_DEV_ClkFrequencyHz,lp
                        3785 <EXPANSION BEGIN>
                        3785 jarl22 _R_DEV_ClkFrequencyHz , lp 
00000b5c 80ffa205*      3785 <EXPANSION END>
00000b60 2c0625499224   3786 	mov	613566757,r12
00000b66 ea67226a       3787 	mulu	r10,r12,r13
00000b6a 0a08           3788 	mov	r10,r1
00000b6c 0de8           3789 	mov	r13,r29
00000b6e bd09           3790 	sub	r29,r1
00000b70 810a           3791 	shr	1,r1
00000b72 c1e9           3792 	add	r1,r29
00000b74 82ea           3793 	shr	2,r29
                        3794 --line1325
                        3795 ..lin.C.3A.5Cgit.5Crh850.5Csrc.5Capp.5Cgfx_apps.5Csimple_draw.5Ctarget.5Cd1mx_mango_ghs.5Cobj.5Cr_dev_clk.178::
                        3796 .LDWlin178:
00000b76 e53d*          3797 	br	.L2195
                        3798 .L2256:
                        3799 --1325:             break;
                        3800 --1326:         case R_DEV_CKS_SRC_DOTCK1   :
                        3801 --1327:             freq  = R_DEV_ClkFrequencyHz(R_DEV_CKS_DOTCK1);
                        3802 --line1327
                        3803 ..lin.C.3A.5Cgit.5Crh850.5Csrc.5Capp.5Cgfx_apps.5Csimple_draw.5Ctarget.5Cd1mx_mango_ghs.5Cobj.5Cr_dev_clk.179::
                        3804 .LDWlin179:
00000b78 20361700       3805 	movea	23,zero,r6
                        3806 	jarl	_R_DEV_ClkFrequencyHz,lp
                        3806 <EXPANSION BEGIN>
                        3806 jarl22 _R_DEV_ClkFrequencyHz , lp 
00000b7c 80ff8205*      3806 <EXPANSION END>
00000b80 0ae8           3807 	mov	r10,r29
                        3808 --line1328
                        3809 ..lin.C.3A.5Cgit.5Crh850.5Csrc.5Capp.5Cgfx_apps.5Csimple_draw.5Ctarget.5Cd1mx_mango_ghs.5Cobj.5Cr_dev_clk.180::
                        3810 .LDWlin180:
00000b82 853d*          3811 	br	.L2195
                        3812 .L2257:
                        3813 --1328:             break;
                        3814 --1329:         case R_DEV_CKS_SRC_DOTCK1_4 :
                        3815 --1330:             freq  = R_DEV_ClkFrequencyHz(R_DEV_CKS_DOTCK1) / 4;
                        3816 --line1330
                        3817 ..lin.C.3A.5Cgit.5Crh850.5Csrc.5Capp.5Cgfx_apps.5Csimple_draw.5Ctarget.5Cd1mx_mango_ghs.5Cobj.5Cr_dev_clk.181::
                        3818 .LDWlin181:
00000b84 20361700       3819 	movea	23,zero,r6
                        3820 	jarl	_R_DEV_ClkFrequencyHz,lp
                        3820 <EXPANSION BEGIN>
                        3820 jarl22 _R_DEV_ClkFrequencyHz , lp 
00000b88 80ff7605*      3820 <EXPANSION END>
00000b8c 0ae8           3821 	mov	r10,r29
00000b8e 82ea           3822 	shr	2,r29
                        3823 --line1331
                        3824 ..lin.C.3A.5Cgit.5Crh850.5Csrc.5Capp.5Cgfx_apps.5Csimple_draw.5Ctarget.5Cd1mx_mango_ghs.5Cobj.5Cr_dev_clk.182::
                        3825 .LDWlin182:
00000b90 9535*          3826 	br	.L2195
                        3827 .L2258:
                        3828 --1331:             break;
                        3829 --1332:         case R_DEV_CKS_SRC_DOTCK1_7 :
                        3830 --1333:             freq  = R_DEV_ClkFrequencyHz(R_DEV_CKS_DOTCK1) / 7;
                        3831 --line1333
                        3832 ..lin.C.3A.5Cgit.5Crh850.5Csrc.5Capp.5Cgfx_apps.5Csimple_draw.5Ctarget.5Cd1mx_mango_ghs.5Cobj.5Cr_dev_clk.183::
                        3833 .LDWlin183:

                                                                      Page 66
                                                              C:\Users\Frank\AppData\Local\Temp\gh_0000p9g1.si
00000b92 20361700       3834 	movea	23,zero,r6
                        3835 	jarl	_R_DEV_ClkFrequencyHz,lp
                        3835 <EXPANSION BEGIN>
                        3835 jarl22 _R_DEV_ClkFrequencyHz , lp 
00000b96 80ff6805*      3835 <EXPANSION END>
00000b9a 2c0625499224   3836 	mov	613566757,r12
00000ba0 ea67226a       3837 	mulu	r10,r12,r13
00000ba4 0a08           3838 	mov	r10,r1
00000ba6 0de8           3839 	mov	r13,r29
00000ba8 bd09           3840 	sub	r29,r1
00000baa 810a           3841 	shr	1,r1
00000bac c1e9           3842 	add	r1,r29
00000bae 82ea           3843 	shr	2,r29
                        3844 --line1334
                        3845 ..lin.C.3A.5Cgit.5Crh850.5Csrc.5Capp.5Cgfx_apps.5Csimple_draw.5Ctarget.5Cd1mx_mango_ghs.5Cobj.5Cr_dev_clk.184::
                        3846 .LDWlin184:
00000bb0 9525*          3847 	br	.L2195
                        3848 .L2259:
                        3849 --1334:             break;
                        3850 --1335:         case R_DEV_CKS_SRC_VI0CLK   :
                        3851 --1336:             freq  = loc_Vdce0ViFreq;
                        3852 --line1336
                        3853 ..lin.C.3A.5Cgit.5Crh850.5Csrc.5Capp.5Cgfx_apps.5Csimple_draw.5Ctarget.5Cd1mx_mango_ghs.5Cobj.5Cr_dev_clk.185::
                        3854 .LDWlin185:
00000bb2 3d0600000000*  3855 	mov	_loc_Vdce0ViFreq,r29
00000bb8 3def0100       3856 	ld.w	0[r29],r29
00000bbc b51d*          3857 	br	.L2195
                        3858 .L2260:
                        3859 --1337:             break;
                        3860 --1338:         case R_DEV_CKS_SRC_VI0PIX   :
                        3861 --1339:             freq = R_DEV_ClkFrequencyHz(R_DEV_CKS_VI0CLK);
                        3862 --line1339
                        3863 ..lin.C.3A.5Cgit.5Crh850.5Csrc.5Capp.5Cgfx_apps.5Csimple_draw.5Ctarget.5Cd1mx_mango_ghs.5Cobj.5Cr_dev_clk.186::
                        3864 .LDWlin186:
00000bbe 20361b00       3865 	movea	27,zero,r6
                        3866 	jarl	_R_DEV_ClkFrequencyHz,lp
                        3866 <EXPANSION BEGIN>
                        3866 jarl22 _R_DEV_ClkFrequencyHz , lp 
00000bc2 80ff3c05*      3866 <EXPANSION END>
00000bc6 0ae8           3867 	mov	r10,r29
                        3868 --line1340
                        3869 ..lin.C.3A.5Cgit.5Crh850.5Csrc.5Capp.5Cgfx_apps.5Csimple_draw.5Ctarget.5Cd1mx_mango_ghs.5Cobj.5Cr_dev_clk.187::
                        3870 .LDWlin187:
00000bc8 d515*          3871 	br	.L2195
                        3872 .L2261:
                        3873 --1340:             break;
                        3874 --1341:         case R_DEV_CKS_SRC_VI1PIX   :
                        3875 --1342:             freq  = loc_Vdce1ViFreq;
                        3876 --line1342
                        3877 ..lin.C.3A.5Cgit.5Crh850.5Csrc.5Capp.5Cgfx_apps.5Csimple_draw.5Ctarget.5Cd1mx_mango_ghs.5Cobj.5Cr_dev_clk.188::
                        3878 .LDWlin188:
00000bca 21ef0500       3879 	ld.w	4[r1],r29
00000bce a515*          3880 	br	.L2195
                        3881 .L2262:
                        3882 --1343:             break;
                        3883 --1344:         case R_DEV_CKS_SRC_MIPIPXL  :
                        3884 --1345:             freq = R_DEV_ClkFrequencyHz(R_DEV_CKS_MIPIPXL);
                        3885 --line1345
                        3886 ..lin.C.3A.5Cgit.5Crh850.5Csrc.5Capp.5Cgfx_apps.5Csimple_draw.5Ctarget.5Cd1mx_mango_ghs.5Cobj.5Cr_dev_clk.189::
                        3887 .LDWlin189:
00000bd0 20361d00       3888 	movea	29,zero,r6

                                                                      Page 67
                                                              C:\Users\Frank\AppData\Local\Temp\gh_0000p9g1.si
                        3889 	jarl	_R_DEV_ClkFrequencyHz,lp
                        3889 <EXPANSION BEGIN>
                        3889 jarl22 _R_DEV_ClkFrequencyHz , lp 
00000bd4 80ff2a05*      3889 <EXPANSION END>
00000bd8 0ae8           3890 	mov	r10,r29
                        3891 --line1346
                        3892 ..lin.C.3A.5Cgit.5Crh850.5Csrc.5Capp.5Cgfx_apps.5Csimple_draw.5Ctarget.5Cd1mx_mango_ghs.5Cobj.5Cr_dev_clk.190::
                        3893 .LDWlin190:
00000bda c50d*          3894 	br	.L2195
                        3895 .L2263:
                        3896 --1346:             break;
                        3897 --1347:         case R_DEV_CKS_SRC_MIPIPLL  :
                        3898 --1348:             freq = R_DEV_ClkFrequencyHz(R_DEV_CKS_MIPIPLL);
                        3899 --line1348
                        3900 ..lin.C.3A.5Cgit.5Crh850.5Csrc.5Capp.5Cgfx_apps.5Csimple_draw.5Ctarget.5Cd1mx_mango_ghs.5Cobj.5Cr_dev_clk.191::
                        3901 .LDWlin191:
00000bdc 20361c00       3902 	movea	28,zero,r6
                        3903 	jarl	_R_DEV_ClkFrequencyHz,lp
                        3903 <EXPANSION BEGIN>
                        3903 jarl22 _R_DEV_ClkFrequencyHz , lp 
00000be0 80ff1e05*      3903 <EXPANSION END>
00000be4 0ae8           3904 	mov	r10,r29
                        3905 --line1349
                        3906 ..lin.C.3A.5Cgit.5Crh850.5Csrc.5Capp.5Cgfx_apps.5Csimple_draw.5Ctarget.5Cd1mx_mango_ghs.5Cobj.5Cr_dev_clk.192::
                        3907 .LDWlin192:
00000be6 e505*          3908 	br	.L2195
                        3909 .L2264:
                        3910 --1349:             break;
                        3911 --1350:         default:
                        3912 --1351:             R_DEV_ERROR((uint32_t)ClkSrc, R_DEV_ERR_IDX, "Wrong ClockID!");
                        3913 --line1351
                        3914 ..lin.C.3A.5Cgit.5Crh850.5Csrc.5Capp.5Cgfx_apps.5Csimple_draw.5Ctarget.5Cd1mx_mango_ghs.5Cobj.5Cr_dev_clk.193::
                        3915 .LDWlin193:
00000be8 1b30           3916 	mov	r27,r6
00000bea 083a           3917 	mov	8,r7
                        3918 	jarl	_R_DEV_ErrorHandler,lp
                        3918 <EXPANSION BEGIN>
                        3918 jarl22 _R_DEV_ErrorHandler , lp 
00000bec 80ff0000*      3918 <EXPANSION END>
                        3919 --line1352
                        3920 ..lin.C.3A.5Cgit.5Crh850.5Csrc.5Capp.5Cgfx_apps.5Csimple_draw.5Ctarget.5Cd1mx_mango_ghs.5Cobj.5Cr_dev_clk.194::
                        3921 .LDWlin194:
00000bf0 0000           3922 	nop
                        3923 .L2195:
                        3924 --1352:         break;
                        3925 --1353:     }
                        3926 --1354:     return freq;
00000bf2 1d50           3927 	mov	r29,r10
                        3928 --	    .ef
                        3929 .LDW92:
00000bf4 4006ff10       3930 	dispose	0,{r27,r28,r29,r31},[lp]
                        3931 	.type	_loc_SrcFrequencyHz,@function
                        3932 	.size	_loc_SrcFrequencyHz,.-_loc_SrcFrequencyHz
                        3933 	.type	_loc_SrcFrequencyHz..C.3A.5Cgit.5Crh850.5Csrc.5Capp.5Cgfx_apps.5Csimple_draw.5Ctarget.5Cd1mx_mango_ghs.5Cobj.5Cr_dev_clk.,@function
                        3934 	.size	_loc_SrcFrequencyHz..C.3A.5Cgit.5Crh850.5Csrc.5Capp.5Cgfx_apps.5Csimple_draw.5Ctarget.5Cd1mx_mango_ghs.5Cobj.5Cr_dev_clk.,.-_loc_SrcFrequencyHz..C.3A.5Cgit.5Crh850.5Csrc.5Capp.5Cgfx_apps.5Csimple_draw.5Ctarget.5Cd1mx_mango_ghs.5Cobj.5Cr_dev_clk.
                        3935 	.align	2
                        3936 .LDW03:
                        3937 --_freq	r29	local
                        3938 
                        3939 --_ClkSrc	r27	param
                        3940 

                                                                      Page 68
                                                              C:\Users\Frank\AppData\Local\Temp\gh_0000p9g1.si
                        3941 	.data
                        3942 	.ghsnote jtable,2097156,.L2679,.L2679,.L2679,37
                        3943 	.text
                        3944 
                        3945 --1355: }
                        3946 
                        3947 --1357: /*******************************************************************************
                        3948 --1358:   Section: Global API Functions
                        3949 --1359: */
                        3950 --1362: /*******************************************************************************
                        3951 --1363:   Function: R_DEV_ClkGenActive
                        3952 --1364:     
                        3953 --1365:     
                        3954 --1366:     see: <r_dev_api.h> for details
                        3955 --1367: */
                        3956 --1369: uint8_t R_DEV_ClkGenActive(r_dev_ClkGen_t ClkGen)
                        3957 	.align	2
                        3958 	.align	2
                        3959 	.global	_R_DEV_ClkGenActive
                        3960 _R_DEV_ClkGenActive:
00000bf8 8007e110       3961 	prepare	{r27,r28,r29,r31},0
00000bfc 06d8           3962 	mov	r6,r27
                        3963 --	    .bf
                        3964 .LDW13:
                        3965 --1370: {
                        3966 --1371:     uint32_t addr    = 0;
00000bfe 00ea           3967 	mov	0,r29
                        3968 --1372:     uint8_t  ret_val = 0;
00000c00 00e2           3969 	mov	0,r28
                        3970 --1374:     if (ClkGen < R_DEV_CLK_GEN_NUM)
00000c02 66da           3971 	cmp	6,r27
00000c04 f90d*          3972 	bnl	.L2990
                        3973 --1375:     {
                        3974 --1376:         addr = loc_Base[ClkGen] + LOC_GEN_S;
                        3975 --line1376
                        3976 ..lin.C.3A.5Cgit.5Crh850.5Csrc.5Capp.5Cgfx_apps.5Csimple_draw.5Ctarget.5Cd1mx_mango_ghs.5Cobj.5Cr_dev_clk.195::
                        3977 .LDWlin195:
00000c06 1bf0           3978 	mov	r27,ep
00000c08 c2f2           3979 	shl	2,ep
00000c0a 2e0600000000*  3980 	mov	_loc_Base,r14
00000c10 cef1           3981 	add	r14,ep
00000c12 00ed           3982 	sld.w	0[ep],r29
00000c14 44ea           3983 	add	4,r29
                        3984 --1377:         if (LOC_GEN_ACTIVE_MASK == (R_DEV_READ_REG(32, addr) & LOC_GEN_ACTIVE_MASK))
00000c16 3d0f0100       3985 	ld.w	0[r29],r1
00000c1a 830a           3986 	shr	3,r1
00000c1c f905*          3987 	bnl	.L2994
                        3988 --1378:         {
                        3989 --1379:             ret_val = 1;
                        3990 --line1379
                        3991 ..lin.C.3A.5Cgit.5Crh850.5Csrc.5Capp.5Cgfx_apps.5Csimple_draw.5Ctarget.5Cd1mx_mango_ghs.5Cobj.5Cr_dev_clk.196::
                        3992 .LDWlin196:
00000c1e 01e2           3993 	mov	1,r28
00000c20 d505*          3994 	br	.L2994
                        3995 .L2990:
                        3996 --1380:         }
                        3997 --1381:     }
                        3998 --1382:     else
                        3999 --1383:     {
                        4000 --1384:         R_DEV_ERROR((uint32_t)ClkGen, R_DEV_ERR_IDX, "Wrong clock generator selected!");
                        4001 --line1384

                                                                      Page 69
                                                              C:\Users\Frank\AppData\Local\Temp\gh_0000p9g1.si
                        4002 ..lin.C.3A.5Cgit.5Crh850.5Csrc.5Capp.5Cgfx_apps.5Csimple_draw.5Ctarget.5Cd1mx_mango_ghs.5Cobj.5Cr_dev_clk.197::
                        4003 .LDWlin197:
00000c22 1b30           4004 	mov	r27,r6
00000c24 083a           4005 	mov	8,r7
                        4006 	jarl	_R_DEV_ErrorHandler,lp
                        4006 <EXPANSION BEGIN>
                        4006 jarl22 _R_DEV_ErrorHandler , lp 
00000c26 80ff0000*      4006 <EXPANSION END>
                        4007 .L2994:
                        4008 --1385:         
                        4009 --1386:     }
                        4010 --1387:     return ret_val;
                        4011 --line1387
                        4012 ..lin.C.3A.5Cgit.5Crh850.5Csrc.5Capp.5Cgfx_apps.5Csimple_draw.5Ctarget.5Cd1mx_mango_ghs.5Cobj.5Cr_dev_clk.198::
                        4013 .LDWlin198:
00000c2a 1c50           4014 	mov	r28,r10
                        4015 --	    .ef
                        4016 .LDW23:
00000c2c 4006ff10       4017 	dispose	0,{r27,r28,r29,r31},[lp]
                        4018 	.type	_R_DEV_ClkGenActive,@function
                        4019 	.size	_R_DEV_ClkGenActive,.-_R_DEV_ClkGenActive
                        4020 	.align	2
                        4021 .LDW33:
                        4022 --_addr	r29	local
                        4023 --_ret_val	r28	local
                        4024 
                        4025 --_ClkGen	r27	param
                        4026 
                        4027 	.section ".bss","awb"
                        4028 .L3050:
                        4029 	.type	.L3050,@object
                        4030 	.size	.L3050,0
                        4031 	.data
                        4032 	.text
                        4033 
                        4034 --1388: }
                        4035 
                        4036 --1391: /*******************************************************************************
                        4037 --1392:   Function: R_DEV_ClkIdSet
                        4038 --1394:     see: <r_dev_api.h> for details
                        4039 --1395: */
                        4040 --1398: r_Error_t R_DEV_ClkIdSet(const r_dev_ClkSelConfig_t * ClkSelCfg)
                        4041 	.align	2
                        4042 	.align	2
                        4043 	.global	_R_DEV_ClkIdSet
                        4044 _R_DEV_ClkIdSet:
00000c30 9007e170       4045 	prepare	{r25,r26,r27,r28,r29,r31},8
00000c34 06d8           4046 	mov	r6,r27
                        4047 --	    .bf
                        4048 .LDW43:
                        4049 --1399: {
                        4050 --1400:     uint32_t  sel_addr = 0;
00000c36 00d2           4051 	mov	0,r26
                        4052 --1401:     uint32_t  div_addr = 0;
00000c38 00e2           4053 	mov	0,r28
                        4054 --1402:     uint16_t  div_idx  = 0;
00000c3a 63070600       4055 	st.h	zero,6[sp]
00000c3e 005a           4056 	mov	0,r11
                        4057 --1403:     uint32_t  reg_val  = 0;
00000c40 63070900       4058 	st.w	zero,8[sp]
00000c44 005a           4059 	mov	0,r11

                                                                      Page 70
                                                              C:\Users\Frank\AppData\Local\Temp\gh_0000p9g1.si
                        4060 --1404:     r_Error_t ret_val  = R_NG;
00000c46 015a           4061 	mov	1,r11
00000c48 635f1500       4062 	st.w	r11,20[sp]
                        4063 --1405:     uint8_t   i        = 0;
00000c4c 00ea           4064 	mov	0,r29
                        4065 --1406:     uint16_t  cks_sel  = 0;
00000c4e 00ca           4066 	mov	0,r25
                        4067 --1407:     uint16_t  div_sel  = 0;
00000c50 63070400       4068 	st.h	zero,4[sp]
00000c54 005a           4069 	mov	0,r11
                        4070 --1408:     r_dev_Device_t device;
                        4071 --1409:     r_dev_CksSrc_t pll_sub;
                        4072 --1410:     r_dev_CksSrc_t clk_src;
                        4073 --1411:     
                        4074 --1412:     /* D1M1 translation */
                        4075 --1413:     /* Double substitution:
                        4076 --1414:         1. replace source selection Pll2 -> Pll1
                        4077 --1415:         2. replace allowed setting Pll2 -> Pll1 */
                        4078 --1416:     device = R_DEV_GetDev();
                        4079 	jarl	_R_DEV_GetDev,lp
                        4079 <EXPANSION BEGIN>
                        4079 jarl22 _R_DEV_GetDev , lp 
00000c56 80ff0000*      4079 <EXPANSION END>
00000c5a 63570100       4080 	st.w	r10,0[sp]
                        4081 --1417:     clk_src = ClkSelCfg->SrcId;
                        4082 --line1417
                        4083 ..lin.C.3A.5Cgit.5Crh850.5Csrc.5Capp.5Cgfx_apps.5Csimple_draw.5Ctarget.5Cd1mx_mango_ghs.5Cobj.5Cr_dev_clk.199::
                        4084 .LDWlin199:
00000c5e 3b5f0500       4085 	ld.w	4[r27],r11
00000c62 635f0d00       4086 	st.w	r11,12[sp]
                        4087 --1418:     /* 1. PLL2 -> Pll1 */
                        4088 --1419:     if (((device >= R_DEV_R7F701401) && (device <= R_DEV_R7F701407))
00000c66 235f0100       4089 	ld.w	0[sp],r11
00000c6a 0b0687fa       4090 	addi	-1401,r11,zero
00000c6e e905*          4091 	bnl	.L3088
00000c70 235f0100       4092 	ld.w	0[sp],r11
00000c74 0b0680fa       4093 	addi	-1408,r11,zero
00000c78 b90d*          4094 	bnl	.L3086
                        4095 .L3088:
00000c7a 235f0100       4096 	ld.w	0[sp],r11
00000c7e 0b065efa       4097 	addi	-1442,r11,zero
00000c82 e205*          4098 	be	.L3086
00000c84 235f0100       4099 	ld.w	0[sp],r11
00000c88 0b0676fa       4100 	addi	-1418,r11,zero
00000c8c 8a0d*          4101 	bne	.L3085
                        4102 .L3086:
                        4103 --1420:         || (device == R_DEV_R7F701442)
                        4104 --1421:         || (device == R_DEV_R7F701418))
                        4105 --1422:     {
                        4106 --1423:         if (LOC_PLL2 == clk_src)
                        4107 --line1423
                        4108 ..lin.C.3A.5Cgit.5Crh850.5Csrc.5Capp.5Cgfx_apps.5Csimple_draw.5Ctarget.5Cd1mx_mango_ghs.5Cobj.5Cr_dev_clk.200::
                        4109 .LDWlin200:
00000c8e 235f0d00       4110 	ld.w	12[sp],r11
00000c92 6b5a           4111 	cmp	11,r11
00000c94 ca05*          4112 	bne	.L3085
                        4113 --1424:         {
                        4114 --1425:             clk_src = LOC_PLL1;
                        4115 --line1425
                        4116 ..lin.C.3A.5Cgit.5Crh850.5Csrc.5Capp.5Cgfx_apps.5Csimple_draw.5Ctarget.5Cd1mx_mango_ghs.5Cobj.5Cr_dev_clk.201::
                        4117 .LDWlin201:

                                                                      Page 71
                                                              C:\Users\Frank\AppData\Local\Temp\gh_0000p9g1.si
00000c96 095a           4118 	mov	9,r11
00000c98 635f0d00       4119 	st.w	r11,12[sp]
                        4120 .L3085:
                        4121 --1426:         }
                        4122 --1427:     }
                        4123 --1429:     /* Check range */
                        4124 --1430:     if (ClkSelCfg->Cks < R_DEV_CKS_LAST)
00000c9c 3b0f0100       4125 	ld.w	0[r27],r1
00000ca0 0106e2ff       4126 	addi	-30,r1,zero
00000ca4 f11d*          4127 	bl	.L3092
                        4128 --1431:     {
                        4129 --1432:         sel_addr     = loc_CkcsBaseAddr[ClkSelCfg->Cks].Sel;
                        4130 --line1432
                        4131 ..lin.C.3A.5Cgit.5Crh850.5Csrc.5Capp.5Cgfx_apps.5Csimple_draw.5Ctarget.5Cd1mx_mango_ghs.5Cobj.5Cr_dev_clk.202::
                        4132 .LDWlin202:
00000ca6 3b0f0000       4133 	ld.h	0[r27],r1
00000caa 2b0600000000*  4134 	mov	_loc_CkcsBaseAddr,r11
00000cb0 e1f60c00       4135 	mulhi	12,r1,ep
00000cb4 cbf1           4136 	add	r11,ep
00000cb6 00d5           4137 	sld.w	0[ep],r26
                        4138 --1433:         div_addr     = loc_CkcsBaseAddr[ClkSelCfg->Cks].Div;
00000cb8 3b0f0000       4139 	ld.h	0[r27],r1
00000cbc 2b0600000000*  4140 	mov	_loc_CkcsBaseAddr,r11
00000cc2 e1f60c00       4141 	mulhi	12,r1,ep
00000cc6 cbf1           4142 	add	r11,ep
00000cc8 02e5           4143 	sld.w	4[ep],r28
                        4144 --1434:         div_idx      = loc_CkcsBaseAddr[ClkSelCfg->Cks].DivIdx;
00000cca 3b0f0000       4145 	ld.h	0[r27],r1
00000cce 2b0600000000*  4146 	mov	_loc_CkcsBaseAddr,r11
00000cd4 e1f60c00       4147 	mulhi	12,r1,ep
00000cd8 cbf1           4148 	add	r11,ep
00000cda 7460           4149 	sld.hu	8[ep],r12
00000cdc 63670600       4150 	st.h	r12,6[sp]
00000ce0 e505*          4151 	br	.L3094
                        4152 .L3092:
                        4153 --1435:     }
                        4154 --1436:     else
                        4155 --1437:     {
                        4156 --1438:         R_DEV_ERROR((uint32_t)ClkSelCfg->Cks, R_DEV_ERR_IDX, "Wrong clock domain selected!");
                        4157 --line1438
                        4158 ..lin.C.3A.5Cgit.5Crh850.5Csrc.5Capp.5Cgfx_apps.5Csimple_draw.5Ctarget.5Cd1mx_mango_ghs.5Cobj.5Cr_dev_clk.203::
                        4159 .LDWlin203:
00000ce2 3b370100       4160 	ld.w	0[r27],r6
00000ce6 083a           4161 	mov	8,r7
                        4162 	jarl	_R_DEV_ErrorHandler,lp
                        4162 <EXPANSION BEGIN>
                        4162 jarl22 _R_DEV_ErrorHandler , lp 
00000ce8 80ff0000*      4162 <EXPANSION END>
                        4163 .L3094:
                        4164 --1439:     }
                        4165 --1441:     /* Find the right ID setting */
                        4166 --1442:     for (i = 0; i < 8; i++) /* Search for the ID*/
                        4167 --line1442
                        4168 ..lin.C.3A.5Cgit.5Crh850.5Csrc.5Capp.5Cgfx_apps.5Csimple_draw.5Ctarget.5Cd1mx_mango_ghs.5Cobj.5Cr_dev_clk.204::
                        4169 .LDWlin204:
00000cec 00ea           4170 	mov	0,r29
00000cee 0000           4171 	nop
                        4172 .L3097:
                        4173 --1443:     {
                        4174 --1444:         pll_sub = loc_ClockTree[ClkSelCfg->Cks][i];
00000cf0 3b0f0100       4175 	ld.w	0[r27],r1

                                                                      Page 72
                                                              C:\Users\Frank\AppData\Local\Temp\gh_0000p9g1.si
00000cf4 3e0600000000*  4176 	mov	_loc_ClockTree,ep
00000cfa c30a           4177 	shl	3,r1
00000cfc dd09           4178 	add	r29,r1
00000cfe c20a           4179 	shl	2,r1
00000d00 c1f1           4180 	add	r1,ep
00000d02 005d           4181 	sld.w	0[ep],r11
00000d04 635f1100       4182 	st.w	r11,16[sp]
                        4183 --1445:         if (   ( (device >= R_DEV_R7F701401) && (device <= R_DEV_R7F701407) )
00000d08 235f0100       4184 	ld.w	0[sp],r11
00000d0c 0b0687fa       4185 	addi	-1401,r11,zero
00000d10 e905*          4186 	bnl	.L3100
00000d12 235f0100       4187 	ld.w	0[sp],r11
00000d16 0b0680fa       4188 	addi	-1408,r11,zero
00000d1a b90d*          4189 	bnl	.L3099
                        4190 .L3100:
00000d1c 235f0100       4191 	ld.w	0[sp],r11
00000d20 0b065efa       4192 	addi	-1442,r11,zero
00000d24 e205*          4193 	be	.L3099
00000d26 235f0100       4194 	ld.w	0[sp],r11
00000d2a 0b0676fa       4195 	addi	-1418,r11,zero
00000d2e 8a0d*          4196 	bne	.L3098
                        4197 .L3099:
                        4198 --1446:             || ( (device == R_DEV_R7F701442) || (device == R_DEV_R7F701418) ) )
                        4199 --1447:         {
                        4200 --1448:             /* 2. replace allowed setting Pll2 -> Pll1 */
                        4201 --1449:             if (LOC_PLL2 == pll_sub)
                        4202 --line1449
                        4203 ..lin.C.3A.5Cgit.5Crh850.5Csrc.5Capp.5Cgfx_apps.5Csimple_draw.5Ctarget.5Cd1mx_mango_ghs.5Cobj.5Cr_dev_clk.205::
                        4204 .LDWlin205:
00000d30 235f1100       4205 	ld.w	16[sp],r11
00000d34 6b5a           4206 	cmp	11,r11
00000d36 ca05*          4207 	bne	.L3098
                        4208 --1450:             {
                        4209 --1451:                 pll_sub = LOC_PLL1;
                        4210 --line1451
                        4211 ..lin.C.3A.5Cgit.5Crh850.5Csrc.5Capp.5Cgfx_apps.5Csimple_draw.5Ctarget.5Cd1mx_mango_ghs.5Cobj.5Cr_dev_clk.206::
                        4212 .LDWlin206:
00000d38 095a           4213 	mov	9,r11
00000d3a 635f1100       4214 	st.w	r11,16[sp]
                        4215 .L3098:
                        4216 --1452:             }
                        4217 --1453:         }
                        4218 --1454:         if (pll_sub == clk_src)
00000d3e 235f0d00       4219 	ld.w	12[sp],r11
00000d42 23671100       4220 	ld.w	16[sp],r12
00000d46 eb61           4221 	cmp	r11,r12
00000d48 aa05*          4222 	bne	.L3105
                        4223 --1455:         {
                        4224 --1456:             break;
                        4225 --line1456
                        4226 ..lin.C.3A.5Cgit.5Crh850.5Csrc.5Capp.5Cgfx_apps.5Csimple_draw.5Ctarget.5Cd1mx_mango_ghs.5Cobj.5Cr_dev_clk.207::
                        4227 .LDWlin207:
00000d4a d505*          4228 	br	.L3107
                        4229 .L3105:
                        4230 --line1442
                        4231 ..lin.C.3A.5Cgit.5Crh850.5Csrc.5Capp.5Cgfx_apps.5Csimple_draw.5Ctarget.5Cd1mx_mango_ghs.5Cobj.5Cr_dev_clk.208::
                        4232 .LDWlin208:
00000d4c 41ea           4233 	add	1,r29
00000d4e 9d00           4234 	zxb	r29
00000d50 68ea           4235 	cmp	8,r29
00000d52 f1cd*          4236 	bl	.L3097

                                                                      Page 73
                                                              C:\Users\Frank\AppData\Local\Temp\gh_0000p9g1.si
                        4237 .L3107:
                        4238 --1457:         }
                        4239 --1458:     }
                        4240 --1460:     if (i < 8) /* we found a match */
                        4241 --line1460
                        4242 ..lin.C.3A.5Cgit.5Crh850.5Csrc.5Capp.5Cgfx_apps.5Csimple_draw.5Ctarget.5Cd1mx_mango_ghs.5Cobj.5Cr_dev_clk.209::
                        4243 .LDWlin209:
00000d54 68ea           4244 	cmp	8,r29
00000d56 b905*          4245 	bnl	.L3109
                        4246 --1461:     {
                        4247 --1462:         cks_sel = i;
                        4248 --line1462
                        4249 ..lin.C.3A.5Cgit.5Crh850.5Csrc.5Capp.5Cgfx_apps.5Csimple_draw.5Ctarget.5Cd1mx_mango_ghs.5Cobj.5Cr_dev_clk.210::
                        4250 .LDWlin210:
00000d58 1dc8           4251 	mov	r29,r25
00000d5a e505*          4252 	br	.L3111
                        4253 .L3109:
                        4254 --1463:     }
                        4255 --1464:     else
                        4256 --1465:     {
                        4257 --1466:         R_DEV_ERROR((uint32_t)clk_src, R_DEV_ERR_IDX, "Bad clock config!");
                        4258 --line1466
                        4259 ..lin.C.3A.5Cgit.5Crh850.5Csrc.5Capp.5Cgfx_apps.5Csimple_draw.5Ctarget.5Cd1mx_mango_ghs.5Cobj.5Cr_dev_clk.211::
                        4260 .LDWlin211:
00000d5c 23370d00       4261 	ld.w	12[sp],r6
00000d60 083a           4262 	mov	8,r7
                        4263 	jarl	_R_DEV_ErrorHandler,lp
                        4263 <EXPANSION BEGIN>
                        4263 jarl22 _R_DEV_ErrorHandler , lp 
00000d62 80ff0000*      4263 <EXPANSION END>
                        4264 .L3111:
                        4265 --1467:         
                        4266 --1468:     }
                        4267 --1469:     if (0 != div_addr) /* we do have a divider register */
                        4268 --line1469
                        4269 ..lin.C.3A.5Cgit.5Crh850.5Csrc.5Capp.5Cgfx_apps.5Csimple_draw.5Ctarget.5Cd1mx_mango_ghs.5Cobj.5Cr_dev_clk.212::
                        4270 .LDWlin212:
00000d66 e0e1           4271 	cmp	zero,r28
00000d68 e2072d02*      4272 	be	.L3177
                        4273 --1470:     {
                        4274 --1471:         /* Find out what kind of divider we have */
                        4275 --1472:         
                        4276 --1473:         /* Find the right Div setting */
                        4277 --1474:         /* Using cks_sel to access the loc_ClkSelDiv table is safe as long
                        4278 --1475:            as we do not have more valid clock ids then divider ids */
                        4279 --1476:         if (LOC_F == loc_ClkSelDiv[div_idx][cks_sel])
                        4280 --line1476
                        4281 ..lin.C.3A.5Cgit.5Crh850.5Csrc.5Capp.5Cgfx_apps.5Csimple_draw.5Ctarget.5Cd1mx_mango_ghs.5Cobj.5Cr_dev_clk.213::
                        4282 .LDWlin213:
00000d6c e30f0700       4283 	ld.hu	6[sp],r1
00000d70 2b0600000000*  4284 	mov	_loc_ClkSelDiv,r11
00000d76 c30a           4285 	shl	3,r1
00000d78 d909           4286 	add	r25,r1
00000d7a c10a           4287 	shl	1,r1
00000d7c 01f0           4288 	mov	r1,ep
00000d7e cbf1           4289 	add	r11,ep
00000d80 7008           4290 	sld.hu	0[ep],r1
00000d82 a106fefe       4291 	xori	65278,r1,zero
00000d86 9a7d*          4292 	bne	.L3114
                        4293 --1477:         {
                        4294 --1478:             /* For the selected source the divider value is written directly to the register */

                                                                      Page 74
                                                              C:\Users\Frank\AppData\Local\Temp\gh_0000p9g1.si
                        4295 --1479:             if (ClkSelCfg->Cks < R_DEV_CKS_AWO_LAST)
                        4296 --line1479
                        4297 ..lin.C.3A.5Cgit.5Crh850.5Csrc.5Capp.5Cgfx_apps.5Csimple_draw.5Ctarget.5Cd1mx_mango_ghs.5Cobj.5Cr_dev_clk.214::
                        4298 .LDWlin214:
00000d88 3b0f0100       4299 	ld.w	0[r27],r1
00000d8c 640a           4300 	cmp	4,r1
00000d8e 9925*          4301 	bnl	.L3116
                        4302 --1480:             {
                        4303 --1481:                 R_DEV_WRITE_PROT_REG(LOC_PROTCMD0, div_addr, (uint32_t)ClkSelCfg->Div);
                        4304 --	    .bs
                        4305 .LDW53:
                        4306 --line1481
                        4307 ..lin.C.3A.5Cgit.5Crh850.5Csrc.5Capp.5Cgfx_apps.5Csimple_draw.5Ctarget.5Cd1mx_mango_ghs.5Cobj.5Cr_dev_clk.215::
                        4308 .LDWlin215:
00000d90 000a           4309 	mov	0,r1
00000d92 0072           4310 	mov	0,r14
                        4311 .L3120:
00000d94 206ea500       4312 	movea	165,zero,r13
00000d98 80070f6800f0   4313 	st.w	r13,4294443008[zero]
00000d9e fb6f0900       4314 	ld.hu	8[r27],r13
00000da2 7c6f0100       4315 	st.w	r13,0[r28]
00000da6 fb6f0900       4316 	ld.hu	8[r27],r13
00000daa 2d68           4317 	not	r13,r13
00000dac 7c6f0100       4318 	st.w	r13,0[r28]
00000db0 fb6f0900       4319 	ld.hu	8[r27],r13
00000db4 7c6f0100       4320 	st.w	r13,0[r28]
00000db8 8007490800f0   4321 	ld.w	4294443012[zero],r1
00000dbe 3c770100       4322 	ld.w	0[r28],r14
00000dc2 fb6f0900       4323 	ld.hu	8[r27],r13
00000dc6 ed71           4324 	cmp	r13,r14
00000dc8 824d*          4325 	be	.L3122
00000dca e009           4326 	cmp	zero,r1
00000dcc cae5*          4327 	bne	.L3120
                        4328 --	    .es
                        4329 .LDW63:
                        4330 --line1481
                        4331 ..lin.C.3A.5Cgit.5Crh850.5Csrc.5Capp.5Cgfx_apps.5Csimple_draw.5Ctarget.5Cd1mx_mango_ghs.5Cobj.5Cr_dev_clk.216::
                        4332 .LDWlin216:
00000dce d545*          4333 	br	.L3122
                        4334 .L3116:
                        4335 --1482:             }
                        4336 --1483:             else if(div_addr >= LOC_CPUSS_CKS_BASE_ADDR)
                        4337 --line1483
                        4338 ..lin.C.3A.5Cgit.5Crh850.5Csrc.5Capp.5Cgfx_apps.5Csimple_draw.5Ctarget.5Cd1mx_mango_ghs.5Cobj.5Cr_dev_clk.217::
                        4339 .LDWlin217:
00000dd0 210600a0f8ff   4340 	mov	-483328,r1
00000dd6 e1e1           4341 	cmp	r1,r28
00000dd8 9125*          4342 	bl	.L3123
                        4343 --1484:             {
                        4344 --1485:                 R_DEV_WRITE_PROT_REG(LOC_PROTCMD1, div_addr, (uint32_t)ClkSelCfg->Div);
                        4345 --	    .bs
                        4346 .LDW73:
                        4347 --line1485
                        4348 ..lin.C.3A.5Cgit.5Crh850.5Csrc.5Capp.5Cgfx_apps.5Csimple_draw.5Ctarget.5Cd1mx_mango_ghs.5Cobj.5Cr_dev_clk.218::
                        4349 .LDWlin218:
00000dda 000a           4350 	mov	0,r1
00000ddc 0072           4351 	mov	0,r14
                        4352 .L3127:
00000dde 206ea500       4353 	movea	165,zero,r13
00000de2 80070f6800f1   4354 	st.w	r13,4294475776[zero]
00000de8 fb6f0900       4355 	ld.hu	8[r27],r13

                                                                      Page 75
                                                              C:\Users\Frank\AppData\Local\Temp\gh_0000p9g1.si
00000dec 7c6f0100       4356 	st.w	r13,0[r28]
00000df0 fb6f0900       4357 	ld.hu	8[r27],r13
00000df4 2d68           4358 	not	r13,r13
00000df6 7c6f0100       4359 	st.w	r13,0[r28]
00000dfa fb6f0900       4360 	ld.hu	8[r27],r13
00000dfe 7c6f0100       4361 	st.w	r13,0[r28]
00000e02 8007490800f1   4362 	ld.w	4294475780[zero],r1
00000e08 3c770100       4363 	ld.w	0[r28],r14
00000e0c fb6f0900       4364 	ld.hu	8[r27],r13
00000e10 ed71           4365 	cmp	r13,r14
00000e12 b225*          4366 	be	.L3122
00000e14 e009           4367 	cmp	zero,r1
00000e16 cae5*          4368 	bne	.L3127
                        4369 --	    .es
                        4370 .LDW83:
                        4371 --line1485
                        4372 ..lin.C.3A.5Cgit.5Crh850.5Csrc.5Capp.5Cgfx_apps.5Csimple_draw.5Ctarget.5Cd1mx_mango_ghs.5Cobj.5Cr_dev_clk.219::
                        4373 .LDWlin219:
00000e18 8525*          4374 	br	.L3122
                        4375 .L3123:
                        4376 --1486:             }
                        4377 --1487:             else
                        4378 --1488:             {
                        4379 --1489:                 R_DEV_WRITE_PROT_REG(LOC_PROTCMDD1, div_addr, (uint32_t)ClkSelCfg->Div);
                        4380 --	    .bs
                        4381 .LDW93:
                        4382 --line1489
                        4383 ..lin.C.3A.5Cgit.5Crh850.5Csrc.5Capp.5Cgfx_apps.5Csimple_draw.5Ctarget.5Cd1mx_mango_ghs.5Cobj.5Cr_dev_clk.220::
                        4384 .LDWlin220:
00000e1a 000a           4385 	mov	0,r1
00000e1c 0072           4386 	mov	0,r14
                        4387 .L3132:
00000e1e 206ea500       4388 	movea	165,zero,r13
00000e22 80070f68e0f0   4389 	st.w	r13,4294471680[zero]
00000e28 fb6f0900       4390 	ld.hu	8[r27],r13
00000e2c 7c6f0100       4391 	st.w	r13,0[r28]
00000e30 fb6f0900       4392 	ld.hu	8[r27],r13
00000e34 2d68           4393 	not	r13,r13
00000e36 7c6f0100       4394 	st.w	r13,0[r28]
00000e3a fb6f0900       4395 	ld.hu	8[r27],r13
00000e3e 7c6f0100       4396 	st.w	r13,0[r28]
00000e42 80074908e0f0   4397 	ld.w	4294471684[zero],r1
00000e48 3c770100       4398 	ld.w	0[r28],r14
00000e4c fb6f0900       4399 	ld.hu	8[r27],r13
00000e50 ed71           4400 	cmp	r13,r14
00000e52 b205*          4401 	be	.L3122
00000e54 e009           4402 	cmp	zero,r1
00000e56 cae5*          4403 	bne	.L3132
                        4404 --	    .es
                        4405 .LDW04:
                        4406 .L3122:
                        4407 --1490:             }
                        4408 --1491:             div_sel = ClkSelCfg->Div;
                        4409 --line1491
                        4410 ..lin.C.3A.5Cgit.5Crh850.5Csrc.5Capp.5Cgfx_apps.5Csimple_draw.5Ctarget.5Cd1mx_mango_ghs.5Cobj.5Cr_dev_clk.221::
                        4411 .LDWlin221:
00000e58 fb5f0900       4412 	ld.hu	8[r27],r11
00000e5c 635f0400       4413 	st.h	r11,4[sp]
                        4414 --1492:             /* check setting */
                        4415 --1493:             if (0 == div_sel) /* Clock set to disabled */
00000e60 e35f0500       4416 	ld.hu	4[sp],r11

                                                                      Page 76
                                                              C:\Users\Frank\AppData\Local\Temp\gh_0000p9g1.si
00000e64 e059           4417 	cmp	zero,r11
00000e66 ea072f01*      4418 	bne	.L3177
                        4419 --1494:             {
                        4420 --1495:                 while (((R_DEV_READ_REG(32, div_addr + LOC_CKS_S) & 0x2ul) == 0x20ul))
                        4421 .L3136:
                        4422 --1496:                 {
                        4423 --line1495
                        4424 ..lin.C.3A.5Cgit.5Crh850.5Csrc.5Capp.5Cgfx_apps.5Csimple_draw.5Ctarget.5Cd1mx_mango_ghs.5Cobj.5Cr_dev_clk.222::
                        4425 .LDWlin222:
00000e6a 3c6f0500       4426 	ld.w	4[r28],r13
00000e6e 0006e0ff       4427 	addi	-32,zero,zero
00000e72 c2fd*          4428 	be	.L3136
00000e74 80072001*      4429 	br	.L3177
                        4430 .L3114:
                        4431 --1497:                 }
                        4432 --1498:             }
                        4433 --1499:             else /* clock src might be not set up yet,
                        4434 --1500:                     do not wait here for status active, will be checked later */
                        4435 --1501:             {
                        4436 --1502:             }
                        4437 --1503:         }
                        4438 --1504:         else if (LOC_N == loc_ClkSelDiv[div_idx][cks_sel])
                        4439 --line1504
                        4440 ..lin.C.3A.5Cgit.5Crh850.5Csrc.5Capp.5Cgfx_apps.5Csimple_draw.5Ctarget.5Cd1mx_mango_ghs.5Cobj.5Cr_dev_clk.223::
                        4441 .LDWlin223:
00000e78 e30f0700       4442 	ld.hu	6[sp],r1
00000e7c 2b0600000000*  4443 	mov	_loc_ClkSelDiv,r11
00000e82 c30a           4444 	shl	3,r1
00000e84 d909           4445 	add	r25,r1
00000e86 c10a           4446 	shl	1,r1
00000e88 01f0           4447 	mov	r1,ep
00000e8a cbf1           4448 	add	r11,ep
00000e8c 7008           4449 	sld.hu	0[ep],r1
00000e8e a106ffff       4450 	xori	65535,r1,zero
00000e92 ea05*          4451 	bne	.L3141
                        4452 --1505:         {
                        4453 --1506:             /* For the selected clock source, there is no divider setting at all  */
                        4454 --1507:             div_sel = LOC_N;
                        4455 --line1507
                        4456 ..lin.C.3A.5Cgit.5Crh850.5Csrc.5Capp.5Cgfx_apps.5Csimple_draw.5Ctarget.5Cd1mx_mango_ghs.5Cobj.5Cr_dev_clk.224::
                        4457 .LDWlin224:
00000e94 805effff       4458 	ori	65535,zero,r11
00000e98 635f0400       4459 	st.h	r11,4[sp]
00000e9c c57d*          4460 	br	.L3177
                        4461 .L3141:
                        4462 --1508:         }
                        4463 --1509:         else /* all others dividers settings */
                        4464 --1510:         {
                        4465 --1511:             for (i = 0; i < 8; i++)
                        4466 --line1511
                        4467 ..lin.C.3A.5Cgit.5Crh850.5Csrc.5Capp.5Cgfx_apps.5Csimple_draw.5Ctarget.5Cd1mx_mango_ghs.5Cobj.5Cr_dev_clk.225::
                        4468 .LDWlin225:
00000e9e 00ea           4469 	mov	0,r29
00000ea0 0000           4470 	nop
                        4471 .L3146:
                        4472 --1512:             {
                        4473 --1513:                 if (loc_ClkSelDiv[div_idx][i] == (uint16_t) ClkSelCfg->Div)
00000ea2 e30f0700       4474 	ld.hu	6[sp],r1
00000ea6 2b0600000000*  4475 	mov	_loc_ClkSelDiv,r11
00000eac c30a           4476 	shl	3,r1
00000eae dd09           4477 	add	r29,r1

                                                                      Page 77
                                                              C:\Users\Frank\AppData\Local\Temp\gh_0000p9g1.si
00000eb0 c10a           4478 	shl	1,r1
00000eb2 01f0           4479 	mov	r1,ep
00000eb4 cbf1           4480 	add	r11,ep
00000eb6 fb0f0900       4481 	ld.hu	8[r27],r1
00000eba 7070           4482 	sld.hu	0[ep],r14
00000ebc e171           4483 	cmp	r1,r14
00000ebe aa05*          4484 	bne	.L3147
                        4485 --1514:                 {
                        4486 --1515:                     break;
                        4487 --line1515
                        4488 ..lin.C.3A.5Cgit.5Crh850.5Csrc.5Capp.5Cgfx_apps.5Csimple_draw.5Ctarget.5Cd1mx_mango_ghs.5Cobj.5Cr_dev_clk.226::
                        4489 .LDWlin226:
00000ec0 d505*          4490 	br	.L3149
                        4491 .L3147:
                        4492 --line1511
                        4493 ..lin.C.3A.5Cgit.5Crh850.5Csrc.5Capp.5Cgfx_apps.5Csimple_draw.5Ctarget.5Cd1mx_mango_ghs.5Cobj.5Cr_dev_clk.227::
                        4494 .LDWlin227:
00000ec2 41ea           4495 	add	1,r29
00000ec4 9d00           4496 	zxb	r29
00000ec6 68ea           4497 	cmp	8,r29
00000ec8 d1ed*          4498 	bl	.L3146
                        4499 .L3149:
                        4500 --1516:                 }
                        4501 --1517:             }
                        4502 --1518:             if (i < 8) /* we found a match */
                        4503 --line1518
                        4504 ..lin.C.3A.5Cgit.5Crh850.5Csrc.5Capp.5Cgfx_apps.5Csimple_draw.5Ctarget.5Cd1mx_mango_ghs.5Cobj.5Cr_dev_clk.228::
                        4505 .LDWlin228:
00000eca 68ea           4506 	cmp	8,r29
00000ecc c955*          4507 	bnl	.L3151
                        4508 --1519:             {
                        4509 --1520:                 /* Write ID */
                        4510 --1521:                 if (ClkSelCfg->Cks < R_DEV_CKS_AWO_LAST)
                        4511 --line1521
                        4512 ..lin.C.3A.5Cgit.5Crh850.5Csrc.5Capp.5Cgfx_apps.5Csimple_draw.5Ctarget.5Cd1mx_mango_ghs.5Cobj.5Cr_dev_clk.229::
                        4513 .LDWlin229:
00000ece 3b0f0100       4514 	ld.w	0[r27],r1
00000ed2 640a           4515 	cmp	4,r1
00000ed4 991d*          4516 	bnl	.L3153
                        4517 --1522:                 {
                        4518 --1523:                     R_DEV_WRITE_PROT_REG(LOC_PROTCMD0, div_addr, (uint32_t)i);
                        4519 --	    .bs
                        4520 .LDW14:
                        4521 --line1523
                        4522 ..lin.C.3A.5Cgit.5Crh850.5Csrc.5Capp.5Cgfx_apps.5Csimple_draw.5Ctarget.5Cd1mx_mango_ghs.5Cobj.5Cr_dev_clk.230::
                        4523 .LDWlin230:
00000ed6 000a           4524 	mov	0,r1
00000ed8 0072           4525 	mov	0,r14
                        4526 .L3157:
00000eda 206ea500       4527 	movea	165,zero,r13
00000ede 80070f6800f0   4528 	st.w	r13,4294443008[zero]
00000ee4 7cef0100       4529 	st.w	r29,0[r28]
00000ee8 3d68           4530 	not	r29,r13
00000eea 7c6f0100       4531 	st.w	r13,0[r28]
00000eee 7cef0100       4532 	st.w	r29,0[r28]
00000ef2 8007490800f0   4533 	ld.w	4294443012[zero],r1
00000ef8 3c770100       4534 	ld.w	0[r28],r14
00000efc fd71           4535 	cmp	r29,r14
00000efe 823d*          4536 	be	.L3159
00000f00 e009           4537 	cmp	zero,r1
00000f02 caed*          4538 	bne	.L3157

                                                                      Page 78
                                                              C:\Users\Frank\AppData\Local\Temp\gh_0000p9g1.si
                        4539 --	    .es
                        4540 .LDW24:
                        4541 --line1523
                        4542 ..lin.C.3A.5Cgit.5Crh850.5Csrc.5Capp.5Cgfx_apps.5Csimple_draw.5Ctarget.5Cd1mx_mango_ghs.5Cobj.5Cr_dev_clk.231::
                        4543 .LDWlin231:
00000f04 d535*          4544 	br	.L3159
                        4545 .L3153:
                        4546 --1524:                 }
                        4547 --1525:                 else if(div_addr >= LOC_CPUSS_CKS_BASE_ADDR)
                        4548 --line1525
                        4549 ..lin.C.3A.5Cgit.5Crh850.5Csrc.5Capp.5Cgfx_apps.5Csimple_draw.5Ctarget.5Cd1mx_mango_ghs.5Cobj.5Cr_dev_clk.232::
                        4550 .LDWlin232:
00000f06 210600a0f8ff   4551 	mov	-483328,r1
00000f0c e1e1           4552 	cmp	r1,r28
00000f0e 911d*          4553 	bl	.L3160
                        4554 --1526:                 {
                        4555 --1527:                     R_DEV_WRITE_PROT_REG(LOC_PROTCMD1, div_addr, (uint32_t)i);
                        4556 --	    .bs
                        4557 .LDW34:
                        4558 --line1527
                        4559 ..lin.C.3A.5Cgit.5Crh850.5Csrc.5Capp.5Cgfx_apps.5Csimple_draw.5Ctarget.5Cd1mx_mango_ghs.5Cobj.5Cr_dev_clk.233::
                        4560 .LDWlin233:
00000f10 000a           4561 	mov	0,r1
00000f12 0072           4562 	mov	0,r14
                        4563 .L3164:
00000f14 206ea500       4564 	movea	165,zero,r13
00000f18 80070f6800f1   4565 	st.w	r13,4294475776[zero]
00000f1e 7cef0100       4566 	st.w	r29,0[r28]
00000f22 3d68           4567 	not	r29,r13
00000f24 7c6f0100       4568 	st.w	r13,0[r28]
00000f28 7cef0100       4569 	st.w	r29,0[r28]
00000f2c 8007490800f1   4570 	ld.w	4294475780[zero],r1
00000f32 3c770100       4571 	ld.w	0[r28],r14
00000f36 fd71           4572 	cmp	r29,r14
00000f38 b21d*          4573 	be	.L3159
00000f3a e009           4574 	cmp	zero,r1
00000f3c caed*          4575 	bne	.L3164
                        4576 --	    .es
                        4577 .LDW44:
                        4578 --line1527
                        4579 ..lin.C.3A.5Cgit.5Crh850.5Csrc.5Capp.5Cgfx_apps.5Csimple_draw.5Ctarget.5Cd1mx_mango_ghs.5Cobj.5Cr_dev_clk.234::
                        4580 .LDWlin234:
00000f3e 851d*          4581 	br	.L3159
                        4582 .L3160:
                        4583 --1528:                 }
                        4584 --1529:                 else
                        4585 --1530:                 {
                        4586 --1531:                     R_DEV_WRITE_PROT_REG(LOC_PROTCMDD1, div_addr, (uint32_t)i);
                        4587 --	    .bs
                        4588 .LDW54:
                        4589 --line1531
                        4590 ..lin.C.3A.5Cgit.5Crh850.5Csrc.5Capp.5Cgfx_apps.5Csimple_draw.5Ctarget.5Cd1mx_mango_ghs.5Cobj.5Cr_dev_clk.235::
                        4591 .LDWlin235:
00000f40 000a           4592 	mov	0,r1
00000f42 0072           4593 	mov	0,r14
                        4594 .L3169:
00000f44 206ea500       4595 	movea	165,zero,r13
00000f48 80070f68e0f0   4596 	st.w	r13,4294471680[zero]
00000f4e 7cef0100       4597 	st.w	r29,0[r28]
00000f52 3d68           4598 	not	r29,r13
00000f54 7c6f0100       4599 	st.w	r13,0[r28]

                                                                      Page 79
                                                              C:\Users\Frank\AppData\Local\Temp\gh_0000p9g1.si
00000f58 7cef0100       4600 	st.w	r29,0[r28]
00000f5c 80074908e0f0   4601 	ld.w	4294471684[zero],r1
00000f62 3c770100       4602 	ld.w	0[r28],r14
00000f66 fd71           4603 	cmp	r29,r14
00000f68 b205*          4604 	be	.L3159
00000f6a e009           4605 	cmp	zero,r1
00000f6c caed*          4606 	bne	.L3169
                        4607 --	    .es
                        4608 .LDW64:
                        4609 .L3159:
                        4610 --1532:                 }
                        4611 --1533:                 div_sel = i;
                        4612 --line1533
                        4613 ..lin.C.3A.5Cgit.5Crh850.5Csrc.5Capp.5Cgfx_apps.5Csimple_draw.5Ctarget.5Cd1mx_mango_ghs.5Cobj.5Cr_dev_clk.236::
                        4614 .LDWlin236:
00000f6e 63ef0400       4615 	st.h	r29,4[sp]
00000f72 f505*          4616 	br	.L3171
                        4617 .L3151:
                        4618 --1534:             }
                        4619 --1535:             else
                        4620 --1536:             {
                        4621 --1537:                 R_DEV_ERROR((uint32_t)ClkSelCfg->Div, R_DEV_ERR_RANGE, "Bad divider config!");
                        4622 --line1537
                        4623 ..lin.C.3A.5Cgit.5Crh850.5Csrc.5Capp.5Cgfx_apps.5Csimple_draw.5Ctarget.5Cd1mx_mango_ghs.5Cobj.5Cr_dev_clk.237::
                        4624 .LDWlin237:
00000f74 fb370900       4625 	ld.hu	8[r27],r6
00000f78 203e2000       4626 	movea	32,zero,r7
                        4627 	jarl	_R_DEV_ErrorHandler,lp
                        4627 <EXPANSION BEGIN>
                        4627 jarl22 _R_DEV_ErrorHandler , lp 
00000f7c 80ff0000*      4627 <EXPANSION END>
                        4628 .L3171:
                        4629 --1538:             }
                        4630 --1539:             /* in case of CPU, make sure to wait for the divider first */
                        4631 --1540:             if (R_DEV_CKS_CPU == ClkSelCfg->Cks)
                        4632 --line1540
                        4633 ..lin.C.3A.5Cgit.5Crh850.5Csrc.5Capp.5Cgfx_apps.5Csimple_draw.5Ctarget.5Cd1mx_mango_ghs.5Cobj.5Cr_dev_clk.238::
                        4634 .LDWlin238:
00000f80 3b6f0100       4635 	ld.w	0[r27],r13
00000f84 646a           4636 	cmp	4,r13
00000f86 fa05*          4637 	bne	.L3177
                        4638 --1541:             {
                        4639 --1542:                 while (R_DEV_READ_REG(32, div_addr + LOC_CKS_A) != (uint32_t)div_sel)
                        4640 .L3174:
                        4641 --1543:                 {
                        4642 --line1542
                        4643 ..lin.C.3A.5Cgit.5Crh850.5Csrc.5Capp.5Cgfx_apps.5Csimple_draw.5Ctarget.5Cd1mx_mango_ghs.5Cobj.5Cr_dev_clk.239::
                        4644 .LDWlin239:
00000f88 3c6f0900       4645 	ld.w	8[r28],r13
00000f8c e35f0500       4646 	ld.hu	4[sp],r11
00000f90 eb69           4647 	cmp	r11,r13
00000f92 bafd*          4648 	bne	.L3174
                        4649 .L3177:
                        4650 --1544:                    /* Wait for setting to become effective */
                        4651 --1545:                 }
                        4652 --1546:             }
                        4653 --1548:         }
                        4654 --1549:     }
                        4655 --1550:     else /* if (0 != loc_CkcsBaseAddr[ClkSelCfg->Cks].Div) ->  we do NOT have a divider */
                        4656 --1551:     {
                        4657 --1553:     }

                                                                      Page 80
                                                              C:\Users\Frank\AppData\Local\Temp\gh_0000p9g1.si
                        4658 --1554:      /* check if we have an address or a direct source clock setting */
                        4659 --1555:     if (sel_addr > (uint32_t) R_DEV_CKS_SRC_LAST)
                        4660 --line1555
                        4661 ..lin.C.3A.5Cgit.5Crh850.5Csrc.5Capp.5Cgfx_apps.5Csimple_draw.5Ctarget.5Cd1mx_mango_ghs.5Cobj.5Cr_dev_clk.240::
                        4662 .LDWlin240:
00000f94 1a06daff       4663 	addi	-38,r26,zero
00000f98 9955*          4664 	bnl	.L3178
                        4665 --1556:     {
                        4666 --1557:         /* The address is valid */
                        4667 --1558:         /* Write ID */
                        4668 --1559:         if (ClkSelCfg->Cks < R_DEV_CKS_AWO_LAST)
                        4669 --line1559
                        4670 ..lin.C.3A.5Cgit.5Crh850.5Csrc.5Capp.5Cgfx_apps.5Csimple_draw.5Ctarget.5Cd1mx_mango_ghs.5Cobj.5Cr_dev_clk.241::
                        4671 .LDWlin241:
00000f9a 3b6f0100       4672 	ld.w	0[r27],r13
00000f9e 646a           4673 	cmp	4,r13
00000fa0 991d*          4674 	bnl	.L3180
                        4675 --1560:         {
                        4676 --1561:             R_DEV_WRITE_PROT_REG(LOC_PROTCMD0, sel_addr, (uint32_t)cks_sel);
                        4677 --	    .bs
                        4678 .LDW74:
                        4679 --line1561
                        4680 ..lin.C.3A.5Cgit.5Crh850.5Csrc.5Capp.5Cgfx_apps.5Csimple_draw.5Ctarget.5Cd1mx_mango_ghs.5Cobj.5Cr_dev_clk.242::
                        4681 .LDWlin242:
00000fa2 006a           4682 	mov	0,r13
00000fa4 0062           4683 	mov	0,r12
                        4684 .L3184:
00000fa6 205ea500       4685 	movea	165,zero,r11
00000faa 80070f5800f0   4686 	st.w	r11,4294443008[zero]
00000fb0 7acf0100       4687 	st.w	r25,0[r26]
00000fb4 3958           4688 	not	r25,r11
00000fb6 7a5f0100       4689 	st.w	r11,0[r26]
00000fba 7acf0100       4690 	st.w	r25,0[r26]
00000fbe 8007496800f0   4691 	ld.w	4294443012[zero],r13
00000fc4 3a670100       4692 	ld.w	0[r26],r12
00000fc8 f961           4693 	cmp	r25,r12
00000fca 823d*          4694 	be	.L3178
00000fcc e069           4695 	cmp	zero,r13
00000fce caed*          4696 	bne	.L3184
                        4697 --	    .es
                        4698 .LDW84:
                        4699 --line1561
                        4700 ..lin.C.3A.5Cgit.5Crh850.5Csrc.5Capp.5Cgfx_apps.5Csimple_draw.5Ctarget.5Cd1mx_mango_ghs.5Cobj.5Cr_dev_clk.243::
                        4701 .LDWlin243:
00000fd0 d535*          4702 	br	.L3178
                        4703 .L3180:
                        4704 --1562:         }
                        4705 --1563:         else if(sel_addr >= LOC_CPUSS_CKS_BASE_ADDR)
                        4706 --line1563
                        4707 ..lin.C.3A.5Cgit.5Crh850.5Csrc.5Capp.5Cgfx_apps.5Csimple_draw.5Ctarget.5Cd1mx_mango_ghs.5Cobj.5Cr_dev_clk.244::
                        4708 .LDWlin244:
00000fd2 2d0600a0f8ff   4709 	mov	-483328,r13
00000fd8 edd1           4710 	cmp	r13,r26
00000fda 911d*          4711 	bl	.L3187
                        4712 --1564:         {
                        4713 --1565:             R_DEV_WRITE_PROT_REG(LOC_PROTCMD1, sel_addr, (uint32_t)cks_sel);
                        4714 --	    .bs
                        4715 .LDW94:
                        4716 --line1565
                        4717 ..lin.C.3A.5Cgit.5Crh850.5Csrc.5Capp.5Cgfx_apps.5Csimple_draw.5Ctarget.5Cd1mx_mango_ghs.5Cobj.5Cr_dev_clk.245::
                        4718 .LDWlin245:

                                                                      Page 81
                                                              C:\Users\Frank\AppData\Local\Temp\gh_0000p9g1.si
00000fdc 006a           4719 	mov	0,r13
00000fde 0062           4720 	mov	0,r12
                        4721 .L3191:
00000fe0 205ea500       4722 	movea	165,zero,r11
00000fe4 80070f5800f1   4723 	st.w	r11,4294475776[zero]
00000fea 7acf0100       4724 	st.w	r25,0[r26]
00000fee 3958           4725 	not	r25,r11
00000ff0 7a5f0100       4726 	st.w	r11,0[r26]
00000ff4 7acf0100       4727 	st.w	r25,0[r26]
00000ff8 8007496800f1   4728 	ld.w	4294475780[zero],r13
00000ffe 3a670100       4729 	ld.w	0[r26],r12
00001002 f961           4730 	cmp	r25,r12
00001004 b21d*          4731 	be	.L3178
00001006 e069           4732 	cmp	zero,r13
00001008 caed*          4733 	bne	.L3191
                        4734 --	    .es
                        4735 .LDW05:
                        4736 --line1565
                        4737 ..lin.C.3A.5Cgit.5Crh850.5Csrc.5Capp.5Cgfx_apps.5Csimple_draw.5Ctarget.5Cd1mx_mango_ghs.5Cobj.5Cr_dev_clk.246::
                        4738 .LDWlin246:
0000100a 851d*          4739 	br	.L3178
                        4740 .L3187:
                        4741 --1566:         }
                        4742 --1567:         else
                        4743 --1568:         {
                        4744 --1569:             R_DEV_WRITE_PROT_REG(LOC_PROTCMDD1, sel_addr, (uint32_t)cks_sel);
                        4745 --	    .bs
                        4746 .LDW15:
                        4747 --line1569
                        4748 ..lin.C.3A.5Cgit.5Crh850.5Csrc.5Capp.5Cgfx_apps.5Csimple_draw.5Ctarget.5Cd1mx_mango_ghs.5Cobj.5Cr_dev_clk.247::
                        4749 .LDWlin247:
0000100c 006a           4750 	mov	0,r13
0000100e 0062           4751 	mov	0,r12
                        4752 .L3196:
00001010 205ea500       4753 	movea	165,zero,r11
00001014 80070f58e0f0   4754 	st.w	r11,4294471680[zero]
0000101a 7acf0100       4755 	st.w	r25,0[r26]
0000101e 3958           4756 	not	r25,r11
00001020 7a5f0100       4757 	st.w	r11,0[r26]
00001024 7acf0100       4758 	st.w	r25,0[r26]
00001028 80074968e0f0   4759 	ld.w	4294471684[zero],r13
0000102e 3a670100       4760 	ld.w	0[r26],r12
00001032 f961           4761 	cmp	r25,r12
00001034 b205*          4762 	be	.L3178
00001036 e069           4763 	cmp	zero,r13
00001038 caed*          4764 	bne	.L3196
                        4765 --	    .es
                        4766 .LDW25:
                        4767 .L3178:
                        4768 --1570:         }
                        4769 --1571:     }
                        4770 --1572:  
                        4771 --1573:     /* Write stop request mask */
                        4772 --1574:     /* It is mandatory to set bit 1 in  any case */
                        4773 --1575:     if (0 != ClkSelCfg->StpReqMsk)
                        4774 --line1575
                        4775 ..lin.C.3A.5Cgit.5Crh850.5Csrc.5Capp.5Cgfx_apps.5Csimple_draw.5Ctarget.5Cd1mx_mango_ghs.5Cobj.5Cr_dev_clk.248::
                        4776 .LDWlin248:
0000103a 9b5f0b00       4777 	ld.bu	10[r27],r11
0000103e e059           4778 	cmp	zero,r11
00001040 d205*          4779 	be	.L3198

                                                                      Page 82
                                                              C:\Users\Frank\AppData\Local\Temp\gh_0000p9g1.si
                        4780 --1576:     {
                        4781 --1577:          reg_val = 0x3u;
                        4782 --line1577
                        4783 ..lin.C.3A.5Cgit.5Crh850.5Csrc.5Capp.5Cgfx_apps.5Csimple_draw.5Ctarget.5Cd1mx_mango_ghs.5Cobj.5Cr_dev_clk.249::
                        4784 .LDWlin249:
00001042 035a           4785 	mov	3,r11
00001044 635f0900       4786 	st.w	r11,8[sp]
00001048 c505*          4787 	br	.L3200
                        4788 .L3198:
                        4789 --1578:     }
                        4790 --1579:     else
                        4791 --1580:     {
                        4792 --1581:          reg_val = 0x2u;
                        4793 --line1581
                        4794 ..lin.C.3A.5Cgit.5Crh850.5Csrc.5Capp.5Cgfx_apps.5Csimple_draw.5Ctarget.5Cd1mx_mango_ghs.5Cobj.5Cr_dev_clk.250::
                        4795 .LDWlin250:
0000104a 025a           4796 	mov	2,r11
0000104c 635f0900       4797 	st.w	r11,8[sp]
                        4798 .L3200:
                        4799 --1582:     }
                        4800 --1583:     /* Stop mask for AWO only */
                        4801 --1584:     if (ClkSelCfg->Cks < R_DEV_CKS_FOUT)
00001050 3b5f0100       4802 	ld.w	0[r27],r11
00001054 635a           4803 	cmp	3,r11
00001056 e905*          4804 	bnl	.L3201
                        4805 --1585:     {
                        4806 --1586:         R_DEV_WRITE_REG(32, div_addr + LOC_CKS_STPMSK, reg_val);
                        4807 --line1586
                        4808 ..lin.C.3A.5Cgit.5Crh850.5Csrc.5Capp.5Cgfx_apps.5Csimple_draw.5Ctarget.5Cd1mx_mango_ghs.5Cobj.5Cr_dev_clk.251::
                        4809 .LDWlin251:
00001058 235f0900       4810 	ld.w	8[sp],r11
0000105c 7c5f1900       4811 	st.w	r11,24[r28]
00001060 950d*          4812 	br	.L3203
                        4813 .L3201:
                        4814 --1587:     }
                        4815 --1588:     else if (ClkSelCfg->Cks == R_DEV_CKS_FOUT)
                        4816 --line1588
                        4817 ..lin.C.3A.5Cgit.5Crh850.5Csrc.5Capp.5Cgfx_apps.5Csimple_draw.5Ctarget.5Cd1mx_mango_ghs.5Cobj.5Cr_dev_clk.252::
                        4818 .LDWlin252:
00001062 3b5f0100       4819 	ld.w	0[r27],r11
00001066 635a           4820 	cmp	3,r11
00001068 da05*          4821 	bne	.L3203
                        4822 --1589:     {
                        4823 --1590:         R_DEV_WRITE_REG(32, sel_addr + LOC_CKS_STPMSK, reg_val);
                        4824 --line1590
                        4825 ..lin.C.3A.5Cgit.5Crh850.5Csrc.5Capp.5Cgfx_apps.5Csimple_draw.5Ctarget.5Cd1mx_mango_ghs.5Cobj.5Cr_dev_clk.253::
                        4826 .LDWlin253:
0000106a 235f0900       4827 	ld.w	8[sp],r11
0000106e 7a5f1900       4828 	st.w	r11,24[r26]
                        4829 .L3203:
                        4830 --1591:     }
                        4831 --1592:     else
                        4832 --1593:     {
                        4833 --1594:         /* nothing to do here */
                        4834 --1595:     }
                        4835 --1596:     /* Now check the selector settings */
                        4836 --1597:     /* check if we have an address or a direct source clock setting
                        4837 --1598:        If we have an address, there also exist a status register  */
                        4838 --1600:     if (sel_addr > (uint32_t) R_DEV_CKS_SRC_LAST)
00001072 1a06daff       4839 	addi	-38,r26,zero
00001076 d905*          4840 	bnl	.L3207

                                                                      Page 83
                                                              C:\Users\Frank\AppData\Local\Temp\gh_0000p9g1.si
                        4841 --1601:     {
                        4842 --1602:         while (R_DEV_READ_REG(32, sel_addr + LOC_CKS_A) != cks_sel)
                        4843 .L3209:
                        4844 --1603:         {}
                        4845 --line1602
                        4846 ..lin.C.3A.5Cgit.5Crh850.5Csrc.5Capp.5Cgfx_apps.5Csimple_draw.5Ctarget.5Cd1mx_mango_ghs.5Cobj.5Cr_dev_clk.254::
                        4847 .LDWlin254:
00001078 3a5f0900       4848 	ld.w	8[r26],r11
0000107c f959           4849 	cmp	r25,r11
0000107e dafd*          4850 	bne	.L3209
                        4851 .L3207:
                        4852 --1604:     }
                        4853 --1605:     /* Now, check the divider */
                        4854 --1606:     if ((LOC_N != div_sel) && (0xFFu != div_idx) && (0 != div_sel))
                        4855 --line1606
                        4856 ..lin.C.3A.5Cgit.5Crh850.5Csrc.5Capp.5Cgfx_apps.5Csimple_draw.5Ctarget.5Cd1mx_mango_ghs.5Cobj.5Cr_dev_clk.255::
                        4857 .LDWlin255:
00001080 e35f0500       4858 	ld.hu	4[sp],r11
00001084 ab06ffff       4859 	xori	65535,r11,zero
00001088 b225*          4860 	be	.L3212
0000108a e35f0700       4861 	ld.hu	6[sp],r11
0000108e 0b0601ff       4862 	addi	-255,r11,zero
00001092 e21d*          4863 	be	.L3212
00001094 e35f0500       4864 	ld.hu	4[sp],r11
00001098 e059           4865 	cmp	zero,r11
0000109a a21d*          4866 	be	.L3212
                        4867 --1607:     {
                        4868 --1608:         if (LOC_F != loc_ClkSelDiv[div_idx][cks_sel])
                        4869 --line1608
                        4870 ..lin.C.3A.5Cgit.5Crh850.5Csrc.5Capp.5Cgfx_apps.5Csimple_draw.5Ctarget.5Cd1mx_mango_ghs.5Cobj.5Cr_dev_clk.256::
                        4871 .LDWlin256:
0000109c e35f0700       4872 	ld.hu	6[sp],r11
000010a0 c35a           4873 	shl	3,r11
000010a2 d959           4874 	add	r25,r11
000010a4 c15a           4875 	shl	1,r11
000010a6 0bf0           4876 	mov	r11,ep
000010a8 2b0600000000*  4877 	mov	_loc_ClkSelDiv,r11
000010ae cbf1           4878 	add	r11,ep
000010b0 7058           4879 	sld.hu	0[ep],r11
000010b2 ab06fefe       4880 	xori	65278,r11,zero
000010b6 820d*          4881 	be	.L3216
                        4882 --1609:         {
                        4883 --1610:             while (R_DEV_READ_REG(32, div_addr + LOC_CKS_A) != (uint32_t)div_sel)
                        4884 .L3218:
                        4885 --1611:             {
                        4886 --line1610
                        4887 ..lin.C.3A.5Cgit.5Crh850.5Csrc.5Capp.5Cgfx_apps.5Csimple_draw.5Ctarget.5Cd1mx_mango_ghs.5Cobj.5Cr_dev_clk.257::
                        4888 .LDWlin257:
000010b8 3c5f0900       4889 	ld.w	8[r28],r11
000010bc e3ff0500       4890 	ld.hu	4[sp],lp
000010c0 ff59           4891 	cmp	lp,r11
000010c2 bafd*          4892 	bne	.L3218
000010c4 d505*          4893 	br	.L3212
                        4894 .L3216:
                        4895 --1612:                /* Wait for setting to become effective */
                        4896 --1613:             }
                        4897 --1614:         }
                        4898 --1615:         else
                        4899 --1616:         {
                        4900 --1617:             while (R_DEV_READ_REG(32, div_addr + LOC_CKS_S) != 0x3u)
                        4901 .L3222:

                                                                      Page 84
                                                              C:\Users\Frank\AppData\Local\Temp\gh_0000p9g1.si
                        4902 --1618:             {
                        4903 --line1617
                        4904 ..lin.C.3A.5Cgit.5Crh850.5Csrc.5Capp.5Cgfx_apps.5Csimple_draw.5Ctarget.5Cd1mx_mango_ghs.5Cobj.5Cr_dev_clk.258::
                        4905 .LDWlin258:
000010c6 3c5f0500       4906 	ld.w	4[r28],r11
000010ca 635a           4907 	cmp	3,r11
000010cc dafd*          4908 	bne	.L3222
                        4909 .L3212:
                        4910 --1619:             }
                        4911 --1620:         }
                        4912 --1621:     }
                        4913 --1622:     ret_val  = R_ERR_OK;
                        4914 --line1622
                        4915 ..lin.C.3A.5Cgit.5Crh850.5Csrc.5Capp.5Cgfx_apps.5Csimple_draw.5Ctarget.5Cd1mx_mango_ghs.5Cobj.5Cr_dev_clk.259::
                        4916 .LDWlin259:
000010ce 63071500       4917 	st.w	zero,20[sp]
000010d2 005a           4918 	mov	0,r11
                        4919 --1623:     return ret_val;
000010d4 23571500       4920 	ld.w	20[sp],r10
                        4921 --	    .ef
                        4922 .LDW35:
000010d8 5006ff70       4923 	dispose	8,{r25,r26,r27,r28,r29,r31},[lp]
                        4924 	.type	_R_DEV_ClkIdSet,@function
                        4925 	.size	_R_DEV_ClkIdSet,.-_R_DEV_ClkIdSet
                        4926 	.align	2
                        4927 .LDW45:
                        4928 --_sel_addr	r26	local
                        4929 --_div_addr	r28	local
                        4930 --_div_idx	6[sp]	local
                        4931 --_reg_val	8[sp]	local
                        4932 --_ret_val	20[sp]	local
                        4933 --_i	r29	local
                        4934 --_cks_sel	r25	local
                        4935 --_div_sel	4[sp]	local
                        4936 --_device	0[sp]	local
                        4937 --_pll_sub	16[sp]	local
                        4938 --_clk_src	12[sp]	local
                        4939 --_prot_stat	r1	local
                        4940 --_new_val	r14	local
                        4941 --_prot_stat	r1	local
                        4942 --_new_val	r14	local
                        4943 --_prot_stat	r1	local
                        4944 --_new_val	r14	local
                        4945 --_prot_stat	r1	local
                        4946 --_new_val	r14	local
                        4947 --_prot_stat	r1	local
                        4948 --_new_val	r14	local
                        4949 --_prot_stat	r1	local
                        4950 --_new_val	r14	local
                        4951 --_prot_stat	r13	local
                        4952 --_new_val	r12	local
                        4953 --_prot_stat	r13	local
                        4954 --_new_val	r12	local
                        4955 --_prot_stat	r13	local
                        4956 --_new_val	r12	local
                        4957 
                        4958 --_ClkSelCfg	r27	param
                        4959 
                        4960 	.section ".bss","awb"
                        4961 .L4138:
                        4962 	.type	.L4138,@object

                                                                      Page 85
                                                              C:\Users\Frank\AppData\Local\Temp\gh_0000p9g1.si
                        4963 	.size	.L4138,0
                        4964 	.data
                        4965 	.text
                        4966 
                        4967 --1624: }
                        4968 
                        4969 --1626: /*******************************************************************************
                        4970 --1627:   Function: R_DEV_FoutDivSet
                        4971 --1629:     se: <r_dev_api.h> for details
                        4972 --1630: */
                        4973 --1632: r_Error_t R_DEV_FoutDivSet(uint16_t Div)
                        4974 	.align	2
                        4975 	.align	2
                        4976 	.global	_R_DEV_FoutDivSet
                        4977 _R_DEV_FoutDivSet:
000010dc c676ffff       4978 	andi	65535,r6,r14
                        4979 --	    .bf
                        4980 .LDW55:
                        4981 --1633: {
                        4982 --1634:     r_Error_t ret_val = R_PARAMETER_RANGE;
000010e0 030a           4983 	mov	3,r1
                        4984 --1635:     uint32_t addr;
                        4985 --1636:     if (Div < 512)
000010e2 0e0600fe       4986 	addi	-512,r14,zero
000010e6 a10d*          4987 	bl	.L4735
                        4988 --1637:     {
                        4989 --1638:         addr = loc_CkcsBaseAddr[R_DEV_CKS_FOUT].Div;
                        4990 --line1638
                        4991 ..lin.C.3A.5Cgit.5Crh850.5Csrc.5Capp.5Cgfx_apps.5Csimple_draw.5Ctarget.5Cd1mx_mango_ghs.5Cobj.5Cr_dev_clk.260::
                        4992 .LDWlin260:
000010e8 3e0600000000*  4993 	mov	_loc_CkcsBaseAddr+40,ep
000010ee 00f5           4994 	sld.w	0[ep],ep
                        4995 --1639:         R_DEV_WRITE_REG(32, addr, Div);
000010f0 0175           4996 	sst.w	r14,0[ep]
                        4997 --1640:         /* Wait for activation */
                        4998 --1641:         while (0 != R_DEV_READ_REG(32, addr + LOC_CKS_S))
                        4999 .L4737:
                        5000 --1642:         {}
000010f2 026d           5001 	sld.w	4[ep],r13
000010f4 e069           5002 	cmp	zero,r13
000010f6 eafd*          5003 	bne	.L4737
                        5004 --1643:         ret_val = R_ERR_OK;
                        5005 --line1643
                        5006 ..lin.C.3A.5Cgit.5Crh850.5Csrc.5Capp.5Cgfx_apps.5Csimple_draw.5Ctarget.5Cd1mx_mango_ghs.5Cobj.5Cr_dev_clk.261::
                        5007 .LDWlin261:
000010f8 000a           5008 	mov	0,r1
                        5009 .L4735:
                        5010 --1644:     }
                        5011 --1645:     return ret_val;
000010fa 0150           5012 	mov	r1,r10
                        5013 --	    .ef
                        5014 .LDW65:
000010fc 7f00           5015 	jmp	[lp]
                        5016 	.type	_R_DEV_FoutDivSet,@function
                        5017 	.size	_R_DEV_FoutDivSet,.-_R_DEV_FoutDivSet
                        5018 	.align	2
                        5019 .LDW75:
                        5020 --_ret_val	r1	local
                        5021 --_addr	ep	local
                        5022 
                        5023 --_Div	r14	param

                                                                      Page 86
                                                              C:\Users\Frank\AppData\Local\Temp\gh_0000p9g1.si
                        5024 
                        5025 	.section ".bss","awb"
                        5026 .L4794:
                        5027 	.type	.L4794,@object
                        5028 	.size	.L4794,0
                        5029 	.data
                        5030 	.text
                        5031 
                        5032 --1646: }
                        5033 
                        5034 --1647: /*******************************************************************************
                        5035 --1648:   Function: R_DEV_ClkFrequencyHz
                        5036 --1650:     see: <r_dev_api.h> for details
                        5037 --1651: */
                        5038 --1652: uint32_t R_DEV_ClkFrequencyHz(r_dev_ClkSel_t ClkSel)
                        5039 	.align	2
                        5040 	.align	2
                        5041 	.global	_R_DEV_ClkFrequencyHz
                        5042 _R_DEV_ClkFrequencyHz:
000010fe 8a07e170       5043 	prepare	{r25,r26,r27,r28,r29,r31},5
00001102 06e0           5044 	mov	r6,r28
                        5045 --	    .bf
                        5046 .LDW85:
                        5047 --1653: {
                        5048 --1654:     uint32_t        sel_addr = 0;
00001104 63070500       5049 	st.w	zero,4[sp]
00001108 005a           5050 	mov	0,r11
                        5051 --1655:     uint32_t        div_addr = 0;
0000110a 63070900       5052 	st.w	zero,8[sp]
0000110e 005a           5053 	mov	0,r11
                        5054 --1656:     uint8_t         div_idx  = 0;
00001110 43070100       5055 	st.b	zero,1[sp]
00001114 005a           5056 	mov	0,r11
                        5057 --1657:     uint32_t        reg_val  = 0;
00001116 00ea           5058 	mov	0,r29
                        5059 --1658:     uint8_t         i        = 0;
00001118 00d2           5060 	mov	0,r26
                        5061 --1659:     r_dev_CksSrc_t  cks_src  = R_DEV_CKS_SRC_DISABLED;
0000111a 00da           5062 	mov	0,r27
                        5063 --1660:     uint16_t        cks_div  = 0;
0000111c 63070200       5064 	st.h	zero,2[sp]
00001120 005a           5065 	mov	0,r11
                        5066 --1661:     uint32_t        cks_act  = 0;
00001122 00ca           5067 	mov	0,r25
                        5068 --1662:     
                        5069 --1663:     
                        5070 --1664:     /* Some translation to get frequency for
                        5071 --1665:        macros that do not allow configuration */
                        5072 --1666:     if (R_DEV_CKS_FIX_LOW == ClkSel)
00001124 1c06e0ff       5073 	addi	-32,r28,zero
00001128 8a0d*          5074 	bne	.L4829
                        5075 --1667:     {
                        5076 --1668:         reg_val = loc_SrcFrequencyHz(R_DEV_CKS_SRC_LRNG);
                        5077 --line1668
                        5078 ..lin.C.3A.5Cgit.5Crh850.5Csrc.5Capp.5Cgfx_apps.5Csimple_draw.5Ctarget.5Cd1mx_mango_ghs.5Cobj.5Cr_dev_clk.262::
                        5079 .LDWlin262:
0000112a 0132           5080 	mov	1,r6
                        5081 	jarl	_loc_SrcFrequencyHz,lp
                        5081 <EXPANSION BEGIN>
                        5081 jarl22 _loc_SrcFrequencyHz , lp 
0000112c bfff64f7*      5081 <EXPANSION END>

                                                                      Page 87
                                                              C:\Users\Frank\AppData\Local\Temp\gh_0000p9g1.si
00001130 0ae8           5082 	mov	r10,r29
                        5083 --1669:         return reg_val;
                        5084 --line1669
                        5085 ..lin.C.3A.5Cgit.5Crh850.5Csrc.5Capp.5Cgfx_apps.5Csimple_draw.5Ctarget.5Cd1mx_mango_ghs.5Cobj.5Cr_dev_clk.263::
                        5086 .LDWlin263:
00001132 1d50           5087 	mov	r29,r10
00001134 8007b001*      5088 	br	.L4827
                        5089 .L4829:
                        5090 --1670:     }
                        5091 --1671:     if (R_DEV_CKS_VI0PIX == ClkSel)
                        5092 --line1671
                        5093 ..lin.C.3A.5Cgit.5Crh850.5Csrc.5Capp.5Cgfx_apps.5Csimple_draw.5Ctarget.5Cd1mx_mango_ghs.5Cobj.5Cr_dev_clk.264::
                        5094 .LDWlin264:
00001138 1c06dfff       5095 	addi	-33,r28,zero
0000113c 9a0d*          5096 	bne	.L4832
                        5097 --1672:     {
                        5098 --1673:         reg_val = loc_SrcFrequencyHz(R_DEV_CKS_SRC_VI0PIX);
                        5099 --line1673
                        5100 ..lin.C.3A.5Cgit.5Crh850.5Csrc.5Capp.5Cgfx_apps.5Csimple_draw.5Ctarget.5Cd1mx_mango_ghs.5Cobj.5Cr_dev_clk.265::
                        5101 .LDWlin265:
0000113e 20362100       5102 	movea	33,zero,r6
                        5103 	jarl	_loc_SrcFrequencyHz,lp
                        5103 <EXPANSION BEGIN>
                        5103 jarl22 _loc_SrcFrequencyHz , lp 
00001142 bfff4ef7*      5103 <EXPANSION END>
00001146 0ae8           5104 	mov	r10,r29
                        5105 --1674:         return reg_val;
                        5106 --line1674
                        5107 ..lin.C.3A.5Cgit.5Crh850.5Csrc.5Capp.5Cgfx_apps.5Csimple_draw.5Ctarget.5Cd1mx_mango_ghs.5Cobj.5Cr_dev_clk.266::
                        5108 .LDWlin266:
00001148 1d50           5109 	mov	r29,r10
0000114a 80079a01*      5110 	br	.L4827
                        5111 .L4832:
                        5112 --1675:     }
                        5113 --1676:     if (R_DEV_CKS_VI1PIX == ClkSel)
                        5114 --line1676
                        5115 ..lin.C.3A.5Cgit.5Crh850.5Csrc.5Capp.5Cgfx_apps.5Csimple_draw.5Ctarget.5Cd1mx_mango_ghs.5Cobj.5Cr_dev_clk.267::
                        5116 .LDWlin267:
0000114e 1c06deff       5117 	addi	-34,r28,zero
00001152 9a0d*          5118 	bne	.L4835
                        5119 --1677:     {
                        5120 --1678:         reg_val = loc_SrcFrequencyHz(R_DEV_CKS_SRC_VI1PIX);
                        5121 --line1678
                        5122 ..lin.C.3A.5Cgit.5Crh850.5Csrc.5Capp.5Cgfx_apps.5Csimple_draw.5Ctarget.5Cd1mx_mango_ghs.5Cobj.5Cr_dev_clk.268::
                        5123 .LDWlin268:
00001154 20362200       5124 	movea	34,zero,r6
                        5125 	jarl	_loc_SrcFrequencyHz,lp
                        5125 <EXPANSION BEGIN>
                        5125 jarl22 _loc_SrcFrequencyHz , lp 
00001158 bfff38f7*      5125 <EXPANSION END>
0000115c 0ae8           5126 	mov	r10,r29
                        5127 --1679:         return reg_val;
                        5128 --line1679
                        5129 ..lin.C.3A.5Cgit.5Crh850.5Csrc.5Capp.5Cgfx_apps.5Csimple_draw.5Ctarget.5Cd1mx_mango_ghs.5Cobj.5Cr_dev_clk.269::
                        5130 .LDWlin269:
0000115e 1d50           5131 	mov	r29,r10
00001160 80078401*      5132 	br	.L4827
                        5133 .L4835:
                        5134 --1680:     }
                        5135 --1681:     if (R_DEV_CKS_FIX_JIT == ClkSel)
                        5136 --line1681

                                                                      Page 88
                                                              C:\Users\Frank\AppData\Local\Temp\gh_0000p9g1.si
                        5137 ..lin.C.3A.5Cgit.5Crh850.5Csrc.5Capp.5Cgfx_apps.5Csimple_draw.5Ctarget.5Cd1mx_mango_ghs.5Cobj.5Cr_dev_clk.270::
                        5138 .LDWlin270:
00001164 1c06e1ff       5139 	addi	-31,r28,zero
00001168 ba05*          5140 	bne	.L4838
                        5141 --1682:     {
                        5142 --1683:         ClkSel = R_DEV_CKS_CLKJIT;
                        5143 --line1683
                        5144 ..lin.C.3A.5Cgit.5Crh850.5Csrc.5Capp.5Cgfx_apps.5Csimple_draw.5Ctarget.5Cd1mx_mango_ghs.5Cobj.5Cr_dev_clk.271::
                        5145 .LDWlin271:
0000116a 20e61200       5146 	movea	18,zero,r28
                        5147 .L4838:
                        5148 --1684:     }
                        5149 --1685:     /* now we can continue */
                        5150 --1686:     if (ClkSel < R_DEV_CKS_LAST)
0000116e 1c06e2ff       5151 	addi	-30,r28,zero
00001172 b125*          5152 	bl	.L4840
                        5153 --1687:     {
                        5154 --1688:         sel_addr     = loc_CkcsBaseAddr[ClkSel].Sel;
                        5155 --line1688
                        5156 ..lin.C.3A.5Cgit.5Crh850.5Csrc.5Capp.5Cgfx_apps.5Csimple_draw.5Ctarget.5Cd1mx_mango_ghs.5Cobj.5Cr_dev_clk.272::
                        5157 .LDWlin272:
00001174 1cf0           5158 	mov	r28,ep
00001176 fe00           5159 	sxh	ep
00001178 fef60c00       5160 	mulhi	12,ep,ep
0000117c 2b0600000000*  5161 	mov	_loc_CkcsBaseAddr,r11
00001182 cbf1           5162 	add	r11,ep
00001184 0065           5163 	sld.w	0[ep],r12
00001186 63670500       5164 	st.w	r12,4[sp]
                        5165 --1689:         div_addr     = loc_CkcsBaseAddr[ClkSel].Div;
0000118a 1cf0           5166 	mov	r28,ep
0000118c fe00           5167 	sxh	ep
0000118e fef60c00       5168 	mulhi	12,ep,ep
00001192 2b0600000000*  5169 	mov	_loc_CkcsBaseAddr,r11
00001198 cbf1           5170 	add	r11,ep
0000119a 0265           5171 	sld.w	4[ep],r12
0000119c 63670900       5172 	st.w	r12,8[sp]
                        5173 --1690:         div_idx      = loc_CkcsBaseAddr[ClkSel].DivIdx;
000011a0 1cf0           5174 	mov	r28,ep
000011a2 fe00           5175 	sxh	ep
000011a4 fef60c00       5176 	mulhi	12,ep,ep
000011a8 2b0600000000*  5177 	mov	_loc_CkcsBaseAddr,r11
000011ae cbf1           5178 	add	r11,ep
000011b0 6860           5179 	sld.bu	8[ep],r12
000011b2 43670100       5180 	st.b	r12,1[sp]
000011b6 d505*          5181 	br	.L4842
                        5182 .L4840:
                        5183 --1691:     }
                        5184 --1692:     else
                        5185 --1693:     {
                        5186 --1694:         R_DEV_ERROR((uint32_t)ClkSel, R_DEV_ERR_IDX, "Wrong clock domain selected!");
                        5187 --line1694
                        5188 ..lin.C.3A.5Cgit.5Crh850.5Csrc.5Capp.5Cgfx_apps.5Csimple_draw.5Ctarget.5Cd1mx_mango_ghs.5Cobj.5Cr_dev_clk.273::
                        5189 .LDWlin273:
000011b8 1c30           5190 	mov	r28,r6
000011ba 083a           5191 	mov	8,r7
                        5192 	jarl	_R_DEV_ErrorHandler,lp
                        5192 <EXPANSION BEGIN>
                        5192 jarl22 _R_DEV_ErrorHandler , lp 
000011bc 80ff0000*      5192 <EXPANSION END>
                        5193 .L4842:
                        5194 --1695:     }

                                                                      Page 89
                                                              C:\Users\Frank\AppData\Local\Temp\gh_0000p9g1.si
                        5195 --1696:     
                        5196 --1697:     if (sel_addr < (uint32_t) R_DEV_CKS_SRC_LAST)
                        5197 --line1697
                        5198 ..lin.C.3A.5Cgit.5Crh850.5Csrc.5Capp.5Cgfx_apps.5Csimple_draw.5Ctarget.5Cd1mx_mango_ghs.5Cobj.5Cr_dev_clk.274::
                        5199 .LDWlin274:
000011c0 235f0500       5200 	ld.w	4[sp],r11
000011c4 0b06dbff       5201 	addi	-37,r11,zero
000011c8 810d*          5202 	bl	.L4843
                        5203 --1698:     {
                        5204 --1699:         /* There is no selector, the source clock is fixed */
                        5205 --1700:         /* But there is a divider for sure, and sel_addr is the  R_DEV_CKS_SRC
                        5206 --1701:            in this case */
                        5207 --1702:         cks_src = (r_dev_CksSrc_t)sel_addr;
                        5208 --line1702
                        5209 ..lin.C.3A.5Cgit.5Crh850.5Csrc.5Capp.5Cgfx_apps.5Csimple_draw.5Ctarget.5Cd1mx_mango_ghs.5Cobj.5Cr_dev_clk.275::
                        5210 .LDWlin275:
000011ca 23df0500       5211 	ld.w	4[sp],r27
                        5212 --1703:         /* Get Frequency here, if result is 0, the Clock is inactive */
                        5213 --1704:         cks_act = loc_SrcFrequencyHz(cks_src);
000011ce 1b30           5214 	mov	r27,r6
                        5215 	jarl	_loc_SrcFrequencyHz,lp
                        5215 <EXPANSION BEGIN>
                        5215 jarl22 _loc_SrcFrequencyHz , lp 
000011d0 bfffc0f6*      5215 <EXPANSION END>
000011d4 0ac8           5216 	mov	r10,r25
000011d6 b515*          5217 	br	.L4845
                        5218 .L4843:
                        5219 --1705:     }
                        5220 --1706:     else
                        5221 --1707:     {
                        5222 --1708:         reg_val = R_DEV_READ_REG(32, sel_addr);
                        5223 --line1708
                        5224 ..lin.C.3A.5Cgit.5Crh850.5Csrc.5Capp.5Cgfx_apps.5Csimple_draw.5Ctarget.5Cd1mx_mango_ghs.5Cobj.5Cr_dev_clk.276::
                        5225 .LDWlin276:
000011d8 235f0500       5226 	ld.w	4[sp],r11
000011dc 2bef0100       5227 	ld.w	0[r11],r29
                        5228 --1709:         cks_src = loc_ClockTree[ClkSel][reg_val];
000011e0 1c70           5229 	mov	r28,r14
000011e2 c372           5230 	shl	3,r14
000011e4 1d08           5231 	mov	r29,r1
000011e6 ce09           5232 	add	r14,r1
000011e8 c20a           5233 	shl	2,r1
000011ea 3e0600000000*  5234 	mov	_loc_ClockTree,ep
000011f0 c1f1           5235 	add	r1,ep
000011f2 00dd           5236 	sld.w	0[ep],r27
                        5237 --1710:         cks_act = R_DEV_READ_REG(32, sel_addr + LOC_CKS_A);
000011f4 235f0500       5238 	ld.w	4[sp],r11
000011f8 2bcf0900       5239 	ld.w	8[r11],r25
                        5240 .L4845:
                        5241 --1711:      
                        5242 --1712:     }
                        5243 --1713:     if (LOC_DIV == cks_src)
000011fc 1b06daff       5244 	addi	-38,r27,zero
00001200 9a1d*          5245 	bne	.L4846
                        5246 --1714:     {
                        5247 --1715:         /* The source clock is not stored in the clock tree if the selection is like:
                        5248 --1716:            use divider output or an internal OSC, here we have three "special" casess  */
                        5249 --1717:         switch (ClkSel)
                        5250 --line1717
                        5251 ..lin.C.3A.5Cgit.5Crh850.5Csrc.5Capp.5Cgfx_apps.5Csimple_draw.5Ctarget.5Cd1mx_mango_ghs.5Cobj.5Cr_dev_clk.277::
                        5252 .LDWlin277:

                                                                      Page 90
                                                              C:\Users\Frank\AppData\Local\Temp\gh_0000p9g1.si
00001202 1c08           5253 	mov	r28,r1
00001204 0106eeff       5254 	addi	-18,r1,zero
00001208 820d*          5255 	be	.L4850
0000120a 0106edff       5256 	addi	-19,r1,zero
0000120e f205*          5257 	be	.L4851
00001210 0106ebff       5258 	addi	-21,r1,zero
00001214 9a0d*          5259 	bne	.L4853
00001216 e505*          5260 	br	.L4852
                        5261 .L4850:
                        5262 --1718:         {
                        5263 --1719:         case R_DEV_CKS_CLKJIT:
                        5264 --1720:             cks_src =  R_DEV_CKS_SRC_PLL0;
                        5265 --line1720
                        5266 ..lin.C.3A.5Cgit.5Crh850.5Csrc.5Capp.5Cgfx_apps.5Csimple_draw.5Ctarget.5Cd1mx_mango_ghs.5Cobj.5Cr_dev_clk.278::
                        5267 .LDWlin278:
00001218 06da           5268 	mov	6,r27
0000121a f505*          5269 	br	.L4848
                        5270 .L4851:
                        5271 --1721:             break;
                        5272 --1722:         case R_DEV_CKS_CLKFIX:
                        5273 --1723:             cks_src =  R_DEV_CKS_SRC_PLLFIX;
                        5274 --line1723
                        5275 ..lin.C.3A.5Cgit.5Crh850.5Csrc.5Capp.5Cgfx_apps.5Csimple_draw.5Ctarget.5Cd1mx_mango_ghs.5Cobj.5Cr_dev_clk.279::
                        5276 .LDWlin279:
0000121c 20de1400       5277 	movea	20,zero,r27
00001220 c505*          5278 	br	.L4848
                        5279 .L4852:
                        5280 --1724:             break;
                        5281 --1725:         case R_DEV_CKS_PLL2IN:
                        5282 --1726:             cks_src =  R_DEV_CKS_SRC_PLL0;
                        5283 --line1726
                        5284 ..lin.C.3A.5Cgit.5Crh850.5Csrc.5Capp.5Cgfx_apps.5Csimple_draw.5Ctarget.5Cd1mx_mango_ghs.5Cobj.5Cr_dev_clk.280::
                        5285 .LDWlin280:
00001222 06da           5286 	mov	6,r27
00001224 a505*          5287 	br	.L4848
                        5288 .L4853:
                        5289 --line1729
                        5290 ..lin.C.3A.5Cgit.5Crh850.5Csrc.5Capp.5Cgfx_apps.5Csimple_draw.5Ctarget.5Cd1mx_mango_ghs.5Cobj.5Cr_dev_clk.281::
                        5291 .LDWlin281:
00001226 0000           5292 	nop
                        5293 .L4848:
                        5294 --1727:             break;
                        5295 --1728:         default:
                        5296 --1729:             break;
                        5297 --1730:         }
                        5298 --1731:         cks_act = loc_SrcFrequencyHz(cks_src);
00001228 1b30           5299 	mov	r27,r6
                        5300 	jarl	_loc_SrcFrequencyHz,lp
                        5300 <EXPANSION BEGIN>
                        5300 jarl22 _loc_SrcFrequencyHz , lp 
0000122a bfff66f6*      5300 <EXPANSION END>
0000122e 0ac8           5301 	mov	r10,r25
00001230 8515*          5302 	br	.L4854
                        5303 .L4846:
                        5304 --1733:     }
                        5305 --1734:     else
                        5306 --1735:     {
                        5307 --1736:         /* now the other way round, we need to check if the
                        5308 --1737:         divider output is selected or a fixed clock
                        5309 --1738:         (see PLL2In fro example
                        5310 --1739:         - per selection we have divider output, or MOSC w/o divider */

                                                                      Page 91
                                                              C:\Users\Frank\AppData\Local\Temp\gh_0000p9g1.si
                        5311 --1740:         switch (ClkSel)
                        5312 --line1740
                        5313 ..lin.C.3A.5Cgit.5Crh850.5Csrc.5Capp.5Cgfx_apps.5Csimple_draw.5Ctarget.5Cd1mx_mango_ghs.5Cobj.5Cr_dev_clk.282::
                        5314 .LDWlin282:
00001232 1c0eeeff       5315 	addi	-18,r28,r1
00001236 610a           5316 	cmp	1,r1
00001238 b305*          5317 	bnh	.L4857
0000123a 630a           5318 	cmp	3,r1
0000123c da05*          5319 	bne	.L4858
                        5320 .L4857:
                        5321 --1741:         {
                        5322 --1742:         case R_DEV_CKS_CLKJIT:
                        5323 --1743:         case R_DEV_CKS_CLKFIX:
                        5324 --1744:         case R_DEV_CKS_PLL2IN:
                        5325 --1745:             /* The source clock was stored in the selector,
                        5326 --1746:             and in this case the divider does not count */
                        5327 --1747:             div_addr = 0;
                        5328 --line1747
                        5329 ..lin.C.3A.5Cgit.5Crh850.5Csrc.5Capp.5Cgfx_apps.5Csimple_draw.5Ctarget.5Cd1mx_mango_ghs.5Cobj.5Cr_dev_clk.283::
                        5330 .LDWlin283:
0000123e 63070900       5331 	st.w	zero,8[sp]
00001242 005a           5332 	mov	0,r11
00001244 a505*          5333 	br	.L4855
                        5334 .L4858:
                        5335 --line1750
                        5336 ..lin.C.3A.5Cgit.5Crh850.5Csrc.5Capp.5Cgfx_apps.5Csimple_draw.5Ctarget.5Cd1mx_mango_ghs.5Cobj.5Cr_dev_clk.284::
                        5337 .LDWlin284:
00001246 0000           5338 	nop
                        5339 .L4855:
                        5340 --1748:             break;
                        5341 --1749:         default:
                        5342 --1750:             break;
                        5343 --1751:         }
                        5344 --1752:         cks_act = loc_SrcFrequencyHz(cks_src);
00001248 1b30           5345 	mov	r27,r6
                        5346 	jarl	_loc_SrcFrequencyHz,lp
                        5346 <EXPANSION BEGIN>
                        5346 jarl22 _loc_SrcFrequencyHz , lp 
0000124a bfff46f6*      5346 <EXPANSION END>
0000124e 0ac8           5347 	mov	r10,r25
                        5348 .L4854:
                        5349 --1753:     }
                        5350 --1754:     /* Selected disabled clock or clock source inactive,
                        5351 --1755:       we're done here                                     */
                        5352 --1756:     if ((LOC_DIS == cks_src) || (0 == cks_act))
                        5353 --line1756
                        5354 ..lin.C.3A.5Cgit.5Crh850.5Csrc.5Capp.5Cgfx_apps.5Csimple_draw.5Ctarget.5Cd1mx_mango_ghs.5Cobj.5Cr_dev_clk.285::
                        5355 .LDWlin285:
00001250 e0d9           5356 	cmp	zero,r27
00001252 b205*          5357 	be	.L4860
00001254 e0c9           5358 	cmp	zero,r25
00001256 ba05*          5359 	bne	.L4859
                        5360 .L4860:
                        5361 --1757:     {
                        5362 --1758:         /* Clock disabled */
                        5363 --1759:         return 0;
                        5364 --line1759
                        5365 ..lin.C.3A.5Cgit.5Crh850.5Csrc.5Capp.5Cgfx_apps.5Csimple_draw.5Ctarget.5Cd1mx_mango_ghs.5Cobj.5Cr_dev_clk.286::
                        5366 .LDWlin286:
00001258 0052           5367 	mov	0,r10
0000125a d545*          5368 	br	.L4827

                                                                      Page 92
                                                              C:\Users\Frank\AppData\Local\Temp\gh_0000p9g1.si
                        5369 .L4859:
                        5370 --1760:     }
                        5371 --1761:     
                        5372 --1762:     /* Get divider */
                        5373 --1763:     if (0 != div_addr)
                        5374 --line1763
                        5375 ..lin.C.3A.5Cgit.5Crh850.5Csrc.5Capp.5Cgfx_apps.5Csimple_draw.5Ctarget.5Cd1mx_mango_ghs.5Cobj.5Cr_dev_clk.287::
                        5376 .LDWlin287:
0000125c 235f0900       5377 	ld.w	8[sp],r11
00001260 e059           5378 	cmp	zero,r11
00001262 f22d*          5379 	be	.L4863
                        5380 --1764:     {
                        5381 --1765:         for (i = 0; i < 8; i++ )
                        5382 --line1765
                        5383 ..lin.C.3A.5Cgit.5Crh850.5Csrc.5Capp.5Cgfx_apps.5Csimple_draw.5Ctarget.5Cd1mx_mango_ghs.5Cobj.5Cr_dev_clk.288::
                        5384 .LDWlin288:
00001264 00d2           5385 	mov	0,r26
00001266 0000           5386 	nop
                        5387 .L4867:
                        5388 --1766:         {
                        5389 --1767:             if (LOC_F == loc_ClkSelDiv[div_idx][i])
00001268 a30f0100       5390 	ld.bu	1[sp],r1
0000126c 2c0600000000*  5391 	mov	_loc_ClkSelDiv,r12
00001272 c30a           5392 	shl	3,r1
00001274 da09           5393 	add	r26,r1
00001276 c10a           5394 	shl	1,r1
00001278 01f0           5395 	mov	r1,ep
0000127a ccf1           5396 	add	r12,ep
0000127c 7008           5397 	sld.hu	0[ep],r1
0000127e a106fefe       5398 	xori	65278,r1,zero
00001282 aa05*          5399 	bne	.L4868
                        5400 --1768:             {
                        5401 --1769:                 break;
                        5402 --line1769
                        5403 ..lin.C.3A.5Cgit.5Crh850.5Csrc.5Capp.5Cgfx_apps.5Csimple_draw.5Ctarget.5Cd1mx_mango_ghs.5Cobj.5Cr_dev_clk.289::
                        5404 .LDWlin289:
00001284 d505*          5405 	br	.L4870
                        5406 .L4868:
                        5407 --line1765
                        5408 ..lin.C.3A.5Cgit.5Crh850.5Csrc.5Capp.5Cgfx_apps.5Csimple_draw.5Ctarget.5Cd1mx_mango_ghs.5Cobj.5Cr_dev_clk.290::
                        5409 .LDWlin290:
00001286 41d2           5410 	add	1,r26
00001288 9a00           5411 	zxb	r26
0000128a 68d2           5412 	cmp	8,r26
0000128c e1ed*          5413 	bl	.L4867
                        5414 .L4870:
                        5415 --1770:             }
                        5416 --1771:         }
                        5417 --1772:         reg_val = R_DEV_READ_REG(32, div_addr);
                        5418 --line1772
                        5419 ..lin.C.3A.5Cgit.5Crh850.5Csrc.5Capp.5Cgfx_apps.5Csimple_draw.5Ctarget.5Cd1mx_mango_ghs.5Cobj.5Cr_dev_clk.291::
                        5420 .LDWlin291:
0000128e 235f0900       5421 	ld.w	8[sp],r11
00001292 2bef0100       5422 	ld.w	0[r11],r29
                        5423 --1773:         if (i < 8 )
00001296 68d2           5424 	cmp	8,r26
00001298 e905*          5425 	bnl	.L4872
                        5426 --1774:         {
                        5427 --1775:            cks_div = reg_val;
                        5428 --line1775
                        5429 ..lin.C.3A.5Cgit.5Crh850.5Csrc.5Capp.5Cgfx_apps.5Csimple_draw.5Ctarget.5Cd1mx_mango_ghs.5Cobj.5Cr_dev_clk.292::

                                                                      Page 93
                                                              C:\Users\Frank\AppData\Local\Temp\gh_0000p9g1.si
                        5430 .LDWlin292:
0000129a dd5effff       5431 	andi	65535,r29,r11
0000129e 635f0200       5432 	st.h	r11,2[sp]
000012a2 a515*          5433 	br	.L4875
                        5434 .L4872:
                        5435 --1776:         }
                        5436 --1777:         else
                        5437 --1778:         {
                        5438 --1779:            cks_div = loc_ClkSelDiv[div_idx][reg_val];
                        5439 --line1779
                        5440 ..lin.C.3A.5Cgit.5Crh850.5Csrc.5Capp.5Cgfx_apps.5Csimple_draw.5Ctarget.5Cd1mx_mango_ghs.5Cobj.5Cr_dev_clk.293::
                        5441 .LDWlin293:
000012a4 a30f0100       5442 	ld.bu	1[sp],r1
000012a8 2c0600000000*  5443 	mov	_loc_ClkSelDiv,r12
000012ae c30a           5444 	shl	3,r1
000012b0 dd09           5445 	add	r29,r1
000012b2 c10a           5446 	shl	1,r1
000012b4 01f0           5447 	mov	r1,ep
000012b6 ccf1           5448 	add	r12,ep
000012b8 7068           5449 	sld.hu	0[ep],r13
000012ba 636f0200       5450 	st.h	r13,2[sp]
000012be c505*          5451 	br	.L4875
                        5452 .L4863:
                        5453 --1780:         }
                        5454 --1781:     }
                        5455 --1782:     else
                        5456 --1783:     {
                        5457 --1784:         cks_div = 1;
                        5458 --line1784
                        5459 ..lin.C.3A.5Cgit.5Crh850.5Csrc.5Capp.5Cgfx_apps.5Csimple_draw.5Ctarget.5Cd1mx_mango_ghs.5Cobj.5Cr_dev_clk.294::
                        5460 .LDWlin294:
000012c0 015a           5461 	mov	1,r11
000012c2 635f0200       5462 	st.h	r11,2[sp]
                        5463 .L4875:
                        5464 --1785:     }
                        5465 --1786:     /* Divider disabled */
                        5466 --1787:     if (0 == cks_div)
000012c6 e35f0300       5467 	ld.hu	2[sp],r11
000012ca e059           5468 	cmp	zero,r11
000012cc ba05*          5469 	bne	.L4876
                        5470 --1788:     {
                        5471 --1789:         /* Clock disabled */
                        5472 --1790:         reg_val =  0;
                        5473 --line1790
                        5474 ..lin.C.3A.5Cgit.5Crh850.5Csrc.5Capp.5Cgfx_apps.5Csimple_draw.5Ctarget.5Cd1mx_mango_ghs.5Cobj.5Cr_dev_clk.295::
                        5475 .LDWlin295:
000012ce 00ea           5476 	mov	0,r29
000012d0 950d*          5477 	br	.L4878
                        5478 .L4876:
                        5479 --1791:     }
                        5480 --1792:     else
                        5481 --1793:     {
                        5482 --1794:         reg_val = loc_SrcFrequencyHz(cks_src) /  cks_div;
                        5483 --line1794
                        5484 ..lin.C.3A.5Cgit.5Crh850.5Csrc.5Capp.5Cgfx_apps.5Csimple_draw.5Ctarget.5Cd1mx_mango_ghs.5Cobj.5Cr_dev_clk.296::
                        5485 .LDWlin296:
000012d2 1b30           5486 	mov	r27,r6
                        5487 	jarl	_loc_SrcFrequencyHz,lp
                        5487 <EXPANSION BEGIN>
                        5487 jarl22 _loc_SrcFrequencyHz , lp 
000012d4 bfffbcf5*      5487 <EXPANSION END>

                                                                      Page 94
                                                              C:\Users\Frank\AppData\Local\Temp\gh_0000p9g1.si
000012d8 e35f0300       5488 	ld.hu	2[sp],r11
000012dc 0ae8           5489 	mov	r10,r29
000012de ebeffe02       5490 	divqu	r11,r29,zero
                        5491 .L4878:
                        5492 --1795:     }
                        5493 --1796:     return  reg_val;
                        5494 --line1796
                        5495 ..lin.C.3A.5Cgit.5Crh850.5Csrc.5Capp.5Cgfx_apps.5Csimple_draw.5Ctarget.5Cd1mx_mango_ghs.5Cobj.5Cr_dev_clk.297::
                        5496 .LDWlin297:
000012e2 1d50           5497 	mov	r29,r10
                        5498 .L4827:
                        5499 --	    .ef
                        5500 .LDW95:
000012e4 4a06ff70       5501 	dispose	5,{r25,r26,r27,r28,r29,r31},[lp]
                        5502 	.type	_R_DEV_ClkFrequencyHz,@function
                        5503 	.size	_R_DEV_ClkFrequencyHz,.-_R_DEV_ClkFrequencyHz
                        5504 	.align	2
                        5505 .LDW06:
                        5506 --_sel_addr	4[sp]	local
                        5507 --_div_addr	8[sp]	local
                        5508 --_div_idx	1[sp]	local
                        5509 --_reg_val	r29	local
                        5510 --_i	r26	local
                        5511 --_cks_src	r27	local
                        5512 --_cks_div	2[sp]	local
                        5513 --_cks_act	r25	local
                        5514 
                        5515 --_ClkSel	r28	param
                        5516 
                        5517 	.section ".bss","awb"
                        5518 .L5146:
                        5519 	.type	.L5146,@object
                        5520 	.size	.L5146,0
                        5521 	.data
                        5522 	.text
                        5523 
                        5524 --1797: }
                        5525 
                        5526 --1799: /*******************************************************************************
                        5527 --1800:   Function: R_DEV_GetClkConfig
                        5528 --1802:     see: <r_dev_api.h> for details
                        5529 --1803: */
                        5530 --1804: uint32_t R_DEV_GetClkConfig(r_dev_ClkSelConfig_t *ClkData)
                        5531 	.align	2
                        5532 	.align	2
                        5533 	.global	_R_DEV_GetClkConfig
                        5534 _R_DEV_GetClkConfig:
000012e8 8a07e170       5535 	prepare	{r25,r26,r27,r28,r29,r31},5
000012ec 06e8           5536 	mov	r6,r29
                        5537 --	    .bf
                        5538 .LDW16:
                        5539 --1805: {
                        5540 --1806:     uint32_t        sel_addr = 0;
000012ee 00ca           5541 	mov	0,r25
                        5542 --1807:     uint32_t        div_addr = 0;
000012f0 63070900       5543 	st.w	zero,8[sp]
000012f4 005a           5544 	mov	0,r11
                        5545 --1808:     uint8_t         div_idx  = 0;
000012f6 43070100       5546 	st.b	zero,1[sp]
000012fa 005a           5547 	mov	0,r11
                        5548 --1809:     uint32_t        reg_val  = 0;

                                                                      Page 95
                                                              C:\Users\Frank\AppData\Local\Temp\gh_0000p9g1.si
000012fc 00e2           5549 	mov	0,r28
                        5550 --1810:     uint8_t         i        = 0;
000012fe 00d2           5551 	mov	0,r26
                        5552 --1811:     r_dev_CksSrc_t  cks_src  = R_DEV_CKS_SRC_DISABLED;
00001300 00da           5553 	mov	0,r27
                        5554 --1812:     uint16_t        cks_div  = 0;
00001302 63070200       5555 	st.h	zero,2[sp]
00001306 005a           5556 	mov	0,r11
                        5557 --1813:     uint32_t        cks_act  = 0;
00001308 63070500       5558 	st.w	zero,4[sp]
0000130c 005a           5559 	mov	0,r11
                        5560 --1814:     
                        5561 --1815:     /* Just dummy */
                        5562 --1816:     ClkData->StpReqMsk  = 0;
0000130e 5d070a00       5563 	st.b	zero,10[r29]
                        5564 --1818:    /* Some translation to get frequency for
                        5565 --1819:        macros that do not allow configuration */
                        5566 --1820:     if (R_DEV_CKS_FIX_LOW == ClkData->Cks)
00001312 3d0f0100       5567 	ld.w	0[r29],r1
00001316 0106e0ff       5568 	addi	-32,r1,zero
0000131a ea0d*          5569 	bne	.L5367
                        5570 --1821:     {
                        5571 --1822:         reg_val = loc_SrcFrequencyHz(R_DEV_CKS_SRC_LRNG);
                        5572 --line1822
                        5573 ..lin.C.3A.5Cgit.5Crh850.5Csrc.5Capp.5Cgfx_apps.5Csimple_draw.5Ctarget.5Cd1mx_mango_ghs.5Cobj.5Cr_dev_clk.298::
                        5574 .LDWlin298:
0000131c 0132           5575 	mov	1,r6
                        5576 	jarl	_loc_SrcFrequencyHz,lp
                        5576 <EXPANSION BEGIN>
                        5576 jarl22 _loc_SrcFrequencyHz , lp 
0000131e bfff72f5*      5576 <EXPANSION END>
00001322 0ae0           5577 	mov	r10,r28
                        5578 --1823:         ClkData->SrcId      = R_DEV_CKS_SRC_LRNG;
                        5579 --line1823
                        5580 ..lin.C.3A.5Cgit.5Crh850.5Csrc.5Capp.5Cgfx_apps.5Csimple_draw.5Ctarget.5Cd1mx_mango_ghs.5Cobj.5Cr_dev_clk.299::
                        5581 .LDWlin299:
00001324 010a           5582 	mov	1,r1
00001326 7d0f0500       5583 	st.w	r1,4[r29]
                        5584 --1824:         ClkData->Div        = 1;
0000132a 010a           5585 	mov	1,r1
0000132c 7d0f0800       5586 	st.h	r1,8[r29]
                        5587 --1825:         return reg_val;
00001330 1c50           5588 	mov	r28,r10
00001332 80078002*      5589 	br	.L5365
                        5590 .L5367:
                        5591 --1826:     }
                        5592 --1827:     if (R_DEV_CKS_VI0PIX == ClkData->Cks)
                        5593 --line1827
                        5594 ..lin.C.3A.5Cgit.5Crh850.5Csrc.5Capp.5Cgfx_apps.5Csimple_draw.5Ctarget.5Cd1mx_mango_ghs.5Cobj.5Cr_dev_clk.300::
                        5595 .LDWlin300:
00001336 3d0f0100       5596 	ld.w	0[r29],r1
0000133a 0106dfff       5597 	addi	-33,r1,zero
0000133e 8a15*          5598 	bne	.L5370
                        5599 --1828:     {
                        5600 --1829:         reg_val = loc_SrcFrequencyHz(R_DEV_CKS_SRC_VI0PIX);
                        5601 --line1829
                        5602 ..lin.C.3A.5Cgit.5Crh850.5Csrc.5Capp.5Cgfx_apps.5Csimple_draw.5Ctarget.5Cd1mx_mango_ghs.5Cobj.5Cr_dev_clk.301::
                        5603 .LDWlin301:
00001340 20362100       5604 	movea	33,zero,r6
                        5605 	jarl	_loc_SrcFrequencyHz,lp
                        5605 <EXPANSION BEGIN>

                                                                      Page 96
                                                              C:\Users\Frank\AppData\Local\Temp\gh_0000p9g1.si
                        5605 jarl22 _loc_SrcFrequencyHz , lp 
00001344 bfff4cf5*      5605 <EXPANSION END>
00001348 0ae0           5606 	mov	r10,r28
                        5607 --1830:         ClkData->SrcId      = R_DEV_CKS_SRC_VI0PIX;
                        5608 --line1830
                        5609 ..lin.C.3A.5Cgit.5Crh850.5Csrc.5Capp.5Cgfx_apps.5Csimple_draw.5Ctarget.5Cd1mx_mango_ghs.5Cobj.5Cr_dev_clk.302::
                        5610 .LDWlin302:
0000134a 200e2100       5611 	movea	33,zero,r1
0000134e 7d0f0500       5612 	st.w	r1,4[r29]
                        5613 --1831:         ClkData->Div        = 1;
00001352 010a           5614 	mov	1,r1
00001354 7d0f0800       5615 	st.h	r1,8[r29]
                        5616 --1832:         return reg_val;
00001358 1c50           5617 	mov	r28,r10
0000135a 80075802*      5618 	br	.L5365
                        5619 .L5370:
                        5620 --1833:     }
                        5621 --1834:     if (R_DEV_CKS_VI1PIX == ClkData->Cks)
                        5622 --line1834
                        5623 ..lin.C.3A.5Cgit.5Crh850.5Csrc.5Capp.5Cgfx_apps.5Csimple_draw.5Ctarget.5Cd1mx_mango_ghs.5Cobj.5Cr_dev_clk.303::
                        5624 .LDWlin303:
0000135e 3d0f0100       5625 	ld.w	0[r29],r1
00001362 0106deff       5626 	addi	-34,r1,zero
00001366 8a15*          5627 	bne	.L5373
                        5628 --1835:     {
                        5629 --1836:         reg_val = loc_SrcFrequencyHz(R_DEV_CKS_SRC_VI1PIX);
                        5630 --line1836
                        5631 ..lin.C.3A.5Cgit.5Crh850.5Csrc.5Capp.5Cgfx_apps.5Csimple_draw.5Ctarget.5Cd1mx_mango_ghs.5Cobj.5Cr_dev_clk.304::
                        5632 .LDWlin304:
00001368 20362200       5633 	movea	34,zero,r6
                        5634 	jarl	_loc_SrcFrequencyHz,lp
                        5634 <EXPANSION BEGIN>
                        5634 jarl22 _loc_SrcFrequencyHz , lp 
0000136c bfff24f5*      5634 <EXPANSION END>
00001370 0ae0           5635 	mov	r10,r28
                        5636 --1837:         ClkData->SrcId      = R_DEV_CKS_SRC_VI1PIX;
                        5637 --line1837
                        5638 ..lin.C.3A.5Cgit.5Crh850.5Csrc.5Capp.5Cgfx_apps.5Csimple_draw.5Ctarget.5Cd1mx_mango_ghs.5Cobj.5Cr_dev_clk.305::
                        5639 .LDWlin305:
00001372 200e2200       5640 	movea	34,zero,r1
00001376 7d0f0500       5641 	st.w	r1,4[r29]
                        5642 --1838:         ClkData->Div        = 1;
0000137a 010a           5643 	mov	1,r1
0000137c 7d0f0800       5644 	st.h	r1,8[r29]
                        5645 --1839:         return reg_val;
00001380 1c50           5646 	mov	r28,r10
00001382 80073002*      5647 	br	.L5365
                        5648 .L5373:
                        5649 --1840:     }
                        5650 --1842:     if (R_DEV_CKS_FIX_JIT == ClkData->Cks)
                        5651 --line1842
                        5652 ..lin.C.3A.5Cgit.5Crh850.5Csrc.5Capp.5Cgfx_apps.5Csimple_draw.5Ctarget.5Cd1mx_mango_ghs.5Cobj.5Cr_dev_clk.306::
                        5653 .LDWlin306:
00001386 3d0f0100       5654 	ld.w	0[r29],r1
0000138a 0106e1ff       5655 	addi	-31,r1,zero
0000138e da05*          5656 	bne	.L5376
                        5657 --1843:     {
                        5658 --1844:         ClkData->Cks = R_DEV_CKS_CLKJIT;
                        5659 --line1844
                        5660 ..lin.C.3A.5Cgit.5Crh850.5Csrc.5Capp.5Cgfx_apps.5Csimple_draw.5Ctarget.5Cd1mx_mango_ghs.5Cobj.5Cr_dev_clk.307::
                        5661 .LDWlin307:

                                                                      Page 97
                                                              C:\Users\Frank\AppData\Local\Temp\gh_0000p9g1.si
00001390 200e1200       5662 	movea	18,zero,r1
00001394 7d0f0100       5663 	st.w	r1,0[r29]
                        5664 .L5376:
                        5665 --1845:     }
                        5666 --1846:     /* now we can continue */
                        5667 --1847:     if (ClkData->Cks < R_DEV_CKS_LAST)
00001398 3d0f0100       5668 	ld.w	0[r29],r1
0000139c 0106e2ff       5669 	addi	-30,r1,zero
000013a0 9125*          5670 	bl	.L5378
                        5671 --1848:     {
                        5672 --1849:         sel_addr     = loc_CkcsBaseAddr[ClkData->Cks].Sel;
                        5673 --line1849
                        5674 ..lin.C.3A.5Cgit.5Crh850.5Csrc.5Capp.5Cgfx_apps.5Csimple_draw.5Ctarget.5Cd1mx_mango_ghs.5Cobj.5Cr_dev_clk.308::
                        5675 .LDWlin308:
000013a2 3d0f0000       5676 	ld.h	0[r29],r1
000013a6 2b0600000000*  5677 	mov	_loc_CkcsBaseAddr,r11
000013ac e1f60c00       5678 	mulhi	12,r1,ep
000013b0 cbf1           5679 	add	r11,ep
000013b2 00cd           5680 	sld.w	0[ep],r25
                        5681 --1850:         div_addr     = loc_CkcsBaseAddr[ClkData->Cks].Div;
000013b4 3d0f0000       5682 	ld.h	0[r29],r1
000013b8 2b0600000000*  5683 	mov	_loc_CkcsBaseAddr,r11
000013be e1f60c00       5684 	mulhi	12,r1,ep
000013c2 cbf1           5685 	add	r11,ep
000013c4 0265           5686 	sld.w	4[ep],r12
000013c6 63670900       5687 	st.w	r12,8[sp]
                        5688 --1851:         div_idx      = loc_CkcsBaseAddr[ClkData->Cks].DivIdx;
000013ca 3d0f0000       5689 	ld.h	0[r29],r1
000013ce 2b0600000000*  5690 	mov	_loc_CkcsBaseAddr,r11
000013d4 e1f60c00       5691 	mulhi	12,r1,ep
000013d8 cbf1           5692 	add	r11,ep
000013da 6860           5693 	sld.bu	8[ep],r12
000013dc 43670100       5694 	st.b	r12,1[sp]
000013e0 e505*          5695 	br	.L5380
                        5696 .L5378:
                        5697 --1852:     }
                        5698 --1853:     else
                        5699 --1854:     {
                        5700 --1855:         R_DEV_ERROR((uint32_t)(ClkData->Cks), R_DEV_ERR_IDX, "Wrong clock domain selected!");
                        5701 --line1855
                        5702 ..lin.C.3A.5Cgit.5Crh850.5Csrc.5Capp.5Cgfx_apps.5Csimple_draw.5Ctarget.5Cd1mx_mango_ghs.5Cobj.5Cr_dev_clk.309::
                        5703 .LDWlin309:
000013e2 3d370100       5704 	ld.w	0[r29],r6
000013e6 083a           5705 	mov	8,r7
                        5706 	jarl	_R_DEV_ErrorHandler,lp
                        5706 <EXPANSION BEGIN>
                        5706 jarl22 _R_DEV_ErrorHandler , lp 
000013e8 80ff0000*      5706 <EXPANSION END>
                        5707 .L5380:
                        5708 --1856:     }
                        5709 --1857:     
                        5710 --1858:     if (sel_addr < (uint32_t) R_DEV_CKS_SRC_LAST)
                        5711 --line1858
                        5712 ..lin.C.3A.5Cgit.5Crh850.5Csrc.5Capp.5Cgfx_apps.5Csimple_draw.5Ctarget.5Cd1mx_mango_ghs.5Cobj.5Cr_dev_clk.310::
                        5713 .LDWlin310:
000013ec 1906dbff       5714 	addi	-37,r25,zero
000013f0 810d*          5715 	bl	.L5381
                        5716 --1859:     {
                        5717 --1860:         /* There is no selector, the source clock is fixed */
                        5718 --1861:         /* But there is a divider for sure, and sel_addr is the  R_DEV_CKS_SRC
                        5719 --1862:            in this case */

                                                                      Page 98
                                                              C:\Users\Frank\AppData\Local\Temp\gh_0000p9g1.si
                        5720 --1863:         cks_src         = (r_dev_CksSrc_t)sel_addr;
                        5721 --line1863
                        5722 ..lin.C.3A.5Cgit.5Crh850.5Csrc.5Capp.5Cgfx_apps.5Csimple_draw.5Ctarget.5Cd1mx_mango_ghs.5Cobj.5Cr_dev_clk.311::
                        5723 .LDWlin311:
000013f2 19d8           5724 	mov	r25,r27
                        5725 --1864:         /* Get Frequency here, if result is 0, the Clock is inactive */
                        5726 --1865:         cks_act         = loc_SrcFrequencyHz(cks_src);
000013f4 1b30           5727 	mov	r27,r6
                        5728 	jarl	_loc_SrcFrequencyHz,lp
                        5728 <EXPANSION BEGIN>
                        5728 jarl22 _loc_SrcFrequencyHz , lp 
000013f6 bfff9af4*      5728 <EXPANSION END>
000013fa 63570500       5729 	st.w	r10,4[sp]
000013fe 9515*          5730 	br	.L5383
                        5731 .L5381:
                        5732 --1866:     }
                        5733 --1867:     else
                        5734 --1868:     {
                        5735 --1869:         reg_val         = R_DEV_READ_REG(32, sel_addr);
                        5736 --line1869
                        5737 ..lin.C.3A.5Cgit.5Crh850.5Csrc.5Capp.5Cgfx_apps.5Csimple_draw.5Ctarget.5Cd1mx_mango_ghs.5Cobj.5Cr_dev_clk.312::
                        5738 .LDWlin312:
00001400 39e70100       5739 	ld.w	0[r25],r28
                        5740 --1870:         cks_src         = loc_ClockTree[ClkData->Cks][reg_val];
00001404 3d0f0100       5741 	ld.w	0[r29],r1
00001408 3e0600000000*  5742 	mov	_loc_ClockTree,ep
0000140e c30a           5743 	shl	3,r1
00001410 dc09           5744 	add	r28,r1
00001412 c20a           5745 	shl	2,r1
00001414 c1f1           5746 	add	r1,ep
00001416 00dd           5747 	sld.w	0[ep],r27
                        5748 --1871:         cks_act         = R_DEV_READ_REG(32, sel_addr + LOC_CKS_A);
00001418 395f0900       5749 	ld.w	8[r25],r11
0000141c 635f0500       5750 	st.w	r11,4[sp]
                        5751 .L5383:
                        5752 --1872:      
                        5753 --1873:     }
                        5754 --1874:     if (LOC_DIV == cks_src)
00001420 1b06daff       5755 	addi	-38,r27,zero
00001424 ba1d*          5756 	bne	.L5384
                        5757 --1875:     {
                        5758 --1876:         /* The source clock is not stored in the clock tree if the selection is like:
                        5759 --1877:            use divider output or an internal OSC, here we have three "special" casess  */
                        5760 --1878:         switch (ClkData->Cks)
                        5761 --line1878
                        5762 ..lin.C.3A.5Cgit.5Crh850.5Csrc.5Capp.5Cgfx_apps.5Csimple_draw.5Ctarget.5Cd1mx_mango_ghs.5Cobj.5Cr_dev_clk.313::
                        5763 .LDWlin313:
00001426 3d0f0100       5764 	ld.w	0[r29],r1
0000142a 0106eeff       5765 	addi	-18,r1,zero
0000142e 820d*          5766 	be	.L5388
00001430 0106edff       5767 	addi	-19,r1,zero
00001434 f205*          5768 	be	.L5389
00001436 0106ebff       5769 	addi	-21,r1,zero
0000143a 9a0d*          5770 	bne	.L5391
0000143c e505*          5771 	br	.L5390
                        5772 .L5388:
                        5773 --1879:         {
                        5774 --1880:         case R_DEV_CKS_CLKJIT:
                        5775 --1881:             cks_src =  R_DEV_CKS_SRC_PLL0;
                        5776 --line1881
                        5777 ..lin.C.3A.5Cgit.5Crh850.5Csrc.5Capp.5Cgfx_apps.5Csimple_draw.5Ctarget.5Cd1mx_mango_ghs.5Cobj.5Cr_dev_clk.314::

                                                                      Page 99
                                                              C:\Users\Frank\AppData\Local\Temp\gh_0000p9g1.si
                        5778 .LDWlin314:
0000143e 06da           5779 	mov	6,r27
00001440 f505*          5780 	br	.L5386
                        5781 .L5389:
                        5782 --1882:             break;
                        5783 --1883:         case R_DEV_CKS_CLKFIX:
                        5784 --1884:             cks_src =  R_DEV_CKS_SRC_PLLFIX;
                        5785 --line1884
                        5786 ..lin.C.3A.5Cgit.5Crh850.5Csrc.5Capp.5Cgfx_apps.5Csimple_draw.5Ctarget.5Cd1mx_mango_ghs.5Cobj.5Cr_dev_clk.315::
                        5787 .LDWlin315:
00001442 20de1400       5788 	movea	20,zero,r27
00001446 c505*          5789 	br	.L5386
                        5790 .L5390:
                        5791 --1885:             break;
                        5792 --1886:         case R_DEV_CKS_PLL2IN:
                        5793 --1887:             cks_src =  R_DEV_CKS_SRC_PLL0;
                        5794 --line1887
                        5795 ..lin.C.3A.5Cgit.5Crh850.5Csrc.5Capp.5Cgfx_apps.5Csimple_draw.5Ctarget.5Cd1mx_mango_ghs.5Cobj.5Cr_dev_clk.316::
                        5796 .LDWlin316:
00001448 06da           5797 	mov	6,r27
0000144a a505*          5798 	br	.L5386
                        5799 .L5391:
                        5800 --line1890
                        5801 ..lin.C.3A.5Cgit.5Crh850.5Csrc.5Capp.5Cgfx_apps.5Csimple_draw.5Ctarget.5Cd1mx_mango_ghs.5Cobj.5Cr_dev_clk.317::
                        5802 .LDWlin317:
0000144c 0000           5803 	nop
                        5804 .L5386:
                        5805 --1888:             break;
                        5806 --1889:         default:
                        5807 --1890:             break;
                        5808 --1891:         }
                        5809 --1892:         cks_act = loc_SrcFrequencyHz(cks_src);
0000144e 1b30           5810 	mov	r27,r6
                        5811 	jarl	_loc_SrcFrequencyHz,lp
                        5811 <EXPANSION BEGIN>
                        5811 jarl22 _loc_SrcFrequencyHz , lp 
00001450 bfff40f4*      5811 <EXPANSION END>
00001454 63570500       5812 	st.w	r10,4[sp]
00001458 b515*          5813 	br	.L5392
                        5814 .L5384:
                        5815 --1894:     }
                        5816 --1895:     else
                        5817 --1896:     {
                        5818 --1897:         /* now the other way round, we need to check if the
                        5819 --1898:         divider output is selected or a fixed clock
                        5820 --1899:         (see PLL2In fro example
                        5821 --1900:         - per selection we have divider output, or MOSC w/o divider */
                        5822 --1901:         switch (ClkData->Cks)
                        5823 --line1901
                        5824 ..lin.C.3A.5Cgit.5Crh850.5Csrc.5Capp.5Cgfx_apps.5Csimple_draw.5Ctarget.5Cd1mx_mango_ghs.5Cobj.5Cr_dev_clk.318::
                        5825 .LDWlin318:
0000145a 3d0f0100       5826 	ld.w	0[r29],r1
0000145e 010eeeff       5827 	addi	-18,r1,r1
00001462 610a           5828 	cmp	1,r1
00001464 b305*          5829 	bnh	.L5395
00001466 630a           5830 	cmp	3,r1
00001468 da05*          5831 	bne	.L5396
                        5832 .L5395:
                        5833 --1902:         {
                        5834 --1903:         case R_DEV_CKS_CLKJIT:
                        5835 --1904:         case R_DEV_CKS_CLKFIX:

                                                                      Page 100
                                                              C:\Users\Frank\AppData\Local\Temp\gh_0000p9g1.si
                        5836 --1905:         case R_DEV_CKS_PLL2IN:
                        5837 --1906:             /* The source clock was stored in the selector,
                        5838 --1907:             and in this case the divider does not count */
                        5839 --1908:             div_addr = 0;
                        5840 --line1908
                        5841 ..lin.C.3A.5Cgit.5Crh850.5Csrc.5Capp.5Cgfx_apps.5Csimple_draw.5Ctarget.5Cd1mx_mango_ghs.5Cobj.5Cr_dev_clk.319::
                        5842 .LDWlin319:
0000146a 63070900       5843 	st.w	zero,8[sp]
0000146e 005a           5844 	mov	0,r11
00001470 a505*          5845 	br	.L5393
                        5846 .L5396:
                        5847 --line1911
                        5848 ..lin.C.3A.5Cgit.5Crh850.5Csrc.5Capp.5Cgfx_apps.5Csimple_draw.5Ctarget.5Cd1mx_mango_ghs.5Cobj.5Cr_dev_clk.320::
                        5849 .LDWlin320:
00001472 0000           5850 	nop
                        5851 .L5393:
                        5852 --1909:             break;
                        5853 --1910:         default:
                        5854 --1911:             break;
                        5855 --1912:         }
                        5856 --1913:         cks_act = loc_SrcFrequencyHz(cks_src);
00001474 1b30           5857 	mov	r27,r6
                        5858 	jarl	_loc_SrcFrequencyHz,lp
                        5858 <EXPANSION BEGIN>
                        5858 jarl22 _loc_SrcFrequencyHz , lp 
00001476 bfff1af4*      5858 <EXPANSION END>
0000147a 63570500       5859 	st.w	r10,4[sp]
                        5860 .L5392:
                        5861 --1914:     }
                        5862 --1915:     
                        5863 --1916:     /* Selected disabled clock or clock source inactive,
                        5864 --1917:       we're done here                                     */
                        5865 --1918:     if ((LOC_DIS == cks_src) || (0 == cks_act))
                        5866 --line1918
                        5867 ..lin.C.3A.5Cgit.5Crh850.5Csrc.5Capp.5Cgfx_apps.5Csimple_draw.5Ctarget.5Cd1mx_mango_ghs.5Cobj.5Cr_dev_clk.321::
                        5868 .LDWlin321:
0000147e e0d9           5869 	cmp	zero,r27
00001480 d205*          5870 	be	.L5398
00001482 235f0500       5871 	ld.w	4[sp],r11
00001486 e059           5872 	cmp	zero,r11
00001488 9a2d*          5873 	bne	.L5397
                        5874 .L5398:
                        5875 --1919:     {
                        5876 --1920:         /* Clock disabled */
                        5877 --1921:         ClkData->SrcId      = R_DEV_CKS_SRC_DISABLED;
                        5878 --line1921
                        5879 ..lin.C.3A.5Cgit.5Crh850.5Csrc.5Capp.5Cgfx_apps.5Csimple_draw.5Ctarget.5Cd1mx_mango_ghs.5Cobj.5Cr_dev_clk.322::
                        5880 .LDWlin322:
0000148a 7d070500       5881 	st.w	zero,4[r29]
                        5882 --1922:         ClkData->Div        = 0;
0000148e 7d070800       5883 	st.h	zero,8[r29]
                        5884 --1923:         
                        5885 --1924:         /* Stop mask for AWO only */
                        5886 --1925:         if (ClkData->Cks < R_DEV_CKS_FOUT)
00001492 3d0f0100       5887 	ld.w	0[r29],r1
00001496 630a           5888 	cmp	3,r1
00001498 e90d*          5889 	bnl	.L5400
                        5890 --1926:         {
                        5891 --1927:             ClkData->StpReqMsk  = R_DEV_READ_REG(32, div_addr + LOC_CKS_STPMSK);
                        5892 --line1927
                        5893 ..lin.C.3A.5Cgit.5Crh850.5Csrc.5Capp.5Cgfx_apps.5Csimple_draw.5Ctarget.5Cd1mx_mango_ghs.5Cobj.5Cr_dev_clk.323::

                                                                      Page 101
                                                              C:\Users\Frank\AppData\Local\Temp\gh_0000p9g1.si
                        5894 .LDWlin323:
0000149a 235f0900       5895 	ld.w	8[sp],r11
0000149e 2b0f1900       5896 	ld.w	24[r11],r1
000014a2 5d0f0a00       5897 	st.b	r1,10[r29]
                        5898 --1928:             /* We just want the stop mask here */
                        5899 --1929:             ClkData->StpReqMsk &= 0x1u;
000014a6 9d0f0b00       5900 	ld.bu	10[r29],r1
000014aa c10e0100       5901 	andi	1,r1,r1
000014ae 5d0f0a00       5902 	st.b	r1,10[r29]
000014b2 a515*          5903 	br	.L5402
                        5904 .L5400:
                        5905 --1930:             
                        5906 --1931:         }
                        5907 --1932:         else if (ClkData->Cks == R_DEV_CKS_FOUT)
                        5908 --line1932
                        5909 ..lin.C.3A.5Cgit.5Crh850.5Csrc.5Capp.5Cgfx_apps.5Csimple_draw.5Ctarget.5Cd1mx_mango_ghs.5Cobj.5Cr_dev_clk.324::
                        5910 .LDWlin324:
000014b4 3d0f0100       5911 	ld.w	0[r29],r1
000014b8 630a           5912 	cmp	3,r1
000014ba ca0d*          5913 	bne	.L5403
                        5914 --1933:         {
                        5915 --1934:             ClkData->StpReqMsk  = R_DEV_READ_REG(32, sel_addr + LOC_CKS_STPMSK);
                        5916 --line1934
                        5917 ..lin.C.3A.5Cgit.5Crh850.5Csrc.5Capp.5Cgfx_apps.5Csimple_draw.5Ctarget.5Cd1mx_mango_ghs.5Cobj.5Cr_dev_clk.325::
                        5918 .LDWlin325:
000014bc 390f1900       5919 	ld.w	24[r25],r1
000014c0 5d0f0a00       5920 	st.b	r1,10[r29]
                        5921 --1935:             /* We just want the stop mask here */
                        5922 --1936:             ClkData->StpReqMsk &= 0x1u;
000014c4 9d0f0b00       5923 	ld.bu	10[r29],r1
000014c8 c10e0100       5924 	andi	1,r1,r1
000014cc 5d0f0a00       5925 	st.b	r1,10[r29]
000014d0 b505*          5926 	br	.L5402
                        5927 .L5403:
                        5928 --1937:         }
                        5929 --1938:         else
                        5930 --1939:         {
                        5931 --1940:             /* nothing to do here */
                        5932 --1941:             ClkData->StpReqMsk  = 0;
                        5933 --line1941
                        5934 ..lin.C.3A.5Cgit.5Crh850.5Csrc.5Capp.5Cgfx_apps.5Csimple_draw.5Ctarget.5Cd1mx_mango_ghs.5Cobj.5Cr_dev_clk.326::
                        5935 .LDWlin326:
000014d2 5d070a00       5936 	st.b	zero,10[r29]
                        5937 .L5402:
                        5938 --1942:         }
                        5939 --1943:         return 0;
000014d6 0052           5940 	mov	0,r10
000014d8 d56d*          5941 	br	.L5365
                        5942 .L5397:
                        5943 --1944:     }
                        5944 --1945:     
                        5945 --1946:     /* Get divider */
                        5946 --1947:     if (0 != div_addr)
                        5947 --line1947
                        5948 ..lin.C.3A.5Cgit.5Crh850.5Csrc.5Capp.5Cgfx_apps.5Csimple_draw.5Ctarget.5Cd1mx_mango_ghs.5Cobj.5Cr_dev_clk.327::
                        5949 .LDWlin327:
000014da 235f0900       5950 	ld.w	8[sp],r11
000014de e059           5951 	cmp	zero,r11
000014e0 f22d*          5952 	be	.L5407
                        5953 --1948:     {
                        5954 --1949:         for (i = 0; i < 8; i++ )

                                                                      Page 102
                                                              C:\Users\Frank\AppData\Local\Temp\gh_0000p9g1.si
                        5955 --line1949
                        5956 ..lin.C.3A.5Cgit.5Crh850.5Csrc.5Capp.5Cgfx_apps.5Csimple_draw.5Ctarget.5Cd1mx_mango_ghs.5Cobj.5Cr_dev_clk.328::
                        5957 .LDWlin328:
000014e2 00d2           5958 	mov	0,r26
000014e4 0000           5959 	nop
                        5960 .L5411:
                        5961 --1950:         {
                        5962 --1951:             if (LOC_F == loc_ClkSelDiv[div_idx][i])
000014e6 a30f0100       5963 	ld.bu	1[sp],r1
000014ea 2c0600000000*  5964 	mov	_loc_ClkSelDiv,r12
000014f0 c30a           5965 	shl	3,r1
000014f2 da09           5966 	add	r26,r1
000014f4 c10a           5967 	shl	1,r1
000014f6 01f0           5968 	mov	r1,ep
000014f8 ccf1           5969 	add	r12,ep
000014fa 7008           5970 	sld.hu	0[ep],r1
000014fc a106fefe       5971 	xori	65278,r1,zero
00001500 aa05*          5972 	bne	.L5412
                        5973 --1952:             {
                        5974 --1953:                 break;
                        5975 --line1953
                        5976 ..lin.C.3A.5Cgit.5Crh850.5Csrc.5Capp.5Cgfx_apps.5Csimple_draw.5Ctarget.5Cd1mx_mango_ghs.5Cobj.5Cr_dev_clk.329::
                        5977 .LDWlin329:
00001502 d505*          5978 	br	.L5414
                        5979 .L5412:
                        5980 --line1949
                        5981 ..lin.C.3A.5Cgit.5Crh850.5Csrc.5Capp.5Cgfx_apps.5Csimple_draw.5Ctarget.5Cd1mx_mango_ghs.5Cobj.5Cr_dev_clk.330::
                        5982 .LDWlin330:
00001504 41d2           5983 	add	1,r26
00001506 9a00           5984 	zxb	r26
00001508 68d2           5985 	cmp	8,r26
0000150a e1ed*          5986 	bl	.L5411
                        5987 .L5414:
                        5988 --1954:             }
                        5989 --1955:         }
                        5990 --1956:         reg_val = R_DEV_READ_REG(32, div_addr);
                        5991 --line1956
                        5992 ..lin.C.3A.5Cgit.5Crh850.5Csrc.5Capp.5Cgfx_apps.5Csimple_draw.5Ctarget.5Cd1mx_mango_ghs.5Cobj.5Cr_dev_clk.331::
                        5993 .LDWlin331:
0000150c 235f0900       5994 	ld.w	8[sp],r11
00001510 2be70100       5995 	ld.w	0[r11],r28
                        5996 --1957:         if (i < 8 )
00001514 68d2           5997 	cmp	8,r26
00001516 e905*          5998 	bnl	.L5416
                        5999 --1958:         {
                        6000 --1959:            cks_div = reg_val;
                        6001 --line1959
                        6002 ..lin.C.3A.5Cgit.5Crh850.5Csrc.5Capp.5Cgfx_apps.5Csimple_draw.5Ctarget.5Cd1mx_mango_ghs.5Cobj.5Cr_dev_clk.332::
                        6003 .LDWlin332:
00001518 dc5effff       6004 	andi	65535,r28,r11
0000151c 635f0200       6005 	st.h	r11,2[sp]
00001520 a515*          6006 	br	.L5419
                        6007 .L5416:
                        6008 --1960:         }
                        6009 --1961:         else
                        6010 --1962:         {
                        6011 --1963:            cks_div = loc_ClkSelDiv[div_idx][reg_val];
                        6012 --line1963
                        6013 ..lin.C.3A.5Cgit.5Crh850.5Csrc.5Capp.5Cgfx_apps.5Csimple_draw.5Ctarget.5Cd1mx_mango_ghs.5Cobj.5Cr_dev_clk.333::
                        6014 .LDWlin333:
00001522 a30f0100       6015 	ld.bu	1[sp],r1

                                                                      Page 103
                                                              C:\Users\Frank\AppData\Local\Temp\gh_0000p9g1.si
00001526 2c0600000000*  6016 	mov	_loc_ClkSelDiv,r12
0000152c c30a           6017 	shl	3,r1
0000152e dc09           6018 	add	r28,r1
00001530 c10a           6019 	shl	1,r1
00001532 01f0           6020 	mov	r1,ep
00001534 ccf1           6021 	add	r12,ep
00001536 7068           6022 	sld.hu	0[ep],r13
00001538 636f0200       6023 	st.h	r13,2[sp]
0000153c c505*          6024 	br	.L5419
                        6025 .L5407:
                        6026 --1964:         }
                        6027 --1965:     }
                        6028 --1966:     else
                        6029 --1967:     {
                        6030 --1968:         cks_div = 1;
                        6031 --line1968
                        6032 ..lin.C.3A.5Cgit.5Crh850.5Csrc.5Capp.5Cgfx_apps.5Csimple_draw.5Ctarget.5Cd1mx_mango_ghs.5Cobj.5Cr_dev_clk.334::
                        6033 .LDWlin334:
0000153e 015a           6034 	mov	1,r11
00001540 635f0200       6035 	st.h	r11,2[sp]
                        6036 .L5419:
                        6037 --1969:     }
                        6038 --1970:     /* Divider disabled */
                        6039 --1971:     if (0 == cks_div)
00001544 e35f0300       6040 	ld.hu	2[sp],r11
00001548 e059           6041 	cmp	zero,r11
0000154a ba05*          6042 	bne	.L5420
                        6043 --1972:     {
                        6044 --1973:         /* Clock disabled */
                        6045 --1974:         reg_val =  0;
                        6046 --line1974
                        6047 ..lin.C.3A.5Cgit.5Crh850.5Csrc.5Capp.5Cgfx_apps.5Csimple_draw.5Ctarget.5Cd1mx_mango_ghs.5Cobj.5Cr_dev_clk.335::
                        6048 .LDWlin335:
0000154c 00e2           6049 	mov	0,r28
0000154e 950d*          6050 	br	.L5422
                        6051 .L5420:
                        6052 --1975:     }
                        6053 --1976:     else
                        6054 --1977:     {
                        6055 --1978:         reg_val = loc_SrcFrequencyHz(cks_src) /  cks_div;
                        6056 --line1978
                        6057 ..lin.C.3A.5Cgit.5Crh850.5Csrc.5Capp.5Cgfx_apps.5Csimple_draw.5Ctarget.5Cd1mx_mango_ghs.5Cobj.5Cr_dev_clk.336::
                        6058 .LDWlin336:
00001550 1b30           6059 	mov	r27,r6
                        6060 	jarl	_loc_SrcFrequencyHz,lp
                        6060 <EXPANSION BEGIN>
                        6060 jarl22 _loc_SrcFrequencyHz , lp 
00001552 bfff3ef3*      6060 <EXPANSION END>
00001556 e35f0300       6061 	ld.hu	2[sp],r11
0000155a 0ae0           6062 	mov	r10,r28
0000155c ebe7fe02       6063 	divqu	r11,r28,zero
                        6064 .L5422:
                        6065 --1979:     }
                        6066 --1980:     ClkData->SrcId      = cks_src;
                        6067 --line1980
                        6068 ..lin.C.3A.5Cgit.5Crh850.5Csrc.5Capp.5Cgfx_apps.5Csimple_draw.5Ctarget.5Cd1mx_mango_ghs.5Cobj.5Cr_dev_clk.337::
                        6069 .LDWlin337:
00001560 7ddf0500       6070 	st.w	r27,4[r29]
                        6071 --1981:     ClkData->Div        = cks_div;
00001564 e35f0300       6072 	ld.hu	2[sp],r11
00001568 7d5f0800       6073 	st.h	r11,8[r29]

                                                                      Page 104
                                                              C:\Users\Frank\AppData\Local\Temp\gh_0000p9g1.si
                        6074 --1982:     /* Stop mask for AWO only */
                        6075 --1983:     if (ClkData->Cks < R_DEV_CKS_FOUT)
0000156c 3d0f0100       6076 	ld.w	0[r29],r1
00001570 630a           6077 	cmp	3,r1
00001572 e90d*          6078 	bnl	.L5423
                        6079 --1984:     {
                        6080 --1985:         ClkData->StpReqMsk  = R_DEV_READ_REG(32, div_addr + LOC_CKS_STPMSK);
                        6081 --line1985
                        6082 ..lin.C.3A.5Cgit.5Crh850.5Csrc.5Capp.5Cgfx_apps.5Csimple_draw.5Ctarget.5Cd1mx_mango_ghs.5Cobj.5Cr_dev_clk.338::
                        6083 .LDWlin338:
00001574 235f0900       6084 	ld.w	8[sp],r11
00001578 2b0f1900       6085 	ld.w	24[r11],r1
0000157c 5d0f0a00       6086 	st.b	r1,10[r29]
                        6087 --1986:         /* We just want the stop mask here */
                        6088 --1987:         ClkData->StpReqMsk &= 0x1u;
00001580 9d0f0b00       6089 	ld.bu	10[r29],r1
00001584 c10e0100       6090 	andi	1,r1,r1
00001588 5d0f0a00       6091 	st.b	r1,10[r29]
0000158c a515*          6092 	br	.L5425
                        6093 .L5423:
                        6094 --1988:     }
                        6095 --1989:     else if (ClkData->Cks == R_DEV_CKS_FOUT)
                        6096 --line1989
                        6097 ..lin.C.3A.5Cgit.5Crh850.5Csrc.5Capp.5Cgfx_apps.5Csimple_draw.5Ctarget.5Cd1mx_mango_ghs.5Cobj.5Cr_dev_clk.339::
                        6098 .LDWlin339:
0000158e 3d0f0100       6099 	ld.w	0[r29],r1
00001592 630a           6100 	cmp	3,r1
00001594 ca0d*          6101 	bne	.L5426
                        6102 --1990:     {
                        6103 --1991:         ClkData->StpReqMsk  = R_DEV_READ_REG(32, sel_addr + LOC_CKS_STPMSK);
                        6104 --line1991
                        6105 ..lin.C.3A.5Cgit.5Crh850.5Csrc.5Capp.5Cgfx_apps.5Csimple_draw.5Ctarget.5Cd1mx_mango_ghs.5Cobj.5Cr_dev_clk.340::
                        6106 .LDWlin340:
00001596 390f1900       6107 	ld.w	24[r25],r1
0000159a 5d0f0a00       6108 	st.b	r1,10[r29]
                        6109 --1992:         /* We just want the stop mask here */
                        6110 --1993:         ClkData->StpReqMsk &= 0x1u;
0000159e 9d0f0b00       6111 	ld.bu	10[r29],r1
000015a2 c10e0100       6112 	andi	1,r1,r1
000015a6 5d0f0a00       6113 	st.b	r1,10[r29]
000015aa b505*          6114 	br	.L5425
                        6115 .L5426:
                        6116 --1994:     }
                        6117 --1995:     else
                        6118 --1996:     {
                        6119 --1997:         /* nothing to do here */
                        6120 --1998:         ClkData->StpReqMsk  = 0;
                        6121 --line1998
                        6122 ..lin.C.3A.5Cgit.5Crh850.5Csrc.5Capp.5Cgfx_apps.5Csimple_draw.5Ctarget.5Cd1mx_mango_ghs.5Cobj.5Cr_dev_clk.341::
                        6123 .LDWlin341:
000015ac 5d070a00       6124 	st.b	zero,10[r29]
                        6125 .L5425:
                        6126 --1999:     }
                        6127 --2000:     return  reg_val;
000015b0 1c50           6128 	mov	r28,r10
                        6129 .L5365:
                        6130 --	    .ef
                        6131 .LDW26:
000015b2 4a06ff70       6132 	dispose	5,{r25,r26,r27,r28,r29,r31},[lp]
                        6133 	.type	_R_DEV_GetClkConfig,@function
                        6134 	.size	_R_DEV_GetClkConfig,.-_R_DEV_GetClkConfig

                                                                      Page 105
                                                              C:\Users\Frank\AppData\Local\Temp\gh_0000p9g1.si
                        6135 	.align	2
                        6136 .LDW36:
                        6137 --_sel_addr	r25	local
                        6138 --_div_addr	8[sp]	local
                        6139 --_div_idx	1[sp]	local
                        6140 --_reg_val	r28	local
                        6141 --_i	r26	local
                        6142 --_cks_src	r27	local
                        6143 --_cks_div	2[sp]	local
                        6144 --_cks_act	4[sp]	local
                        6145 
                        6146 --_ClkData	r29	param
                        6147 
                        6148 	.section ".bss","awb"
                        6149 .L5806:
                        6150 	.type	.L5806,@object
                        6151 	.size	.L5806,0
                        6152 	.data
                        6153 	.text
                        6154 
                        6155 --2001: }
                        6156 
                        6157 --2005: /*******************************************************************************
                        6158 --2006:   Function: R_DEV_SetViClk0
                        6159 --2008:     se: <r_dev_clk_types.h> for details
                        6160 --2009: */
                        6161 --2010: void R_DEV_SetViClk0(uint32_t Freq)
                        6162 	.align	2
                        6163 	.align	2
                        6164 	.global	_R_DEV_SetViClk0
                        6165 _R_DEV_SetViClk0:
000015b6 0670           6166 	mov	r6,r14
000015b8 210600000000*  6167 	mov	_loc_Vdce0ViFreq,r1
                        6168 --	    .bf
                        6169 .LDW46:
                        6170 --2011: {
                        6171 --2012:     loc_Vdce0ViFreq = Freq;
000015be 2b0600000000*  6172 	mov	_loc_Vdce0ViFreq,r11
000015c4 6b770100       6173 	st.w	r14,0[r11]
                        6174 --2013: }
                        6175 --	    .ef
                        6176 .LDW56:
000015c8 7f00           6177 	jmp	[lp]
                        6178 	.type	_R_DEV_SetViClk0,@function
                        6179 	.size	_R_DEV_SetViClk0,.-_R_DEV_SetViClk0
                        6180 	.align	2
                        6181 .LDW66:
                        6182 
                        6183 --_Freq	r14	param
                        6184 
                        6185 	.data
                        6186 	.text
                        6187 
                        6188 
                        6189 --2015: /*******************************************************************************
                        6190 --2016:   Function: R_DEV_SetViClk1
                        6191 --2018:     se: <r_dev_clk_types.h> for details
                        6192 --2019: */
                        6193 --2020: void R_DEV_SetViClk1(uint32_t Freq)
                        6194 	.align	2
                        6195 	.align	2

                                                                      Page 106
                                                              C:\Users\Frank\AppData\Local\Temp\gh_0000p9g1.si
                        6196 	.global	_R_DEV_SetViClk1
                        6197 _R_DEV_SetViClk1:
000015ca 0670           6198 	mov	r6,r14
000015cc 210600000000*  6199 	mov	_loc_Vdce1ViFreq,r1
                        6200 --	    .bf
                        6201 .LDW76:
                        6202 --2021: {
                        6203 --2022:     loc_Vdce1ViFreq = Freq;
000015d2 2b0600000000*  6204 	mov	_loc_Vdce1ViFreq,r11
000015d8 6b770100       6205 	st.w	r14,0[r11]
                        6206 --2023: }
                        6207 --	    .ef
                        6208 .LDW86:
000015dc 7f00           6209 	jmp	[lp]
                        6210 	.type	_R_DEV_SetViClk1,@function
                        6211 	.size	_R_DEV_SetViClk1,.-_R_DEV_SetViClk1
                        6212 	.align	2
                        6213 .LDW96:
                        6214 
                        6215 --_Freq	r14	param
                        6216 
                        6217 	.data
                        6218 	.text
                        6219 
                        6220 
                        6221 --2025: /*******************************************************************************
                        6222 --2026:   Function: R_DEV_BusFrequencyHz
                        6223 --2028:     se: <r_dev_api.h> for details
                        6224 --2029: */
                        6225 --2030: uint32_t R_DEV_BusFrequencyHz(r_dev_Bus_t Bus)
                        6226 	.align	2
                        6227 	.align	2
                        6228 	.global	_R_DEV_BusFrequencyHz
                        6229 _R_DEV_BusFrequencyHz:
000015de 8407e170       6230 	prepare	{r25,r26,r27,r28,r29,r31},2
000015e2 63370500       6231 	st.w	r6,4[sp]
000015e6 3a0600000000*  6232 	mov	_locBusRegAddr,r26
                        6233 --	    .bf
                        6234 .LDW07:
                        6235 --2031: {
                        6236 --2032:     uint32_t freq  = 0;
000015ec 00ea           6237 	mov	0,r29
                        6238 --2033:     uint32_t ratio = 1;
000015ee 01da           6239 	mov	1,r27
                        6240 --2034:     uint32_t check1, check2;
                        6241 --2035:     r_dev_Device_t device;
                        6242 --2036:     
                        6243 --2037:     device = R_DEV_GetDev();
                        6244 	jarl	_R_DEV_GetDev,lp
                        6244 <EXPANSION BEGIN>
                        6244 jarl22 _R_DEV_GetDev , lp 
000015f0 80ff0000*      6244 <EXPANSION END>
000015f4 0ae0           6245 	mov	r10,r28
                        6246 --2038:   
                        6247 --2039:     if (Bus < R_DEV_CLK_BUS_LAST) /* there is an enable setting */
                        6248 --line2039
                        6249 ..lin.C.3A.5Cgit.5Crh850.5Csrc.5Capp.5Cgfx_apps.5Csimple_draw.5Ctarget.5Cd1mx_mango_ghs.5Cobj.5Cr_dev_clk.342::
                        6250 .LDWlin342:
000015f6 235f0500       6251 	ld.w	4[sp],r11
000015fa 6b5a           6252 	cmp	11,r11
000015fc d90d*          6253 	bnl	.L6194

                                                                      Page 107
                                                              C:\Users\Frank\AppData\Local\Temp\gh_0000p9g1.si
                        6254 --2040:     {
                        6255 --2041:         if (0 == R_DEV_READ_REG(32, locBusRegAddr[Bus]+ LOC_CKS_A))
                        6256 --line2041
                        6257 ..lin.C.3A.5Cgit.5Crh850.5Csrc.5Capp.5Cgfx_apps.5Csimple_draw.5Ctarget.5Cd1mx_mango_ghs.5Cobj.5Cr_dev_clk.343::
                        6258 .LDWlin343:
000015fe 230f0500       6259 	ld.w	4[sp],r1
00001602 c20a           6260 	shl	2,r1
00001604 01f0           6261 	mov	r1,ep
00001606 daf1           6262 	add	r26,ep
00001608 00f5           6263 	sld.w	0[ep],ep
0000160a 040d           6264 	sld.w	8[ep],r1
0000160c e009           6265 	cmp	zero,r1
0000160e ca05*          6266 	bne	.L6194
                        6267 --2042:         {
                        6268 --2043:             return 0;
                        6269 --line2043
                        6270 ..lin.C.3A.5Cgit.5Crh850.5Csrc.5Capp.5Cgfx_apps.5Csimple_draw.5Ctarget.5Cd1mx_mango_ghs.5Cobj.5Cr_dev_clk.344::
                        6271 .LDWlin344:
00001610 0052           6272 	mov	0,r10
00001612 80077802*      6273 	br	.L6192
                        6274 .L6194:
                        6275 --2044:         }
                        6276 --2045:     }
                        6277 --2046:     ratio = LocPbusRatio;
                        6278 --line2046
                        6279 ..lin.C.3A.5Cgit.5Crh850.5Csrc.5Capp.5Cgfx_apps.5Csimple_draw.5Ctarget.5Cd1mx_mango_ghs.5Cobj.5Cr_dev_clk.345::
                        6280 .LDWlin345:
00001616 3b0600000000*  6281 	mov	_LocPbusRatio,r27
0000161c 3bdf0100       6282 	ld.w	0[r27],r27
                        6283 --2048:     switch (Bus)
00001620 230f0500       6284 	ld.w	4[sp],r1
00001624 0106e9ff       6285 	addi	-23,r1,zero
00001628 e1075502*      6286 	bl	.L6256
0000162c c20a           6287 	shl	2,r1
0000162e e10600000000*  6288 	jmp	.L6611[r1]
                        6289 .L6611:
00001634 80077800*      6290 	jr	.L6205
00001638 80078000*      6291 	jr	.L6206
0000163c 80078800*      6292 	jr	.L6207
00001640 80079000*      6293 	jr	.L6208
00001644 80079a00*      6294 	jr	.L6209
00001648 8007d600*      6295 	jr	.L6220
0000164c 80071401*      6296 	jr	.L6226
00001650 80075001*      6297 	jr	.L6232
00001654 80073c00*      6298 	jr	.L6201
00001658 8007da00*      6299 	jr	.L6221
0000165c 80071801*      6300 	jr	.L6227
00001660 80075201*      6301 	jr	.L6233
00001664 80075801*      6302 	jr	.L6234
00001668 80077601*      6303 	jr	.L6239
0000166c 8007a801*      6304 	jr	.L6247
00001670 8007b601*      6305 	jr	.L6248
00001674 8007be01*      6306 	jr	.L6249
00001678 8007c601*      6307 	jr	.L6250
0000167c 8007ce01*      6308 	jr	.L6251
00001680 8007d401*      6309 	jr	.L6252
00001684 8007da01*      6310 	jr	.L6253
00001688 8007e001*      6311 	jr	.L6254
0000168c 8007e601*      6312 	jr	.L6255
                        6313 .L6201:
                        6314 --2049:     {

                                                                      Page 108
                                                              C:\Users\Frank\AppData\Local\Temp\gh_0000p9g1.si
                        6315 --2050:     case R_DEV_CLK_XCC      :
                        6316 --2051:         /* check if the XCC itself is "on"*/
                        6317 --2052:         if (0 != R_DEV_READ_REG(32, locBusRegAddr[R_DEV_CLK_XCC]+ LOC_CKS_A))
                        6318 --line2052
                        6319 ..lin.C.3A.5Cgit.5Crh850.5Csrc.5Capp.5Cgfx_apps.5Csimple_draw.5Ctarget.5Cd1mx_mango_ghs.5Cobj.5Cr_dev_clk.346::
                        6320 .LDWlin346:
00001690 3af72100       6321 	ld.w	32[r26],ep
00001694 040d           6322 	sld.w	8[ep],r1
00001696 e009           6323 	cmp	zero,r1
00001698 f205*          6324 	be	.L6202
                        6325 --2053:         {
                        6326 --2054:             freq = R_DEV_ClkFrequencyHz(R_DEV_CKS_CPU) / 2;
                        6327 --line2054
                        6328 ..lin.C.3A.5Cgit.5Crh850.5Csrc.5Capp.5Cgfx_apps.5Csimple_draw.5Ctarget.5Cd1mx_mango_ghs.5Cobj.5Cr_dev_clk.347::
                        6329 .LDWlin347:
0000169a 0432           6330 	mov	4,r6
                        6331 	jarl	_R_DEV_ClkFrequencyHz,lp
                        6331 <EXPANSION BEGIN>
                        6331 jarl22 _R_DEV_ClkFrequencyHz , lp 
0000169c bfff62fa*      6331 <EXPANSION END>
000016a0 0ae8           6332 	mov	r10,r29
000016a2 81ea           6333 	shr	1,r29
000016a4 a505*          6334 	br	.L6204
                        6335 .L6202:
                        6336 --2055:         }
                        6337 --2056:         else
                        6338 --2057:         {
                        6339 --2058:             freq = 0;
                        6340 --line2058
                        6341 ..lin.C.3A.5Cgit.5Crh850.5Csrc.5Capp.5Cgfx_apps.5Csimple_draw.5Ctarget.5Cd1mx_mango_ghs.5Cobj.5Cr_dev_clk.348::
                        6342 .LDWlin348:
000016a6 00ea           6343 	mov	0,r29
                        6344 .L6204:
000016a8 8007e001*      6345 	br	.L6199
                        6346 .L6205:
                        6347 --2059:         }
                        6348 --2060:         break;
                        6349 --2061:     case R_DEV_CLK_PLL0     :
                        6350 --2062:         freq = loc_SrcFrequencyHz(R_DEV_CKS_SRC_PLL0);
                        6351 --line2062
                        6352 ..lin.C.3A.5Cgit.5Crh850.5Csrc.5Capp.5Cgfx_apps.5Csimple_draw.5Ctarget.5Cd1mx_mango_ghs.5Cobj.5Cr_dev_clk.349::
                        6353 .LDWlin349:
000016ac 0632           6354 	mov	6,r6
                        6355 	jarl	_loc_SrcFrequencyHz,lp
                        6355 <EXPANSION BEGIN>
                        6355 jarl22 _loc_SrcFrequencyHz , lp 
000016ae bfffe2f1*      6355 <EXPANSION END>
000016b2 0ae8           6356 	mov	r10,r29
                        6357 --line2063
                        6358 ..lin.C.3A.5Cgit.5Crh850.5Csrc.5Capp.5Cgfx_apps.5Csimple_draw.5Ctarget.5Cd1mx_mango_ghs.5Cobj.5Cr_dev_clk.350::
                        6359 .LDWlin350:
000016b4 8007d401*      6360 	br	.L6199
                        6361 .L6206:
                        6362 --2063:         break;
                        6363 --2064:     case R_DEV_CLK_PLL1     :
                        6364 --2065:         freq = loc_SrcFrequencyHz(R_DEV_CKS_SRC_PLL1);
                        6365 --line2065
                        6366 ..lin.C.3A.5Cgit.5Crh850.5Csrc.5Capp.5Cgfx_apps.5Csimple_draw.5Ctarget.5Cd1mx_mango_ghs.5Cobj.5Cr_dev_clk.351::
                        6367 .LDWlin351:
000016b8 0932           6368 	mov	9,r6
                        6369 	jarl	_loc_SrcFrequencyHz,lp

                                                                      Page 109
                                                              C:\Users\Frank\AppData\Local\Temp\gh_0000p9g1.si
                        6369 <EXPANSION BEGIN>
                        6369 jarl22 _loc_SrcFrequencyHz , lp 
000016ba bfffd6f1*      6369 <EXPANSION END>
000016be 0ae8           6370 	mov	r10,r29
                        6371 --line2066
                        6372 ..lin.C.3A.5Cgit.5Crh850.5Csrc.5Capp.5Cgfx_apps.5Csimple_draw.5Ctarget.5Cd1mx_mango_ghs.5Cobj.5Cr_dev_clk.352::
                        6373 .LDWlin352:
000016c0 8007c801*      6374 	br	.L6199
                        6375 .L6207:
                        6376 --2066:         break;
                        6377 --2067:     case R_DEV_CLK_PLL2     :
                        6378 --2068:         freq = loc_SrcFrequencyHz(R_DEV_CKS_SRC_PLL2);
                        6379 --line2068
                        6380 ..lin.C.3A.5Cgit.5Crh850.5Csrc.5Capp.5Cgfx_apps.5Csimple_draw.5Ctarget.5Cd1mx_mango_ghs.5Cobj.5Cr_dev_clk.353::
                        6381 .LDWlin353:
000016c4 0b32           6382 	mov	11,r6
                        6383 	jarl	_loc_SrcFrequencyHz,lp
                        6383 <EXPANSION BEGIN>
                        6383 jarl22 _loc_SrcFrequencyHz , lp 
000016c6 bfffcaf1*      6383 <EXPANSION END>
000016ca 0ae8           6384 	mov	r10,r29
                        6385 --line2069
                        6386 ..lin.C.3A.5Cgit.5Crh850.5Csrc.5Capp.5Cgfx_apps.5Csimple_draw.5Ctarget.5Cd1mx_mango_ghs.5Cobj.5Cr_dev_clk.354::
                        6387 .LDWlin354:
000016cc 8007bc01*      6388 	br	.L6199
                        6389 .L6208:
                        6390 --2069:         break;
                        6391 --2070:     case R_DEV_CLK_PLL0PIX  :
                        6392 --2071:         freq = loc_ClkGenCfg.Pll[0].FrequencyHz;
                        6393 --line2071
                        6394 ..lin.C.3A.5Cgit.5Crh850.5Csrc.5Capp.5Cgfx_apps.5Csimple_draw.5Ctarget.5Cd1mx_mango_ghs.5Cobj.5Cr_dev_clk.355::
                        6395 .LDWlin355:
000016d0 3d0600000000*  6396 	mov	_loc_ClkGenCfg+36,r29
000016d6 3def0100       6397 	ld.w	0[r29],r29
000016da 8007ae01*      6398 	br	.L6199
                        6399 .L6209:
                        6400 --2072:         break;
                        6401 --2073:     case R_DEV_CLK_SDRB     :
                        6402 --2074:         if (((device >= R_DEV_R7F701406) && (device <= R_DEV_R7F701407))
                        6403 --line2074
                        6404 ..lin.C.3A.5Cgit.5Crh850.5Csrc.5Capp.5Cgfx_apps.5Csimple_draw.5Ctarget.5Cd1mx_mango_ghs.5Cobj.5Cr_dev_clk.356::
                        6405 .LDWlin356:
000016de 1c0682fa       6406 	addi	-1406,r28,zero
000016e2 c905*          6407 	bnl	.L6213
000016e4 1c0680fa       6408 	addi	-1408,r28,zero
000016e8 f905*          6409 	bnl	.L6211
                        6410 .L6213:
000016ea 1c0676fa       6411 	addi	-1418,r28,zero
000016ee c205*          6412 	be	.L6211
000016f0 1c065ffa       6413 	addi	-1441,r28,zero
000016f4 fa05*          6414 	bne	.L6210
                        6415 .L6211:
                        6416 --2075:             || (device == R_DEV_R7F701418)
                        6417 --2076:             || (device == R_DEV_R7F701441))
                        6418 --2077:         {
                        6419 --2078:             freq = loc_SrcFrequencyHz(R_DEV_CKS_SRC_PLL0) / 2u;
                        6420 --line2078
                        6421 ..lin.C.3A.5Cgit.5Crh850.5Csrc.5Capp.5Cgfx_apps.5Csimple_draw.5Ctarget.5Cd1mx_mango_ghs.5Cobj.5Cr_dev_clk.357::
                        6422 .LDWlin357:
000016f6 0632           6423 	mov	6,r6
                        6424 	jarl	_loc_SrcFrequencyHz,lp

                                                                      Page 110
                                                              C:\Users\Frank\AppData\Local\Temp\gh_0000p9g1.si
                        6424 <EXPANSION BEGIN>
                        6424 jarl22 _loc_SrcFrequencyHz , lp 
000016f8 bfff98f1*      6424 <EXPANSION END>
000016fc 0ae8           6425 	mov	r10,r29
000016fe 81ea           6426 	shr	1,r29
00001700 d50d*          6427 	br	.L6215
                        6428 .L6210:
                        6429 --2079:         }
                        6430 --2080:         else if ((device >= R_DEV_R7F701408) && (device <= R_DEV_R7F701412))
                        6431 --line2080
                        6432 ..lin.C.3A.5Cgit.5Crh850.5Csrc.5Capp.5Cgfx_apps.5Csimple_draw.5Ctarget.5Cd1mx_mango_ghs.5Cobj.5Cr_dev_clk.358::
                        6433 .LDWlin358:
00001702 1c0680fa       6434 	addi	-1408,r28,zero
00001706 990d*          6435 	bnl	.L6216
00001708 1c067bfa       6436 	addi	-1413,r28,zero
0000170c e105*          6437 	bl	.L6216
                        6438 --2081:         {
                        6439 --2082:             freq = loc_SrcFrequencyHz(R_DEV_CKS_SRC_PLL1);
                        6440 --line2082
                        6441 ..lin.C.3A.5Cgit.5Crh850.5Csrc.5Capp.5Cgfx_apps.5Csimple_draw.5Ctarget.5Cd1mx_mango_ghs.5Cobj.5Cr_dev_clk.359::
                        6442 .LDWlin359:
0000170e 0932           6443 	mov	9,r6
                        6444 	jarl	_loc_SrcFrequencyHz,lp
                        6444 <EXPANSION BEGIN>
                        6444 jarl22 _loc_SrcFrequencyHz , lp 
00001710 bfff80f1*      6444 <EXPANSION END>
00001714 0ae8           6445 	mov	r10,r29
00001716 a505*          6446 	br	.L6215
                        6447 .L6216:
                        6448 --2083:         }
                        6449 --2084:         else
                        6450 --2085:         {
                        6451 --2086:             freq = 0u;
                        6452 --line2086
                        6453 ..lin.C.3A.5Cgit.5Crh850.5Csrc.5Capp.5Cgfx_apps.5Csimple_draw.5Ctarget.5Cd1mx_mango_ghs.5Cobj.5Cr_dev_clk.360::
                        6454 .LDWlin360:
00001718 00ea           6455 	mov	0,r29
                        6456 .L6215:
0000171a 80076e01*      6457 	br	.L6199
                        6458 .L6220:
                        6459 --2087:         }
                        6460 --2088:         break;
                        6461 --2089:     case R_DEV_CLK_ETNBP    :
                        6462 --2090:         freq = R_DEV_ClkFrequencyHz(R_DEV_CKS_CPU) / (2 * ratio) ;
                        6463 --line2090
                        6464 ..lin.C.3A.5Cgit.5Crh850.5Csrc.5Capp.5Cgfx_apps.5Csimple_draw.5Ctarget.5Cd1mx_mango_ghs.5Cobj.5Cr_dev_clk.361::
                        6465 .LDWlin361:
0000171e 0432           6466 	mov	4,r6
                        6467 	jarl	_R_DEV_ClkFrequencyHz,lp
                        6467 <EXPANSION BEGIN>
                        6467 jarl22 _R_DEV_ClkFrequencyHz , lp 
00001720 bfffdef9*      6467 <EXPANSION END>
00001724 1b08           6468 	mov	r27,r1
00001726 c10a           6469 	shl	1,r1
00001728 0ae8           6470 	mov	r10,r29
0000172a e1effe02       6471 	divqu	r1,r29,zero
                        6472 --line2091
                        6473 ..lin.C.3A.5Cgit.5Crh850.5Csrc.5Capp.5Cgfx_apps.5Csimple_draw.5Ctarget.5Cd1mx_mango_ghs.5Cobj.5Cr_dev_clk.362::
                        6474 .LDWlin362:
0000172e 80075a01*      6475 	br	.L6199
                        6476 .L6221:

                                                                      Page 111
                                                              C:\Users\Frank\AppData\Local\Temp\gh_0000p9g1.si
                        6477 --2091:        break;
                        6478 --2092:     case R_DEV_CLK_ETNBXCC  :
                        6479 --2093:         /** hail to the MISRA  god */
                        6480 --2094:         check1 = R_DEV_READ_REG(32, locBusRegAddr[R_DEV_CLK_ETNBXCC] + LOC_CKS_A);
                        6481 --line2094
                        6482 ..lin.C.3A.5Cgit.5Crh850.5Csrc.5Capp.5Cgfx_apps.5Csimple_draw.5Ctarget.5Cd1mx_mango_ghs.5Cobj.5Cr_dev_clk.363::
                        6483 .LDWlin363:
00001732 3af72500       6484 	ld.w	36[r26],ep
00001736 04cd           6485 	sld.w	8[ep],r25
                        6486 --2095:         check2 = R_DEV_READ_REG(32, locBusRegAddr[R_DEV_CLK_XCC]+ LOC_CKS_A);
00001738 3af72100       6487 	ld.w	32[r26],ep
0000173c 045d           6488 	sld.w	8[ep],r11
0000173e 635f0100       6489 	st.w	r11,0[sp]
                        6490 --2096:         
                        6491 --2097:         /* check if the XCC itself is "on"*/
                        6492 --2098:         if ((0 != check1) || (0 != check2))
00001742 e0c9           6493 	cmp	zero,r25
00001744 da05*          6494 	bne	.L6223
00001746 235f0100       6495 	ld.w	0[sp],r11
0000174a e059           6496 	cmp	zero,r11
0000174c f205*          6497 	be	.L6222
                        6498 .L6223:
                        6499 --2099:         {
                        6500 --2100:             freq = R_DEV_ClkFrequencyHz(R_DEV_CKS_CPU) / 2;
                        6501 --line2100
                        6502 ..lin.C.3A.5Cgit.5Crh850.5Csrc.5Capp.5Cgfx_apps.5Csimple_draw.5Ctarget.5Cd1mx_mango_ghs.5Cobj.5Cr_dev_clk.364::
                        6503 .LDWlin364:
0000174e 0432           6504 	mov	4,r6
                        6505 	jarl	_R_DEV_ClkFrequencyHz,lp
                        6505 <EXPANSION BEGIN>
                        6505 jarl22 _R_DEV_ClkFrequencyHz , lp 
00001750 bfffaef9*      6505 <EXPANSION END>
00001754 0ae8           6506 	mov	r10,r29
00001756 81ea           6507 	shr	1,r29
00001758 a505*          6508 	br	.L6225
                        6509 .L6222:
                        6510 --2101:         }
                        6511 --2102:         else
                        6512 --2103:         {
                        6513 --2104:             freq = 0;
                        6514 --line2104
                        6515 ..lin.C.3A.5Cgit.5Crh850.5Csrc.5Capp.5Cgfx_apps.5Csimple_draw.5Ctarget.5Cd1mx_mango_ghs.5Cobj.5Cr_dev_clk.365::
                        6516 .LDWlin365:
0000175a 00ea           6517 	mov	0,r29
                        6518 .L6225:
0000175c 80072c01*      6519 	br	.L6199
                        6520 .L6226:
                        6521 --2105:         }
                        6522 --2106:         break;
                        6523 --2107:     case R_DEV_CLK_MLBP     :
                        6524 --2108:         freq = R_DEV_ClkFrequencyHz(R_DEV_CKS_CPU) / (2 * ratio) ;
                        6525 --line2108
                        6526 ..lin.C.3A.5Cgit.5Crh850.5Csrc.5Capp.5Cgfx_apps.5Csimple_draw.5Ctarget.5Cd1mx_mango_ghs.5Cobj.5Cr_dev_clk.366::
                        6527 .LDWlin366:
00001760 0432           6528 	mov	4,r6
                        6529 	jarl	_R_DEV_ClkFrequencyHz,lp
                        6529 <EXPANSION BEGIN>
                        6529 jarl22 _R_DEV_ClkFrequencyHz , lp 
00001762 bfff9cf9*      6529 <EXPANSION END>
00001766 1b08           6530 	mov	r27,r1
00001768 c10a           6531 	shl	1,r1

                                                                      Page 112
                                                              C:\Users\Frank\AppData\Local\Temp\gh_0000p9g1.si
0000176a 0ae8           6532 	mov	r10,r29
0000176c e1effe02       6533 	divqu	r1,r29,zero
                        6534 --line2109
                        6535 ..lin.C.3A.5Cgit.5Crh850.5Csrc.5Capp.5Cgfx_apps.5Csimple_draw.5Ctarget.5Cd1mx_mango_ghs.5Cobj.5Cr_dev_clk.367::
                        6536 .LDWlin367:
00001770 80071801*      6537 	br	.L6199
                        6538 .L6227:
                        6539 --2109:         break;
                        6540 --2110:     case R_DEV_CLK_MLBXCC   :
                        6541 --2111:         /** hail to the MISRA  god */
                        6542 --2112:         check1 = R_DEV_READ_REG(32, locBusRegAddr[R_DEV_CLK_MLBXCC] + LOC_CKS_A);
                        6543 --line2112
                        6544 ..lin.C.3A.5Cgit.5Crh850.5Csrc.5Capp.5Cgfx_apps.5Csimple_draw.5Ctarget.5Cd1mx_mango_ghs.5Cobj.5Cr_dev_clk.368::
                        6545 .LDWlin368:
00001774 3af72900       6546 	ld.w	40[r26],ep
00001778 04cd           6547 	sld.w	8[ep],r25
                        6548 --2113:         check2 = R_DEV_READ_REG(32, locBusRegAddr[R_DEV_CLK_XCC]+ LOC_CKS_A);
0000177a 3af72100       6549 	ld.w	32[r26],ep
0000177e 045d           6550 	sld.w	8[ep],r11
00001780 635f0100       6551 	st.w	r11,0[sp]
                        6552 --2114:         
                        6553 --2115:         /* check if the XCC itself is "on"*/
                        6554 --2116:         if ((0 != check1) || (0 != check2))
00001784 e0c9           6555 	cmp	zero,r25
00001786 da05*          6556 	bne	.L6229
00001788 235f0100       6557 	ld.w	0[sp],r11
0000178c e059           6558 	cmp	zero,r11
0000178e f205*          6559 	be	.L6228
                        6560 .L6229:
                        6561 --2117:         /* check if the XCC itself is "on"*/
                        6562 --2118:         {
                        6563 --2119:             freq = R_DEV_ClkFrequencyHz(R_DEV_CKS_CPU) / 2;
                        6564 --line2119
                        6565 ..lin.C.3A.5Cgit.5Crh850.5Csrc.5Capp.5Cgfx_apps.5Csimple_draw.5Ctarget.5Cd1mx_mango_ghs.5Cobj.5Cr_dev_clk.369::
                        6566 .LDWlin369:
00001790 0432           6567 	mov	4,r6
                        6568 	jarl	_R_DEV_ClkFrequencyHz,lp
                        6568 <EXPANSION BEGIN>
                        6568 jarl22 _R_DEV_ClkFrequencyHz , lp 
00001792 bfff6cf9*      6568 <EXPANSION END>
00001796 0ae8           6569 	mov	r10,r29
00001798 81ea           6570 	shr	1,r29
0000179a a505*          6571 	br	.L6231
                        6572 .L6228:
                        6573 --2120:         }
                        6574 --2121:         else
                        6575 --2122:         {
                        6576 --2123:             freq = 0;
                        6577 --line2123
                        6578 ..lin.C.3A.5Cgit.5Crh850.5Csrc.5Capp.5Cgfx_apps.5Csimple_draw.5Ctarget.5Cd1mx_mango_ghs.5Cobj.5Cr_dev_clk.370::
                        6579 .LDWlin370:
0000179c 00ea           6580 	mov	0,r29
                        6581 .L6231:
0000179e d575*          6582 	br	.L6199
                        6583 .L6232:
                        6584 --2124:         }
                        6585 --2125:         break;
                        6586 --2126:     case R_DEV_CLK_RSCANP   :
                        6587 --2127:         freq = R_DEV_ClkFrequencyHz(R_DEV_CKS_CPU) / (2 * ratio) ;
                        6588 --line2127
                        6589 ..lin.C.3A.5Cgit.5Crh850.5Csrc.5Capp.5Cgfx_apps.5Csimple_draw.5Ctarget.5Cd1mx_mango_ghs.5Cobj.5Cr_dev_clk.371::

                                                                      Page 113
                                                              C:\Users\Frank\AppData\Local\Temp\gh_0000p9g1.si
                        6590 .LDWlin371:
000017a0 0432           6591 	mov	4,r6
                        6592 	jarl	_R_DEV_ClkFrequencyHz,lp
                        6592 <EXPANSION BEGIN>
                        6592 jarl22 _R_DEV_ClkFrequencyHz , lp 
000017a2 bfff5cf9*      6592 <EXPANSION END>
000017a6 1b08           6593 	mov	r27,r1
000017a8 c10a           6594 	shl	1,r1
000017aa 0ae8           6595 	mov	r10,r29
000017ac e1effe02       6596 	divqu	r1,r29,zero
                        6597 --line2128
                        6598 ..lin.C.3A.5Cgit.5Crh850.5Csrc.5Capp.5Cgfx_apps.5Csimple_draw.5Ctarget.5Cd1mx_mango_ghs.5Cobj.5Cr_dev_clk.372::
                        6599 .LDWlin372:
000017b0 c56d*          6600 	br	.L6199
                        6601 .L6233:
                        6602 --2128:         break;
                        6603 --2129:     case R_DEV_CLK_CPU      :
                        6604 --2130:         freq = R_DEV_ClkFrequencyHz(R_DEV_CKS_CPU);
                        6605 --line2130
                        6606 ..lin.C.3A.5Cgit.5Crh850.5Csrc.5Capp.5Cgfx_apps.5Csimple_draw.5Ctarget.5Cd1mx_mango_ghs.5Cobj.5Cr_dev_clk.373::
                        6607 .LDWlin373:
000017b2 0432           6608 	mov	4,r6
                        6609 	jarl	_R_DEV_ClkFrequencyHz,lp
                        6609 <EXPANSION BEGIN>
                        6609 jarl22 _R_DEV_ClkFrequencyHz , lp 
000017b4 bfff4af9*      6609 <EXPANSION END>
000017b8 0ae8           6610 	mov	r10,r29
                        6611 --line2131
                        6612 ..lin.C.3A.5Cgit.5Crh850.5Csrc.5Capp.5Cgfx_apps.5Csimple_draw.5Ctarget.5Cd1mx_mango_ghs.5Cobj.5Cr_dev_clk.374::
                        6613 .LDWlin374:
000017ba f565*          6614 	br	.L6199
                        6615 .L6234:
                        6616 --2131:         break;
                        6617 --2132:     case R_DEV_CLK_GPU2D    :
                        6618 --2133:         if ((device >= R_DEV_R7F701408) && (device <= R_DEV_R7F701412))
                        6619 --line2133
                        6620 ..lin.C.3A.5Cgit.5Crh850.5Csrc.5Capp.5Cgfx_apps.5Csimple_draw.5Ctarget.5Cd1mx_mango_ghs.5Cobj.5Cr_dev_clk.375::
                        6621 .LDWlin375:
000017bc 1c0680fa       6622 	addi	-1408,r28,zero
000017c0 990d*          6623 	bnl	.L6235
000017c2 1c067bfa       6624 	addi	-1413,r28,zero
000017c6 e105*          6625 	bl	.L6235
                        6626 --2134:         {
                        6627 --2135:             /* D1M2(H) run GPU2D clk same as CPU clk */
                        6628 --2136:             freq = R_DEV_ClkFrequencyHz(R_DEV_CKS_CPU);
                        6629 --line2136
                        6630 ..lin.C.3A.5Cgit.5Crh850.5Csrc.5Capp.5Cgfx_apps.5Csimple_draw.5Ctarget.5Cd1mx_mango_ghs.5Cobj.5Cr_dev_clk.376::
                        6631 .LDWlin376:
000017c8 0432           6632 	mov	4,r6
                        6633 	jarl	_R_DEV_ClkFrequencyHz,lp
                        6633 <EXPANSION BEGIN>
                        6633 jarl22 _R_DEV_ClkFrequencyHz , lp 
000017ca bfff34f9*      6633 <EXPANSION END>
000017ce 0ae8           6634 	mov	r10,r29
000017d0 e505*          6635 	br	.L6238
                        6636 .L6235:
                        6637 --2137:         }
                        6638 --2138:         else
                        6639 --2139:         {
                        6640 --2140:             /* D1M1(H) and D1M1A run GPU2D clk at half of CPU clk */
                        6641 --2141:             freq = R_DEV_ClkFrequencyHz(R_DEV_CKS_CPU) / 2;

                                                                      Page 114
                                                              C:\Users\Frank\AppData\Local\Temp\gh_0000p9g1.si
                        6642 --line2141
                        6643 ..lin.C.3A.5Cgit.5Crh850.5Csrc.5Capp.5Cgfx_apps.5Csimple_draw.5Ctarget.5Cd1mx_mango_ghs.5Cobj.5Cr_dev_clk.377::
                        6644 .LDWlin377:
000017d2 0432           6645 	mov	4,r6
                        6646 	jarl	_R_DEV_ClkFrequencyHz,lp
                        6646 <EXPANSION BEGIN>
                        6646 jarl22 _R_DEV_ClkFrequencyHz , lp 
000017d4 bfff2af9*      6646 <EXPANSION END>
000017d8 0ae8           6647 	mov	r10,r29
000017da 81ea           6648 	shr	1,r29
                        6649 .L6238:
                        6650 --line2143
                        6651 ..lin.C.3A.5Cgit.5Crh850.5Csrc.5Capp.5Cgfx_apps.5Csimple_draw.5Ctarget.5Cd1mx_mango_ghs.5Cobj.5Cr_dev_clk.378::
                        6652 .LDWlin378:
000017dc e555*          6653 	br	.L6199
                        6654 .L6239:
                        6655 --2142:         }
                        6656 --2143:         break;
                        6657 --2144:     case R_DEV_CLK_PLL1_INTERNAL:
                        6658 --2145:         if (((device >= R_DEV_R7F701400) && (device <= R_DEV_R7F701407))
                        6659 --line2145
                        6660 ..lin.C.3A.5Cgit.5Crh850.5Csrc.5Capp.5Cgfx_apps.5Csimple_draw.5Ctarget.5Cd1mx_mango_ghs.5Cobj.5Cr_dev_clk.379::
                        6661 .LDWlin379:
000017de 1c0688fa       6662 	addi	-1400,r28,zero
000017e2 c905*          6663 	bnl	.L6244
000017e4 1c0680fa       6664 	addi	-1408,r28,zero
000017e8 a90d*          6665 	bnl	.L6241
                        6666 .L6244:
000017ea 1c065efa       6667 	addi	-1442,r28,zero
000017ee f205*          6668 	be	.L6241
000017f0 1c0676fa       6669 	addi	-1418,r28,zero
000017f4 c205*          6670 	be	.L6241
000017f6 1c065ffa       6671 	addi	-1441,r28,zero
000017fa ea05*          6672 	bne	.L6240
                        6673 .L6241:
                        6674 --2146:             || (device == R_DEV_R7F701442)
                        6675 --2147:             || (device == R_DEV_R7F701418)
                        6676 --2148:             || (device == R_DEV_R7F701441))
                        6677 --2149:         {
                        6678 --2150:             freq = loc_SrcFrequencyHz(R_DEV_CKS_SRC_PLL1) * 1;
                        6679 --line2150
                        6680 ..lin.C.3A.5Cgit.5Crh850.5Csrc.5Capp.5Cgfx_apps.5Csimple_draw.5Ctarget.5Cd1mx_mango_ghs.5Cobj.5Cr_dev_clk.380::
                        6681 .LDWlin380:
000017fc 0932           6682 	mov	9,r6
                        6683 	jarl	_loc_SrcFrequencyHz,lp
                        6683 <EXPANSION BEGIN>
                        6683 jarl22 _loc_SrcFrequencyHz , lp 
000017fe bfff92f0*      6683 <EXPANSION END>
00001802 0ae8           6684 	mov	r10,r29
00001804 f505*          6685 	br	.L6246
                        6686 .L6240:
                        6687 --2151:         }
                        6688 --2152:         else
                        6689 --2153:         {
                        6690 --2154:             /* For D1M2(H), the PLL1 is always divided by 2, so this value is returned by */
                        6691 --2155:             /* loc_SrcFrequencyHz, as that function gives the frequency input into other macros. */
                        6692 --2156:             /* If we request the internal working frequency of PLL1, we have to double it up. */
                        6693 --2157:             freq = loc_SrcFrequencyHz(R_DEV_CKS_SRC_PLL1) * 2;
                        6694 --line2157
                        6695 ..lin.C.3A.5Cgit.5Crh850.5Csrc.5Capp.5Cgfx_apps.5Csimple_draw.5Ctarget.5Cd1mx_mango_ghs.5Cobj.5Cr_dev_clk.381::
                        6696 .LDWlin381:

                                                                      Page 115
                                                              C:\Users\Frank\AppData\Local\Temp\gh_0000p9g1.si
00001806 0932           6697 	mov	9,r6
                        6698 	jarl	_loc_SrcFrequencyHz,lp
                        6698 <EXPANSION BEGIN>
                        6698 jarl22 _loc_SrcFrequencyHz , lp 
00001808 bfff88f0*      6698 <EXPANSION END>
0000180c 0a08           6699 	mov	r10,r1
0000180e c10a           6700 	shl	1,r1
00001810 01e8           6701 	mov	r1,r29
                        6702 .L6246:
                        6703 --line2159
                        6704 ..lin.C.3A.5Cgit.5Crh850.5Csrc.5Capp.5Cgfx_apps.5Csimple_draw.5Ctarget.5Cd1mx_mango_ghs.5Cobj.5Cr_dev_clk.382::
                        6705 .LDWlin382:
00001812 b53d*          6706 	br	.L6199
                        6707 .L6247:
                        6708 --2158:         }
                        6709 --2159:         break;
                        6710 --2160:     case R_DEV_CLK_ISOPCLK  :
                        6711 --2161:         freq = R_DEV_ClkFrequencyHz(R_DEV_CKS_CPU) / (2 * ratio) ;
                        6712 --line2161
                        6713 ..lin.C.3A.5Cgit.5Crh850.5Csrc.5Capp.5Cgfx_apps.5Csimple_draw.5Ctarget.5Cd1mx_mango_ghs.5Cobj.5Cr_dev_clk.383::
                        6714 .LDWlin383:
00001814 0432           6715 	mov	4,r6
                        6716 	jarl	_R_DEV_ClkFrequencyHz,lp
                        6716 <EXPANSION BEGIN>
                        6716 jarl22 _R_DEV_ClkFrequencyHz , lp 
00001816 bfffe8f8*      6716 <EXPANSION END>
0000181a 1b08           6717 	mov	r27,r1
0000181c c10a           6718 	shl	1,r1
0000181e 0ae8           6719 	mov	r10,r29
00001820 e1effe02       6720 	divqu	r1,r29,zero
                        6721 --line2162
                        6722 ..lin.C.3A.5Cgit.5Crh850.5Csrc.5Capp.5Cgfx_apps.5Csimple_draw.5Ctarget.5Cd1mx_mango_ghs.5Cobj.5Cr_dev_clk.384::
                        6723 .LDWlin384:
00001824 a535*          6724 	br	.L6199
                        6725 .L6248:
                        6726 --2162:         break;
                        6727 --2163:     case R_DEV_CLK_FIX      :
                        6728 --2164:         freq = R_DEV_ClkFrequencyHz(R_DEV_CKS_CLKFIX);
                        6729 --line2164
                        6730 ..lin.C.3A.5Cgit.5Crh850.5Csrc.5Capp.5Cgfx_apps.5Csimple_draw.5Ctarget.5Cd1mx_mango_ghs.5Cobj.5Cr_dev_clk.385::
                        6731 .LDWlin385:
00001826 20361300       6732 	movea	19,zero,r6
                        6733 	jarl	_R_DEV_ClkFrequencyHz,lp
                        6733 <EXPANSION BEGIN>
                        6733 jarl22 _R_DEV_ClkFrequencyHz , lp 
0000182a bfffd4f8*      6733 <EXPANSION END>
0000182e 0ae8           6734 	mov	r10,r29
                        6735 --line2165
                        6736 ..lin.C.3A.5Cgit.5Crh850.5Csrc.5Capp.5Cgfx_apps.5Csimple_draw.5Ctarget.5Cd1mx_mango_ghs.5Cobj.5Cr_dev_clk.386::
                        6737 .LDWlin386:
00001830 c52d*          6738 	br	.L6199
                        6739 .L6249:
                        6740 --2165:         break;
                        6741 --2166:     case R_DEV_CLK_JIT      :
                        6742 --2167:         freq = R_DEV_ClkFrequencyHz(R_DEV_CKS_CLKJIT);
                        6743 --line2167
                        6744 ..lin.C.3A.5Cgit.5Crh850.5Csrc.5Capp.5Cgfx_apps.5Csimple_draw.5Ctarget.5Cd1mx_mango_ghs.5Cobj.5Cr_dev_clk.387::
                        6745 .LDWlin387:
00001832 20361200       6746 	movea	18,zero,r6
                        6747 	jarl	_R_DEV_ClkFrequencyHz,lp
                        6747 <EXPANSION BEGIN>

                                                                      Page 116
                                                              C:\Users\Frank\AppData\Local\Temp\gh_0000p9g1.si
                        6747 jarl22 _R_DEV_ClkFrequencyHz , lp 
00001836 bfffc8f8*      6747 <EXPANSION END>
0000183a 0ae8           6748 	mov	r10,r29
                        6749 --line2168
                        6750 ..lin.C.3A.5Cgit.5Crh850.5Csrc.5Capp.5Cgfx_apps.5Csimple_draw.5Ctarget.5Cd1mx_mango_ghs.5Cobj.5Cr_dev_clk.388::
                        6751 .LDWlin388:
0000183c e525*          6752 	br	.L6199
                        6753 .L6250:
                        6754 --2168:         break;
                        6755 --2169:     case R_DEV_CLK_PLLFIX   :
                        6756 --2170:         freq = R_DEV_ClkFrequencyHz(R_DEV_CKS_PLLFIX);
                        6757 --line2170
                        6758 ..lin.C.3A.5Cgit.5Crh850.5Csrc.5Capp.5Cgfx_apps.5Csimple_draw.5Ctarget.5Cd1mx_mango_ghs.5Cobj.5Cr_dev_clk.389::
                        6759 .LDWlin389:
0000183e 20361400       6760 	movea	20,zero,r6
                        6761 	jarl	_R_DEV_ClkFrequencyHz,lp
                        6761 <EXPANSION BEGIN>
                        6761 jarl22 _R_DEV_ClkFrequencyHz , lp 
00001842 bfffbcf8*      6761 <EXPANSION END>
00001846 0ae8           6762 	mov	r10,r29
                        6763 --line2171
                        6764 ..lin.C.3A.5Cgit.5Crh850.5Csrc.5Capp.5Cgfx_apps.5Csimple_draw.5Ctarget.5Cd1mx_mango_ghs.5Cobj.5Cr_dev_clk.390::
                        6765 .LDWlin390:
00001848 8525*          6766 	br	.L6199
                        6767 .L6251:
                        6768 --2171:         break;
                        6769 --2172:     case R_DEV_CLK_LRNG     :
                        6770 --2173:         freq = loc_SrcFrequencyHz(R_DEV_CKS_SRC_LRNG);
                        6771 --line2173
                        6772 ..lin.C.3A.5Cgit.5Crh850.5Csrc.5Capp.5Cgfx_apps.5Csimple_draw.5Ctarget.5Cd1mx_mango_ghs.5Cobj.5Cr_dev_clk.391::
                        6773 .LDWlin391:
0000184a 0132           6774 	mov	1,r6
                        6775 	jarl	_loc_SrcFrequencyHz,lp
                        6775 <EXPANSION BEGIN>
                        6775 jarl22 _loc_SrcFrequencyHz , lp 
0000184c bfff44f0*      6775 <EXPANSION END>
00001850 0ae8           6776 	mov	r10,r29
                        6777 --line2174
                        6778 ..lin.C.3A.5Cgit.5Crh850.5Csrc.5Capp.5Cgfx_apps.5Csimple_draw.5Ctarget.5Cd1mx_mango_ghs.5Cobj.5Cr_dev_clk.392::
                        6779 .LDWlin392:
00001852 b51d*          6780 	br	.L6199
                        6781 .L6252:
                        6782 --2174:         break;
                        6783 --2175:     case R_DEV_CLK_HRING    :
                        6784 --2176:         freq = loc_SrcFrequencyHz(R_DEV_CKS_SRC_HRING);
                        6785 --line2176
                        6786 ..lin.C.3A.5Cgit.5Crh850.5Csrc.5Capp.5Cgfx_apps.5Csimple_draw.5Ctarget.5Cd1mx_mango_ghs.5Cobj.5Cr_dev_clk.393::
                        6787 .LDWlin393:
00001854 0232           6788 	mov	2,r6
                        6789 	jarl	_loc_SrcFrequencyHz,lp
                        6789 <EXPANSION BEGIN>
                        6789 jarl22 _loc_SrcFrequencyHz , lp 
00001856 bfff3af0*      6789 <EXPANSION END>
0000185a 0ae8           6790 	mov	r10,r29
                        6791 --line2177
                        6792 ..lin.C.3A.5Cgit.5Crh850.5Csrc.5Capp.5Cgfx_apps.5Csimple_draw.5Ctarget.5Cd1mx_mango_ghs.5Cobj.5Cr_dev_clk.394::
                        6793 .LDWlin394:
0000185c e515*          6794 	br	.L6199
                        6795 .L6253:
                        6796 --2177:         break;
                        6797 --2178:     case R_DEV_CLK_ERING    :

                                                                      Page 117
                                                              C:\Users\Frank\AppData\Local\Temp\gh_0000p9g1.si
                        6798 --2179:         freq = loc_SrcFrequencyHz(R_DEV_CKS_SRC_ERING);
                        6799 --line2179
                        6800 ..lin.C.3A.5Cgit.5Crh850.5Csrc.5Capp.5Cgfx_apps.5Csimple_draw.5Ctarget.5Cd1mx_mango_ghs.5Cobj.5Cr_dev_clk.395::
                        6801 .LDWlin395:
0000185e 0332           6802 	mov	3,r6
                        6803 	jarl	_loc_SrcFrequencyHz,lp
                        6803 <EXPANSION BEGIN>
                        6803 jarl22 _loc_SrcFrequencyHz , lp 
00001860 bfff30f0*      6803 <EXPANSION END>
00001864 0ae8           6804 	mov	r10,r29
                        6805 --line2180
                        6806 ..lin.C.3A.5Cgit.5Crh850.5Csrc.5Capp.5Cgfx_apps.5Csimple_draw.5Ctarget.5Cd1mx_mango_ghs.5Cobj.5Cr_dev_clk.396::
                        6807 .LDWlin396:
00001866 9515*          6808 	br	.L6199
                        6809 .L6254:
                        6810 --2180:         break;
                        6811 --2181:     case R_DEV_CLK_MOSC     :
                        6812 --2182:         freq = loc_SrcFrequencyHz(R_DEV_CKS_SRC_MOSC);
                        6813 --line2182
                        6814 ..lin.C.3A.5Cgit.5Crh850.5Csrc.5Capp.5Cgfx_apps.5Csimple_draw.5Ctarget.5Cd1mx_mango_ghs.5Cobj.5Cr_dev_clk.397::
                        6815 .LDWlin397:
00001868 0432           6816 	mov	4,r6
                        6817 	jarl	_loc_SrcFrequencyHz,lp
                        6817 <EXPANSION BEGIN>
                        6817 jarl22 _loc_SrcFrequencyHz , lp 
0000186a bfff26f0*      6817 <EXPANSION END>
0000186e 0ae8           6818 	mov	r10,r29
                        6819 --line2183
                        6820 ..lin.C.3A.5Cgit.5Crh850.5Csrc.5Capp.5Cgfx_apps.5Csimple_draw.5Ctarget.5Cd1mx_mango_ghs.5Cobj.5Cr_dev_clk.398::
                        6821 .LDWlin398:
00001870 c50d*          6822 	br	.L6199
                        6823 .L6255:
                        6824 --2183:         break;
                        6825 --2184:     case R_DEV_CLK_SOSC     :
                        6826 --2185:         freq = loc_SrcFrequencyHz(R_DEV_CKS_SRC_SOSC);
                        6827 --line2185
                        6828 ..lin.C.3A.5Cgit.5Crh850.5Csrc.5Capp.5Cgfx_apps.5Csimple_draw.5Ctarget.5Cd1mx_mango_ghs.5Cobj.5Cr_dev_clk.399::
                        6829 .LDWlin399:
00001872 0532           6830 	mov	5,r6
                        6831 	jarl	_loc_SrcFrequencyHz,lp
                        6831 <EXPANSION BEGIN>
                        6831 jarl22 _loc_SrcFrequencyHz , lp 
00001874 bfff1cf0*      6831 <EXPANSION END>
00001878 0ae8           6832 	mov	r10,r29
                        6833 --line2186
                        6834 ..lin.C.3A.5Cgit.5Crh850.5Csrc.5Capp.5Cgfx_apps.5Csimple_draw.5Ctarget.5Cd1mx_mango_ghs.5Cobj.5Cr_dev_clk.400::
                        6835 .LDWlin400:
0000187a f505*          6836 	br	.L6199
                        6837 .L6256:
                        6838 --2186:         break;
                        6839 --2187:     default                 :
                        6840 --2188:         R_DEV_ERROR((uint32_t)Bus, R_DEV_ERR_UNIT, "Wher's the Bus!");
                        6841 --line2188
                        6842 ..lin.C.3A.5Cgit.5Crh850.5Csrc.5Capp.5Cgfx_apps.5Csimple_draw.5Ctarget.5Cd1mx_mango_ghs.5Cobj.5Cr_dev_clk.401::
                        6843 .LDWlin401:
0000187c 23370500       6844 	ld.w	4[sp],r6
00001880 023a           6845 	mov	2,r7
                        6846 	jarl	_R_DEV_ErrorHandler,lp
                        6846 <EXPANSION BEGIN>
                        6846 jarl22 _R_DEV_ErrorHandler , lp 
00001882 80ff0000*      6846 <EXPANSION END>

                                                                      Page 118
                                                              C:\Users\Frank\AppData\Local\Temp\gh_0000p9g1.si
                        6847 --line2189
                        6848 ..lin.C.3A.5Cgit.5Crh850.5Csrc.5Capp.5Cgfx_apps.5Csimple_draw.5Ctarget.5Cd1mx_mango_ghs.5Cobj.5Cr_dev_clk.402::
                        6849 .LDWlin402:
00001886 0000           6850 	nop
                        6851 .L6199:
                        6852 --2189:         break;
                        6853 --2190:     }
                        6854 --2191:     return (freq);
00001888 1d50           6855 	mov	r29,r10
                        6856 .L6192:
                        6857 --	    .ef
                        6858 .LDW17:
0000188a 4406ff70       6859 	dispose	2,{r25,r26,r27,r28,r29,r31},[lp]
                        6860 	.type	_R_DEV_BusFrequencyHz,@function
                        6861 	.size	_R_DEV_BusFrequencyHz,.-_R_DEV_BusFrequencyHz
                        6862 	.align	2
                        6863 .LDW27:
                        6864 --_freq	r29	local
                        6865 --_ratio	r27	local
                        6866 --_check1	r25	local
                        6867 --_check2	0[sp]	local
                        6868 --_device	r28	local
                        6869 
                        6870 --_Bus	4[sp]	param
                        6871 
                        6872 	.data
                        6873 	.ghsnote jtable,2097156,.L6611,.L6611,.L6611,23
                        6874 	.text
                        6875 
                        6876 --2192: }
                        6877 
                        6878 --2194: /*******************************************************************************
                        6879 --2195:   Function: R_DEV_BusEnable
                        6880 --2197:   see: <r_dev_clk_types.h> for details
                        6881 --2198: */
                        6882 --2199: r_Error_t R_DEV_BusEnable(r_dev_Bus_t BusClk, uint8_t EnDis)
                        6883 	.align	2
                        6884 	.align	2
                        6885 	.global	_R_DEV_BusEnable
                        6886 _R_DEV_BusEnable:
0000188e 0670           6887 	mov	r6,r14
00001890 c74eff00       6888 	andi	255,r7,r9
00001894 2d0600000000*  6889 	mov	_locBusRegAddr,r13
                        6890 --	    .bf
                        6891 .LDW37:
                        6892 --2200: {
                        6893 --2201:     uint32_t   regval = 0;
0000189a 000a           6894 	mov	0,r1
                        6895 --2202:     r_Error_t  retval = R_ERR_OK;
0000189c 0062           6896 	mov	0,r12
                        6897 --2203:     regval     = (0 != EnDis)? 1:0;
0000189e e049           6898 	cmp	zero,r9
000018a0 ea0f0000       6899 	setfne	r1
                        6900 --2204:     
                        6901 --2205:     if (BusClk < R_DEV_CLK_BUS_LAST)
000018a4 6b72           6902 	cmp	11,r14
000018a6 a955*          6903 	bnl	.L6883
                        6904 --2206:     {
                        6905 --2207:         if (BusClk < R_DEV_CLK_PLL2)
                        6906 --line2207
                        6907 ..lin.C.3A.5Cgit.5Crh850.5Csrc.5Capp.5Cgfx_apps.5Csimple_draw.5Ctarget.5Cd1mx_mango_ghs.5Cobj.5Cr_dev_clk.403::

                                                                      Page 119
                                                              C:\Users\Frank\AppData\Local\Temp\gh_0000p9g1.si
                        6908 .LDWlin403:
000018a8 6272           6909 	cmp	2,r14
000018aa d925*          6910 	bnl	.L6885
                        6911 --2208:         {
                        6912 --2209:             R_DEV_WRITE_PROT_REG(LOC_PROTCMD1, locBusRegAddr[BusClk],regval);
                        6913 --	    .bs
                        6914 .LDW47:
                        6915 --line2209
                        6916 ..lin.C.3A.5Cgit.5Crh850.5Csrc.5Capp.5Cgfx_apps.5Csimple_draw.5Ctarget.5Cd1mx_mango_ghs.5Cobj.5Cr_dev_clk.404::
                        6917 .LDWlin404:
000018ac 005a           6918 	mov	0,r11
000018ae 0052           6919 	mov	0,r10
                        6920 .L6889:
000018b0 2046a500       6921 	movea	165,zero,r8
000018b4 80070f4000f1   6922 	st.w	r8,4294475776[zero]
000018ba 0ef0           6923 	mov	r14,ep
000018bc c2f2           6924 	shl	2,ep
000018be cdf1           6925 	add	r13,ep
000018c0 00f5           6926 	sld.w	0[ep],ep
000018c2 010d           6927 	sst.w	r1,0[ep]
000018c4 0ef0           6928 	mov	r14,ep
000018c6 c2f2           6929 	shl	2,ep
000018c8 cdf1           6930 	add	r13,ep
000018ca 2140           6931 	not	r1,r8
000018cc 00f5           6932 	sld.w	0[ep],ep
000018ce 0145           6933 	sst.w	r8,0[ep]
000018d0 0ef0           6934 	mov	r14,ep
000018d2 c2f2           6935 	shl	2,ep
000018d4 cdf1           6936 	add	r13,ep
000018d6 00f5           6937 	sld.w	0[ep],ep
000018d8 010d           6938 	sst.w	r1,0[ep]
000018da 8007495800f1   6939 	ld.w	4294475780[zero],r11
000018e0 0ef0           6940 	mov	r14,ep
000018e2 c2f2           6941 	shl	2,ep
000018e4 cdf1           6942 	add	r13,ep
000018e6 00f5           6943 	sld.w	0[ep],ep
000018e8 0055           6944 	sld.w	0[ep],r10
000018ea e151           6945 	cmp	r1,r10
000018ec f225*          6946 	be	.L6891
000018ee e059           6947 	cmp	zero,r11
000018f0 8ae5*          6948 	bne	.L6889
                        6949 --	    .es
                        6950 .LDW57:
                        6951 --line2209
                        6952 ..lin.C.3A.5Cgit.5Crh850.5Csrc.5Capp.5Cgfx_apps.5Csimple_draw.5Ctarget.5Cd1mx_mango_ghs.5Cobj.5Cr_dev_clk.405::
                        6953 .LDWlin405:
000018f2 c525*          6954 	br	.L6891
                        6955 .L6885:
                        6956 --2210:         }
                        6957 --2211:         else
                        6958 --2212:         {
                        6959 --2213:             R_DEV_WRITE_PROT_REG(LOC_PROTCMDD1, locBusRegAddr[BusClk],regval);
                        6960 --	    .bs
                        6961 .LDW67:
                        6962 --line2213
                        6963 ..lin.C.3A.5Cgit.5Crh850.5Csrc.5Capp.5Cgfx_apps.5Csimple_draw.5Ctarget.5Cd1mx_mango_ghs.5Cobj.5Cr_dev_clk.406::
                        6964 .LDWlin406:
000018f4 005a           6965 	mov	0,r11
000018f6 0052           6966 	mov	0,r10
                        6967 .L6894:
000018f8 2046a500       6968 	movea	165,zero,r8

                                                                      Page 120
                                                              C:\Users\Frank\AppData\Local\Temp\gh_0000p9g1.si
000018fc 80070f40e0f0   6969 	st.w	r8,4294471680[zero]
00001902 0ef0           6970 	mov	r14,ep
00001904 c2f2           6971 	shl	2,ep
00001906 cdf1           6972 	add	r13,ep
00001908 00f5           6973 	sld.w	0[ep],ep
0000190a 010d           6974 	sst.w	r1,0[ep]
0000190c 0ef0           6975 	mov	r14,ep
0000190e c2f2           6976 	shl	2,ep
00001910 cdf1           6977 	add	r13,ep
00001912 2140           6978 	not	r1,r8
00001914 00f5           6979 	sld.w	0[ep],ep
00001916 0145           6980 	sst.w	r8,0[ep]
00001918 0ef0           6981 	mov	r14,ep
0000191a c2f2           6982 	shl	2,ep
0000191c cdf1           6983 	add	r13,ep
0000191e 00f5           6984 	sld.w	0[ep],ep
00001920 010d           6985 	sst.w	r1,0[ep]
00001922 80074958e0f0   6986 	ld.w	4294471684[zero],r11
00001928 0ef0           6987 	mov	r14,ep
0000192a c2f2           6988 	shl	2,ep
0000192c cdf1           6989 	add	r13,ep
0000192e 00f5           6990 	sld.w	0[ep],ep
00001930 0055           6991 	sld.w	0[ep],r10
00001932 e151           6992 	cmp	r1,r10
00001934 b205*          6993 	be	.L6891
00001936 e059           6994 	cmp	zero,r11
00001938 8ae5*          6995 	bne	.L6894
                        6996 --	    .es
                        6997 .LDW77:
                        6998 .L6891:
                        6999 --2214:         }
                        7000 --2215:         
                        7001 --2216:         while (R_DEV_READ_REG(32, locBusRegAddr[BusClk]+ LOC_CKS_A) != regval)
                        7002 .L6896:
                        7003 --2217:         {
                        7004 --line2216
                        7005 ..lin.C.3A.5Cgit.5Crh850.5Csrc.5Capp.5Cgfx_apps.5Csimple_draw.5Ctarget.5Cd1mx_mango_ghs.5Cobj.5Cr_dev_clk.407::
                        7006 .LDWlin407:
0000193a 0ef0           7007 	mov	r14,ep
0000193c c2f2           7008 	shl	2,ep
0000193e cdf1           7009 	add	r13,ep
00001940 00f5           7010 	sld.w	0[ep],ep
00001942 0445           7011 	sld.w	8[ep],r8
00001944 e141           7012 	cmp	r1,r8
00001946 aafd*          7013 	bne	.L6896
00001948 a505*          7014 	br	.L6899
                        7015 .L6883:
                        7016 --2218:             /* Just wait until setting becomes active */
                        7017 --2219:         }
                        7018 --2220:     }
                        7019 --2221:     else
                        7020 --2222:     {
                        7021 --2223:         retval = R_PARAMETER_RANGE;
                        7022 --line2223
                        7023 ..lin.C.3A.5Cgit.5Crh850.5Csrc.5Capp.5Cgfx_apps.5Csimple_draw.5Ctarget.5Cd1mx_mango_ghs.5Cobj.5Cr_dev_clk.408::
                        7024 .LDWlin408:
0000194a 0362           7025 	mov	3,r12
                        7026 .L6899:
                        7027 --2224:     }
                        7028 --2225:     return retval;
0000194c 0000           7029 	nop

                                                                      Page 121
                                                              C:\Users\Frank\AppData\Local\Temp\gh_0000p9g1.si
                        7030 --	    .ef
                        7031 .LDW87:
0000194e 0c50           7032 	mov	r12,r10
00001950 7f00           7033 	jmp	[lp]
                        7034 	.type	_R_DEV_BusEnable,@function
                        7035 	.size	_R_DEV_BusEnable,.-_R_DEV_BusEnable
                        7036 	.align	2
                        7037 .LDW97:
                        7038 --_regval	r1	local
                        7039 --_retval	r12	local
                        7040 --_prot_stat	r11	local
                        7041 --_new_val	r10	local
                        7042 --_prot_stat	r11	local
                        7043 --_new_val	r10	local
                        7044 
                        7045 --_BusClk	r14	param
                        7046 --_EnDis	r9	param
                        7047 
                        7048 	.section ".bss","awb"
                        7049 .L7075:
                        7050 	.type	.L7075,@object
                        7051 	.size	.L7075,0
                        7052 	.data
                        7053 	.text
                        7054 
                        7055 --2226: }
                        7056 
                        7057 --2228: /*******************************************************************************
                        7058 --2229:   Function: R_DEV_ClkGenStop
                        7059 --2231:     se: <r_dev_api.h> for details
                        7060 --2232: */
                        7061 --2234: r_Error_t R_DEV_ClkGenStop(r_dev_ClkGen_t ClkGen)
                        7062 	.align	2
                        7063 	.align	2
                        7064 	.global	_R_DEV_ClkGenStop
                        7065 _R_DEV_ClkGenStop:
00001952 8407e170       7066 	prepare	{r25,r26,r27,r28,r29,r31},2
00001956 63370500       7067 	st.w	r6,4[sp]
                        7068 --	    .bf
                        7069 .LDW08:
                        7070 --2235: {
                        7071 --2236:     uint32_t addr      = loc_Base[ClkGen] + LOC_GEN_E;
0000195a 230f0500       7072 	ld.w	4[sp],r1
0000195e 3e0600000000*  7073 	mov	_loc_Base,ep
00001964 c20a           7074 	shl	2,r1
00001966 c1f1           7075 	add	r1,ep
00001968 00d5           7076 	sld.w	0[ep],r26
                        7077 --2237:     uint32_t reg_val   = 0;
0000196a 00e2           7078 	mov	0,r28
                        7079 --2238:     uint32_t prot_addr = 0;
0000196c 00ea           7080 	mov	0,r29
                        7081 --2239:     r_Error_t ret_val = R_NG;
0000196e 01da           7082 	mov	1,r27
                        7083 --2240:     switch (ClkGen)
00001970 230f0500       7084 	ld.w	4[sp],r1
00001974 620a           7085 	cmp	2,r1
00001976 f105*          7086 	bl	.L7190
00001978 a20d*          7087 	be	.L7191
0000197a 650a           7088 	cmp	5,r1
0000197c cb0d*          7089 	bh	.L7192
                        7090 --2241:     {

                                                                      Page 122
                                                              C:\Users\Frank\AppData\Local\Temp\gh_0000p9g1.si
                        7091 --2242:     case R_DEV_HS_RING:
                        7092 --2243:     case R_DEV_MOSC:
                        7093 --2244:     case R_DEV_SOSC:
                        7094 --2245:         prot_addr = LOC_PROTCMD0;
                        7095 --line2245
                        7096 ..lin.C.3A.5Cgit.5Crh850.5Csrc.5Capp.5Cgfx_apps.5Csimple_draw.5Ctarget.5Cd1mx_mango_ghs.5Cobj.5Cr_dev_clk.409::
                        7097 .LDWlin409:
0000197e 40eef8ff       7098 	movhi	hi(-524288),zero,r29
00001982 b50d*          7099 	br	.L7187
                        7100 .L7190:
                        7101 --2246:         break;
                        7102 --2247:     case R_DEV_PLL0:
                        7103 --2248:     case R_DEV_PLL1:
                        7104 --2249:         prot_addr = LOC_PROTCMD1;
                        7105 --line2249
                        7106 ..lin.C.3A.5Cgit.5Crh850.5Csrc.5Capp.5Cgfx_apps.5Csimple_draw.5Ctarget.5Cd1mx_mango_ghs.5Cobj.5Cr_dev_clk.410::
                        7107 .LDWlin410:
00001984 3d060080f8ff   7108 	mov	-491520,r29
0000198a f505*          7109 	br	.L7187
                        7110 .L7191:
                        7111 --2250:         break;
                        7112 --2251:     case R_DEV_PLL2:
                        7113 --2252:         prot_addr = LOC_PROTCMDD1;
                        7114 --line2252
                        7115 ..lin.C.3A.5Cgit.5Crh850.5Csrc.5Capp.5Cgfx_apps.5Csimple_draw.5Ctarget.5Cd1mx_mango_ghs.5Cobj.5Cr_dev_clk.411::
                        7116 .LDWlin411:
0000198c 3d060070f8ff   7117 	mov	-495616,r29
00001992 b505*          7118 	br	.L7187
                        7119 .L7192:
                        7120 --2253:         break;
                        7121 --2254:     default:
                        7122 --2255:        ret_val = R_PARAMETER_RANGE;
                        7123 --line2255
                        7124 ..lin.C.3A.5Cgit.5Crh850.5Csrc.5Capp.5Cgfx_apps.5Csimple_draw.5Ctarget.5Cd1mx_mango_ghs.5Cobj.5Cr_dev_clk.412::
                        7125 .LDWlin412:
00001994 03da           7126 	mov	3,r27
00001996 0000           7127 	nop
                        7128 .L7187:
                        7129 --2256:         break;
                        7130 --2257:     }
                        7131 --2258:     if (R_PARAMETER_RANGE != ret_val)
00001998 63da           7132 	cmp	3,r27
0000199a d225*          7133 	be	.L7193
                        7134 --2259:     {
                        7135 --2260:         /* now set stop trigger */
                        7136 --2261:         reg_val |= 0x2u;
                        7137 --line2261
                        7138 ..lin.C.3A.5Cgit.5Crh850.5Csrc.5Capp.5Cgfx_apps.5Csimple_draw.5Ctarget.5Cd1mx_mango_ghs.5Cobj.5Cr_dev_clk.413::
                        7139 .LDWlin413:
0000199c 9ce60200       7140 	ori	2,r28,r28
                        7141 --2262:         R_DEV_WRITE_PROT_REG(prot_addr, addr, reg_val);
                        7142 --	    .bs
                        7143 .LDW18:
000019a0 00ca           7144 	mov	0,r25
000019a2 63070100       7145 	st.w	zero,0[sp]
000019a6 005a           7146 	mov	0,r11
                        7147 .L7197:
000019a8 200ea500       7148 	movea	165,zero,r1
000019ac 7d0f0100       7149 	st.w	r1,0[r29]
000019b0 7ae70100       7150 	st.w	r28,0[r26]
000019b4 3c08           7151 	not	r28,r1

                                                                      Page 123
                                                              C:\Users\Frank\AppData\Local\Temp\gh_0000p9g1.si
000019b6 7a0f0100       7152 	st.w	r1,0[r26]
000019ba 7ae70100       7153 	st.w	r28,0[r26]
000019be 3dcf0500       7154 	ld.w	4[r29],r25
000019c2 3a5f0100       7155 	ld.w	0[r26],r11
000019c6 635f0100       7156 	st.w	r11,0[sp]
000019ca 235f0100       7157 	ld.w	0[sp],r11
000019ce fc59           7158 	cmp	r28,r11
000019d0 b205*          7159 	be	.L7195
000019d2 e0c9           7160 	cmp	zero,r25
000019d4 aaed*          7161 	bne	.L7197
                        7162 .L7195:
                        7163 --	    .es
                        7164 .LDW28:
                        7165 --2263:         /* wait for status */
                        7166 --2264:         while (0 != R_DEV_ClkGenActive(ClkGen))
                        7167 .L7199:
                        7168 --2265:         {
                        7169 --line2264
                        7170 ..lin.C.3A.5Cgit.5Crh850.5Csrc.5Capp.5Cgfx_apps.5Csimple_draw.5Ctarget.5Cd1mx_mango_ghs.5Cobj.5Cr_dev_clk.414::
                        7171 .LDWlin414:
000019d6 23370500       7172 	ld.w	4[sp],r6
                        7173 	jarl	_R_DEV_ClkGenActive,lp
                        7173 <EXPANSION BEGIN>
                        7173 jarl22 _R_DEV_ClkGenActive , lp 
000019da bfff1ef2*      7173 <EXPANSION END>
000019de e051           7174 	cmp	zero,r10
000019e0 bafd*          7175 	bne	.L7199
                        7176 --2266:         }
                        7177 --2267:         ret_val = R_ERR_OK;
                        7178 --line2267
                        7179 ..lin.C.3A.5Cgit.5Crh850.5Csrc.5Capp.5Cgfx_apps.5Csimple_draw.5Ctarget.5Cd1mx_mango_ghs.5Cobj.5Cr_dev_clk.415::
                        7180 .LDWlin415:
000019e2 00da           7181 	mov	0,r27
                        7182 .L7193:
                        7183 --2268:     }
                        7184 --2269:     return ret_val;
000019e4 1b50           7185 	mov	r27,r10
                        7186 --	    .ef
                        7187 .LDW38:
000019e6 4406ff70       7188 	dispose	2,{r25,r26,r27,r28,r29,r31},[lp]
                        7189 	.type	_R_DEV_ClkGenStop,@function
                        7190 	.size	_R_DEV_ClkGenStop,.-_R_DEV_ClkGenStop
                        7191 	.align	2
                        7192 .LDW48:
                        7193 --_addr	r26	local
                        7194 --_reg_val	r28	local
                        7195 --_prot_addr	r29	local
                        7196 --_ret_val	r27	local
                        7197 --_prot_stat	r25	local
                        7198 --_new_val	0[sp]	local
                        7199 
                        7200 --_ClkGen	4[sp]	param
                        7201 
                        7202 	.section ".bss","awb"
                        7203 .L7346:
                        7204 	.type	.L7346,@object
                        7205 	.size	.L7346,0
                        7206 	.data
                        7207 	.text
                        7208 
                        7209 --2270: }

                                                                      Page 124
                                                              C:\Users\Frank\AppData\Local\Temp\gh_0000p9g1.si
                        7210 
                        7211 --2272: /*******************************************************************************
                        7212 --2273:   Function: R_DEV_ClkGenStart
                        7213 --2275:     se: <r_dev_api.h> for details
                        7214 --2276: */
                        7215 --2278: r_Error_t R_DEV_ClkGenStart(r_dev_ClkGen_t ClkGen)
                        7216 	.align	2
                        7217 	.align	2
                        7218 	.global	_R_DEV_ClkGenStart
                        7219 _R_DEV_ClkGenStart:
000019ea 8407e170       7220 	prepare	{r25,r26,r27,r28,r29,r31},2
000019ee 63370500       7221 	st.w	r6,4[sp]
                        7222 --	    .bf
                        7223 .LDW58:
                        7224 --2279: {
                        7225 --2280:     uint32_t addr      = loc_Base[ClkGen] + LOC_GEN_E;
000019f2 230f0500       7226 	ld.w	4[sp],r1
000019f6 3e0600000000*  7227 	mov	_loc_Base,ep
000019fc c20a           7228 	shl	2,r1
000019fe c1f1           7229 	add	r1,ep
00001a00 00d5           7230 	sld.w	0[ep],r26
                        7231 --2281:     uint32_t reg_val   = 0;
00001a02 00e2           7232 	mov	0,r28
                        7233 --2282:     uint32_t prot_addr = 0;
00001a04 00ea           7234 	mov	0,r29
                        7235 --2283:     
                        7236 --2284:     r_Error_t ret_val = R_NG;
00001a06 01da           7237 	mov	1,r27
                        7238 --2285:     switch (ClkGen)
00001a08 230f0500       7239 	ld.w	4[sp],r1
00001a0c 620a           7240 	cmp	2,r1
00001a0e f105*          7241 	bl	.L7457
00001a10 a20d*          7242 	be	.L7458
00001a12 650a           7243 	cmp	5,r1
00001a14 cb0d*          7244 	bh	.L7459
                        7245 --2286:     {
                        7246 --2287:     case R_DEV_HS_RING:
                        7247 --2288:     case R_DEV_MOSC:
                        7248 --2289:     case R_DEV_SOSC:
                        7249 --2290:         prot_addr = LOC_PROTCMD0;
                        7250 --line2290
                        7251 ..lin.C.3A.5Cgit.5Crh850.5Csrc.5Capp.5Cgfx_apps.5Csimple_draw.5Ctarget.5Cd1mx_mango_ghs.5Cobj.5Cr_dev_clk.416::
                        7252 .LDWlin416:
00001a16 40eef8ff       7253 	movhi	hi(-524288),zero,r29
00001a1a b50d*          7254 	br	.L7454
                        7255 .L7457:
                        7256 --2291:         break;
                        7257 --2292:     case R_DEV_PLL0:
                        7258 --2293:     case R_DEV_PLL1:
                        7259 --2294:         prot_addr = LOC_PROTCMD1;
                        7260 --line2294
                        7261 ..lin.C.3A.5Cgit.5Crh850.5Csrc.5Capp.5Cgfx_apps.5Csimple_draw.5Ctarget.5Cd1mx_mango_ghs.5Cobj.5Cr_dev_clk.417::
                        7262 .LDWlin417:
00001a1c 3d060080f8ff   7263 	mov	-491520,r29
00001a22 f505*          7264 	br	.L7454
                        7265 .L7458:
                        7266 --2295:         break;
                        7267 --2296:     case R_DEV_PLL2:
                        7268 --2297:         prot_addr = LOC_PROTCMDD1;
                        7269 --line2297
                        7270 ..lin.C.3A.5Cgit.5Crh850.5Csrc.5Capp.5Cgfx_apps.5Csimple_draw.5Ctarget.5Cd1mx_mango_ghs.5Cobj.5Cr_dev_clk.418::

                                                                      Page 125
                                                              C:\Users\Frank\AppData\Local\Temp\gh_0000p9g1.si
                        7271 .LDWlin418:
00001a24 3d060070f8ff   7272 	mov	-495616,r29
00001a2a b505*          7273 	br	.L7454
                        7274 .L7459:
                        7275 --2298:         break;
                        7276 --2299:     default:
                        7277 --2300:        ret_val = R_PARAMETER_RANGE;
                        7278 --line2300
                        7279 ..lin.C.3A.5Cgit.5Crh850.5Csrc.5Capp.5Cgfx_apps.5Csimple_draw.5Ctarget.5Cd1mx_mango_ghs.5Cobj.5Cr_dev_clk.419::
                        7280 .LDWlin419:
00001a2c 03da           7281 	mov	3,r27
00001a2e 0000           7282 	nop
                        7283 .L7454:
                        7284 --2301:        break;
                        7285 --2302:     }
                        7286 --2303:     if (R_PARAMETER_RANGE != ret_val)
00001a30 63da           7287 	cmp	3,r27
00001a32 d225*          7288 	be	.L7460
                        7289 --2304:     {
                        7290 --2305:         /* now set start trigger */
                        7291 --2306:         reg_val |= 0x1u;
                        7292 --line2306
                        7293 ..lin.C.3A.5Cgit.5Crh850.5Csrc.5Capp.5Cgfx_apps.5Csimple_draw.5Ctarget.5Cd1mx_mango_ghs.5Cobj.5Cr_dev_clk.420::
                        7294 .LDWlin420:
00001a34 9ce60100       7295 	ori	1,r28,r28
                        7296 --2307:         R_DEV_WRITE_PROT_REG(prot_addr, addr, reg_val);
                        7297 --	    .bs
                        7298 .LDW68:
00001a38 00ca           7299 	mov	0,r25
00001a3a 63070100       7300 	st.w	zero,0[sp]
00001a3e 005a           7301 	mov	0,r11
                        7302 .L7464:
00001a40 200ea500       7303 	movea	165,zero,r1
00001a44 7d0f0100       7304 	st.w	r1,0[r29]
00001a48 7ae70100       7305 	st.w	r28,0[r26]
00001a4c 3c08           7306 	not	r28,r1
00001a4e 7a0f0100       7307 	st.w	r1,0[r26]
00001a52 7ae70100       7308 	st.w	r28,0[r26]
00001a56 3dcf0500       7309 	ld.w	4[r29],r25
00001a5a 3a5f0100       7310 	ld.w	0[r26],r11
00001a5e 635f0100       7311 	st.w	r11,0[sp]
00001a62 235f0100       7312 	ld.w	0[sp],r11
00001a66 fc59           7313 	cmp	r28,r11
00001a68 b205*          7314 	be	.L7462
00001a6a e0c9           7315 	cmp	zero,r25
00001a6c aaed*          7316 	bne	.L7464
                        7317 .L7462:
                        7318 --	    .es
                        7319 .LDW78:
                        7320 --2308:         /* wait for status */
                        7321 --2309:         while (0 == R_DEV_ClkGenActive(ClkGen))
                        7322 .L7466:
                        7323 --2310:         {
                        7324 --line2309
                        7325 ..lin.C.3A.5Cgit.5Crh850.5Csrc.5Capp.5Cgfx_apps.5Csimple_draw.5Ctarget.5Cd1mx_mango_ghs.5Cobj.5Cr_dev_clk.421::
                        7326 .LDWlin421:
00001a6e 23370500       7327 	ld.w	4[sp],r6
                        7328 	jarl	_R_DEV_ClkGenActive,lp
                        7328 <EXPANSION BEGIN>
                        7328 jarl22 _R_DEV_ClkGenActive , lp 
00001a72 bfff86f1*      7328 <EXPANSION END>

                                                                      Page 126
                                                              C:\Users\Frank\AppData\Local\Temp\gh_0000p9g1.si
00001a76 e051           7329 	cmp	zero,r10
00001a78 b2fd*          7330 	be	.L7466
                        7331 --2311:              
                        7332 --2312:         }
                        7333 --2313:         ret_val = R_ERR_OK;
                        7334 --line2313
                        7335 ..lin.C.3A.5Cgit.5Crh850.5Csrc.5Capp.5Cgfx_apps.5Csimple_draw.5Ctarget.5Cd1mx_mango_ghs.5Cobj.5Cr_dev_clk.422::
                        7336 .LDWlin422:
00001a7a 00da           7337 	mov	0,r27
                        7338 .L7460:
                        7339 --2314:     }
                        7340 --2315:     return ret_val;
00001a7c 1b50           7341 	mov	r27,r10
                        7342 --	    .ef
                        7343 .LDW88:
00001a7e 4406ff70       7344 	dispose	2,{r25,r26,r27,r28,r29,r31},[lp]
                        7345 	.type	_R_DEV_ClkGenStart,@function
                        7346 	.size	_R_DEV_ClkGenStart,.-_R_DEV_ClkGenStart
                        7347 	.align	2
                        7348 .LDW98:
                        7349 --_addr	r26	local
                        7350 --_reg_val	r28	local
                        7351 --_prot_addr	r29	local
                        7352 --_ret_val	r27	local
                        7353 --_prot_stat	r25	local
                        7354 --_new_val	0[sp]	local
                        7355 
                        7356 --_ClkGen	4[sp]	param
                        7357 
                        7358 	.section ".bss","awb"
                        7359 .L7602:
                        7360 	.type	.L7602,@object
                        7361 	.size	.L7602,0
                        7362 	.data
                        7363 	.text
                        7364 
                        7365 --2316: }
                        7366 
                        7367 --2318: /*******************************************************************************
                        7368 --2319:   Function: R_DEV_MoscCfg
                        7369 --2321:   see: <r_dev_clk_types.h> for details
                        7370 --2322: */
                        7371 --2323: r_Error_t R_DEV_MoscCfg(const r_dev_MoscCfg_t * ClkCfg)
                        7372 	.align	2
                        7373 	.align	2
                        7374 	.global	_R_DEV_MoscCfg
                        7375 _R_DEV_MoscCfg:
00001a82 8407e170       7376 	prepare	{r25,r26,r27,r28,r29,r31},2
00001a86 210600000000*  7377 	mov	_loc_Base+16,r1
00001a8c 630f0500       7378 	st.w	r1,4[sp]
00001a90 06d8           7379 	mov	r6,r27
                        7380 --	    .bf
                        7381 .LDW09:
                        7382 --2324: {
                        7383 --2325:     uint32_t  addr    = 0 ;
00001a92 00e2           7384 	mov	0,r28
                        7385 --2326:     uint32_t  reg_val = 0 ;
00001a94 00ea           7386 	mov	0,r29
                        7387 --2327:     r_Error_t ret_val = R_NG;
00001a96 01d2           7388 	mov	1,r26
                        7389 --2329:     /* We have to stop before the settings can be written  */

                                                                      Page 127
                                                              C:\Users\Frank\AppData\Local\Temp\gh_0000p9g1.si
                        7390 --2330:     if (0 != R_DEV_ClkGenActive(R_DEV_MOSC))
00001a98 0432           7391 	mov	4,r6
                        7392 	jarl	_R_DEV_ClkGenActive,lp
                        7392 <EXPANSION BEGIN>
                        7392 jarl22 _R_DEV_ClkGenActive , lp 
00001a9a bfff5ef1*      7392 <EXPANSION END>
00001a9e e051           7393 	cmp	zero,r10
00001aa0 920d*          7394 	be	.L7710
                        7395 --2331:     {
                        7396 --2332:          R_DEV_ClkGenStop(R_DEV_MOSC);
                        7397 --line2332
                        7398 ..lin.C.3A.5Cgit.5Crh850.5Csrc.5Capp.5Cgfx_apps.5Csimple_draw.5Ctarget.5Cd1mx_mango_ghs.5Cobj.5Cr_dev_clk.423::
                        7399 .LDWlin423:
00001aa2 0432           7400 	mov	4,r6
                        7401 	jarl	_R_DEV_ClkGenStop,lp
                        7401 <EXPANSION BEGIN>
                        7401 jarl22 _R_DEV_ClkGenStop , lp 
00001aa4 bfffaefe*      7401 <EXPANSION END>
                        7402 --2333:          while (0 != R_DEV_ClkGenActive(R_DEV_MOSC))
                        7403 .L7712:
                        7404 --2334:          {
                        7405 --line2333
                        7406 ..lin.C.3A.5Cgit.5Crh850.5Csrc.5Capp.5Cgfx_apps.5Csimple_draw.5Ctarget.5Cd1mx_mango_ghs.5Cobj.5Cr_dev_clk.424::
                        7407 .LDWlin424:
00001aa8 0432           7408 	mov	4,r6
                        7409 	jarl	_R_DEV_ClkGenActive,lp
                        7409 <EXPANSION BEGIN>
                        7409 jarl22 _R_DEV_ClkGenActive , lp 
00001aaa bfff4ef1*      7409 <EXPANSION END>
00001aae e051           7410 	cmp	zero,r10
00001ab0 cafd*          7411 	bne	.L7712
                        7412 .L7710:
                        7413 --2335:          }
                        7414 --2336:     }
                        7415 --2337:     /* Stabi time: for X1X it's
                        7416 --2338:         reg_val = (ClkCfg->StabiTimeNs * 8) /  1000   HS ring active:
                        7417 --2339:         or      = (ClkCfg->StabiTimeNs *24) / 100000 HS ring stopped :
                        7418 --2340:     */
                        7419 --2341:     if (0 != R_DEV_ClkGenActive(R_DEV_HS_RING))
                        7420 --line2341
                        7421 ..lin.C.3A.5Cgit.5Crh850.5Csrc.5Capp.5Cgfx_apps.5Csimple_draw.5Ctarget.5Cd1mx_mango_ghs.5Cobj.5Cr_dev_clk.425::
                        7422 .LDWlin425:
00001ab2 0332           7423 	mov	3,r6
                        7424 	jarl	_R_DEV_ClkGenActive,lp
                        7424 <EXPANSION BEGIN>
                        7424 jarl22 _R_DEV_ClkGenActive , lp 
00001ab4 bfff44f1*      7424 <EXPANSION END>
00001ab8 e051           7425 	cmp	zero,r10
00001aba c20d*          7426 	be	.L7715
                        7427 --2342:     {
                        7428 --2343:         reg_val = (ClkCfg->StabiTimeNs * 8u) /  1000u;
                        7429 --line2343
                        7430 ..lin.C.3A.5Cgit.5Crh850.5Csrc.5Capp.5Cgfx_apps.5Csimple_draw.5Ctarget.5Cd1mx_mango_ghs.5Cobj.5Cr_dev_clk.426::
                        7431 .LDWlin426:
00001abc 3b0f0500       7432 	ld.w	4[r27],r1
00001ac0 2c06d34d6210   7433 	mov	274877907,r12
00001ac6 c30a           7434 	shl	3,r1
00001ac8 e167226a       7435 	mulu	r1,r12,r13
00001acc 0de8           7436 	mov	r13,r29
00001ace 86ea           7437 	shr	6,r29
00001ad0 f50d*          7438 	br	.L7717

                                                                      Page 128
                                                              C:\Users\Frank\AppData\Local\Temp\gh_0000p9g1.si
                        7439 .L7715:
                        7440 --2344:     }
                        7441 --2345:     else
                        7442 --2346:     {
                        7443 --2347:         reg_val = (ClkCfg->StabiTimeNs * 24u) /  100000u;
                        7444 --line2347
                        7445 ..lin.C.3A.5Cgit.5Crh850.5Csrc.5Capp.5Cgfx_apps.5Csimple_draw.5Ctarget.5Cd1mx_mango_ghs.5Cobj.5Cr_dev_clk.427::
                        7446 .LDWlin427:
00001ad2 3b0f0500       7447 	ld.w	4[r27],r1
00001ad6 f80f4202       7448 	mulu	24,r1,zero
00001ada 01e8           7449 	mov	r1,r29
00001adc 85ea           7450 	shr	5,r29
00001ade 2106c55a7c0a   7451 	mov	175921861,r1
00001ae4 1d60           7452 	mov	r29,r12
00001ae6 e167226a       7453 	mulu	r1,r12,r13
00001aea 0de8           7454 	mov	r13,r29
00001aec 87ea           7455 	shr	7,r29
                        7456 .L7717:
                        7457 --2348:     }
                        7458 --2349:     addr    = loc_Base[R_DEV_MOSC] + LOC_GEN_STABI;
00001aee 23e70500       7459 	ld.w	4[sp],r28
00001af2 3ce70100       7460 	ld.w	0[r28],r28
00001af6 4ce2           7461 	add	12,r28
                        7462 --2350:     R_DEV_WRITE_REG(32, addr, reg_val);
00001af8 7cef0100       7463 	st.w	r29,0[r28]
                        7464 --2352:     /* Gain: */
                        7465 --2353:     reg_val = ClkCfg->Gain;
00001afc 9bef0900       7466 	ld.bu	8[r27],r29
                        7467 --2354:     /* required setting according to UM */
                        7468 --2355:     reg_val |= 0x4u;
00001b00 9dee0400       7469 	ori	4,r29,r29
                        7470 --2356:     addr    = loc_Base[R_DEV_MOSC] + LOC_GEN_C;
00001b04 23e70500       7471 	ld.w	4[sp],r28
00001b08 3ce70100       7472 	ld.w	0[r28],r28
00001b0c 48e2           7473 	add	8,r28
                        7474 --2357:     R_DEV_WRITE_REG(32, addr, reg_val);
00001b0e 7cef0100       7475 	st.w	r29,0[r28]
                        7476 --2358:    
                        7477 --2359:     /* Check if register values fit  */
                        7478 --2360:     if (R_DEV_READ_REG(32, addr) == reg_val)
00001b12 3c0f0100       7479 	ld.w	0[r28],r1
00001b16 fd09           7480 	cmp	r29,r1
00001b18 fa3d*          7481 	bne	.L7718
                        7482 --2361:     {
                        7483 --2362:         /* Continue configuraton */
                        7484 --2363:         if (0 != ClkCfg->Running)
                        7485 --line2363
                        7486 ..lin.C.3A.5Cgit.5Crh850.5Csrc.5Capp.5Cgfx_apps.5Csimple_draw.5Ctarget.5Cd1mx_mango_ghs.5Cobj.5Cr_dev_clk.428::
                        7487 .LDWlin428:
00001b1a bb0f0900       7488 	ld.bu	9[r27],r1
00001b1e e009           7489 	cmp	zero,r1
00001b20 c225*          7490 	be	.L7720
                        7491 --2364:         {
                        7492 --2365:             addr    = loc_Base[R_DEV_MOSC] + LOC_GEN_E;
                        7493 --line2365
                        7494 ..lin.C.3A.5Cgit.5Crh850.5Csrc.5Capp.5Cgfx_apps.5Csimple_draw.5Ctarget.5Cd1mx_mango_ghs.5Cobj.5Cr_dev_clk.429::
                        7495 .LDWlin429:
00001b22 23e70500       7496 	ld.w	4[sp],r28
00001b26 3ce70100       7497 	ld.w	0[r28],r28
                        7498 --2366:             R_DEV_WRITE_PROT_REG(LOC_PROTCMD0, addr, (uint32_t)1u);
                        7499 --	    .bs

                                                                      Page 129
                                                              C:\Users\Frank\AppData\Local\Temp\gh_0000p9g1.si
                        7500 .LDW19:
00001b2a 00ca           7501 	mov	0,r25
00001b2c 63070100       7502 	st.w	zero,0[sp]
00001b30 005a           7503 	mov	0,r11
                        7504 .L7724:
00001b32 200ea500       7505 	movea	165,zero,r1
00001b36 80070f0800f0   7506 	st.w	r1,4294443008[zero]
00001b3c 010a           7507 	mov	1,r1
00001b3e 7c0f0100       7508 	st.w	r1,0[r28]
00001b42 1e0a           7509 	mov	-2,r1
00001b44 7c0f0100       7510 	st.w	r1,0[r28]
00001b48 010a           7511 	mov	1,r1
00001b4a 7c0f0100       7512 	st.w	r1,0[r28]
00001b4e 800749c800f0   7513 	ld.w	4294443012[zero],r25
00001b54 3c5f0100       7514 	ld.w	0[r28],r11
00001b58 635f0100       7515 	st.w	r11,0[sp]
00001b5c 235f0100       7516 	ld.w	0[sp],r11
00001b60 615a           7517 	cmp	1,r11
00001b62 b205*          7518 	be	.L7720
00001b64 e0c9           7519 	cmp	zero,r25
00001b66 eae5*          7520 	bne	.L7724
                        7521 --	    .es
                        7522 .LDW29:
                        7523 .L7720:
                        7524 --2367:         }
                        7525 --2368:         /* It is mandatory to set bit 1 in  any case */
                        7526 --2369:         if (0 != ClkCfg->StpReqMsk)
                        7527 --line2369
                        7528 ..lin.C.3A.5Cgit.5Crh850.5Csrc.5Capp.5Cgfx_apps.5Csimple_draw.5Ctarget.5Cd1mx_mango_ghs.5Cobj.5Cr_dev_clk.430::
                        7529 .LDWlin430:
00001b68 9b0f0b00       7530 	ld.bu	10[r27],r1
00001b6c e009           7531 	cmp	zero,r1
00001b6e b205*          7532 	be	.L7726
                        7533 --2370:         {
                        7534 --2371:            
                        7535 --2372:             reg_val = 0x03u;
                        7536 --line2372
                        7537 ..lin.C.3A.5Cgit.5Crh850.5Csrc.5Capp.5Cgfx_apps.5Csimple_draw.5Ctarget.5Cd1mx_mango_ghs.5Cobj.5Cr_dev_clk.431::
                        7538 .LDWlin431:
00001b70 03ea           7539 	mov	3,r29
00001b72 a505*          7540 	br	.L7728
                        7541 .L7726:
                        7542 --2373:         }
                        7543 --2374:         else
                        7544 --2375:         {
                        7545 --2376:             reg_val = 0x02u;
                        7546 --line2376
                        7547 ..lin.C.3A.5Cgit.5Crh850.5Csrc.5Capp.5Cgfx_apps.5Csimple_draw.5Ctarget.5Cd1mx_mango_ghs.5Cobj.5Cr_dev_clk.432::
                        7548 .LDWlin432:
00001b74 02ea           7549 	mov	2,r29
                        7550 .L7728:
                        7551 --2377:         }
                        7552 --2378:         addr    = loc_Base[R_DEV_MOSC] + LOC_GEN_STPMSK;
00001b76 23e70500       7553 	ld.w	4[sp],r28
00001b7a 3ce70100       7554 	ld.w	0[r28],r28
00001b7e 1ce61800       7555 	addi	24,r28,r28
                        7556 --2379:         R_DEV_WRITE_REG(32, addr, reg_val);
00001b82 7cef0100       7557 	st.w	r29,0[r28]
                        7558 --2381:         /* Do not store the settings - this has to be done separately  */
                        7559 --2382:         
                        7560 --2383:         /* Proceed - wait for the setting to take effect */

                                                                      Page 130
                                                              C:\Users\Frank\AppData\Local\Temp\gh_0000p9g1.si
                        7561 --2384:         R_DBG_PRINT(R_DBG_MSG_INFO, "Wait for setting to take effect");
                        7562 --2385:         while (R_DEV_ClkGenActive(R_DEV_MOSC) != ClkCfg->Running)
                        7563 .L7729:
                        7564 --2386:         {
00001b86 0432           7565 	mov	4,r6
                        7566 	jarl	_R_DEV_ClkGenActive,lp
                        7566 <EXPANSION BEGIN>
                        7566 jarl22 _R_DEV_ClkGenActive , lp 
00001b88 bfff70f0*      7566 <EXPANSION END>
00001b8c bb0f0900       7567 	ld.bu	9[r27],r1
00001b90 e151           7568 	cmp	r1,r10
00001b92 aafd*          7569 	bne	.L7729
                        7570 --2387:              
                        7571 --2388:         }
                        7572 --2389:         ret_val = R_ERR_OK;
                        7573 --line2389
                        7574 ..lin.C.3A.5Cgit.5Crh850.5Csrc.5Capp.5Cgfx_apps.5Csimple_draw.5Ctarget.5Cd1mx_mango_ghs.5Cobj.5Cr_dev_clk.433::
                        7575 .LDWlin433:
00001b94 00d2           7576 	mov	0,r26
                        7577 .L7718:
                        7578 --2390:     }
                        7579 --2391:     return ret_val;
00001b96 1a50           7580 	mov	r26,r10
                        7581 --	    .ef
                        7582 .LDW39:
00001b98 4406ff70       7583 	dispose	2,{r25,r26,r27,r28,r29,r31},[lp]
                        7584 	.type	_R_DEV_MoscCfg,@function
                        7585 	.size	_R_DEV_MoscCfg,.-_R_DEV_MoscCfg
                        7586 	.align	2
                        7587 .LDW49:
                        7588 --_addr	r28	local
                        7589 --_reg_val	r29	local
                        7590 --_ret_val	r26	local
                        7591 --_prot_stat	r25	local
                        7592 --_new_val	0[sp]	local
                        7593 
                        7594 --_ClkCfg	r27	param
                        7595 
                        7596 	.section ".bss","awb"
                        7597 .L7940:
                        7598 	.type	.L7940,@object
                        7599 	.size	.L7940,0
                        7600 	.data
                        7601 	.text
                        7602 
                        7603 --2392: }
                        7604 
                        7605 --2394: /*******************************************************************************
                        7606 --2395:   Function: R_DEV_SubOscCfg
                        7607 --2396:  
                        7608 --2397:     see: <r_dev_clk_types.h> for details
                        7609 --2399: */
                        7610 --2400: r_Error_t R_DEV_SubOscCfg(const r_dev_SubOscCfg_t * ClkCfg)
                        7611 	.align	2
                        7612 	.align	2
                        7613 	.global	_R_DEV_SubOscCfg
                        7614 _R_DEV_SubOscCfg:
00001b9c 8207e170       7615 	prepare	{r25,r26,r27,r28,r29,r31},1
00001ba0 63370100       7616 	st.w	r6,0[sp]
                        7617 --	    .bf
                        7618 .LDW59:

                                                                      Page 131
                                                              C:\Users\Frank\AppData\Local\Temp\gh_0000p9g1.si
                        7619 --2401: {
                        7620 --2402:     uint32_t  addr    = 0 ;
00001ba4 00e2           7621 	mov	0,r28
                        7622 --2403:     uint32_t  reg_val = 0 ;
00001ba6 00ea           7623 	mov	0,r29
                        7624 --2404:     r_Error_t ret_val = R_NG;
00001ba8 01da           7625 	mov	1,r27
                        7626 --2405:     
                        7627 --2406:     addr    = loc_Base[R_DEV_SOSC] + LOC_GEN_E;
00001baa 3c0600000000*  7628 	mov	_loc_Base+20,r28
00001bb0 3ce70100       7629 	ld.w	0[r28],r28
                        7630 --2407:     /* Do we have a status change? */
                        7631 --2408:     if (0u != ClkCfg->Running)
00001bb4 235f0100       7632 	ld.w	0[sp],r11
00001bb8 8b0f0500       7633 	ld.bu	4[r11],r1
00001bbc e009           7634 	cmp	zero,r1
00001bbe c205*          7635 	be	.L8073
                        7636 --2409:     {
                        7637 --2410:         reg_val |= 0x01u;
                        7638 --line2410
                        7639 ..lin.C.3A.5Cgit.5Crh850.5Csrc.5Capp.5Cgfx_apps.5Csimple_draw.5Ctarget.5Cd1mx_mango_ghs.5Cobj.5Cr_dev_clk.434::
                        7640 .LDWlin434:
00001bc0 9dee0100       7641 	ori	1,r29,r29
00001bc4 b505*          7642 	br	.L8075
                        7643 .L8073:
                        7644 --2411:     }
                        7645 --2412:     else
                        7646 --2413:     {
                        7647 --2414:         reg_val |= 0x02u;
                        7648 --line2414
                        7649 ..lin.C.3A.5Cgit.5Crh850.5Csrc.5Capp.5Cgfx_apps.5Csimple_draw.5Ctarget.5Cd1mx_mango_ghs.5Cobj.5Cr_dev_clk.435::
                        7650 .LDWlin435:
00001bc6 9dee0200       7651 	ori	2,r29,r29
                        7652 .L8075:
                        7653 --2415:     }
                        7654 --2416:     R_DEV_WRITE_PROT_REG(LOC_PROTCMD0, addr, reg_val);
                        7655 --	    .bs
                        7656 .LDW69:
00001bca 00d2           7657 	mov	0,r26
00001bcc 00ca           7658 	mov	0,r25
                        7659 .L8078:
00001bce 200ea500       7660 	movea	165,zero,r1
00001bd2 80070f0800f0   7661 	st.w	r1,4294443008[zero]
00001bd8 7cef0100       7662 	st.w	r29,0[r28]
00001bdc 3d08           7663 	not	r29,r1
00001bde 7c0f0100       7664 	st.w	r1,0[r28]
00001be2 7cef0100       7665 	st.w	r29,0[r28]
00001be6 800749d000f0   7666 	ld.w	4294443012[zero],r26
00001bec 3ccf0100       7667 	ld.w	0[r28],r25
00001bf0 fdc9           7668 	cmp	r29,r25
00001bf2 b205*          7669 	be	.L8076
00001bf4 e0d1           7670 	cmp	zero,r26
00001bf6 caed*          7671 	bne	.L8078
                        7672 .L8076:
                        7673 --	    .es
                        7674 .LDW79:
                        7675 --2417:     /* Do not store the settings - this has to be done separately  */
                        7676 --2419:     /* Proceed - wait for the setting to take effect */
                        7677 --2420:     while (R_DEV_ClkGenActive(R_DEV_SOSC) != ClkCfg->Running)
                        7678 .L8080:
                        7679 --2421:     {

                                                                      Page 132
                                                              C:\Users\Frank\AppData\Local\Temp\gh_0000p9g1.si
                        7680 --line2420
                        7681 ..lin.C.3A.5Cgit.5Crh850.5Csrc.5Capp.5Cgfx_apps.5Csimple_draw.5Ctarget.5Cd1mx_mango_ghs.5Cobj.5Cr_dev_clk.436::
                        7682 .LDWlin436:
00001bf8 0532           7683 	mov	5,r6
                        7684 	jarl	_R_DEV_ClkGenActive,lp
                        7684 <EXPANSION BEGIN>
                        7684 jarl22 _R_DEV_ClkGenActive , lp 
00001bfa bffffeef*      7684 <EXPANSION END>
00001bfe 235f0100       7685 	ld.w	0[sp],r11
00001c02 8b0f0500       7686 	ld.bu	4[r11],r1
00001c06 e151           7687 	cmp	r1,r10
00001c08 8afd*          7688 	bne	.L8080
                        7689 --2422:          
                        7690 --2423:     }
                        7691 --2424:     ret_val = R_ERR_OK;
                        7692 --line2424
                        7693 ..lin.C.3A.5Cgit.5Crh850.5Csrc.5Capp.5Cgfx_apps.5Csimple_draw.5Ctarget.5Cd1mx_mango_ghs.5Cobj.5Cr_dev_clk.437::
                        7694 .LDWlin437:
00001c0a 00da           7695 	mov	0,r27
                        7696 --2425:     return ret_val;
00001c0c 1b50           7697 	mov	r27,r10
                        7698 --	    .ef
                        7699 .LDW89:
00001c0e 4206ff70       7700 	dispose	1,{r25,r26,r27,r28,r29,r31},[lp]
                        7701 	.type	_R_DEV_SubOscCfg,@function
                        7702 	.size	_R_DEV_SubOscCfg,.-_R_DEV_SubOscCfg
                        7703 	.align	2
                        7704 .LDW99:
                        7705 --_addr	r28	local
                        7706 --_reg_val	r29	local
                        7707 --_ret_val	r27	local
                        7708 --_prot_stat	r26	local
                        7709 --_new_val	r25	local
                        7710 
                        7711 --_ClkCfg	0[sp]	param
                        7712 
                        7713 	.section ".bss","awb"
                        7714 .L8194:
                        7715 	.type	.L8194,@object
                        7716 	.size	.L8194,0
                        7717 	.data
                        7718 	.text
                        7719 
                        7720 --2426: }
                        7721 
                        7722 --2428: /*******************************************************************************
                        7723 --2429:   Function: R_DEV_SetGenStopMask
                        7724 --2431:     se: <r_dev_api.h> for details
                        7725 --2433: */
                        7726 --2434: r_Error_t R_DEV_SetGenStopMask(r_dev_ClkGen_t ClkGen, uint8_t Val)
                        7727 	.align	2
                        7728 	.align	2
                        7729 	.global	_R_DEV_SetGenStopMask
                        7730 _R_DEV_SetGenStopMask:
00001c12 210600000000*  7731 	mov	_loc_ClkGenCfg,r1
00001c18 0658           7732 	mov	r6,r11
00001c1a c766ff00       7733 	andi	255,r7,r12
00001c1e 0148           7734 	mov	r1,r9
                        7735 --	    .bf
                        7736 .LDW001:
                        7737 --2435: {

                                                                      Page 133
                                                              C:\Users\Frank\AppData\Local\Temp\gh_0000p9g1.si
                        7738 --2436:     uint32_t  addr    = 0 ;
00001c20 00f2           7739 	mov	0,ep
                        7740 --2437:     uint32_t  reg_val = 0 ;
00001c22 0072           7741 	mov	0,r14
                        7742 --2438:     r_Error_t ret_val = R_NG;
00001c24 016a           7743 	mov	1,r13
                        7744 --2440:     addr    = loc_Base[ClkGen] + LOC_GEN_STPMSK;
00001c26 0b50           7745 	mov	r11,r10
00001c28 c252           7746 	shl	2,r10
00001c2a 280600000000*  7747 	mov	_loc_Base,r8
00001c30 c851           7748 	add	r8,r10
00001c32 2af70100       7749 	ld.w	0[r10],ep
00001c36 1ef61800       7750 	addi	24,ep,ep
                        7751 --2441:     switch (ClkGen)
00001c3a 635a           7752 	cmp	3,r11
00001c3c c205*          7753 	be	.L8273
00001c3e 645a           7754 	cmp	4,r11
00001c40 8a0d*          7755 	bne	.L8275
00001c42 c505*          7756 	br	.L8274
                        7757 .L8273:
                        7758 --2442:     {
                        7759 --2443:     case R_DEV_HS_RING:
                        7760 --2444:         loc_ClkGenCfg.RoscStpReqMsk       = Val;
                        7761 --line2444
                        7762 ..lin.C.3A.5Cgit.5Crh850.5Csrc.5Capp.5Cgfx_apps.5Csimple_draw.5Ctarget.5Cd1mx_mango_ghs.5Cobj.5Cr_dev_clk.438::
                        7763 .LDWlin438:
00001c44 41676800       7764 	st.b	r12,104[r1]
00001c48 e505*          7765 	br	.L8271
                        7766 .L8274:
                        7767 --2445:         break;
                        7768 --2446:     case R_DEV_MOSC:
                        7769 --2447:         loc_ClkGenCfg.MainOsc.StpReqMsk   = Val;
                        7770 --line2447
                        7771 ..lin.C.3A.5Cgit.5Crh850.5Csrc.5Capp.5Cgfx_apps.5Csimple_draw.5Ctarget.5Cd1mx_mango_ghs.5Cobj.5Cr_dev_clk.439::
                        7772 .LDWlin439:
00001c4a 41670a00       7773 	st.b	r12,10[r1]
00001c4e b505*          7774 	br	.L8271
                        7775 .L8275:
                        7776 --2448:         break;
                        7777 --2449:     default:
                        7778 --2450:         ret_val = R_PARAMETER_RANGE;
                        7779 --line2450
                        7780 ..lin.C.3A.5Cgit.5Crh850.5Csrc.5Capp.5Cgfx_apps.5Csimple_draw.5Ctarget.5Cd1mx_mango_ghs.5Cobj.5Cr_dev_clk.440::
                        7781 .LDWlin440:
00001c50 036a           7782 	mov	3,r13
00001c52 0000           7783 	nop
                        7784 .L8271:
                        7785 --2451:         break;
                        7786 --2452:     }
                        7787 --2453:     if (R_PARAMETER_RANGE != ret_val)
00001c54 636a           7788 	cmp	3,r13
00001c56 d20d*          7789 	be	.L8276
                        7790 --2454:     {
                        7791 --2455:         if (0u != Val)
                        7792 --line2455
                        7793 ..lin.C.3A.5Cgit.5Crh850.5Csrc.5Capp.5Cgfx_apps.5Csimple_draw.5Ctarget.5Cd1mx_mango_ghs.5Cobj.5Cr_dev_clk.441::
                        7794 .LDWlin441:
00001c58 e061           7795 	cmp	zero,r12
00001c5a a205*          7796 	be	.L8278
                        7797 --2456:         {
                        7798 --2457:             reg_val = LOC_STOP_MASKED_SET;

                                                                      Page 134
                                                              C:\Users\Frank\AppData\Local\Temp\gh_0000p9g1.si
                        7799 --line2457
                        7800 ..lin.C.3A.5Cgit.5Crh850.5Csrc.5Capp.5Cgfx_apps.5Csimple_draw.5Ctarget.5Cd1mx_mango_ghs.5Cobj.5Cr_dev_clk.442::
                        7801 .LDWlin442:
00001c5c 0172           7802 	mov	1,r14
                        7803 .L8278:
                        7804 --2458:         }
                        7805 --2459:         /* It is mandatory to set bit 1 in  any case */
                        7806 --2460:         reg_val |= 0x2u;
00001c5e 8e760200       7807 	ori	2,r14,r14
                        7808 --2461:         /* Write the value */
                        7809 --2462:         R_DEV_WRITE_REG(32, addr, reg_val);
00001c62 0175           7810 	sst.w	r14,0[ep]
                        7811 --2463:         /* Check the value */
                        7812 --2464:         if ((R_DEV_READ_REG(32, addr) & (LOC_STOP_MASKED_SET | 0x2u)) == reg_val)
00001c64 0055           7813 	sld.w	0[ep],r10
00001c66 ca560300       7814 	andi	3,r10,r10
00001c6a ee51           7815 	cmp	r14,r10
00001c6c aa05*          7816 	bne	.L8276
                        7817 --2465:         {
                        7818 --2466:             ret_val = R_ERR_OK;
                        7819 --line2466
                        7820 ..lin.C.3A.5Cgit.5Crh850.5Csrc.5Capp.5Cgfx_apps.5Csimple_draw.5Ctarget.5Cd1mx_mango_ghs.5Cobj.5Cr_dev_clk.443::
                        7821 .LDWlin443:
00001c6e 006a           7822 	mov	0,r13
                        7823 .L8276:
                        7824 --2467:         }
                        7825 --2468:     }
                        7826 --2469:     return ret_val;
00001c70 0d50           7827 	mov	r13,r10
                        7828 --	    .ef
                        7829 .LDW101:
00001c72 7f00           7830 	jmp	[lp]
                        7831 	.type	_R_DEV_SetGenStopMask,@function
                        7832 	.size	_R_DEV_SetGenStopMask,.-_R_DEV_SetGenStopMask
                        7833 	.align	2
                        7834 .LDW201:
                        7835 --_addr	ep	local
                        7836 --_reg_val	r14	local
                        7837 --_ret_val	r13	local
                        7838 
                        7839 --_ClkGen	r11	param
                        7840 --_Val	r12	param
                        7841 
                        7842 	.data
                        7843 	.text
                        7844 
                        7845 --2470: }
                        7846 
                        7847 --2472: /*******************************************************************************
                        7848 --2473:   Function: R_DEV_ClkPllCfg
                        7849 --2475:     se: <r_dev_clk_types.h> for details
                        7850 --2476: */
                        7851 --2478: r_Error_t R_DEV_PllCfg(uint32_t FrqIn, r_dev_ClkGen_t Pll, const r_dev_PllCfg_t *PllCfg)
                        7852 	.align	2
                        7853 	.align	2
                        7854 	.global	_R_DEV_PllCfg
                        7855 _R_DEV_PllCfg:
00001c74 8407e170       7856 	prepare	{r25,r26,r27,r28,r29,r31},2
00001c78 06d0           7857 	mov	r6,r26
00001c7a 07e0           7858 	mov	r7,r28
00001c7c 08c8           7859 	mov	r8,r25

                                                                      Page 135
                                                              C:\Users\Frank\AppData\Local\Temp\gh_0000p9g1.si
                        7860 --	    .bf
                        7861 .LDW301:
                        7862 --2479: {
                        7863 --2480:     uint32_t          freq_out  = PllCfg->FrequencyHz/1000000u;
00001c7e 39771100       7864 	ld.w	16[r25],r14
00001c82 2c0683de1b43   7865 	mov	1125899907,r12
00001c88 ee67226a       7866 	mulu	r14,r12,r13
00001c8c 0d08           7867 	mov	r13,r1
00001c8e 920a           7868 	shr	18,r1
00001c90 630f0100       7869 	st.w	r1,0[sp]
                        7870 --2481:     r_Error_t         ret_val   = R_NG;
00001c94 01ea           7871 	mov	1,r29
                        7872 --2482:     uint32_t          regval    = 0;
00001c96 00da           7873 	mov	0,r27
                        7874 --2483:     loc_PllCfgReg_t   pllcfg_reg;
                        7875 --2484:     /* This one is not needed here */
                        7876 --2485:     Pll = Pll;
00001c98 0000           7877 	nop
                        7878 --2486:     
                        7879 --2487:     /* Clear Config */
                        7880 --2488:     pllcfg_reg.NI       = 0;
00001c9a 830f0500       7881 	ld.bu	4[sp],r1
00001c9e c10e8000       7882 	andi	128,r1,r1
00001ca2 430f0400       7883 	st.b	r1,4[sp]
                        7884 --2489:     pllcfg_reg.P        = 0;
00001ca6 e30f0500       7885 	ld.hu	4[sp],r1
00001caa c10e7ffc       7886 	andi	64639,r1,r1
00001cae 630f0400       7887 	st.h	r1,4[sp]
                        7888 --2490:     pllcfg_reg.M        = 0;
00001cb2 a30f0500       7889 	ld.bu	5[sp],r1
00001cb6 c10ef300       7890 	andi	243,r1,r1
00001cba 430f0500       7891 	st.b	r1,5[sp]
                        7892 --2491:     pllcfg_reg.NF       = 0;
00001cbe 230f0500       7893 	ld.w	4[sp],r1
00001cc2 e00fbc18       7894 	bins	zero,14,4,r1
00001cc6 630f0500       7895 	st.w	r1,4[sp]
                        7896 --2492:     pllcfg_reg.SSMode   = 0;
00001cca a30f0500       7897 	ld.bu	5[sp],r1
00001cce c10ecf00       7898 	andi	207,r1,r1
00001cd2 430f0500       7899 	st.b	r1,5[sp]
                        7900 --2493:     pllcfg_reg.SSPerc   = 0;
00001cd6 830f0700       7901 	ld.bu	6[sp],r1
00001cda c10ee300       7902 	andi	227,r1,r1
00001cde 430f0600       7903 	st.b	r1,6[sp]
                        7904 --2494:     pllcfg_reg.SMFreq   = 0;
00001ce2 e30f0700       7905 	ld.hu	6[sp],r1
00001ce6 c10e1ffc       7906 	andi	64543,r1,r1
00001cea 630f0600       7907 	st.h	r1,6[sp]
                        7908 --2495:     
                        7909 --2496:     /* VC= freq = fin * Nr/Pr */
                        7910 --2497:     /* Set/Check the frequency  */
                        7911 --2498:     switch (Pll)
00001cee 1c08           7912 	mov	r28,r1
00001cf0 610a           7913 	cmp	1,r1
00001cf2 d105*          7914 	bl	.L8450
00001cf4 e225*          7915 	be	.L8454
00001cf6 620a           7916 	cmp	2,r1
00001cf8 ca55*          7917 	bne	.L8456
00001cfa a535*          7918 	br	.L8455
                        7919 .L8450:
                        7920 --2499:     {

                                                                      Page 136
                                                              C:\Users\Frank\AppData\Local\Temp\gh_0000p9g1.si
                        7921 --2500:     case R_DEV_PLL0:
                        7922 --2501:         ret_val =  loc_CalcFreqPll0(FrqIn/1000000, &pllcfg_reg, &freq_out);
                        7923 --line2501
                        7924 ..lin.C.3A.5Cgit.5Crh850.5Csrc.5Capp.5Cgfx_apps.5Csimple_draw.5Ctarget.5Cd1mx_mango_ghs.5Cobj.5Cr_dev_clk.444::
                        7925 .LDWlin444:
00001cfc 2c0683de1b43   7926 	mov	1125899907,r12
00001d02 fa67226a       7927 	mulu	r26,r12,r13
00001d06 23460000       7928 	movea	0,sp,r8
00001d0a 233e0400       7929 	movea	4,sp,r7
00001d0e 0d30           7930 	mov	r13,r6
00001d10 9232           7931 	shr	18,r6
                        7932 	jarl	_loc_CalcFreqPll0,lp
                        7932 <EXPANSION BEGIN>
                        7932 jarl22 _loc_CalcFreqPll0 , lp 
00001d12 bfff3ce6*      7932 <EXPANSION END>
00001d16 0ae8           7933 	mov	r10,r29
                        7934 --2502:         if ((R_ERR_OK == ret_val) && (R_DEV_PLL_SSCG == PllCfg->Mode))
                        7935 --line2502
                        7936 ..lin.C.3A.5Cgit.5Crh850.5Csrc.5Capp.5Cgfx_apps.5Csimple_draw.5Ctarget.5Cd1mx_mango_ghs.5Cobj.5Cr_dev_clk.445::
                        7937 .LDWlin445:
00001d18 e0e9           7938 	cmp	zero,r29
00001d1a aa15*          7939 	bne	.L8451
00001d1c 390f0100       7940 	ld.w	0[r25],r1
00001d20 610a           7941 	cmp	1,r1
00001d22 ea0d*          7942 	bne	.L8451
                        7943 --2503:         {
                        7944 --2504:             /*The input frequency is provided in KHz here */
                        7945 --2505:             ret_val = loc_CalcSscgPll0(FrqIn/1000, &pllcfg_reg, PllCfg);
                        7946 --line2505
                        7947 ..lin.C.3A.5Cgit.5Crh850.5Csrc.5Capp.5Cgfx_apps.5Csimple_draw.5Ctarget.5Cd1mx_mango_ghs.5Cobj.5Cr_dev_clk.446::
                        7948 .LDWlin446:
00001d24 2c06d34d6210   7949 	mov	274877907,r12
00001d2a fa67226a       7950 	mulu	r26,r12,r13
00001d2e 233e0400       7951 	movea	4,sp,r7
00001d32 1940           7952 	mov	r25,r8
00001d34 0d30           7953 	mov	r13,r6
00001d36 8632           7954 	shr	6,r6
                        7955 	jarl	_loc_CalcSscgPll0,lp
                        7955 <EXPANSION BEGIN>
                        7955 jarl22 _loc_CalcSscgPll0 , lp 
00001d38 bffffce4*      7955 <EXPANSION END>
00001d3c 0ae8           7956 	mov	r10,r29
                        7957 .L8451:
                        7958 --line2507
                        7959 ..lin.C.3A.5Cgit.5Crh850.5Csrc.5Capp.5Cgfx_apps.5Csimple_draw.5Ctarget.5Cd1mx_mango_ghs.5Cobj.5Cr_dev_clk.447::
                        7960 .LDWlin447:
00001d3e b535*          7961 	br	.L8448
                        7962 .L8454:
                        7963 --2506:         }
                        7964 --2507:         break;
                        7965 --2508:     case R_DEV_PLL1:
                        7966 --2509:         ret_val =  loc_CalcFreqPll1(FrqIn/1000000, &pllcfg_reg, &freq_out);
                        7967 --line2509
                        7968 ..lin.C.3A.5Cgit.5Crh850.5Csrc.5Capp.5Cgfx_apps.5Csimple_draw.5Ctarget.5Cd1mx_mango_ghs.5Cobj.5Cr_dev_clk.448::
                        7969 .LDWlin448:
00001d40 2c0683de1b43   7970 	mov	1125899907,r12
00001d46 fa67226a       7971 	mulu	r26,r12,r13
00001d4a 23460000       7972 	movea	0,sp,r8
00001d4e 233e0400       7973 	movea	4,sp,r7
00001d52 0d30           7974 	mov	r13,r6
00001d54 9232           7975 	shr	18,r6

                                                                      Page 137
                                                              C:\Users\Frank\AppData\Local\Temp\gh_0000p9g1.si
                        7976 	jarl	_loc_CalcFreqPll1,lp
                        7976 <EXPANSION BEGIN>
                        7976 jarl22 _loc_CalcFreqPll1 , lp 
00001d56 bfff7ae7*      7976 <EXPANSION END>
00001d5a 0ae8           7977 	mov	r10,r29
                        7978 --line2510
                        7979 ..lin.C.3A.5Cgit.5Crh850.5Csrc.5Capp.5Cgfx_apps.5Csimple_draw.5Ctarget.5Cd1mx_mango_ghs.5Cobj.5Cr_dev_clk.449::
                        7980 .LDWlin449:
00001d5c c525*          7981 	br	.L8448
                        7982 .L8455:
                        7983 --2510:         break;
                        7984 --2511:     case R_DEV_PLL2 :
                        7985 --2512:         /* First, get the input frquency  */
                        7986 --2513:         regval  =  R_DEV_ClkFrequencyHz(R_DEV_CKS_PLL2IN);
                        7987 --line2513
                        7988 ..lin.C.3A.5Cgit.5Crh850.5Csrc.5Capp.5Cgfx_apps.5Csimple_draw.5Ctarget.5Cd1mx_mango_ghs.5Cobj.5Cr_dev_clk.450::
                        7989 .LDWlin450:
00001d5e 20361500       7990 	movea	21,zero,r6
                        7991 	jarl	_R_DEV_ClkFrequencyHz,lp
                        7991 <EXPANSION BEGIN>
                        7991 jarl22 _R_DEV_ClkFrequencyHz , lp 
00001d62 bfff9cf3*      7991 <EXPANSION END>
00001d66 0ad8           7992 	mov	r10,r27
                        7993 --2514:         ret_val =  loc_CalcFreqPll2(regval/1000000, &pllcfg_reg, &freq_out);
                        7994 --line2514
                        7995 ..lin.C.3A.5Cgit.5Crh850.5Csrc.5Capp.5Cgfx_apps.5Csimple_draw.5Ctarget.5Cd1mx_mango_ghs.5Cobj.5Cr_dev_clk.451::
                        7996 .LDWlin451:
00001d68 2c0683de1b43   7997 	mov	1125899907,r12
00001d6e fb67226a       7998 	mulu	r27,r12,r13
00001d72 23460000       7999 	movea	0,sp,r8
00001d76 233e0400       8000 	movea	4,sp,r7
00001d7a 0d30           8001 	mov	r13,r6
00001d7c 9232           8002 	shr	18,r6
                        8003 	jarl	_loc_CalcFreqPll2,lp
                        8003 <EXPANSION BEGIN>
                        8003 jarl22 _loc_CalcFreqPll2 , lp 
00001d7e bfffc0e9*      8003 <EXPANSION END>
00001d82 0ae8           8004 	mov	r10,r29
                        8005 --2515:         pllcfg_reg.FVV       = 0; /* Init value */
                        8006 --line2515
                        8007 ..lin.C.3A.5Cgit.5Crh850.5Csrc.5Capp.5Cgfx_apps.5Csimple_draw.5Ctarget.5Cd1mx_mango_ghs.5Cobj.5Cr_dev_clk.452::
                        8008 .LDWlin452:
00001d84 a30f0700       8009 	ld.bu	7[sp],r1
00001d88 c10ee300       8010 	andi	227,r1,r1
00001d8c 430f0700       8011 	st.b	r1,7[sp]
                        8012 --2516:         pllcfg_reg.NF        = 1;
00001d90 230f0500       8013 	ld.w	4[sp],r1
00001d94 0172           8014 	mov	1,r14
00001d96 ee0fbc18       8015 	bins	r14,14,4,r1
00001d9a 630f0500       8016 	st.w	r1,4[sp]
00001d9e b505*          8017 	br	.L8448
                        8018 .L8456:
                        8019 --2517:         break;
                        8020 --2518:     default:
                        8021 --2519:         ret_val = R_PARAMETER_RANGE;
                        8022 --line2519
                        8023 ..lin.C.3A.5Cgit.5Crh850.5Csrc.5Capp.5Cgfx_apps.5Csimple_draw.5Ctarget.5Cd1mx_mango_ghs.5Cobj.5Cr_dev_clk.453::
                        8024 .LDWlin453:
00001da0 03ea           8025 	mov	3,r29
00001da2 0000           8026 	nop
                        8027 .L8448:

                                                                      Page 138
                                                              C:\Users\Frank\AppData\Local\Temp\gh_0000p9g1.si
                        8028 --2520:         break;
                        8029 --2521:     }
                        8030 --2522:     /* If everything went smooth, store the values */
                        8031 --2523:     if (R_ERR_OK == ret_val)
00001da4 e0e9           8032 	cmp	zero,r29
00001da6 ea0d*          8033 	bne	.L8457
                        8034 --2524:     {
                        8035 --2525:         /* Do NOT Store the config here, use the store function instead */
                        8036 --2526:         /* .bss area is not working */
                        8037 --2527:         
                        8038 --2528:         /* Make sure that PLL is stopped */
                        8039 --2529:         if (0 != R_DEV_ClkGenActive(Pll))
                        8040 --line2529
                        8041 ..lin.C.3A.5Cgit.5Crh850.5Csrc.5Capp.5Cgfx_apps.5Csimple_draw.5Ctarget.5Cd1mx_mango_ghs.5Cobj.5Cr_dev_clk.454::
                        8042 .LDWlin454:
00001da8 1c30           8043 	mov	r28,r6
                        8044 	jarl	_R_DEV_ClkGenActive,lp
                        8044 <EXPANSION BEGIN>
                        8044 jarl22 _R_DEV_ClkGenActive , lp 
00001daa bfff4eee*      8044 <EXPANSION END>
00001dae e051           8045 	cmp	zero,r10
00001db0 c205*          8046 	be	.L8459
                        8047 --2530:         {
                        8048 --2531:             R_DEV_ClkGenStop(Pll);
                        8049 --line2531
                        8050 ..lin.C.3A.5Cgit.5Crh850.5Csrc.5Capp.5Cgfx_apps.5Csimple_draw.5Ctarget.5Cd1mx_mango_ghs.5Cobj.5Cr_dev_clk.455::
                        8051 .LDWlin455:
00001db2 1c30           8052 	mov	r28,r6
                        8053 	jarl	_R_DEV_ClkGenStop,lp
                        8053 <EXPANSION BEGIN>
                        8053 jarl22 _R_DEV_ClkGenStop , lp 
00001db4 bfff9efb*      8053 <EXPANSION END>
                        8054 .L8459:
                        8055 --2532:         }
                        8056 --2533:         
                        8057 --2534:         loc_WritePllCfg(Pll, &pllcfg_reg);
                        8058 --line2534
                        8059 ..lin.C.3A.5Cgit.5Crh850.5Csrc.5Capp.5Cgfx_apps.5Csimple_draw.5Ctarget.5Cd1mx_mango_ghs.5Cobj.5Cr_dev_clk.456::
                        8060 .LDWlin456:
00001db8 1c30           8061 	mov	r28,r6
00001dba 233e0400       8062 	movea	4,sp,r7
                        8063 	jarl	_loc_WritePllCfg,lp
                        8063 <EXPANSION BEGIN>
                        8063 jarl22 _loc_WritePllCfg , lp 
00001dbe bfff08e4*      8063 <EXPANSION END>
                        8064 .L8457:
                        8065 --2535:     }
                        8066 --2536:     return ret_val;
                        8067 --line2536
                        8068 ..lin.C.3A.5Cgit.5Crh850.5Csrc.5Capp.5Cgfx_apps.5Csimple_draw.5Ctarget.5Cd1mx_mango_ghs.5Cobj.5Cr_dev_clk.457::
                        8069 .LDWlin457:
00001dc2 1d50           8070 	mov	r29,r10
                        8071 --	    .ef
                        8072 .LDW401:
00001dc4 4406ff70       8073 	dispose	2,{r25,r26,r27,r28,r29,r31},[lp]
                        8074 	.type	_R_DEV_PllCfg,@function
                        8075 	.size	_R_DEV_PllCfg,.-_R_DEV_PllCfg
                        8076 	.align	2
                        8077 .LDW501:
                        8078 --_freq_out	0[sp]	local
                        8079 --_ret_val	r29	local

                                                                      Page 139
                                                              C:\Users\Frank\AppData\Local\Temp\gh_0000p9g1.si
                        8080 --_regval	r27	local
                        8081 --_pllcfg_reg	4[sp]	local
                        8082 
                        8083 --_FrqIn	r26	param
                        8084 --_Pll	r28	param
                        8085 --_PllCfg	r25	param
                        8086 
                        8087 	.section ".bss","awb"
                        8088 .L8598:
                        8089 	.type	.L8598,@object
                        8090 	.size	.L8598,0
                        8091 	.data
                        8092 	.text
                        8093 
                        8094 --2537: }
                        8095 
                        8096 --2539: /*******************************************************************************
                        8097 --2540:   Function: R_DEV_ClkPrepare
                        8098 --2542:     se: <r_dev_api.h> for details
                        8099 --2543: */
                        8100 --2544: void R_DEV_ClkPrepare(void)
                        8101 	.align	2
                        8102 	.align	2
                        8103 	.global	_R_DEV_ClkPrepare
                        8104 _R_DEV_ClkPrepare:
00001dc8 210600000000*  8105 	mov	_loc_ClkGenCfg,r1
00001dce 0168           8106 	mov	r1,r13
00001dd0 2e06000e2707   8107 	mov	120000000,r14
                        8108 --	    .bf
                        8109 .LDW601:
                        8110 --2545: {
                        8111 --2546:     
                        8112 --2547:         /* Init Device Clocks  */
                        8113 --2548:     loc_ClkGenCfg.MainOsc.FrequencyHz          = 8000000;
00001dd6 2c0600127a00   8114 	mov	8000000,r12
00001ddc 61670100       8115 	st.w	r12,0[r1]
                        8116 --2549:     loc_ClkGenCfg.MainOsc.StabiTimeNs          = 4000000;
00001de0 2c0600093d00   8117 	mov	4000000,r12
00001de6 61670500       8118 	st.w	r12,4[r1]
                        8119 --2550:     loc_ClkGenCfg.MainOsc.Gain                 = 3;
00001dea 0362           8120 	mov	3,r12
00001dec 41670800       8121 	st.b	r12,8[r1]
                        8122 --2551:     loc_ClkGenCfg.MainOsc.Running              = 0;
00001df0 41070900       8123 	st.b	zero,9[r1]
                        8124 --2552:     loc_ClkGenCfg.MainOsc.StpReqMsk            = 1;
00001df4 0162           8125 	mov	1,r12
00001df6 41670a00       8126 	st.b	r12,10[r1]
                        8127 --2553:                                                  ;
                        8128 --2554:     loc_ClkGenCfg.SubOsc.FrequencyHz           = 32768;
00001dfa 80660080       8129 	ori	32768,zero,r12
00001dfe 61670d00       8130 	st.w	r12,12[r1]
                        8131 --2555:     loc_ClkGenCfg.SubOsc.Running               = 0;
00001e02 41071000       8132 	st.b	zero,16[r1]
                        8133 --2556:                                                
                        8134 --2557:     loc_ClkGenCfg.RoscStpReqMsk                = 1;
00001e06 0162           8135 	mov	1,r12
00001e08 41676800       8136 	st.b	r12,104[r1]
                        8137 --2558:                                                
                        8138 --2559:     loc_ClkGenCfg.Pll[0].Mode                  = R_DEV_PLL_OFF;
00001e0c 61071500       8139 	st.w	zero,20[r1]
                        8140 --2560:     loc_ClkGenCfg.Pll[0].DithMode              = R_DEV_PLL_DITH_CENTER;

                                                                      Page 140
                                                              C:\Users\Frank\AppData\Local\Temp\gh_0000p9g1.si
00001e10 0462           8141 	mov	4,r12
00001e12 61671900       8142 	st.w	r12,24[r1]
                        8143 --2561:     loc_ClkGenCfg.Pll[0].DithRange             = 3;
00001e16 0362           8144 	mov	3,r12
00001e18 41671c00       8145 	st.b	r12,28[r1]
                        8146 --2562:     loc_ClkGenCfg.Pll[0].ModFreq               = 50;
00001e1c 20663200       8147 	movea	50,zero,r12
00001e20 61672100       8148 	st.w	r12,32[r1]
                        8149 --2563:     loc_ClkGenCfg.Pll[0].FrequencyHz           = 120000000;
00001e24 61772500       8150 	st.w	r14,36[r1]
                        8151 --2564:     loc_ClkGenCfg.Pll[0].StabiTimeNs           = 4000000;
00001e28 2c0600093d00   8152 	mov	4000000,r12
00001e2e 61672900       8153 	st.w	r12,40[r1]
                        8154 --2565:     loc_ClkGenCfg.Pll[0].StpReqMsk              =0;
00001e32 41072c00       8155 	st.b	zero,44[r1]
                        8156 --2566:                                                
                        8157 --2567:     loc_ClkGenCfg.Pll[1].Mode                  = R_DEV_PLL_OFF;
00001e36 61073100       8158 	st.w	zero,48[r1]
                        8159 --2568:     loc_ClkGenCfg.Pll[1].DithMode              = R_DEV_PLL_DITH_FIXED;
00001e3a 61073500       8160 	st.w	zero,52[r1]
                        8161 --2569:     loc_ClkGenCfg.Pll[1].DithRange             = 0;
00001e3e 41073800       8162 	st.b	zero,56[r1]
                        8163 --2570:     loc_ClkGenCfg.Pll[1].ModFreq               = 0;
00001e42 61073d00       8164 	st.w	zero,60[r1]
                        8165 --2571:     loc_ClkGenCfg.Pll[1].FrequencyHz           = 120000000;
00001e46 61774100       8166 	st.w	r14,64[r1]
                        8167 --2572:     loc_ClkGenCfg.Pll[1].StabiTimeNs           = 1000000;
00001e4a 2c0640420f00   8168 	mov	1000000,r12
00001e50 61674500       8169 	st.w	r12,68[r1]
                        8170 --2573:     loc_ClkGenCfg.Pll[1].StpReqMsk             = 0;
00001e54 41074800       8171 	st.b	zero,72[r1]
                        8172 --2574:                                                
                        8173 --2575:     loc_ClkGenCfg.Pll[2].Mode                  = R_DEV_PLL_OFF;
00001e58 61074d00       8174 	st.w	zero,76[r1]
                        8175 --2576:     loc_ClkGenCfg.Pll[2].DithMode              = R_DEV_PLL_DITH_FIXED;
00001e5c 61075100       8176 	st.w	zero,80[r1]
                        8177 --2577:     loc_ClkGenCfg.Pll[2].DithRange             = 0;
00001e60 41075400       8178 	st.b	zero,84[r1]
                        8179 --2578:     loc_ClkGenCfg.Pll[2].ModFreq               = 00;
00001e64 61075900       8180 	st.w	zero,88[r1]
                        8181 --2579:     loc_ClkGenCfg.Pll[2].FrequencyHz           = 120000000;
00001e68 61775d00       8182 	st.w	r14,92[r1]
                        8183 --2580:     loc_ClkGenCfg.Pll[2].StabiTimeNs           = 1000000;
00001e6c 2c0640420f00   8184 	mov	1000000,r12
00001e72 61676100       8185 	st.w	r12,96[r1]
                        8186 --2581:     loc_ClkGenCfg.Pll[2].StpReqMsk             = 0;
00001e76 41076400       8187 	st.b	zero,100[r1]
                        8188 --2583:     loc_ClkGenCfg.BusEnable[R_DEV_CLK_XCC]     = 0;
00001e7a 41077100       8189 	st.b	zero,113[r1]
                        8190 --2584:     loc_ClkGenCfg.BusEnable[R_DEV_CLK_PLL0]    = 0;
00001e7e 41076900       8191 	st.b	zero,105[r1]
                        8192 --2585:     loc_ClkGenCfg.BusEnable[R_DEV_CLK_PLL1]    = 0;
00001e82 41076a00       8193 	st.b	zero,106[r1]
                        8194 --2586:     loc_ClkGenCfg.BusEnable[R_DEV_CLK_PLL2]    = 0;
00001e86 41076b00       8195 	st.b	zero,107[r1]
                        8196 --2587:     loc_ClkGenCfg.BusEnable[R_DEV_CLK_PLL0PIX] = 0;
00001e8a 41076c00       8197 	st.b	zero,108[r1]
                        8198 --2588:     loc_ClkGenCfg.BusEnable[R_DEV_CLK_SDRB]    = 0;
00001e8e 41076d00       8199 	st.b	zero,109[r1]
                        8200 --2589:     loc_ClkGenCfg.BusEnable[R_DEV_CLK_ETNBP]   = 0;
00001e92 41076e00       8201 	st.b	zero,110[r1]

                                                                      Page 141
                                                              C:\Users\Frank\AppData\Local\Temp\gh_0000p9g1.si
                        8202 --2590:     loc_ClkGenCfg.BusEnable[R_DEV_CLK_ETNBXCC] = 0;
00001e96 41077200       8203 	st.b	zero,114[r1]
                        8204 --2591:     loc_ClkGenCfg.BusEnable[R_DEV_CLK_MLBP]    = 0;
00001e9a 41076f00       8205 	st.b	zero,111[r1]
                        8206 --2592:     loc_ClkGenCfg.BusEnable[R_DEV_CLK_MLBXCC]  = 0;
00001e9e 41077300       8207 	st.b	zero,115[r1]
                        8208 --2593:     loc_ClkGenCfg.BusEnable[R_DEV_CLK_RSCANP]  = 0;
00001ea2 41077000       8209 	st.b	zero,112[r1]
                        8210 --2595: }
                        8211 --	    .ef
                        8212 .LDW701:
00001ea6 7f00           8213 	jmp	[lp]
                        8214 	.type	_R_DEV_ClkPrepare,@function
                        8215 	.size	_R_DEV_ClkPrepare,.-_R_DEV_ClkPrepare
                        8216 	.align	2
                        8217 .LDW801:
                        8218 
                        8219 	.data
                        8220 	.text
                        8221 
                        8222 
                        8223 --2598: /*******************************************************************************
                        8224 --2599:   Function: R_DEV_ClkGenInit
                        8225 --2601:     se: <r_dev_api.h> for details
                        8226 --2602: */
                        8227 --2603: void R_DEV_ClkGenInit(r_dev_ClkGenConfig_t * ClkGenCfg, const r_dev_ClkSelConfig_t * ClkSelCfg)
                        8228 	.align	2
                        8229 	.align	2
                        8230 	.global	_R_DEV_ClkGenInit
                        8231 _R_DEV_ClkGenInit:
00001ea8 8607e170       8232 	prepare	{r25,r26,r27,r28,r29,r31},3
00001eac 633f0900       8233 	st.w	r7,8[sp]
00001eb0 06e8           8234 	mov	r6,r29
                        8235 --	    .bf
                        8236 .LDW901:
                        8237 --2604: {
                        8238 --2605:     r_dev_ClkGen_t  i;
                        8239 --2606:     r_dev_Bus_t     bus;
                        8240 --2607:     uint32_t        j = 0;
00001eb2 00d2           8241 	mov	0,r26
                        8242 --2608:     r_dev_Device_t device;
                        8243 --2609:     
                        8244 --2610:     
                        8245 --2611:     /*D1M1 PBUS divider */
                        8246 --2612:     device = R_DEV_GetDev();
                        8247 	jarl	_R_DEV_GetDev,lp
                        8247 <EXPANSION BEGIN>
                        8247 jarl22 _R_DEV_GetDev , lp 
00001eb4 80ff0000*      8247 <EXPANSION END>
00001eb8 0ac8           8248 	mov	r10,r25
                        8249 --2613:     if ((device >= R_DEV_R7F701404) && (device <= R_DEV_R7F701405))
                        8250 --line2613
                        8251 ..lin.C.3A.5Cgit.5Crh850.5Csrc.5Capp.5Cgfx_apps.5Csimple_draw.5Ctarget.5Cd1mx_mango_ghs.5Cobj.5Cr_dev_clk.458::
                        8252 .LDWlin458:
00001eba 190684fa       8253 	addi	-1404,r25,zero
00001ebe 9935*          8254 	bnl	.L9027
00001ec0 190682fa       8255 	addi	-1406,r25,zero
00001ec4 e12d*          8256 	bl	.L9027
                        8257 --2614:     {
                        8258 --2615:         /* change PBUS divider (4-> 2) */
                        8259 --2616:         R_DEV_WRITE_PROT_REG(LOC_PROTCMDPWRGD, LOC_PBUS_RATIO, 0u);

                                                                      Page 142
                                                              C:\Users\Frank\AppData\Local\Temp\gh_0000p9g1.si
                        8260 --	    .bs
                        8261 .LDW011:
                        8262 --line2616
                        8263 ..lin.C.3A.5Cgit.5Crh850.5Csrc.5Capp.5Cgfx_apps.5Csimple_draw.5Ctarget.5Cd1mx_mango_ghs.5Cobj.5Cr_dev_clk.459::
                        8264 .LDWlin459:
00001ec6 63070100       8265 	st.w	zero,0[sp]
00001eca 005a           8266 	mov	0,r11
00001ecc 63070500       8267 	st.w	zero,4[sp]
00001ed0 005a           8268 	mov	0,r11
                        8269 .L9032:
00001ed2 200ea500       8270 	movea	165,zero,r1
00001ed6 80070f08ebf1   8271 	st.w	r1,4294505856[zero]
00001edc 80070f01eaf1   8272 	st.w	zero,4294505744[zero]
00001ee2 1f0a           8273 	mov	-1,r1
00001ee4 80070f09eaf1   8274 	st.w	r1,4294505744[zero]
00001eea 80070f01eaf1   8275 	st.w	zero,4294505744[zero]
00001ef0 80074958ebf1   8276 	ld.w	4294505860[zero],r11
00001ef6 635f0100       8277 	st.w	r11,0[sp]
00001efa 80070959eaf1   8278 	ld.w	4294505744[zero],r11
00001f00 635f0500       8279 	st.w	r11,4[sp]
00001f04 235f0500       8280 	ld.w	4[sp],r11
00001f08 e059           8281 	cmp	zero,r11
00001f0a d205*          8282 	be	.L9030
00001f0c 235f0100       8283 	ld.w	0[sp],r11
00001f10 e059           8284 	cmp	zero,r11
00001f12 8ae5*          8285 	bne	.L9032
                        8286 .L9030:
                        8287 --	    .es
                        8288 .LDW111:
                        8289 --2617:         LocPbusRatio = 1;
                        8290 --line2617
                        8291 ..lin.C.3A.5Cgit.5Crh850.5Csrc.5Capp.5Cgfx_apps.5Csimple_draw.5Ctarget.5Cd1mx_mango_ghs.5Cobj.5Cr_dev_clk.460::
                        8292 .LDWlin460:
00001f14 2b0600000000*  8293 	mov	_LocPbusRatio,r11
00001f1a 010a           8294 	mov	1,r1
00001f1c 6b0f0100       8295 	st.w	r1,0[r11]
                        8296 .L9027:
                        8297 --2618:     }
                        8298 --2620:     R_DEV_MoscCfg(&(ClkGenCfg->MainOsc));
00001f20 1d30           8299 	mov	r29,r6
                        8300 	jarl	_R_DEV_MoscCfg,lp
                        8300 <EXPANSION BEGIN>
                        8300 jarl22 _R_DEV_MoscCfg , lp 
00001f22 bfff60fb*      8300 <EXPANSION END>
                        8301 --2621:     R_DEV_SubOscCfg(&(ClkGenCfg->SubOsc));
                        8302 --line2621
                        8303 ..lin.C.3A.5Cgit.5Crh850.5Csrc.5Capp.5Cgfx_apps.5Csimple_draw.5Ctarget.5Cd1mx_mango_ghs.5Cobj.5Cr_dev_clk.461::
                        8304 .LDWlin461:
00001f26 1d360c00       8305 	addi	12,r29,r6
                        8306 	jarl	_R_DEV_SubOscCfg,lp
                        8306 <EXPANSION BEGIN>
                        8306 jarl22 _R_DEV_SubOscCfg , lp 
00001f2a bfff72fc*      8306 <EXPANSION END>
                        8307 --2622:      
                        8308 --2623:     /* Config and start PLL (but not yet PLL2) */
                        8309 --2624:     for (i = R_DEV_PLL0; i < R_DEV_PLL2; i++)
                        8310 --line2624
                        8311 ..lin.C.3A.5Cgit.5Crh850.5Csrc.5Capp.5Cgfx_apps.5Csimple_draw.5Ctarget.5Cd1mx_mango_ghs.5Cobj.5Cr_dev_clk.462::
                        8312 .LDWlin462:
00001f2e 00da           8313 	mov	0,r27
00001f30 0000           8314 	nop

                                                                      Page 143
                                                              C:\Users\Frank\AppData\Local\Temp\gh_0000p9g1.si
                        8315 .L9036:
                        8316 --2625:     {
                        8317 --2626:         R_DEV_PllCfg(ClkGenCfg->MainOsc.FrequencyHz, i, &(ClkGenCfg->Pll[i]));
00001f32 3d370100       8318 	ld.w	0[r29],r6
00001f36 1b08           8319 	mov	r27,r1
00001f38 fc0f4002       8320 	mul	28,r1,zero
00001f3c 1d761400       8321 	addi	20,r29,r14
00001f40 1b38           8322 	mov	r27,r7
00001f42 ce09           8323 	add	r14,r1
00001f44 0140           8324 	mov	r1,r8
                        8325 	jarl	_R_DEV_PllCfg,lp
                        8325 <EXPANSION BEGIN>
                        8325 jarl22 _R_DEV_PllCfg , lp 
00001f46 bfff2efd*      8325 <EXPANSION END>
                        8326 --2627:         if (R_DEV_PLL_OFF != ClkGenCfg->Pll[i].Mode)
                        8327 --line2627
                        8328 ..lin.C.3A.5Cgit.5Crh850.5Csrc.5Capp.5Cgfx_apps.5Csimple_draw.5Ctarget.5Cd1mx_mango_ghs.5Cobj.5Cr_dev_clk.463::
                        8329 .LDWlin463:
00001f4a 1bf0           8330 	mov	r27,ep
00001f4c 1d761400       8331 	addi	20,r29,r14
00001f50 fcf74002       8332 	mul	28,ep,zero
00001f54 cef1           8333 	add	r14,ep
00001f56 000d           8334 	sld.w	0[ep],r1
00001f58 e009           8335 	cmp	zero,r1
00001f5a c205*          8336 	be	.L9037
                        8337 --2628:         {
                        8338 --2629:             R_DEV_ClkGenStart(i);
                        8339 --line2629
                        8340 ..lin.C.3A.5Cgit.5Crh850.5Csrc.5Capp.5Cgfx_apps.5Csimple_draw.5Ctarget.5Cd1mx_mango_ghs.5Cobj.5Cr_dev_clk.464::
                        8341 .LDWlin464:
00001f5c 1b30           8342 	mov	r27,r6
                        8343 	jarl	_R_DEV_ClkGenStart,lp
                        8343 <EXPANSION BEGIN>
                        8343 jarl22 _R_DEV_ClkGenStart , lp 
00001f5e bfff8cfa*      8343 <EXPANSION END>
                        8344 .L9037:
                        8345 --line2624
                        8346 ..lin.C.3A.5Cgit.5Crh850.5Csrc.5Capp.5Cgfx_apps.5Csimple_draw.5Ctarget.5Cd1mx_mango_ghs.5Cobj.5Cr_dev_clk.465::
                        8347 .LDWlin465:
00001f62 41da           8348 	add	1,r27
00001f64 62da           8349 	cmp	2,r27
00001f66 e1e5*          8350 	bl	.L9036
                        8351 --2631:         }
                        8352 --2632:     }
                        8353 --2634:         /* Switch PLL buses (but not yet PLL2) */
                        8354 --2635:     for (bus = R_DEV_CLK_PLL0; bus < R_DEV_CLK_PLL2; bus++)
                        8355 --line2635
                        8356 ..lin.C.3A.5Cgit.5Crh850.5Csrc.5Capp.5Cgfx_apps.5Csimple_draw.5Ctarget.5Cd1mx_mango_ghs.5Cobj.5Cr_dev_clk.466::
                        8357 .LDWlin466:
00001f68 00e2           8358 	mov	0,r28
00001f6a 0000           8359 	nop
                        8360 .L9041:
                        8361 --2636:     {
                        8362 --2637:         R_DEV_BusEnable(bus, ClkGenCfg->BusEnable[bus]);
00001f6c 1df66900       8363 	addi	105,r29,ep
00001f70 1c30           8364 	mov	r28,r6
00001f72 dcf1           8365 	add	r28,ep
00001f74 6038           8366 	sld.bu	0[ep],r7
                        8367 	jarl	_R_DEV_BusEnable,lp
                        8367 <EXPANSION BEGIN>
                        8367 jarl22 _R_DEV_BusEnable , lp 

                                                                      Page 144
                                                              C:\Users\Frank\AppData\Local\Temp\gh_0000p9g1.si
00001f76 bfff18f9*      8367 <EXPANSION END>
                        8368 --line2635
                        8369 ..lin.C.3A.5Cgit.5Crh850.5Csrc.5Capp.5Cgfx_apps.5Csimple_draw.5Ctarget.5Cd1mx_mango_ghs.5Cobj.5Cr_dev_clk.467::
                        8370 .LDWlin467:
00001f7a 41e2           8371 	add	1,r28
00001f7c 62e2           8372 	cmp	2,r28
00001f7e f1f5*          8373 	bl	.L9041
                        8374 --2638:     }
                        8375 --2640:     /*
                        8376 --2641:     First we need to configure the input selector for PLL2 */
                        8377 --2642:     j = 0;
                        8378 --line2642
                        8379 ..lin.C.3A.5Cgit.5Crh850.5Csrc.5Capp.5Cgfx_apps.5Csimple_draw.5Ctarget.5Cd1mx_mango_ghs.5Cobj.5Cr_dev_clk.468::
                        8380 .LDWlin468:
00001f80 00d2           8381 	mov	0,r26
                        8382 --2643:     while (R_DEV_CKS_LAST != ClkSelCfg[j].Cks)
00001f82 e515*          8383 	br	.L9042
                        8384 .L9044:
                        8385 --2644:     {
                        8386 --2645:          if (R_DEV_CKS_PLL2IN == ClkSelCfg[j].Cks)
                        8387 --line2645
                        8388 ..lin.C.3A.5Cgit.5Crh850.5Csrc.5Capp.5Cgfx_apps.5Csimple_draw.5Ctarget.5Cd1mx_mango_ghs.5Cobj.5Cr_dev_clk.469::
                        8389 .LDWlin469:
00001f84 235f0900       8390 	ld.w	8[sp],r11
00001f88 1af0           8391 	mov	r26,ep
00001f8a ecf74202       8392 	mulu	12,ep,zero
00001f8e cbf1           8393 	add	r11,ep
00001f90 000d           8394 	sld.w	0[ep],r1
00001f92 0106ebff       8395 	addi	-21,r1,zero
00001f96 ba0d*          8396 	bne	.L9045
                        8397 --2646:          {
                        8398 --2647:             R_DEV_ClkIdSet(&(ClkSelCfg[j]));
                        8399 --line2647
                        8400 ..lin.C.3A.5Cgit.5Crh850.5Csrc.5Capp.5Cgfx_apps.5Csimple_draw.5Ctarget.5Cd1mx_mango_ghs.5Cobj.5Cr_dev_clk.470::
                        8401 .LDWlin470:
00001f98 235f0900       8402 	ld.w	8[sp],r11
00001f9c 1a08           8403 	mov	r26,r1
00001f9e ec0f4202       8404 	mulu	12,r1,zero
00001fa2 cb09           8405 	add	r11,r1
00001fa4 0130           8406 	mov	r1,r6
                        8407 	jarl	_R_DEV_ClkIdSet,lp
                        8407 <EXPANSION BEGIN>
                        8407 jarl22 _R_DEV_ClkIdSet , lp 
00001fa6 bfff8aec*      8407 <EXPANSION END>
                        8408 --2648:             break;
                        8409 --line2648
                        8410 ..lin.C.3A.5Cgit.5Crh850.5Csrc.5Capp.5Cgfx_apps.5Csimple_draw.5Ctarget.5Cd1mx_mango_ghs.5Cobj.5Cr_dev_clk.471::
                        8411 .LDWlin471:
00001faa c50d*          8412 	br	.L9047
                        8413 .L9045:
                        8414 --2649:          }
                        8415 --2650:          j++;
                        8416 --line2650
                        8417 ..lin.C.3A.5Cgit.5Crh850.5Csrc.5Capp.5Cgfx_apps.5Csimple_draw.5Ctarget.5Cd1mx_mango_ghs.5Cobj.5Cr_dev_clk.472::
                        8418 .LDWlin472:
00001fac 41d2           8419 	add	1,r26
                        8420 .L9042:
00001fae 235f0900       8421 	ld.w	8[sp],r11
00001fb2 1af0           8422 	mov	r26,ep
00001fb4 ecf74202       8423 	mulu	12,ep,zero
00001fb8 cbf1           8424 	add	r11,ep

                                                                      Page 145
                                                              C:\Users\Frank\AppData\Local\Temp\gh_0000p9g1.si
00001fba 000d           8425 	sld.w	0[ep],r1
00001fbc 0106e2ff       8426 	addi	-30,r1,zero
00001fc0 aae5*          8427 	bne	.L9044
                        8428 .L9047:
                        8429 --2651:     }
                        8430 --2652:     
                        8431 --2653:     /* Now the PLL2 */
                        8432 --2654:     R_DEV_PllCfg(ClkGenCfg->MainOsc.FrequencyHz, R_DEV_PLL2, &(ClkGenCfg->Pll[R_DEV_PLL2]));
                        8433 --line2654
                        8434 ..lin.C.3A.5Cgit.5Crh850.5Csrc.5Capp.5Cgfx_apps.5Csimple_draw.5Ctarget.5Cd1mx_mango_ghs.5Cobj.5Cr_dev_clk.473::
                        8435 .LDWlin473:
00001fc2 3d370100       8436 	ld.w	0[r29],r6
00001fc6 1d464c00       8437 	addi	76,r29,r8
00001fca 023a           8438 	mov	2,r7
                        8439 	jarl	_R_DEV_PllCfg,lp
                        8439 <EXPANSION BEGIN>
                        8439 jarl22 _R_DEV_PllCfg , lp 
00001fcc bfffa8fc*      8439 <EXPANSION END>
                        8440 --2655:     if (R_DEV_PLL_OFF != ClkGenCfg->Pll[R_DEV_PLL2].Mode)
                        8441 --line2655
                        8442 ..lin.C.3A.5Cgit.5Crh850.5Csrc.5Capp.5Cgfx_apps.5Csimple_draw.5Ctarget.5Cd1mx_mango_ghs.5Cobj.5Cr_dev_clk.474::
                        8443 .LDWlin474:
00001fd0 3d0f4d00       8444 	ld.w	76[r29],r1
00001fd4 e009           8445 	cmp	zero,r1
00001fd6 c205*          8446 	be	.L9049
                        8447 --2656:     {
                        8448 --2657:         R_DEV_ClkGenStart(R_DEV_PLL2);
                        8449 --line2657
                        8450 ..lin.C.3A.5Cgit.5Crh850.5Csrc.5Capp.5Cgfx_apps.5Csimple_draw.5Ctarget.5Cd1mx_mango_ghs.5Cobj.5Cr_dev_clk.475::
                        8451 .LDWlin475:
00001fd8 0232           8452 	mov	2,r6
                        8453 	jarl	_R_DEV_ClkGenStart,lp
                        8453 <EXPANSION BEGIN>
                        8453 jarl22 _R_DEV_ClkGenStart , lp 
00001fda bfff10fa*      8453 <EXPANSION END>
                        8454 .L9049:
                        8455 --2658:     }
                        8456 --2659:  
                        8457 --2660:     /* And finally its bus */
                        8458 --2661:     R_DEV_BusEnable(R_DEV_CLK_PLL2, ClkGenCfg->BusEnable[R_DEV_CLK_PLL2]);
                        8459 --line2661
                        8460 ..lin.C.3A.5Cgit.5Crh850.5Csrc.5Capp.5Cgfx_apps.5Csimple_draw.5Ctarget.5Cd1mx_mango_ghs.5Cobj.5Cr_dev_clk.476::
                        8461 .LDWlin476:
00001fde bd3f6b00       8462 	ld.bu	107[r29],r7
00001fe2 0232           8463 	mov	2,r6
                        8464 	jarl	_R_DEV_BusEnable,lp
                        8464 <EXPANSION BEGIN>
                        8464 jarl22 _R_DEV_BusEnable , lp 
00001fe4 bfffaaf8*      8464 <EXPANSION END>
                        8465 --2662:     /* Last but not least, config all clock domians */
                        8466 --2663:     R_DEV_ClkSelection(ClkSelCfg);
                        8467 --line2663
                        8468 ..lin.C.3A.5Cgit.5Crh850.5Csrc.5Capp.5Cgfx_apps.5Csimple_draw.5Ctarget.5Cd1mx_mango_ghs.5Cobj.5Cr_dev_clk.477::
                        8469 .LDWlin477:
00001fe8 23370900       8470 	ld.w	8[sp],r6
                        8471 	jarl	_R_DEV_ClkSelection,lp
                        8471 <EXPANSION BEGIN>
                        8471 jarl22 _R_DEV_ClkSelection , lp 
00001fec 80ff1e01*      8471 <EXPANSION END>
                        8472 --2664:     /* ... and switch remaining buses */
                        8473 --2665:     for (bus = R_DEV_CLK_PLL0PIX; bus < R_DEV_CLK_BUS_LAST; bus++)

                                                                      Page 146
                                                              C:\Users\Frank\AppData\Local\Temp\gh_0000p9g1.si
                        8474 --line2665
                        8475 ..lin.C.3A.5Cgit.5Crh850.5Csrc.5Capp.5Cgfx_apps.5Csimple_draw.5Ctarget.5Cd1mx_mango_ghs.5Cobj.5Cr_dev_clk.478::
                        8476 .LDWlin478:
00001ff0 03e2           8477 	mov	3,r28
00001ff2 0000           8478 	nop
                        8479 .L9053:
                        8480 --2666:     {
                        8481 --2667:         R_DEV_BusEnable(bus, ClkGenCfg->BusEnable[bus]);
00001ff4 1df66900       8482 	addi	105,r29,ep
00001ff8 1c30           8483 	mov	r28,r6
00001ffa dcf1           8484 	add	r28,ep
00001ffc 6038           8485 	sld.bu	0[ep],r7
                        8486 	jarl	_R_DEV_BusEnable,lp
                        8486 <EXPANSION BEGIN>
                        8486 jarl22 _R_DEV_BusEnable , lp 
00001ffe bfff90f8*      8486 <EXPANSION END>
                        8487 --line2665
                        8488 ..lin.C.3A.5Cgit.5Crh850.5Csrc.5Capp.5Cgfx_apps.5Csimple_draw.5Ctarget.5Cd1mx_mango_ghs.5Cobj.5Cr_dev_clk.479::
                        8489 .LDWlin479:
00002002 41e2           8490 	add	1,r28
00002004 6be2           8491 	cmp	11,r28
00002006 f1f5*          8492 	bl	.L9053
                        8493 --2668:     }
                        8494 --2670: }
                        8495 --	    .ef
                        8496 .LDW211:
                        8497 --line2670
                        8498 ..lin.C.3A.5Cgit.5Crh850.5Csrc.5Capp.5Cgfx_apps.5Csimple_draw.5Ctarget.5Cd1mx_mango_ghs.5Cobj.5Cr_dev_clk.480::
                        8499 .LDWlin480:
00002008 4606ff70       8500 	dispose	3,{r25,r26,r27,r28,r29,r31},[lp]
                        8501 	.type	_R_DEV_ClkGenInit,@function
                        8502 	.size	_R_DEV_ClkGenInit,.-_R_DEV_ClkGenInit
                        8503 	.align	2
                        8504 .LDW311:
                        8505 --_i	r27	local
                        8506 --_bus	r28	local
                        8507 --_j	r26	local
                        8508 --_device	r25	local
                        8509 --_prot_stat	0[sp]	local
                        8510 --_new_val	4[sp]	local
                        8511 
                        8512 --_ClkGenCfg	r29	param
                        8513 --_ClkSelCfg	8[sp]	param
                        8514 
                        8515 	.section ".bss","awb"
                        8516 .L9262:
                        8517 	.type	.L9262,@object
                        8518 	.size	.L9262,0
                        8519 	.data
                        8520 	.text
                        8521 
                        8522 
                        8523 --2672: /*******************************************************************************
                        8524 --2673:   Function: R_DEV_ClkGenInitStore
                        8525 --2675:     se: <r_dev_api.h> for details
                        8526 --2676: */
                        8527 --2677: void R_DEV_ClkGenInitStore(r_dev_ClkGenConfig_t * ClkGenCfg)
                        8528 	.align	2
                        8529 	.align	2
                        8530 	.global	_R_DEV_ClkGenInitStore
                        8531 _R_DEV_ClkGenInitStore:

                                                                      Page 147
                                                              C:\Users\Frank\AppData\Local\Temp\gh_0000p9g1.si
0000200c 8207e170       8532 	prepare	{r25,r26,r27,r28,r29,r31},1
00002010 06e0           8533 	mov	r6,r28
00002012 3d0600000000*  8534 	mov	_loc_ClkGenCfg,r29
00002018 390600000000*  8535 	mov	_LocPbusRatio,r25
                        8536 --	    .bf
                        8537 .LDW411:
                        8538 --2678: {
                        8539 --2679:     r_dev_ClkGen_t  i;
                        8540 --2680:     r_dev_Device_t  device;
                        8541 --2681:     
                        8542 --2682:     /* Just to be clean */
                        8543 --2683:     R_DEV_ClkPrepare();
                        8544 	jarl	_R_DEV_ClkPrepare,lp
                        8544 <EXPANSION BEGIN>
                        8544 jarl22 _R_DEV_ClkPrepare , lp 
0000201e bfffaafd*      8544 <EXPANSION END>
                        8545 --2684:     loc_ClkGenCfg.MainOsc.FrequencyHz          = ClkGenCfg->MainOsc.FrequencyHz ;
                        8546 --line2684
                        8547 ..lin.C.3A.5Cgit.5Crh850.5Csrc.5Capp.5Cgfx_apps.5Csimple_draw.5Ctarget.5Cd1mx_mango_ghs.5Cobj.5Cr_dev_clk.481::
                        8548 .LDWlin481:
00002022 3c0f0100       8549 	ld.w	0[r28],r1
00002026 7d0f0100       8550 	st.w	r1,0[r29]
                        8551 --2685:     loc_ClkGenCfg.MainOsc.StabiTimeNs          = ClkGenCfg->MainOsc.StabiTimeNs ;
0000202a 3c0f0500       8552 	ld.w	4[r28],r1
0000202e 7d0f0500       8553 	st.w	r1,4[r29]
                        8554 --2686:     loc_ClkGenCfg.MainOsc.Gain                 = ClkGenCfg->MainOsc.Gain        ;
00002032 9c0f0900       8555 	ld.bu	8[r28],r1
00002036 5d0f0800       8556 	st.b	r1,8[r29]
                        8557 --2687:     loc_ClkGenCfg.MainOsc.Running              = ClkGenCfg->MainOsc.Running     ;
0000203a bc0f0900       8558 	ld.bu	9[r28],r1
0000203e 5d0f0900       8559 	st.b	r1,9[r29]
                        8560 --2688:     loc_ClkGenCfg.MainOsc.StpReqMsk            = ClkGenCfg->MainOsc.StpReqMsk   ;
00002042 9c0f0b00       8561 	ld.bu	10[r28],r1
00002046 5d0f0a00       8562 	st.b	r1,10[r29]
                        8563 --2689:                                                
                        8564 --2690:     loc_ClkGenCfg.SubOsc.FrequencyHz           = ClkGenCfg->SubOsc.FrequencyHz  ;
0000204a 3c0f0d00       8565 	ld.w	12[r28],r1
0000204e 7d0f0d00       8566 	st.w	r1,12[r29]
                        8567 --2691:     loc_ClkGenCfg.SubOsc.Running               = ClkGenCfg->SubOsc.Running      ;
00002052 9c0f1100       8568 	ld.bu	16[r28],r1
00002056 5d0f1000       8569 	st.b	r1,16[r29]
                        8570 --2692:     loc_ClkGenCfg.RoscStpReqMsk                = ClkGenCfg->RoscStpReqMsk;
0000205a 9c0f6900       8571 	ld.bu	104[r28],r1
0000205e 5d0f6800       8572 	st.b	r1,104[r29]
                        8573 --2693:  
                        8574 --2694:     loc_ClkGenCfg.BusEnable[R_DEV_CLK_XCC]     = ClkGenCfg->BusEnable[R_DEV_CLK_XCC]     ;
00002062 bc0f7100       8575 	ld.bu	113[r28],r1
00002066 5d0f7100       8576 	st.b	r1,113[r29]
                        8577 --2695:     loc_ClkGenCfg.BusEnable[R_DEV_CLK_PLL0]    = ClkGenCfg->BusEnable[R_DEV_CLK_PLL0]    ;
0000206a bc0f6900       8578 	ld.bu	105[r28],r1
0000206e 5d0f6900       8579 	st.b	r1,105[r29]
                        8580 --2696:     loc_ClkGenCfg.BusEnable[R_DEV_CLK_PLL1]    = ClkGenCfg->BusEnable[R_DEV_CLK_PLL1]    ;
00002072 9c0f6b00       8581 	ld.bu	106[r28],r1
00002076 5d0f6a00       8582 	st.b	r1,106[r29]
                        8583 --2697:     loc_ClkGenCfg.BusEnable[R_DEV_CLK_PLL2]    = ClkGenCfg->BusEnable[R_DEV_CLK_PLL2]    ;
0000207a bc0f6b00       8584 	ld.bu	107[r28],r1
0000207e 5d0f6b00       8585 	st.b	r1,107[r29]
                        8586 --2698:     loc_ClkGenCfg.BusEnable[R_DEV_CLK_PLL0PIX] = ClkGenCfg->BusEnable[R_DEV_CLK_PLL0PIX] ;
00002082 9c0f6d00       8587 	ld.bu	108[r28],r1
00002086 5d0f6c00       8588 	st.b	r1,108[r29]
                        8589 --2699:     loc_ClkGenCfg.BusEnable[R_DEV_CLK_SDRB]    = ClkGenCfg->BusEnable[R_DEV_CLK_SDRB]    ;

                                                                      Page 148
                                                              C:\Users\Frank\AppData\Local\Temp\gh_0000p9g1.si
0000208a bc0f6d00       8590 	ld.bu	109[r28],r1
0000208e 5d0f6d00       8591 	st.b	r1,109[r29]
                        8592 --2700:     loc_ClkGenCfg.BusEnable[R_DEV_CLK_ETNBP]   = ClkGenCfg->BusEnable[R_DEV_CLK_ETNBP]   ;
00002092 9c0f6f00       8593 	ld.bu	110[r28],r1
00002096 5d0f6e00       8594 	st.b	r1,110[r29]
                        8595 --2701:     loc_ClkGenCfg.BusEnable[R_DEV_CLK_ETNBXCC] = ClkGenCfg->BusEnable[R_DEV_CLK_ETNBXCC] ;
0000209a 9c0f7300       8596 	ld.bu	114[r28],r1
0000209e 5d0f7200       8597 	st.b	r1,114[r29]
                        8598 --2702:     loc_ClkGenCfg.BusEnable[R_DEV_CLK_MLBP]    = ClkGenCfg->BusEnable[R_DEV_CLK_MLBP]    ;
000020a2 bc0f6f00       8599 	ld.bu	111[r28],r1
000020a6 5d0f6f00       8600 	st.b	r1,111[r29]
                        8601 --2703:     loc_ClkGenCfg.BusEnable[R_DEV_CLK_MLBXCC]  = ClkGenCfg->BusEnable[R_DEV_CLK_MLBXCC]  ;
000020aa bc0f7300       8602 	ld.bu	115[r28],r1
000020ae 5d0f7300       8603 	st.b	r1,115[r29]
                        8604 --2704:     loc_ClkGenCfg.BusEnable[R_DEV_CLK_RSCANP]  = ClkGenCfg->BusEnable[R_DEV_CLK_RSCANP]  ;
000020b2 9c0f7100       8605 	ld.bu	112[r28],r1
000020b6 5d0f7000       8606 	st.b	r1,112[r29]
                        8607 --2705:     
                        8608 --2706:     R_DEV_SetGenStopMask(R_DEV_HS_RING, ClkGenCfg->RoscStpReqMsk);
000020ba 9c3f6900       8609 	ld.bu	104[r28],r7
000020be 0332           8610 	mov	3,r6
                        8611 	jarl	_R_DEV_SetGenStopMask,lp
                        8611 <EXPANSION BEGIN>
                        8611 jarl22 _R_DEV_SetGenStopMask , lp 
000020c0 bfff52fb*      8611 <EXPANSION END>
                        8612 --2708:     for (i = R_DEV_PLL0; i <= R_DEV_PLL2; i++)
                        8613 --line2708
                        8614 ..lin.C.3A.5Cgit.5Crh850.5Csrc.5Capp.5Cgfx_apps.5Csimple_draw.5Ctarget.5Cd1mx_mango_ghs.5Cobj.5Cr_dev_clk.482::
                        8615 .LDWlin482:
000020c4 00da           8616 	mov	0,r27
000020c6 0000           8617 	nop
                        8618 .L9422:
                        8619 --2709:     {
                        8620 --2710:         loc_PllCfgStore(ClkGenCfg->MainOsc.FrequencyHz, i, &(ClkGenCfg->Pll[i]));
000020c8 3c370100       8621 	ld.w	0[r28],r6
000020cc 1b08           8622 	mov	r27,r1
000020ce fc0f4002       8623 	mul	28,r1,zero
000020d2 1c761400       8624 	addi	20,r28,r14
000020d6 1b38           8625 	mov	r27,r7
000020d8 ce09           8626 	add	r14,r1
000020da 0140           8627 	mov	r1,r8
                        8628 	jarl	_loc_PllCfgStore,lp
                        8628 <EXPANSION BEGIN>
                        8628 jarl22 _loc_PllCfgStore , lp 
000020dc bfff24df*      8628 <EXPANSION END>
                        8629 --line2708
                        8630 ..lin.C.3A.5Cgit.5Crh850.5Csrc.5Capp.5Cgfx_apps.5Csimple_draw.5Ctarget.5Cd1mx_mango_ghs.5Cobj.5Cr_dev_clk.483::
                        8631 .LDWlin483:
000020e0 41da           8632 	add	1,r27
000020e2 62da           8633 	cmp	2,r27
000020e4 a3f5*          8634 	bnh	.L9422
                        8635 --2711:     }
                        8636 --2712:         /*D1M1 PBUS divider */
                        8637 --2713:     device = R_DEV_GetDev();
                        8638 --line2713
                        8639 ..lin.C.3A.5Cgit.5Crh850.5Csrc.5Capp.5Cgfx_apps.5Csimple_draw.5Ctarget.5Cd1mx_mango_ghs.5Cobj.5Cr_dev_clk.484::
                        8640 .LDWlin484:
                        8641 	jarl	_R_DEV_GetDev,lp
                        8641 <EXPANSION BEGIN>
                        8641 jarl22 _R_DEV_GetDev , lp 
000020e6 80ff0000*      8641 <EXPANSION END>

                                                                      Page 149
                                                              C:\Users\Frank\AppData\Local\Temp\gh_0000p9g1.si
000020ea 0ad0           8642 	mov	r10,r26
                        8643 --2714:     if ((device >= R_DEV_R7F701404) && (device <= R_DEV_R7F701405))
                        8644 --line2714
                        8645 ..lin.C.3A.5Cgit.5Crh850.5Csrc.5Capp.5Cgfx_apps.5Csimple_draw.5Ctarget.5Cd1mx_mango_ghs.5Cobj.5Cr_dev_clk.485::
                        8646 .LDWlin485:
000020ec 1a0684fa       8647 	addi	-1404,r26,zero
000020f0 890d*          8648 	bnl	.L9423
000020f2 1a0682fa       8649 	addi	-1406,r26,zero
000020f6 d105*          8650 	bl	.L9423
                        8651 --2715:     {
                        8652 --2716:         LocPbusRatio = 1;
                        8653 --line2716
                        8654 ..lin.C.3A.5Cgit.5Crh850.5Csrc.5Capp.5Cgfx_apps.5Csimple_draw.5Ctarget.5Cd1mx_mango_ghs.5Cobj.5Cr_dev_clk.486::
                        8655 .LDWlin486:
000020f8 010a           8656 	mov	1,r1
000020fa 790f0100       8657 	st.w	r1,0[r25]
000020fe c505*          8658 	br	.L9426
                        8659 .L9423:
                        8660 --2717:     }
                        8661 --2718:     else
                        8662 --2719:     {
                        8663 --2720:         LocPbusRatio = 2;
                        8664 --line2720
                        8665 ..lin.C.3A.5Cgit.5Crh850.5Csrc.5Capp.5Cgfx_apps.5Csimple_draw.5Ctarget.5Cd1mx_mango_ghs.5Cobj.5Cr_dev_clk.487::
                        8666 .LDWlin487:
00002100 020a           8667 	mov	2,r1
00002102 790f0100       8668 	st.w	r1,0[r25]
                        8669 .L9426:
                        8670 --2721:     }
                        8671 --2722: }
                        8672 --	    .ef
                        8673 .LDW511:
00002106 4206ff70       8674 	dispose	1,{r25,r26,r27,r28,r29,r31},[lp]
                        8675 	.type	_R_DEV_ClkGenInitStore,@function
                        8676 	.size	_R_DEV_ClkGenInitStore,.-_R_DEV_ClkGenInitStore
                        8677 	.align	2
                        8678 .LDW611:
                        8679 --_i	r27	local
                        8680 --_device	r26	local
                        8681 
                        8682 --_ClkGenCfg	r28	param
                        8683 
                        8684 	.data
                        8685 	.text
                        8686 
                        8687 
                        8688 --2726: /*******************************************************************************
                        8689 --2727:   Function: R_DEV_ClkSelection
                        8690 --2729:     se: <r_dev_api.h> for details
                        8691 --2730: */
                        8692 --2731: void R_DEV_ClkSelection(const r_dev_ClkSelConfig_t * ClkSelCfg)
                        8693 	.align	2
                        8694 	.align	2
                        8695 	.global	_R_DEV_ClkSelection
                        8696 _R_DEV_ClkSelection:
0000210a 8007e100       8697 	prepare	{r28,r29,r31},0
0000210e 06e0           8698 	mov	r6,r28
                        8699 --	    .bf
                        8700 .LDW711:
                        8701 --2732: {
                        8702 --2733:     uint16_t i = 0;

                                                                      Page 150
                                                              C:\Users\Frank\AppData\Local\Temp\gh_0000p9g1.si
00002110 00ea           8703 	mov	0,r29
                        8704 --2734:     
                        8705 --2735:      /* assuming we got a config table, we go through it until
                        8706 --2736:      we see the delimiter */
                        8707 --2737:      while (R_DEV_CKS_LAST != ClkSelCfg[i].Cks)
00002112 a50d*          8708 	br	.L9684
                        8709 .L9686:
                        8710 --2738:      {
                        8711 --2739:          R_DEV_ClkIdSet(&(ClkSelCfg[i]));
                        8712 --line2739
                        8713 ..lin.C.3A.5Cgit.5Crh850.5Csrc.5Capp.5Cgfx_apps.5Csimple_draw.5Ctarget.5Cd1mx_mango_ghs.5Cobj.5Cr_dev_clk.488::
                        8714 .LDWlin488:
00002114 1d08           8715 	mov	r29,r1
00002116 ec0f4002       8716 	mul	12,r1,zero
0000211a dc09           8717 	add	r28,r1
0000211c 0130           8718 	mov	r1,r6
                        8719 	jarl	_R_DEV_ClkIdSet,lp
                        8719 <EXPANSION BEGIN>
                        8719 jarl22 _R_DEV_ClkIdSet , lp 
0000211e bfff12eb*      8719 <EXPANSION END>
                        8720 --2740:          i++;
                        8721 --line2740
                        8722 ..lin.C.3A.5Cgit.5Crh850.5Csrc.5Capp.5Cgfx_apps.5Csimple_draw.5Ctarget.5Cd1mx_mango_ghs.5Cobj.5Cr_dev_clk.489::
                        8723 .LDWlin489:
00002122 41ea           8724 	add	1,r29
00002124 dd00           8725 	zxh	r29
                        8726 .L9684:
00002126 1df0           8727 	mov	r29,ep
00002128 ecf74002       8728 	mul	12,ep,zero
0000212c dcf1           8729 	add	r28,ep
0000212e 000d           8730 	sld.w	0[ep],r1
00002130 0106e2ff       8731 	addi	-30,r1,zero
00002134 8af5*          8732 	bne	.L9686
                        8733 --2741:      }
                        8734 --2742: }
                        8735 --	    .ef
                        8736 .LDW811:
                        8737 --line2742
                        8738 ..lin.C.3A.5Cgit.5Crh850.5Csrc.5Capp.5Cgfx_apps.5Csimple_draw.5Ctarget.5Cd1mx_mango_ghs.5Cobj.5Cr_dev_clk.490::
                        8739 .LDWlin490:
00002136 4006ff00       8740 	dispose	0,{r28,r29,r31},[lp]
                        8741 	.type	_R_DEV_ClkSelection,@function
                        8742 	.size	_R_DEV_ClkSelection,.-_R_DEV_ClkSelection
                        8743 	.align	2
                        8744 .LDW911:
                        8745 --_i	r29	local
                        8746 
                        8747 --_ClkSelCfg	r28	param
                        8748 
                        8749 	.section ".bss","awb"
                        8750 .L9734:
                        8751 	.type	.L9734,@object
                        8752 	.size	.L9734,0
                        8753 	.data
                        8754 	.text
                        8755 
                        8756 	.align	2
                        8757 --_loc_Base	_loc_Base	static
                        8758 --_locBusRegAddr	_locBusRegAddr	static
                        8759 --_loc_CkcsBaseAddr	_loc_CkcsBaseAddr	static
                        8760 --_loc_ClockTree	_loc_ClockTree	static

                                                                      Page 151
                                                              C:\Users\Frank\AppData\Local\Temp\gh_0000p9g1.si
                        8761 --_loc_ClkSelDiv	_loc_ClkSelDiv	static
                        8762 --_loc_SscgDiv	_loc_SscgDiv	static
                        8763 --_loc_SscgPercent	_loc_SscgPercent	static
                        8764 --_LocPbusRatio	_LocPbusRatio	static
                        8765 --_loc_ClkGenCfg	_loc_ClkGenCfg	static
                        8766 --_loc_Vdce0ViFreq	_loc_Vdce0ViFreq	static
                        8767 --_loc_Vdce1ViFreq	_loc_Vdce1ViFreq	static
                        8768 
                        8769 	.data
                        8770 	.ghsnote version,15
                        8771 	.ghsnote tools,3
                        8772 	.ghsnote options,144
                        8773 	.text
                        8774 	.align	2
                        8775 ..eof.C.3A.5Cgit.5Crh850.5Csrc.5Capp.5Cgfx_apps.5Csimple_draw.5Ctarget.5Cd1mx_mango_ghs.5Cobj.5Cr_dev_clk...43.3A.5Cgit.5Crh850.5Csrc.5Capp.5Cgfx_apps.5Csimple_draw.5Ctarget.5Cd1mx_mango_ghs..5BC5D024..0::
                        8776 .rh850_flags REGMODE22,DATA_ALIGN8,GP_FIX,EP_NONFIX,TP_FIX,REG2_RESERVE,G3M
