                                                                      Page 1
                                                              C:\Users\Frank\AppData\Local\Temp\gh_0000po81.si
Command Line: C:\GHS\V800.V2014.1.7\comp_201417\ease850.exe -w -elf -b0 -I../../../../../app/common/dhd -I../../../../../app/gfx_apps/simple_draw/src -I../../../../../app/gfx_apps/simple_draw/lib -I../../../../../bsp/board//config -I../../../../../bsp/board//src/gfx -I../../../../../bsp/board//src/hmi -I../../../../../bsp/board//src/stdio -I../../../../../bsp/board/d1mx_mango/config -I../../../../../bsp/board/d1mx_mango/src -I../../../../../bsp/board/d1mx_mango/src/gfx -I../../../../../bsp/board/d1mx_mango/src/hmi -I../../../../../bsp/board/d1mx_mango/src/stdio -I../../../../../bsp/gfx/lib -I../../../../../bsp/gfx/src -I../../../../../bsp/hmi/lib -I../../../../../bsp/hmi/src -I../../../../../bsp/lib -I../../../../../bsp/stdio/lib -I../../../../../bsp/stdio/src -I../../../../../cdi/lib -I../../../../../cdi/src -I../../../../../compiler/rh850_ghs/inc -I../../../../../device/d1mx/lib -I../../../../../device/d1mx/macro_cfg -I../../../../../device/d1mx/macro_cfg/csisw -I../../../../../device/d1mx/macro_cfg/davehd -I../../../../../device/d1mx/macro_cfg/ddb -I../../../../../device/d1mx/macro_cfg/drw2d -I../../../../../device/d1mx/macro_cfg/gfxbus -I../../../../../device/d1mx/macro_cfg/gpio -I../../../../../device/d1mx/macro_cfg/hypb -I../../../../../device/d1mx/macro_cfg/hypdb -I../../../../../device/d1mx/macro_cfg/jcua -I../../../../../device/d1mx/macro_cfg/nfmabare -I../../../../../device/d1mx/macro_cfg/octa -I../../../../../device/d1mx/macro_cfg/octacdb -I../../../../../device/d1mx/macro_cfg/ostm -I../../../../../device/d1mx/macro_cfg/pbg -I../../../../../device/d1mx/macro_cfg/riic -I../../../../../device/d1mx/macro_cfg/sfcdb -I../../../../../device/d1mx/macro_cfg/sfma -I../../../../../device/d1mx/macro_cfg/spea -I../../../../../device/d1mx/macro_cfg/tauj -I../../../../../device/d1mx/macro_cfg/tick -I../../../../../device/d1mx/macro_cfg/vdce -I../../../../../device/d1mx/macro_cfg/vowe -I../../../../../device/d1mx/macro_cfg/wm -I../../../../../device/d1mx/macro_cfg/xbus -I../../../../../device/d1mx/src/dev -I../../../../../device/d1mx/src/dhd -I../../../../../device/d1mx/src/hypb -I../../../../../device/d1mx/src/jcua -I../../../../../device/d1mx/src/nfmabare -I../../../../../device/d1mx/src/octa -I../../../../../device/d1mx/src/rh850_ghs -I../../../../../device/d1mx/src/vowe -I../../../../../device/d1x_common/macro_cfg -I../../../../../device/d1x_common/macro_cfg/csisw -I../../../../../device/d1x_common/macro_cfg/davehd -I../../../../../device/d1x_common/macro_cfg/ddb -I../../../../../device/d1x_common/macro_cfg/drw2d -I../../../../../device/d1x_common/macro_cfg/gfxbus -I../../../../../device/d1x_common/macro_cfg/gpio -I../../../../../device/d1x_common/macro_cfg/hypb -I../../../../../device/d1x_common/macro_cfg/hypdb -I../../../../../device/d1x_common/macro_cfg/jcua -I../../../../../device/d1x_common/macro_cfg/nfmabare -I../../../../../device/d1x_common/macro_cfg/octa -I../../../../../device/d1x_common/macro_cfg/octacdb -I../../../../../device/d1x_common/macro_cfg/ostm -I../../../../../device/d1x_common/macro_cfg/pbg -I../../../../../device/d1x_common/macro_cfg/riic -I../../../../../device/d1x_common/macro_cfg/sfcdb -I../../../../../device/d1x_common/macro_cfg/sfma -I../../../../../device/d1x_common/macro_cfg/spea -I../../../../../device/d1x_common/macro_cfg/tauj -I../../../../../device/d1x_common/macro_cfg/tick -I../../../../../device/d1x_common/macro_cfg/vdce -I../../../../../device/d1x_common/macro_cfg/vowe -I../../../../../device/d1x_common/macro_cfg/wm -I../../../../../device/d1x_common/macro_cfg/xbus -I../../../../../device/d1x_common/src/csisw -I../../../../../device/d1x_common/src/ddb -I../../../../../device/d1x_common/src/dev -I../../../../../device/d1x_common/src/gfxbus -I../../../../../device/d1x_common/src/gpio -I../../../../../device/d1x_common/src/ostm -I../../../../../device/d1x_common/src/pbg -I../../../../../device/d1x_common/src/riic -I../../../../../device/d1x_common/src/sfma -I../../../../../device/d1x_common/src/spea -I../../../../../device/d1x_common/src/tauj -I../../../../../device/d1x_common/src/tick -I../../../../../device/d1x_common/src/vdce -I../../../../../device/d1x_common/src/wm -I../../../../../device/d1x_common/src/xbus -I../../../../../device/lib -I../../../../../macro/bus/pbg/lib -I../../../../../macro/bus/pbg/src -I../../../../../macro/csi/csisw/lib -I../../../../../macro/csi/csisw/src -I../../../../../macro/drw2d/lib -I../../../../../macro/drw2d/platform/davehd -I../../../../../macro/drw2d/platform/os/no_os -I../../../../../macro/drw2d/src -I../../../../../macro/flashc/hypb/lib -I../../../../../macro/flashc/hypb/src -I../../../../../macro/flashc/hypdb/lib -I../../../../../macro/flashc/hypdb/src -I../../../../../macro/flashc/nfmabare/lib -I../../../../../macro/flashc/nfmabare/src -I../../../../../macro/flashc/octa/lib -I../../../../../macro/flashc/octa/src -I../../../../../macro/flashc/octacdb/lib -I../../../../../macro/flashc/octacdb/src -I../../../../../macro/flashc/sfcdb/lib -I../../../../../macro/flashc/sfcdb/src -I../../../../../macro/flashc/sfma/lib -I../../../../../macro/flashc/sfma/src -I../../../../../macro/gfxbus/lib -I../../../../../macro/gfxbus/src -I../../../../../macro/gfxbus/xbus/lib -I../../../../../macro/gfxbus/xbus/src -I../../../../../macro/gpio/lib -I../../../../../macro/gpio/src -I../../../../../macro/gpu/davehd/common/inc -I../../../../../macro/gpu/davehd/common/inc/platform -I../../../../../macro/gpu/davehd/common/inc/platform/d1mx -I../../../../../macro/gpu/davehd/docs -I../../../../../macro/gpu/davehd/kernel/inc -I../../../../../macro/gpu/davehd/kernel/platform/d1mx -I../../../../../macro/gpu/davehd/kernel/platform/d1mx/bridge -I../../../../../macro/gpu/davehd/kernel/platform/d1mx/non_threaded -I../../../../../macro/gpu/davehd/kernel/platform/ree -I../../../../../macro/gpu/davehd/kernel/src -I../../../../../macro/gpu/davehd/user/inc -I../../../../../macro/gpu/davehd/user/platform/d1mx/no_os -I../../../../../macro/gpu/davehd/user/src -I../../../../../macro/gpu/jcua/lib -I../../../../../macro/gpu/jcua/src -I../../../../../macro/i2c/riic/lib -I../../../../../macro/i2c/riic/src -I../../../../../macro/tick/lib -I../../../../../macro/tick/src -I../../../../../macro/timer/ostm/lib -I../../../../../macro/timer/ostm/src -I../../../../../macro/timer/tauj/lib -I../../../../../macro/timer/tauj/src -I../../../../../macro/vdce/lib -I../../../../../macro/vdce/src -I../../../../../macro/vo/ddb/lib -I../../../../../macro/vo/ddb/src -I../../../../../macro/vo/spea/lib -I../../../../../macro/vo/spea/src -I../../../../../macro/vo/vowe/lib -I../../../../../macro/vo/vowe/src -I../../../../../macro/wm/lib -I../../../../../macro/wm/src -I../../../../../macro/pwm/lib -I../../../../../macro/reset/lib -I../../../../../macro/rscan/lib -I../../../../../macro/uart/rlin3/lib -I../../../../../macro/uart/rlin3/src -I../../../../../device/d1x_common/macro_cfg/rlin3 -I../../../../../macro/stbc/lib -I../../../../../macro/adc/lib -I../../../../../device/d1x_common/macro_cfg/adc7010 -IC:\GHS\V800.V2014.1.7\comp_201417\lib\rh850_22 -cg_underscore -cpu=rh850g3m -no_v850_simd -rh850_fpsimd=none -nomacro -patch_dbo=C:\git\rh850\src\app\gfx_apps\simple_draw\target\d1mx_mango_ghs\obj\r_dev_init.dbo -source=r_dev_init.c -o .\obj\gh_0000po81.o -list=.\obj\r_dev_init.lst C:\Users\Frank\AppData\Local\Temp\gh_0000po81.si 
Original File: C:\Users\Frank\AppData\Local\Temp\gh_0000po81.si
Source File: r_dev_init.c
Directory: C:\git\rh850\src\app\gfx_apps\simple_draw\target\d1mx_mango_ghs
Host OS: Windows
EASE: Copyright (C) 1983-2014 Green Hills Software.  All Rights Reversed.
Release: Compiler v2014.1.7
Build Directory: [Directory] BTOWINBOX:c:/build_2014_1_bto/2014-09-04.2200-2014_1_bto/win32-comp-ecom
Revision: [VCInfo] http://toolsvc/branches/release-branch-2014-1-bto/src@515859 (built by build)
Revision Date: Fri Sep 05 14:05:06 2014

Release Date: Fri Sep 05 14:43:29 2014

                           1 --Driver Command: ccv850 -c -MD -I../../../../../app/common/dhd
                           2 --		-I../../../../../app/gfx_apps/simple_draw/src
                           3 --		-I../../../../../app/gfx_apps/simple_draw/lib
                           4 --		-I../../../../../bsp/board//config
                           5 --		-I../../../../../bsp/board//src/gfx
                           6 --		-I../../../../../bsp/board//src/hmi
                           7 --		-I../../../../../bsp/board//src/stdio
                           8 --		-I../../../../../bsp/board/d1mx_mango/config
                           9 --		-I../../../../../bsp/board/d1mx_mango/src
                          10 --		-I../../../../../bsp/board/d1mx_mango/src/gfx
                          11 --		-I../../../../../bsp/board/d1mx_mango/src/hmi
                          12 --		-I../../../../../bsp/board/d1mx_mango/src/stdio
                          13 --		-I../../../../../bsp/gfx/lib -I../../../../../bsp/gfx/src
                          14 --		-I../../../../../bsp/hmi/lib -I../../../../../bsp/hmi/src
                          15 --		-I../../../../../bsp/lib -I../../../../../bsp/stdio/lib
                          16 --		-I../../../../../bsp/stdio/src -I../../../../../cdi/lib
                          17 --		-I../../../../../cdi/src -I../../../../../compiler/rh850_ghs/inc
                          18 --		-I../../../../../device/d1mx/lib
                          19 --		-I../../../../../device/d1mx/macro_cfg
                          20 --		-I../../../../../device/d1mx/macro_cfg/csisw
                          21 --		-I../../../../../device/d1mx/macro_cfg/davehd
                          22 --		-I../../../../../device/d1mx/macro_cfg/ddb
                          23 --		-I../../../../../device/d1mx/macro_cfg/drw2d
                          24 --		-I../../../../../device/d1mx/macro_cfg/gfxbus
                          25 --		-I../../../../../device/d1mx/macro_cfg/gpio
                          26 --		-I../../../../../device/d1mx/macro_cfg/hypb
                          27 --		-I../../../../../device/d1mx/macro_cfg/hypdb
                          28 --		-I../../../../../device/d1mx/macro_cfg/jcua
                          29 --		-I../../../../../device/d1mx/macro_cfg/nfmabare
                          30 --		-I../../../../../device/d1mx/macro_cfg/octa
                          31 --		-I../../../../../device/d1mx/macro_cfg/octacdb
                          32 --		-I../../../../../device/d1mx/macro_cfg/ostm
                          33 --		-I../../../../../device/d1mx/macro_cfg/pbg
                          34 --		-I../../../../../device/d1mx/macro_cfg/riic
                          35 --		-I../../../../../device/d1mx/macro_cfg/sfcdb
                          36 --		-I../../../../../device/d1mx/macro_cfg/sfma
                          37 --		-I../../../../../device/d1mx/macro_cfg/spea
                          38 --		-I../../../../../device/d1mx/macro_cfg/tauj
                          39 --		-I../../../../../device/d1mx/macro_cfg/tick
                          40 --		-I../../../../../device/d1mx/macro_cfg/vdce
                          41 --		-I../../../../../device/d1mx/macro_cfg/vowe
                          42 --		-I../../../../../device/d1mx/macro_cfg/wm
                          43 --		-I../../../../../device/d1mx/macro_cfg/xbus
                          44 --		-I../../../../../device/d1mx/src/dev
                          45 --		-I../../../../../device/d1mx/src/dhd
                          46 --		-I../../../../../device/d1mx/src/hypb
                          47 --		-I../../../../../device/d1mx/src/jcua
                          48 --		-I../../../../../device/d1mx/src/nfmabare
                          49 --		-I../../../../../device/d1mx/src/octa
                          50 --		-I../../../../../device/d1mx/src/rh850_ghs

                                                                      Page 2
                                                              C:\Users\Frank\AppData\Local\Temp\gh_0000po81.si
                          51 --		-I../../../../../device/d1mx/src/vowe
                          52 --		-I../../../../../device/d1x_common/macro_cfg
                          53 --		-I../../../../../device/d1x_common/macro_cfg/csisw
                          54 --		-I../../../../../device/d1x_common/macro_cfg/davehd
                          55 --		-I../../../../../device/d1x_common/macro_cfg/ddb
                          56 --		-I../../../../../device/d1x_common/macro_cfg/drw2d
                          57 --		-I../../../../../device/d1x_common/macro_cfg/gfxbus
                          58 --		-I../../../../../device/d1x_common/macro_cfg/gpio
                          59 --		-I../../../../../device/d1x_common/macro_cfg/hypb
                          60 --		-I../../../../../device/d1x_common/macro_cfg/hypdb
                          61 --		-I../../../../../device/d1x_common/macro_cfg/jcua
                          62 --		-I../../../../../device/d1x_common/macro_cfg/nfmabare
                          63 --		-I../../../../../device/d1x_common/macro_cfg/octa
                          64 --		-I../../../../../device/d1x_common/macro_cfg/octacdb
                          65 --		-I../../../../../device/d1x_common/macro_cfg/ostm
                          66 --		-I../../../../../device/d1x_common/macro_cfg/pbg
                          67 --		-I../../../../../device/d1x_common/macro_cfg/riic
                          68 --		-I../../../../../device/d1x_common/macro_cfg/sfcdb
                          69 --		-I../../../../../device/d1x_common/macro_cfg/sfma
                          70 --		-I../../../../../device/d1x_common/macro_cfg/spea
                          71 --		-I../../../../../device/d1x_common/macro_cfg/tauj
                          72 --		-I../../../../../device/d1x_common/macro_cfg/tick
                          73 --		-I../../../../../device/d1x_common/macro_cfg/vdce
                          74 --		-I../../../../../device/d1x_common/macro_cfg/vowe
                          75 --		-I../../../../../device/d1x_common/macro_cfg/wm
                          76 --		-I../../../../../device/d1x_common/macro_cfg/xbus
                          77 --		-I../../../../../device/d1x_common/src/csisw
                          78 --		-I../../../../../device/d1x_common/src/ddb
                          79 --		-I../../../../../device/d1x_common/src/dev
                          80 --		-I../../../../../device/d1x_common/src/gfxbus
                          81 --		-I../../../../../device/d1x_common/src/gpio
                          82 --		-I../../../../../device/d1x_common/src/ostm
                          83 --		-I../../../../../device/d1x_common/src/pbg
                          84 --		-I../../../../../device/d1x_common/src/riic
                          85 --		-I../../../../../device/d1x_common/src/sfma
                          86 --		-I../../../../../device/d1x_common/src/spea
                          87 --		-I../../../../../device/d1x_common/src/tauj
                          88 --		-I../../../../../device/d1x_common/src/tick
                          89 --		-I../../../../../device/d1x_common/src/vdce
                          90 --		-I../../../../../device/d1x_common/src/wm
                          91 --		-I../../../../../device/d1x_common/src/xbus
                          92 --		-I../../../../../device/lib -I../../../../../macro/bus/pbg/lib
                          93 --		-I../../../../../macro/bus/pbg/src
                          94 --		-I../../../../../macro/csi/csisw/lib
                          95 --		-I../../../../../macro/csi/csisw/src
                          96 --		-I../../../../../macro/drw2d/lib
                          97 --		-I../../../../../macro/drw2d/platform/davehd
                          98 --		-I../../../../../macro/drw2d/platform/os/no_os
                          99 --		-I../../../../../macro/drw2d/src
                         100 --		-I../../../../../macro/flashc/hypb/lib
                         101 --		-I../../../../../macro/flashc/hypb/src
                         102 --		-I../../../../../macro/flashc/hypdb/lib
                         103 --		-I../../../../../macro/flashc/hypdb/src
                         104 --		-I../../../../../macro/flashc/nfmabare/lib
                         105 --		-I../../../../../macro/flashc/nfmabare/src
                         106 --		-I../../../../../macro/flashc/octa/lib
                         107 --		-I../../../../../macro/flashc/octa/src
                         108 --		-I../../../../../macro/flashc/octacdb/lib
                         109 --		-I../../../../../macro/flashc/octacdb/src
                         110 --		-I../../../../../macro/flashc/sfcdb/lib
                         111 --		-I../../../../../macro/flashc/sfcdb/src

                                                                      Page 3
                                                              C:\Users\Frank\AppData\Local\Temp\gh_0000po81.si
                         112 --		-I../../../../../macro/flashc/sfma/lib
                         113 --		-I../../../../../macro/flashc/sfma/src
                         114 --		-I../../../../../macro/gfxbus/lib
                         115 --		-I../../../../../macro/gfxbus/src
                         116 --		-I../../../../../macro/gfxbus/xbus/lib
                         117 --		-I../../../../../macro/gfxbus/xbus/src
                         118 --		-I../../../../../macro/gpio/lib -I../../../../../macro/gpio/src
                         119 --		-I../../../../../macro/gpu/davehd/common/inc
                         120 --		-I../../../../../macro/gpu/davehd/common/inc/platform
                         121 --		-I../../../../../macro/gpu/davehd/common/inc/platform/d1mx
                         122 --		-I../../../../../macro/gpu/davehd/docs
                         123 --		-I../../../../../macro/gpu/davehd/kernel/inc
                         124 --		-I../../../../../macro/gpu/davehd/kernel/platform/d1mx
                         125 --		-I../../../../../macro/gpu/davehd/kernel/platform/d1mx/bridge
                         126 --		-I../../../../../macro/gpu/davehd/kernel/platform/d1mx/non_threaded
                         127 --		-I../../../../../macro/gpu/davehd/kernel/platform/ree
                         128 --		-I../../../../../macro/gpu/davehd/kernel/src
                         129 --		-I../../../../../macro/gpu/davehd/user/inc
                         130 --		-I../../../../../macro/gpu/davehd/user/platform/d1mx/no_os
                         131 --		-I../../../../../macro/gpu/davehd/user/src
                         132 --		-I../../../../../macro/gpu/jcua/lib
                         133 --		-I../../../../../macro/gpu/jcua/src
                         134 --		-I../../../../../macro/i2c/riic/lib
                         135 --		-I../../../../../macro/i2c/riic/src
                         136 --		-I../../../../../macro/tick/lib -I../../../../../macro/tick/src
                         137 --		-I../../../../../macro/timer/ostm/lib
                         138 --		-I../../../../../macro/timer/ostm/src
                         139 --		-I../../../../../macro/timer/tauj/lib
                         140 --		-I../../../../../macro/timer/tauj/src
                         141 --		-I../../../../../macro/vdce/lib -I../../../../../macro/vdce/src
                         142 --		-I../../../../../macro/vo/ddb/lib
                         143 --		-I../../../../../macro/vo/ddb/src
                         144 --		-I../../../../../macro/vo/spea/lib
                         145 --		-I../../../../../macro/vo/spea/src
                         146 --		-I../../../../../macro/vo/vowe/lib
                         147 --		-I../../../../../macro/vo/vowe/src -I../../../../../macro/wm/lib
                         148 --		-I../../../../../macro/wm/src -I../../../../../macro/pwm/lib
                         149 --		-I../../../../../macro/i2c/riic/lib
                         150 --		-I../../../../../macro/reset/lib -I../../../../../macro/rscan/lib
                         151 --		-I../../../../../macro/uart/rlin3/lib
                         152 --		-I../../../../../macro/uart/rlin3/src
                         153 --		-I../../../../../device/d1x_common/macro_cfg/rlin3
                         154 --		-I../../../../../macro/stbc/lib
                         155 --		-I../../../../../app/gfx_apps/simple_draw/lib
                         156 --		-I../../../../../macro/adc/lib
                         157 --		-I../../../../../device/d1x_common/macro_cfg/adc7010 -G
                         158 --		--no_commons --no_implicit_include --prototype_errors
                         159 --		-DRENESAS_D1X -DR_DRW2D_OS_NO_OS -DR_DRW2D_SYS_DHD
                         160 --		-DUSED_CPU=RH850G3M -DUSE_BSP_GFX -DUSE_BSP_HMI -DUSE_BSP_STDIO
                         161 --		-DUSE_CDI -DUSE_CSISW -DUSE_DAVEHD -DUSE_DDB -DUSE_DRW2D
                         162 --		-DUSE_GFXBUS -DUSE_GPIO -DUSE_HYPB -DUSE_HYPDB -DUSE_JCUA
                         163 --		-DUSE_NFMABARE -DUSE_OCTA -DUSE_OCTACDB -DUSE_OSTM -DUSE_PBG
                         164 --		-DUSE_RIIC -DUSE_SFCDB -DUSE_SFMA -DUSE_SPEA -DUSE_TAUJ
                         165 --		-DUSE_TICK -DUSE_VDCE -DUSE_WM -DUSE_XBUS -DMAG -MD -Zuse1bit
                         166 --		-allocate_ep -cpu=rh850g3m -large_sda -list -no_callt -notda
                         167 --		-passsource -preprocess_assembly_files -registermode=22
                         168 --		-reserve_r2 --diag_warning 1 -object_dir=./obj -DUSE_VDCE_OPENLDI
                         169 --		-gnu99 -filetype.c
                         170 --		..\..\..\..\..\device\d1x_common\src\dev\r_dev_init.c -o
                         171 --		.\obj\r_dev_init.o
                         172 --Source File:   ..\..\..\..\..\device\d1x_common\src\dev\r_dev_init.c

                                                                      Page 4
                                                              C:\Users\Frank\AppData\Local\Temp\gh_0000po81.si
                         173 --Directory:     
                         174 --		C:\git\rh850\src\app\gfx_apps\simple_draw\target\d1mx_mango_ghs
                         175 --Compile Date:  Tue Oct 16 19:48:52 2018
                         176 --Host OS:       Win32
                         177 --Version:       C-RH850 2014.1.7 RELEASE VERSION
                         178 --Release:       Compiler v2014.1.7
                         179 --Revision Date: Fri Sep 05 14:10:46 2014
                         180 --Release Date:  Fri Sep 05 14:44:23 2014
                         181 -- ecom  -g -w
                         182 
                         183 --1: /*
                         184 --2: ****************************************************************************
                         185 --3: PROJECT : Device Driver 
                         186 --4: FILE    : $Id: r_dev_init.c 13635 2017-06-02 06:04:10Z shinya.tomari $
                         187 --5: ============================================================================
                         188 --6: DESCRIPTION
                         189 --7: RH850/D1x device initialization
                         190 --8: ============================================================================
                         191 --9:                             C O P Y R I G H T
                         192 --10: ============================================================================
                         193 --11:                        Copyright (c) 2013 - 2016
                         194 --12:                                   by 
                         195 --13:                        Renesas Electronics (Europe) GmbH.
                         196 --14:                            Arcadiastrasse 10
                         197 --15:                           D-40472 Duesseldorf
                         198 --16:                                Germany
                         199 --17:                           All rights reserved.
                         200 --18: ============================================================================
                         201 --19: Purpose: only for testing, not for mass production
                         202 --21: DISCLAIMER
                         203 --23: LICENSEE has read, understood and accepted the terms and conditions defined in
                         204 --24: the license agreement, especially the usage rights. In any case, it is
                         205 --25: LICENSEE's responsibility to make sure that any user of the software complies
                         206 --26: with the terms and conditions of the signed license agreement.
                         207 --28: SAMPLE CODE is not part of the licensed software, as such it must not be used in
                         208 --29: mass-production applications. It can only be used for evaluation and
                         209 --30: demonstration purposes at customer's premises listed in the signed license
                         210 --31: agreement.
                         211 --33: ****************************************************************************
                         212 --34: */
                         213 --37: /*******************************************************************************
                         214 --38:   Title: device general (error handling, init/prepare) functions
                         215 --40:   
                         216 --41: */
                         217 --43: /*******************************************************************************
                         218 --44:   Section: Includes
                         219 --45: */
                         220 --47: #include "r_typedefs.h"
                         221 --48: #include "r_dev_api.h"
                         222 --50: #ifdef R_DBG_PRINT_MSG
                         223 --51:    #include <stdio.h> 
                         224 --52:    #include "r_dbg_api.h"
                         225 --53: #endif
                         226 --55: /*******************************************************************************
                         227 --56:   Section: Local types 
                         228 --57: */
                         229 --59: typedef struct 
                         230 --60: {
                         231 --61:     r_dev_IntSel_t IntIc; 
                         232 --62:     uint8_t        Prio; 
                         233 --63: } loc_IntCtrl_t;  

                                                                      Page 5
                                                              C:\Users\Frank\AppData\Local\Temp\gh_0000po81.si
                         234 --65: /*******************************************************************************
                         235 --66:   Section: Local Constants 
                         236 --67: */
                         237 --69: /*******************************************************************************
                         238 --70:   Constant: LOC_FCCTL0
                         239 --71:   
                         240 --72:   Addrees of the flash cache configuration register 
                         241 --73: */
                         242 --75: #define LOC_FCCTL0              0xffff6480u
                         243 --77: /*******************************************************************************
                         244 --78:   Constant: LOC_APFSGDPROT_INTC2
                         245 --79:   
                         246 --80:   Addresses of the APB Guard registers for the INTC and DMA   
                         247 --81: */
                         248 --82: #define LOC_APFSGDPROT_INTC2    0xFFC4C000u
                         249 --83: #define LOC_APFSGDPROT_PDMA     0xFFC4C004u
                         250 --85: /*******************************************************************************
                         251 --86:   Constant: LOC_APFSGDPROT_INTC2
                         252 --87:   
                         253 --88:   Addresses of the PEG registers needed to enable RAM access for AXI Bus masters   
                         254 --89: */
                         255 --91: #define LOC_REG_PEGSP		    0XFFFEE60CUL
                         256 --92: #define LOC_REG_PEGG0MK         0XFFFEE680UL
                         257 --93: #define LOC_REG_PEGG0BA		    0XFFFEE684UL
                         258 --96: /*******************************************************************************
                         259 --97:   Constant: loc_IntCtrl
                         260 --98:   
                         261 --99:   Priority setting for all implemented/used/required interrupts  
                         262 --100: */
                         263 --101: static const loc_IntCtrl_t loc_IntCtrl[] = 
                         264 --102: {
                         265 --103:  /*  Index/name         Set Prio      */
                         266 --104:  {R_DEV_INT_P1         , 7      },
                         267 --105:  {R_DEV_INT_P2         , 7      },
                         268 --106:  {R_DEV_INT_P3         , 7      },
                         269 --107:  {R_DEV_INT_P4         , 7      },
                         270 --108:  {R_DEV_INT_P5         , 7      },
                         271 --109:  {R_DEV_INT_P6         , 7      },
                         272 --110:  {R_DEV_INT_P7         , 7      },
                         273 --111:  {R_DEV_INT_P8         , 7      },
                         274 --112:  {R_DEV_INT_P9         , 7      },
                         275 --113:  {R_DEV_INT_P10        , 7      },
                         276 --114:  {R_DEV_INT_OSTM0      , 1      },
                         277 --115:  {R_DEV_INT_TAUJ0I0    , 2      },
                         278 --116:  {R_DEV_INT_TAUJ0I1    , 2      },
                         279 --117:  {R_DEV_INT_TAUJ0I2    , 2      },
                         280 --118:  {R_DEV_INT_TAUJ0I3    , 2      },
                         281 --119:  {R_DEV_INT_DAVEHD0PAUSE , 2      },
                         282 --120:  {R_DEV_INT_DAVEHD0SYNC  , 2      },
                         283 --121:  {R_DEV_INT_DAVEHD0SP    , 2      },
                         284 --123: {R_DEV_INT_VDCE0ERR            ,2},
                         285 --124: {R_DEV_INT_VDCE0GR3VBLANK      ,2},
                         286 --125: {R_DEV_INT_VDCE0S0VIVSYNC      ,2},
                         287 --126: {R_DEV_INT_VDCE0S0LOVSYNC      ,2},
                         288 --127: {R_DEV_INT_VDCE0GR3VLINE       ,2},
                         289 --128: {R_DEV_INT_VDCE0S0VFIELD       ,2},
                         290 --129: {R_DEV_INT_VDCE0S1LOVSYNC      ,2},
                         291 --130: {R_DEV_INT_VDCE0OIRVIVSYNC     ,2},
                         292 --131: {R_DEV_INT_VDCE0OIRLOVSYNC     ,2},
                         293 --132: {R_DEV_INT_VDCE0IRVLINE        ,2},
                         294 --134: {R_DEV_INT_VDCE1ERR            ,2},

                                                                      Page 6
                                                              C:\Users\Frank\AppData\Local\Temp\gh_0000po81.si
                         295 --135: {R_DEV_INT_VDCE1GR3VBLANK      ,2},
                         296 --136: {R_DEV_INT_VDCE1S0VIVSYNC      ,2},
                         297 --137: {R_DEV_INT_VDCE1S0LOVSYNC      ,2},
                         298 --138: {R_DEV_INT_VDCE1GR3VLINE       ,2},
                         299 --139: {R_DEV_INT_VDCE1S0VFIELD       ,2},
                         300 --140: {R_DEV_INT_VDCE1S1LOVSYNC      ,2},
                         301 --141:  {R_DEV_INT_IMRD0    , 2      }, 
                         302 --142: /* delimiter, do not remove !!! */
                         303 --143:  {R_DEV_INT_LAST       , 7      }
                         304 --144: };
                         305 --147: /*******************************************************************************
                         306 --148:   Constant: loc_DevName
                         307 --149:   
                         308 --150:   Human readable device Names   
                         309 --151: */
                         310 --152: static const char *loc_DevName[] = 
                         311 --153: {
                         312 --154:     "CAN-FD Unknown device",
                         313 --155:     "CAN-FD D1L1",         
                         314 --156:     "CAN-FD D1L2",         
                         315 --157:     "CAN-FD D1L2H",        
                         316 --158:     "CAN-FD D1M1_3.75M",   
                         317 --159:     "CAN-FD D1M1_5M",      
                         318 --160:     "CAN-FD D1M1H_3.75M",  
                         319 --161:     "CAN-FD D1M1H_5M",     
                         320 --162:     "CAN-FD D1M2_3.75M",   
                         321 --163:     "CAN-FD R7F701409",    
                         322 --164:     "CAN-FD D1M2_5M",      
                         323 --165:     "CAN-FD D1M2H_3.75M",  
                         324 --166:     "CAN-FD D1M2H_5M",      
                         325 --167:     "CAN-FD Unknown device",
                         326 --168:     "CAN-FD Unknown device",
                         327 --169:     "CAN-FD Unknown device",
                         328 --170:     "CAN-FD Unknown device",
                         329 --171:     "CAN-FD R7F701417",
                         330 --172:     "CAN-FD R7F701418",
                         331 --173:     "CAN-FD Unknown device",
                         332 --174:     "CAN-FD Unknown device",
                         333 --175:     "CAN-FD Unknown device",
                         334 --176:     "CAN-FD Unknown device",
                         335 --177:     "CAN-FD Unknown device",
                         336 --178:     "CAN-FD Unknown device",
                         337 --179:     "CAN-FD Unknown device",
                         338 --180:     "CAN-FD Unknown device",
                         339 --181:     "CAN-FD Unknown device",
                         340 --182:     "CAN-FD Unknown device",
                         341 --183:     "CAN-FD Unknown device",
                         342 --184:     "CAN-FD Unknown device",
                         343 --185:     "CAN-FD Unknown device",
                         344 --186:     "CAN-FD Unknown device",
                         345 --187:     "CAN-FD Unknown device",
                         346 --188:     "CAN-FD Unknown device",
                         347 --189:     "CAN-FD Unknown device",
                         348 --190:     "CAN-FD Unknown device",
                         349 --191:     "CAN-FD Unknown device",
                         350 --192:     "CAN-FD Unknown device",
                         351 --193:     "CAN-FD Unknown device",
                         352 --194:     "CAN-FD Unknown device",
                         353 --195:     "CAN-FD D1M1A",
                         354 --196:     "CAN-FD D1M1-V2",
                         355 --197:     "CAN-FD Unknown device",

                                                                      Page 7
                                                              C:\Users\Frank\AppData\Local\Temp\gh_0000po81.si
                         356 --198:     "CAN-FD Unknown device",
                         357 --199:     "CAN-FD Unknown device",
                         358 --200:     "CAN-FD Unknown device",
                         359 --201:     "CAN-FD Unknown device",
                         360 --202:     "CAN-FD Unknown device",
                         361 --203:     "CAN-FD Unknown device",
                         362 --204:     "CAN-FD Unknown device",
                         363 --205:     "CAN-FD Unknown device",
                         364 --206:     "CAN-FD Unknown device",
                         365 --207:     "CAN-FD Unknown device",
                         366 --208:     "CAN-FD Unknown device",
                         367 --209:     "CAN-FD Unknown device",
                         368 --210:     "CAN-FD Unknown device",
                         369 --211:     "CAN-FD Unknown device",
                         370 --212:     "CAN-FD Unknown device",
                         371 --213:     "CAN-FD Unknown device",
                         372 --214:     "CAN-FD R7F701460"
                         373 --215: };
                         374 --218: /*******************************************************************************
                         375 --219:   Section: Local Variables
                         376 --220: */
                         377 --222: /*******************************************************************************
                         378 --223:   Variable: loc_DevNum
                         379 --225:   loc_DevNum holds the device number that is identified by
                         380 --226:   the first function call of R_DEV_GetDev().
                         381 --227:   Further calls to R_DEV_GetDev() will immediatly return loc_DevNum.   
                         382 --228: */
                         383 --230: #if defined DEV_OVERRIDE
                         384 --231:   #warning "Device identification changed by DEV_OVERRIDE!"
                         385 --232:   static r_dev_Device_t loc_DevNum = DEV_OVERRIDE;
                         386 --233: #else
                         387 --234: static r_dev_Device_t loc_DevNum = R_DEV_UNKNOWN_DEVICE;
                         388 --235: #endif
                         389 --237: /*******************************************************************************
                         390 --238:   Variable: loc_DevHasCanFD
                         391 --240:   in case the device has CAH-FD (instead of a standard can, this flag is setting
                         392 --241:    
                         393 --242: */
                         394 --244: static uint32_t loc_DevHasCanFD = 0;
                         395 --246: /*******************************************************************************
                         396 --247:   Variable: loc_ErrorHandler
                         397 --249:   A function pointer to a user callback (Applications error handler)  
                         398 --250:   
                         399 --251:   The value is assigned by the application using the driver 
                         400 --252: */
                         401 --254: static void (*loc_ErrorHandler )(uint32_t Unit, uint32_t Error) = 0;
                         402 --256: /*******************************************************************************
                         403 --257:   Section: Local functions
                         404 --258: */
                         405 --260: /*******************************************************************************
                         406 --261:   Function: R_DEV_ErrorHandler
                         407 --262:   
                         408 --263:   see <r_dev_api.h> 
                         409 --264: */
                         410 --266: void R_DEV_ErrorHandler(uint32_t Unit, uint32_t Error) 
                         411 	.text
                         412 ..bof.C.3A.5Cgit.5Crh850.5Csrc.5Capp.5Cgfx_apps.5Csimple_draw.5Ctarget.5Cd1mx_mango_ghs.5Cobj.5Cr_dev_init...43.3A.5Cgit.5Crh850.5Csrc.5Capp.5Cgfx_apps.5Csimple_draw.5Ctarget.5Cd1mx_mango_ghs..5BC5D024..0::
                         413 	.align	2
                         414 	.global	_R_DEV_ErrorHandler
                         415 _R_DEV_ErrorHandler:
00000000 8007e170        416 	prepare	{r25,r26,r27,r28,r29,r31},0

                                                                      Page 8
                                                              C:\Users\Frank\AppData\Local\Temp\gh_0000po81.si
00000004 3d0600000000*   417 	mov	.L46,r29
0000000a 06e0            418 	mov	r6,r28
0000000c 07d8            419 	mov	r7,r27
0000000e 3dd60800        420 	movea	8,r29,r26
                         421 --	    .bf
                         422 .LDW01:
                         423 --267: {
                         424 --268:     if (loc_ErrorHandler != 0) 
00000012 3d0f0900        425 	ld.w	8[r29],r1
00000016 e009            426 	cmp	zero,r1
00000018 820d*           427 	be	.L4
                         428 --269:     {      
                         429 --270:         /* we've got a registered error handler here ...*/
                         430 --271:         loc_ErrorHandler(Unit, Error);      
                         431 --line271
                         432 ..lin.C.3A.5Cgit.5Crh850.5Csrc.5Capp.5Cgfx_apps.5Csimple_draw.5Ctarget.5Cd1mx_mango_ghs.5Cobj.5Cr_dev_init.1::
                         433 .LDWlin1:
0000001a 3dcf0900        434 	ld.w	8[r29],r25
0000001e 1c30            435 	mov	r28,r6
00000020 1b38            436 	mov	r27,r7
00000022 f9c760f9        437 	jarl	[r25],lp
00000026 a505*           438 	br	.L6
                         439 .L4:
                         440 --272:     } 
                         441 --273:     else 
                         442 --274:     {
                         443 --275:         for (;;) 
                         444 .L9:
                         445 --276:         {                          /* we don't have a handler */
                         446 --line275
                         447 ..lin.C.3A.5Cgit.5Crh850.5Csrc.5Capp.5Cgfx_apps.5Csimple_draw.5Ctarget.5Cd1mx_mango_ghs.5Cobj.5Cr_dev_init.2::
                         448 .LDWlin2:
00000028 8505*           449 	br	.L9
                         450 .L6:
                         451 --277:         }                          /* so, let's wait here */
                         452 --278:     }
                         453 --279: }
                         454 --	    .ef
                         455 .LDW11:
                         456 --line279
                         457 ..lin.C.3A.5Cgit.5Crh850.5Csrc.5Capp.5Cgfx_apps.5Csimple_draw.5Ctarget.5Cd1mx_mango_ghs.5Cobj.5Cr_dev_init.3::
                         458 .LDWlin3:
0000002a 4006ff70        459 	dispose	0,{r25,r26,r27,r28,r29,r31},[lp]
                         460 	.type	_R_DEV_ErrorHandler,@function
                         461 	.size	_R_DEV_ErrorHandler,.-_R_DEV_ErrorHandler
                         462 	.align	2
                         463 .LDW21:
                         464 
                         465 --_Unit	r28	param
                         466 --_Error	r27	param
                         467 
                         468 	.data
                         469 	.align	4
                         470 .L46:
                         471 	.type	.L46,@object
                         472 	.size	.L46,0
                         473 	.global	_loc_DevNum..C.3A.5Cgit.5Crh850.5Csrc.5Capp.5Cgfx_apps.5Csimple_draw.5Ctarget.5Cd1mx_mango_ghs.5Cobj.5Cr_dev_init.
                         474 _loc_DevNum..C.3A.5Cgit.5Crh850.5Csrc.5Capp.5Cgfx_apps.5Csimple_draw.5Ctarget.5Cd1mx_mango_ghs.5Cobj.5Cr_dev_init.:
00000000 00000000        475 _loc_DevNum:	.byte	0,0,0,0
                         476 	.type	_loc_DevNum..C.3A.5Cgit.5Crh850.5Csrc.5Capp.5Cgfx_apps.5Csimple_draw.5Ctarget.5Cd1mx_mango_ghs.5Cobj.5Cr_dev_init.,@object
                         477 	.size	_loc_DevNum..C.3A.5Cgit.5Crh850.5Csrc.5Capp.5Cgfx_apps.5Csimple_draw.5Ctarget.5Cd1mx_mango_ghs.5Cobj.5Cr_dev_init.,4

                                                                      Page 9
                                                              C:\Users\Frank\AppData\Local\Temp\gh_0000po81.si
                         478 	.type	_loc_DevNum,@object
                         479 	.size	_loc_DevNum,4
                         480 	.global	_loc_DevHasCanFD..C.3A.5Cgit.5Crh850.5Csrc.5Capp.5Cgfx_apps.5Csimple_draw.5Ctarget.5Cd1mx_mango_ghs.5Cobj.5Cr_dev_init.
                         481 _loc_DevHasCanFD..C.3A.5Cgit.5Crh850.5Csrc.5Capp.5Cgfx_apps.5Csimple_draw.5Ctarget.5Cd1mx_mango_ghs.5Cobj.5Cr_dev_init.:
00000004 00000000        482 _loc_DevHasCanFD:	.byte	0,0,0,0
                         483 	.type	_loc_DevHasCanFD..C.3A.5Cgit.5Crh850.5Csrc.5Capp.5Cgfx_apps.5Csimple_draw.5Ctarget.5Cd1mx_mango_ghs.5Cobj.5Cr_dev_init.,@object
                         484 	.size	_loc_DevHasCanFD..C.3A.5Cgit.5Crh850.5Csrc.5Capp.5Cgfx_apps.5Csimple_draw.5Ctarget.5Cd1mx_mango_ghs.5Cobj.5Cr_dev_init.,4
                         485 	.type	_loc_DevHasCanFD,@object
                         486 	.size	_loc_DevHasCanFD,4
                         487 	.global	_loc_ErrorHandler..C.3A.5Cgit.5Crh850.5Csrc.5Capp.5Cgfx_apps.5Csimple_draw.5Ctarget.5Cd1mx_mango_ghs.5Cobj.5Cr_dev_init.
                         488 _loc_ErrorHandler..C.3A.5Cgit.5Crh850.5Csrc.5Capp.5Cgfx_apps.5Csimple_draw.5Ctarget.5Cd1mx_mango_ghs.5Cobj.5Cr_dev_init.:
00000008 00000000        489 _loc_ErrorHandler:	.byte	0,0,0,0
                         490 	.type	_loc_ErrorHandler..C.3A.5Cgit.5Crh850.5Csrc.5Capp.5Cgfx_apps.5Csimple_draw.5Ctarget.5Cd1mx_mango_ghs.5Cobj.5Cr_dev_init.,@object
                         491 	.size	_loc_ErrorHandler..C.3A.5Cgit.5Crh850.5Csrc.5Capp.5Cgfx_apps.5Csimple_draw.5Ctarget.5Cd1mx_mango_ghs.5Cobj.5Cr_dev_init.,4
                         492 	.type	_loc_ErrorHandler,@object
                         493 	.size	_loc_ErrorHandler,4
                         494 	.section ".rodata","a"
                         495 	.align	4
                         496 .L56:--	"CAN-FD D1M1H_5M"
00000000 43414e2d        497 	.byte	67,65,78,45
00000004 46442044        498 	.byte	70,68,32,68
00000008 314d3148        499 	.byte	49,77,49,72
0000000c 5f354d00        500 	.byte	95,53,77,0
                         501 	.type	.L56,@object
                         502 	.size	.L56,16
                         503 .L57:--	"CAN-FD D1M2H_5M"
00000010 43414e2d        504 	.byte	67,65,78,45
00000014 46442044        505 	.byte	70,68,32,68
00000018 314d3248        506 	.byte	49,77,50,72
0000001c 5f354d00        507 	.byte	95,53,77,0
                         508 	.type	.L57,@object
                         509 	.size	.L57,16
                         510 .L58:--	"CAN-FD D1L1"
00000020 43414e2d        511 	.byte	67,65,78,45
00000024 46442044        512 	.byte	70,68,32,68
00000028 314c3100        513 	.byte	49,76,49,0
                         514 	.type	.L58,@object
                         515 	.size	.L58,12
                         516 .L59:--	"CAN-FD D1L2"
0000002c 43414e2d        517 	.byte	67,65,78,45
00000030 46442044        518 	.byte	70,68,32,68
00000034 314c3200        519 	.byte	49,76,50,0
                         520 	.type	.L59,@object
                         521 	.size	.L59,12
                         522 .L60:--	"CAN-FD Unknown device"
00000038 43414e2d        523 	.byte	67,65,78,45
0000003c 46442055        524 	.byte	70,68,32,85
00000040 6e6b6e6f        525 	.byte	110,107,110,111
00000044 776e2064        526 	.byte	119,110,32,100
00000048 65766963        527 	.byte	101,118,105,99
0000004c 6500            528 	.byte	101,0
                         529 	.type	.L60,@object
                         530 	.size	.L60,22
                         531 .L61:--	"CAN-FD D1M1_3.75M"
0000004e 43414e2d        532 	.byte	67,65,78,45
00000052 46442044        533 	.byte	70,68,32,68
00000056 314d315f        534 	.byte	49,77,49,95
0000005a 332e3735        535 	.byte	51,46,55,53
0000005e 4d00            536 	.byte	77,0
                         537 	.type	.L61,@object
                         538 	.size	.L61,18

                                                                      Page 10
                                                              C:\Users\Frank\AppData\Local\Temp\gh_0000po81.si
                         539 .L62:--	"CAN-FD D1M2_3.75M"
00000060 43414e2d        540 	.byte	67,65,78,45
00000064 46442044        541 	.byte	70,68,32,68
00000068 314d325f        542 	.byte	49,77,50,95
0000006c 332e3735        543 	.byte	51,46,55,53
00000070 4d00            544 	.byte	77,0
                         545 	.type	.L62,@object
                         546 	.size	.L62,18
                         547 .L63:--	"CAN-FD D1L2H"
00000072 43414e2d        548 	.byte	67,65,78,45
00000076 46442044        549 	.byte	70,68,32,68
0000007a 314c3248        550 	.byte	49,76,50,72
0000007e 00              551 	.byte	0
                         552 	.type	.L63,@object
                         553 	.size	.L63,13
                         554 .L64:--	"CAN-FD D1M1_5M"
0000007f 43414e2d        555 	.byte	67,65,78,45
00000083 46442044        556 	.byte	70,68,32,68
00000087 314d315f        557 	.byte	49,77,49,95
0000008b 354d            558 	.byte	53,77
0000008d 00              559 	.byte	0
                         560 	.type	.L64,@object
                         561 	.size	.L64,15
                         562 .L65:--	"CAN-FD D1M1H_3.75M"
0000008e 43414e2d        563 	.byte	67,65,78,45
00000092 46442044        564 	.byte	70,68,32,68
00000096 314d3148        565 	.byte	49,77,49,72
0000009a 5f332e37        566 	.byte	95,51,46,55
0000009e 354d            567 	.byte	53,77
000000a0 00              568 	.byte	0
                         569 	.type	.L65,@object
                         570 	.size	.L65,19
                         571 .L66:--	"CAN-FD R7F701409"
000000a1 43414e2d        572 	.byte	67,65,78,45
000000a5 46442052        573 	.byte	70,68,32,82
000000a9 37463730        574 	.byte	55,70,55,48
000000ad 31343039        575 	.byte	49,52,48,57
000000b1 00              576 	.byte	0
                         577 	.type	.L66,@object
                         578 	.size	.L66,17
                         579 .L67:--	"CAN-FD D1M2_5M"
000000b2 43414e2d        580 	.byte	67,65,78,45
000000b6 46442044        581 	.byte	70,68,32,68
000000ba 314d325f        582 	.byte	49,77,50,95
000000be 354d            583 	.byte	53,77
000000c0 00              584 	.byte	0
                         585 	.type	.L67,@object
                         586 	.size	.L67,15
                         587 .L68:--	"CAN-FD D1M2H_3.75M"
000000c1 43414e2d        588 	.byte	67,65,78,45
000000c5 46442044        589 	.byte	70,68,32,68
000000c9 314d3248        590 	.byte	49,77,50,72
000000cd 5f332e37        591 	.byte	95,51,46,55
000000d1 354d            592 	.byte	53,77
000000d3 00              593 	.byte	0
                         594 	.type	.L68,@object
                         595 	.size	.L68,19
                         596 .L69:--	"CAN-FD R7F701417"
000000d4 43414e2d        597 	.byte	67,65,78,45
000000d8 46442052        598 	.byte	70,68,32,82
000000dc 37463730        599 	.byte	55,70,55,48

                                                                      Page 11
                                                              C:\Users\Frank\AppData\Local\Temp\gh_0000po81.si
000000e0 31343137        600 	.byte	49,52,49,55
000000e4 00              601 	.byte	0
                         602 	.type	.L69,@object
                         603 	.size	.L69,17
                         604 .L70:--	"CAN-FD R7F701418"
000000e5 43414e2d        605 	.byte	67,65,78,45
000000e9 46442052        606 	.byte	70,68,32,82
000000ed 37463730        607 	.byte	55,70,55,48
000000f1 31343138        608 	.byte	49,52,49,56
000000f5 00              609 	.byte	0
                         610 	.type	.L70,@object
                         611 	.size	.L70,17
                         612 .L71:--	"CAN-FD D1M1A"
000000f6 43414e2d        613 	.byte	67,65,78,45
000000fa 46442044        614 	.byte	70,68,32,68
000000fe 314d3141        615 	.byte	49,77,49,65
00000102 00              616 	.byte	0
                         617 	.type	.L71,@object
                         618 	.size	.L71,13
                         619 .L72:--	"CAN-FD D1M1-V2"
00000103 43414e2d        620 	.byte	67,65,78,45
00000107 46442044        621 	.byte	70,68,32,68
0000010b 314d312d        622 	.byte	49,77,49,45
0000010f 5632            623 	.byte	86,50
00000111 00              624 	.byte	0
                         625 	.type	.L72,@object
                         626 	.size	.L72,15
                         627 .L73:--	"CAN-FD R7F701460"
00000112 43414e2d        628 	.byte	67,65,78,45
00000116 46442052        629 	.byte	70,68,32,82
0000011a 37463730        630 	.byte	55,70,55,48
0000011e 31343630        631 	.byte	49,52,54,48
00000122 00              632 	.byte	0
                         633 	.type	.L73,@object
                         634 	.size	.L73,17
00000123 00              635 	.space	1
                         636 	.global	_loc_IntCtrl..C.3A.5Cgit.5Crh850.5Csrc.5Capp.5Cgfx_apps.5Csimple_draw.5Ctarget.5Cd1mx_mango_ghs.5Cobj.5Cr_dev_init.
                         637 _loc_IntCtrl..C.3A.5Cgit.5Crh850.5Csrc.5Capp.5Cgfx_apps.5Csimple_draw.5Ctarget.5Cd1mx_mango_ghs.5Cobj.5Cr_dev_init.:
00000124 07000000        638 _loc_IntCtrl:	.byte	7,0,0,0
00000128 07              639 	.byte	7
00000129 000000          640 	.space	3
0000012c 08000000        641 	.byte	8,0,0,0
00000130 07              642 	.byte	7
00000131 000000          643 	.space	3
00000134 09000000        644 	.byte	9,0,0,0
00000138 07              645 	.byte	7
00000139 000000          646 	.space	3
0000013c 0a000000        647 	.byte	10,0,0,0
00000140 07              648 	.byte	7
00000141 000000          649 	.space	3
00000144 0b000000        650 	.byte	11,0,0,0
00000148 07              651 	.byte	7
00000149 000000          652 	.space	3
0000014c 0c000000        653 	.byte	12,0,0,0
00000150 07              654 	.byte	7
00000151 000000          655 	.space	3
00000154 0d000000        656 	.byte	13,0,0,0
00000158 07              657 	.byte	7
00000159 000000          658 	.space	3
0000015c 0e000000        659 	.byte	14,0,0,0
00000160 07              660 	.byte	7

                                                                      Page 12
                                                              C:\Users\Frank\AppData\Local\Temp\gh_0000po81.si
00000161 000000          661 	.space	3
00000164 0f000000        662 	.byte	15,0,0,0
00000168 07              663 	.byte	7
00000169 000000          664 	.space	3
0000016c 10000000        665 	.byte	16,0,0,0
00000170 07              666 	.byte	7
00000171 000000          667 	.space	3
00000174 7d000000        668 	.byte	125,0,0,0
00000178 01              669 	.byte	1
00000179 000000          670 	.space	3
0000017c 79000000        671 	.byte	121,0,0,0
00000180 02              672 	.byte	2
00000181 000000          673 	.space	3
00000184 7a000000        674 	.byte	122,0,0,0
00000188 02              675 	.byte	2
00000189 000000          676 	.space	3
0000018c 7b000000        677 	.byte	123,0,0,0
00000190 02              678 	.byte	2
00000191 000000          679 	.space	3
00000194 7c000000        680 	.byte	124,0,0,0
00000198 02              681 	.byte	2
00000199 000000          682 	.space	3
0000019c c4000000        683 	.byte	196,0,0,0
000001a0 02              684 	.byte	2
000001a1 000000          685 	.space	3
000001a4 c5000000        686 	.byte	197,0,0,0
000001a8 02              687 	.byte	2
000001a9 000000          688 	.space	3
000001ac c6000000        689 	.byte	198,0,0,0
000001b0 02              690 	.byte	2
000001b1 000000          691 	.space	3
000001b4 c7000000        692 	.byte	199,0,0,0
000001b8 02              693 	.byte	2
000001b9 000000          694 	.space	3
000001bc c8000000        695 	.byte	200,0,0,0
000001c0 02              696 	.byte	2
000001c1 000000          697 	.space	3
000001c4 c9000000        698 	.byte	201,0,0,0
000001c8 02              699 	.byte	2
000001c9 000000          700 	.space	3
000001cc ca000000        701 	.byte	202,0,0,0
000001d0 02              702 	.byte	2
000001d1 000000          703 	.space	3
000001d4 cb000000        704 	.byte	203,0,0,0
000001d8 02              705 	.byte	2
000001d9 000000          706 	.space	3
000001dc cc000000        707 	.byte	204,0,0,0
000001e0 02              708 	.byte	2
000001e1 000000          709 	.space	3
000001e4 ce000000        710 	.byte	206,0,0,0
000001e8 02              711 	.byte	2
000001e9 000000          712 	.space	3
000001ec d0000000        713 	.byte	208,0,0,0
000001f0 02              714 	.byte	2
000001f1 000000          715 	.space	3
000001f4 d1000000        716 	.byte	209,0,0,0
000001f8 02              717 	.byte	2
000001f9 000000          718 	.space	3
000001fc d2000000        719 	.byte	210,0,0,0
00000200 02              720 	.byte	2
00000201 000000          721 	.space	3

                                                                      Page 13
                                                              C:\Users\Frank\AppData\Local\Temp\gh_0000po81.si
00000204 dd000000        722 	.byte	221,0,0,0
00000208 02              723 	.byte	2
00000209 000000          724 	.space	3
0000020c de000000        725 	.byte	222,0,0,0
00000210 02              726 	.byte	2
00000211 000000          727 	.space	3
00000214 df000000        728 	.byte	223,0,0,0
00000218 02              729 	.byte	2
00000219 000000          730 	.space	3
0000021c e0000000        731 	.byte	224,0,0,0
00000220 02              732 	.byte	2
00000221 000000          733 	.space	3
00000224 e1000000        734 	.byte	225,0,0,0
00000228 02              735 	.byte	2
00000229 000000          736 	.space	3
0000022c e2000000        737 	.byte	226,0,0,0
00000230 02              738 	.byte	2
00000231 000000          739 	.space	3
00000234 e4000000        740 	.byte	228,0,0,0
00000238 02              741 	.byte	2
00000239 000000          742 	.space	3
0000023c f0000000        743 	.byte	240,0,0,0
00000240 02              744 	.byte	2
00000241 000000          745 	.space	3
00000244 00010000        746 	.byte	0,1,0,0
00000248 07              747 	.byte	7
00000249 000000          748 	.space	3
                         749 	.type	_loc_IntCtrl..C.3A.5Cgit.5Crh850.5Csrc.5Capp.5Cgfx_apps.5Csimple_draw.5Ctarget.5Cd1mx_mango_ghs.5Cobj.5Cr_dev_init.,@object
                         750 	.size	_loc_IntCtrl..C.3A.5Cgit.5Crh850.5Csrc.5Capp.5Cgfx_apps.5Csimple_draw.5Ctarget.5Cd1mx_mango_ghs.5Cobj.5Cr_dev_init.,296
                         751 	.type	_loc_IntCtrl,@object
                         752 	.size	_loc_IntCtrl,296
                         753 	.data
                         754 	.global	_loc_DevName..C.3A.5Cgit.5Crh850.5Csrc.5Capp.5Cgfx_apps.5Csimple_draw.5Ctarget.5Cd1mx_mango_ghs.5Cobj.5Cr_dev_init.
                         755 _loc_DevName..C.3A.5Cgit.5Crh850.5Csrc.5Capp.5Cgfx_apps.5Csimple_draw.5Ctarget.5Cd1mx_mango_ghs.5Cobj.5Cr_dev_init.:
0000000c 00000000*       756 _loc_DevName:	.word	.L60
00000010 00000000*       757 	.word	.L58
00000014 00000000*       758 	.word	.L59
00000018 00000000*       759 	.word	.L63
0000001c 00000000*       760 	.word	.L61
00000020 00000000*       761 	.word	.L64
00000024 00000000*       762 	.word	.L65
00000028 00000000*       763 	.word	.L56
0000002c 00000000*       764 	.word	.L62
00000030 00000000*       765 	.word	.L66
00000034 00000000*       766 	.word	.L67
00000038 00000000*       767 	.word	.L68
0000003c 00000000*       768 	.word	.L57
00000040 00000000*       769 	.word	.L60
00000044 00000000*       770 	.word	.L60
00000048 00000000*       771 	.word	.L60
0000004c 00000000*       772 	.word	.L60
00000050 00000000*       773 	.word	.L69
00000054 00000000*       774 	.word	.L70
00000058 00000000*       775 	.word	.L60
0000005c 00000000*       776 	.word	.L60
00000060 00000000*       777 	.word	.L60
00000064 00000000*       778 	.word	.L60
00000068 00000000*       779 	.word	.L60
0000006c 00000000*       780 	.word	.L60
00000070 00000000*       781 	.word	.L60
00000074 00000000*       782 	.word	.L60

                                                                      Page 14
                                                              C:\Users\Frank\AppData\Local\Temp\gh_0000po81.si
00000078 00000000*       783 	.word	.L60
0000007c 00000000*       784 	.word	.L60
00000080 00000000*       785 	.word	.L60
00000084 00000000*       786 	.word	.L60
00000088 00000000*       787 	.word	.L60
0000008c 00000000*       788 	.word	.L60
00000090 00000000*       789 	.word	.L60
00000094 00000000*       790 	.word	.L60
00000098 00000000*       791 	.word	.L60
0000009c 00000000*       792 	.word	.L60
000000a0 00000000*       793 	.word	.L60
000000a4 00000000*       794 	.word	.L60
000000a8 00000000*       795 	.word	.L60
000000ac 00000000*       796 	.word	.L60
000000b0 00000000*       797 	.word	.L71
000000b4 00000000*       798 	.word	.L72
000000b8 00000000*       799 	.word	.L60
000000bc 00000000*       800 	.word	.L60
000000c0 00000000*       801 	.word	.L60
000000c4 00000000*       802 	.word	.L60
000000c8 00000000*       803 	.word	.L60
000000cc 00000000*       804 	.word	.L60
000000d0 00000000*       805 	.word	.L60
000000d4 00000000*       806 	.word	.L60
000000d8 00000000*       807 	.word	.L60
000000dc 00000000*       808 	.word	.L60
000000e0 00000000*       809 	.word	.L60
000000e4 00000000*       810 	.word	.L60
000000e8 00000000*       811 	.word	.L60
000000ec 00000000*       812 	.word	.L60
000000f0 00000000*       813 	.word	.L60
000000f4 00000000*       814 	.word	.L60
000000f8 00000000*       815 	.word	.L60
000000fc 00000000*       816 	.word	.L73
                         817 	.type	_loc_DevName..C.3A.5Cgit.5Crh850.5Csrc.5Capp.5Cgfx_apps.5Csimple_draw.5Ctarget.5Cd1mx_mango_ghs.5Cobj.5Cr_dev_init.,@object
                         818 	.size	_loc_DevName..C.3A.5Cgit.5Crh850.5Csrc.5Capp.5Cgfx_apps.5Csimple_draw.5Ctarget.5Cd1mx_mango_ghs.5Cobj.5Cr_dev_init.,244
                         819 	.type	_loc_DevName,@object
                         820 	.size	_loc_DevName,244
                         821 	.text
                         822 
                         823 
                         824 --281: /*******************************************************************************
                         825 --282:   Section: Global functions
                         826 --283: */
                         827 --285: /*******************************************************************************
                         828 --286:   Function: R_DEV_SetErrorCallback
                         829 --288:   see <r_dev_api.h>
                         830 --290: */
                         831 --292: void R_DEV_SetErrorCallback(void(*ErrorCallback )(uint32_t Unit, uint32_t Error)) 
                         832 	.align	2
                         833 	.align	2
                         834 	.global	_R_DEV_SetErrorCallback
                         835 _R_DEV_SetErrorCallback:
0000002e 0670            836 	mov	r6,r14
00000030 210600000000*   837 	mov	_loc_ErrorHandler,r1
                         838 --	    .bf
                         839 .LDW31:
                         840 --293: {
                         841 --295:     loc_ErrorHandler    = ErrorCallback;
00000036 2b0600000000*   842 	mov	_loc_ErrorHandler,r11
0000003c 6b770100        843 	st.w	r14,0[r11]

                                                                      Page 15
                                                              C:\Users\Frank\AppData\Local\Temp\gh_0000po81.si
                         844 --297: }
                         845 --	    .ef
                         846 .LDW41:
00000040 7f00            847 	jmp	[lp]
                         848 	.type	_R_DEV_SetErrorCallback,@function
                         849 	.size	_R_DEV_SetErrorCallback,.-_R_DEV_SetErrorCallback
                         850 	.align	2
                         851 .LDW51:
                         852 
                         853 --_ErrorCallback	r14	param
                         854 
                         855 	.data
                         856 	.text
                         857 
                         858 
                         859 --299: /******************************************************************************* 
                         860 --300:   Function: R_DEV_Prepare
                         861 --301:  
                         862 --302:   see r_dev_api.h for details  
                         863 --303: */ 
                         864 --305: void R_DEV_Prepare(void)
                         865 	.align	2
                         866 	.align	2
                         867 	.global	_R_DEV_Prepare
                         868 _R_DEV_Prepare:
00000042 8007e110        869 	prepare	{r27,r28,r29,r31},0
00000046 3b0600000000*   870 	mov	_loc_IntCtrl,r27
                         871 --	    .bf
                         872 .LDW61:
                         873 --306: {
                         874 --307:     uint16_t j      = 0u; 
0000004c 00ea            875 	mov	0,r29
                         876 --308:     r_dev_IntSel_t i;  
                         877 --309:     
                         878 --310:     /* Disable the AT guard  */
                         879 --311:     R_DEV_WRITE_REG(32, LOC_APFSGDPROT_INTC2, 0x07FFFFFF);
0000004e 2106ffffff07    880 	mov	134217727,r1
00000054 80070f088089    881 	st.w	r1,4291084288[zero]
                         882 --312:     R_DEV_WRITE_REG(32, LOC_APFSGDPROT_PDMA,  0x07FFFFFF);
0000005a 2106ffffff07    883 	mov	134217727,r1
00000060 80074f088089    884 	st.w	r1,4291084292[zero]
                         885 --314:     /* PEG: Open LRAM access for all */
                         886 --315:     R_DEV_WRITE_REG(32, LOC_REG_PEGSP,   0x00000001u);  /* Enable access to PE ressources by external masters */
00000066 010a            887 	mov	1,r1
00000068 8007cf08ccfd    888 	st.w	r1,4294895116[zero]
                         889 --316:     R_DEV_WRITE_REG(32, LOC_REG_PEGG0MK, 0xFFFFF000u);  /* Allow the whole address range to be accessed */
0000006e 200e00f0        890 	movea	-4096,zero,r1
00000072 80070f08cdfd    891 	st.w	r1,4294895232[zero]
                         892 --317:     R_DEV_WRITE_REG(32, LOC_REG_PEGG0BA, 0x000000F7u);  /* Allow read and write access for all SPIDs */
00000078 200ef700        893 	movea	247,zero,r1
0000007c 80074f08cdfd    894 	st.w	r1,4294895236[zero]
                         895 --320:     /* Set Table mode for all interrupts */
                         896 --321:     for (i = R_DEV_INT_FIRST; i < R_DEV_INT_LAST; i++ )
00000082 00e2            897 	mov	0,r28
00000084 0000            898 	nop
                         899 .L132:
                         900 --322:     {
                         901 --323:         R_DEV_IntSetMode(i, R_DEV_INT_TABLE); 
00000086 1c30            902 	mov	r28,r6
00000088 013a            903 	mov	1,r7
                         904 	jarl	_R_DEV_IntSetMode,lp

                                                                      Page 16
                                                              C:\Users\Frank\AppData\Local\Temp\gh_0000po81.si
                         904 <EXPANSION BEGIN>
                         904 jarl22 _R_DEV_IntSetMode , lp 
0000008a 80ff0000*       904 <EXPANSION END>
                         905 --line321
                         906 ..lin.C.3A.5Cgit.5Crh850.5Csrc.5Capp.5Cgfx_apps.5Csimple_draw.5Ctarget.5Cd1mx_mango_ghs.5Cobj.5Cr_dev_init.4::
                         907 .LDWlin4:
0000008e 41e2            908 	add	1,r28
00000090 1c0600ff        909 	addi	-256,r28,zero
00000094 99fd*           910 	bnl	.L132
                         911 --324:     }
                         912 --325:     
                         913 --326:     /* Config prio */
                         914 --327:     while (R_DEV_INT_LAST > loc_IntCtrl[j].IntIc)
                         915 --line327
                         916 ..lin.C.3A.5Cgit.5Crh850.5Csrc.5Capp.5Cgfx_apps.5Csimple_draw.5Ctarget.5Cd1mx_mango_ghs.5Cobj.5Cr_dev_init.5::
                         917 .LDWlin5:
00000096 d50d*           918 	br	.L133
                         919 .L135:
                         920 --328:     {
                         921 --329:         R_DEV_IntSetPrio(loc_IntCtrl[j].IntIc, loc_IntCtrl[j].Prio); 
                         922 --line329
                         923 ..lin.C.3A.5Cgit.5Crh850.5Csrc.5Capp.5Cgfx_apps.5Csimple_draw.5Ctarget.5Cd1mx_mango_ghs.5Cobj.5Cr_dev_init.6::
                         924 .LDWlin6:
00000098 1df0            925 	mov	r29,ep
0000009a c3f2            926 	shl	3,ep
0000009c 1e08            927 	mov	ep,r1
0000009e dbf1            928 	add	r27,ep
000000a0 0035            929 	sld.w	0[ep],r6
000000a2 01f0            930 	mov	r1,ep
000000a4 dbf1            931 	add	r27,ep
000000a6 6438            932 	sld.bu	4[ep],r7
                         933 	jarl	_R_DEV_IntSetPrio,lp
                         933 <EXPANSION BEGIN>
                         933 jarl22 _R_DEV_IntSetPrio , lp 
000000a8 80ff0000*       933 <EXPANSION END>
                         934 --330:         j++; 
                         935 --line330
                         936 ..lin.C.3A.5Cgit.5Crh850.5Csrc.5Capp.5Cgfx_apps.5Csimple_draw.5Ctarget.5Cd1mx_mango_ghs.5Cobj.5Cr_dev_init.7::
                         937 .LDWlin7:
000000ac 41ea            938 	add	1,r29
000000ae dd00            939 	zxh	r29
                         940 .L133:
000000b0 1df0            941 	mov	r29,ep
000000b2 c3f2            942 	shl	3,ep
000000b4 dbf1            943 	add	r27,ep
000000b6 000d            944 	sld.w	0[ep],r1
000000b8 010600ff        945 	addi	-256,r1,zero
000000bc e9ed*           946 	bnl	.L135
                         947 --331:     }
                         948 --332: }
                         949 --	    .ef
                         950 .LDW71:
                         951 --line332
                         952 ..lin.C.3A.5Cgit.5Crh850.5Csrc.5Capp.5Cgfx_apps.5Csimple_draw.5Ctarget.5Cd1mx_mango_ghs.5Cobj.5Cr_dev_init.8::
                         953 .LDWlin8:
000000be 4006ff10        954 	dispose	0,{r27,r28,r29,r31},[lp]
                         955 	.type	_R_DEV_Prepare,@function
                         956 	.size	_R_DEV_Prepare,.-_R_DEV_Prepare
                         957 	.align	2
                         958 .LDW81:
                         959 --_j	r29	local

                                                                      Page 17
                                                              C:\Users\Frank\AppData\Local\Temp\gh_0000po81.si
                         960 --_i	r28	local
                         961 
                         962 	.section ".bss","awb"
                         963 .L222:
                         964 	.type	.L222,@object
                         965 	.size	.L222,0
                         966 	.data
                         967 	.text
                         968 
                         969 
                         970 --334: /*******************************************************************************
                         971 --335:   Function: R_DEV_EnableFlashCache
                         972 --336:   
                         973 --337:   see r_dev_api.h for details  
                         974 --338: */
                         975 --340: r_Error_t R_DEV_EnableFlashCache(uint8_t Enable)
                         976 	.align	2
                         977 	.align	2
                         978 	.global	_R_DEV_EnableFlashCache
                         979 _R_DEV_EnableFlashCache:
000000c2 c60eff00        980 	andi	255,r6,r1
                         981 --	    .bf
                         982 .LDW91:
                         983 --341: {
                         984 --342:     /* The code and data cache cannot be configured by SW */
                         985 --343:     return R_ERR_OK; 
000000c6 0052            986 	mov	0,r10
                         987 --	    .ef
                         988 .LDW02:
000000c8 7f00            989 	jmp	[lp]
                         990 	.type	_R_DEV_EnableFlashCache,@function
                         991 	.size	_R_DEV_EnableFlashCache,.-_R_DEV_EnableFlashCache
                         992 	.align	2
                         993 .LDW12:
                         994 
                         995 --_Enable	r1	param
                         996 
                         997 	.section ".bss","awb"
                         998 .L302:
                         999 	.type	.L302,@object
                        1000 	.size	.L302,0
                        1001 	.data
                        1002 	.text
                        1003 
                        1004 --344: }
                        1005 
                        1006 --347: /*******************************************************************************
                        1007 --348:   Function: R_DEV_GetDev
                        1008 --349:   
                        1009 --350:   see r_dev_api.h for details  
                        1010 --352: */
                        1011 --354: r_dev_Device_t R_DEV_GetDev(void) 
                        1012 	.align	2
                        1013 	.align	2
                        1014 	.global	_R_DEV_GetDev
                        1015 _R_DEV_GetDev:
000000ca 210600000000*  1016 	mov	_loc_DevNum,r1
000000d0 0158           1017 	mov	r1,r11
000000d2 214e0400       1018 	movea	4,r1,r9
                        1019 --	    .bf
                        1020 .LDW22:

                                                                      Page 18
                                                              C:\Users\Frank\AppData\Local\Temp\gh_0000po81.si
                        1021 --355: {
                        1022 --356:     uint32_t prdname2;
                        1023 --357:     uint32_t prdname3;
                        1024 --358:     
                        1025 --359:     /* when Device name is already known, return it directly */
                        1026 --360:     if (loc_DevNum != R_DEV_UNKNOWN_DEVICE)
000000d6 21770100       1027 	ld.w	0[r1],r14
000000da e071           1028 	cmp	zero,r14
000000dc c205*          1029 	be	.L316
                        1030 --361:     {
                        1031 --362:         return loc_DevNum;
                        1032 --line362
                        1033 ..lin.C.3A.5Cgit.5Crh850.5Csrc.5Capp.5Cgfx_apps.5Csimple_draw.5Ctarget.5Cd1mx_mango_ghs.5Cobj.5Cr_dev_init.9::
                        1034 .LDWlin9:
000000de 21570100       1035 	ld.w	0[r1],r10
000000e2 c545*          1036 	br	.L314
                        1037 .L316:
                        1038 --363:     }
                        1039 --364:     
                        1040 --365:     /* get Device name from PRDNAME register */
                        1041 --366:     prdname2 = R_DEV_READ_REG(32,0xFFCD00D4u);
                        1042 --line366
                        1043 ..lin.C.3A.5Cgit.5Crh850.5Csrc.5Capp.5Cgfx_apps.5Csimple_draw.5Ctarget.5Cd1mx_mango_ghs.5Cobj.5Cr_dev_init.10::
                        1044 .LDWlin10:
000000e4 8007496d019a   1045 	ld.w	4291625172[zero],r13
                        1046 --367:     prdname3 = R_DEV_READ_REG(32,0xFFCD00D8u) & 0xFu;
000000ea 80078975019a   1047 	ld.w	4291625176[zero],r14
000000f0 ce760f00       1048 	andi	15,r14,r14
                        1049 --368:     
                        1050 --369:     /* Device name range: 1460 - R7F701460
                        1051 --370:         ((prdname2 == 0x36343130) && (prdname3 == 0x00000000))
                        1052 --371:         
                        1053 --372:        When R7F701460 POD is used the PRDNAME is
                        1054 --373:        automatically overwritten by the POD to the emulated device name.
                        1055 --374:        Thus PRDNAME of R7F701460 can be handled like for a regular device.
                        1056 --375:        
                        1057 --376:        Example: When the R7F701460 POD is used to emulate D1L2H,
                        1058 --377:                 the PRDNAME is set to R7F401403 by the Emulation POD automatically.
                        1059 --378:     */
                        1060 --379:     
                        1061 --380:     /* Regular devices */
                        1062 --381:     /* Check for Can-FD */
                        1063 --382:     if ( (prdname2 & 0x02000000u) !=0)  /* devices 142x, 143x and 146x have CAN-FD */
000000f4 0d60           1064 	mov	r13,r12
000000f6 9a62           1065 	shr	26,r12
000000f8 990d*          1066 	bnl	.L319
                        1067 --383:     {
                        1068 --384:         /* Device has CAN-FD -> clear the bit ... */
                        1069 --385:         prdname2 &= 0xFDFFFFFFu; 
                        1070 --line385
                        1071 ..lin.C.3A.5Cgit.5Crh850.5Csrc.5Capp.5Cgfx_apps.5Csimple_draw.5Ctarget.5Cd1mx_mango_ghs.5Cobj.5Cr_dev_init.11::
                        1072 .LDWlin11:
000000fa 2c06fffffffd   1073 	mov	-33554433,r12
00000100 4c69           1074 	and	r12,r13
                        1075 --386:         /* ...and store the info */
                        1076 --387:         loc_DevHasCanFD = 1; 
00000102 0162           1077 	mov	1,r12
00000104 61670500       1078 	st.w	r12,4[r1]
00000108 b505*          1079 	br	.L321
                        1080 .L319:
                        1081 --388:     }

                                                                      Page 19
                                                              C:\Users\Frank\AppData\Local\Temp\gh_0000po81.si
                        1082 --389:     else 
                        1083 --390:     {
                        1084 --391:         loc_DevHasCanFD = 0; 
                        1085 --line391
                        1086 ..lin.C.3A.5Cgit.5Crh850.5Csrc.5Capp.5Cgfx_apps.5Csimple_draw.5Ctarget.5Cd1mx_mango_ghs.5Cobj.5Cr_dev_init.12::
                        1087 .LDWlin12:
0000010a 61070500       1088 	st.w	zero,4[r1]
                        1089 .L321:
                        1090 --392:     }
                        1091 --393:         
                        1092 --394:     /* Device name range: 1440 - 1449 (& 1461 - 1469) */
                        1093 --395:     if (prdname2 == 0x34343130) /* (144x) */
0000010e 2c0630313434   1094 	mov	875835696,r12
00000114 ec69           1095 	cmp	r12,r13
00000116 9a15*          1096 	bne	.L322
                        1097 --396:     {
                        1098 --397:         loc_DevNum = ((r_dev_Device_t)((uint32_t)R_DEV_R7F7014OFFS + 40 + prdname3));
                        1099 --line397
                        1100 ..lin.C.3A.5Cgit.5Crh850.5Csrc.5Capp.5Cgfx_apps.5Csimple_draw.5Ctarget.5Cd1mx_mango_ghs.5Cobj.5Cr_dev_init.13::
                        1101 .LDWlin13:
00000118 0e66a005       1102 	addi	1440,r14,r12
0000011c 61670100       1103 	st.w	r12,0[r1]
                        1104 --398:         /* special case: D1M1A-alpha (1444)
                        1105 --399:             (Dedicated mode of R7F701460 emulating D1M1A, where prdname
                        1106 --400:              is not indicated as prdname of emulated device)
                        1107 --401:             -> Remap it to D1M1A device prdname (1441) */
                        1108 --402:         if (loc_DevNum == R_DEV_R7F701444)
00000120 21670100       1109 	ld.w	0[r1],r12
00000124 0c065cfa       1110 	addi	-1444,r12,zero
00000128 da05*          1111 	bne	.L324
                        1112 --403:         {
                        1113 --404:             loc_DevNum = R_DEV_R7F701441;   /* D1M1A */
                        1114 --line404
                        1115 ..lin.C.3A.5Cgit.5Crh850.5Csrc.5Capp.5Cgfx_apps.5Csimple_draw.5Ctarget.5Cd1mx_mango_ghs.5Cobj.5Cr_dev_init.14::
                        1116 .LDWlin14:
0000012a 2066a105       1117 	movea	1441,zero,r12
0000012e 61670100       1118 	st.w	r12,0[r1]
                        1119 .L324:
                        1120 --405:         }
                        1121 --406:         return loc_DevNum;
00000132 21570100       1122 	ld.w	0[r1],r10
00000136 a51d*          1123 	br	.L314
                        1124 .L322:
                        1125 --407:     }
                        1126 --408:     /* Device name range: 1410 - 1419 (& 1430 - 1439) */
                        1127 --409:     if (prdname2 == 0x31343130) /* (141x) */
                        1128 --line409
                        1129 ..lin.C.3A.5Cgit.5Crh850.5Csrc.5Capp.5Cgfx_apps.5Csimple_draw.5Ctarget.5Cd1mx_mango_ghs.5Cobj.5Cr_dev_init.15::
                        1130 .LDWlin15:
00000138 2c0630313431   1131 	mov	825504048,r12
0000013e ec69           1132 	cmp	r12,r13
00000140 8a0d*          1133 	bne	.L327
                        1134 --410:     {
                        1135 --411:         loc_DevNum = ((r_dev_Device_t)((uint32_t)R_DEV_R7F701410 + prdname3));
                        1136 --line411
                        1137 ..lin.C.3A.5Cgit.5Crh850.5Csrc.5Capp.5Cgfx_apps.5Csimple_draw.5Ctarget.5Cd1mx_mango_ghs.5Cobj.5Cr_dev_init.16::
                        1138 .LDWlin16:
00000142 0e668205       1139 	addi	1410,r14,r12
00000146 61670100       1140 	st.w	r12,0[r1]
                        1141 --412:         return loc_DevNum;
0000014a 21570100       1142 	ld.w	0[r1],r10

                                                                      Page 20
                                                              C:\Users\Frank\AppData\Local\Temp\gh_0000po81.si
0000014e e50d*          1143 	br	.L314
                        1144 .L327:
                        1145 --413:     }
                        1146 --414:     /* Device name range: 1400 - 1409 (& 1420 - 1429) */
                        1147 --415:     if (prdname2 == 0x30343130) /* (140x) */
                        1148 --line415
                        1149 ..lin.C.3A.5Cgit.5Crh850.5Csrc.5Capp.5Cgfx_apps.5Csimple_draw.5Ctarget.5Cd1mx_mango_ghs.5Cobj.5Cr_dev_init.17::
                        1150 .LDWlin17:
00000150 2c0630313430   1151 	mov	808726832,r12
00000156 ec69           1152 	cmp	r12,r13
00000158 8a0d*          1153 	bne	.L330
                        1154 --416:     {
                        1155 --417:         loc_DevNum = ((r_dev_Device_t)((uint32_t)R_DEV_R7F7014OFFS + prdname3));
                        1156 --line417
                        1157 ..lin.C.3A.5Cgit.5Crh850.5Csrc.5Capp.5Cgfx_apps.5Csimple_draw.5Ctarget.5Cd1mx_mango_ghs.5Cobj.5Cr_dev_init.18::
                        1158 .LDWlin18:
0000015a 0e667805       1159 	addi	1400,r14,r12
0000015e 61670100       1160 	st.w	r12,0[r1]
                        1161 --418:         return loc_DevNum;
00000162 21570100       1162 	ld.w	0[r1],r10
00000166 a505*          1163 	br	.L314
                        1164 .L330:
                        1165 --419:     }
                        1166 --420:     
                        1167 --421:     /* error device not found */
                        1168 --422:     return R_DEV_UNKNOWN_DEVICE;
                        1169 --line422
                        1170 ..lin.C.3A.5Cgit.5Crh850.5Csrc.5Capp.5Cgfx_apps.5Csimple_draw.5Ctarget.5Cd1mx_mango_ghs.5Cobj.5Cr_dev_init.19::
                        1171 .LDWlin19:
00000168 0052           1172 	mov	0,r10
                        1173 .L314:
                        1174 --	    .ef
                        1175 .LDW32:
0000016a 7f00           1176 	jmp	[lp]
                        1177 	.type	_R_DEV_GetDev,@function
                        1178 	.size	_R_DEV_GetDev,.-_R_DEV_GetDev
                        1179 	.align	2
                        1180 .LDW42:
                        1181 --_prdname2	r13	local
                        1182 --_prdname3	r14	local
                        1183 
                        1184 	.data
                        1185 	.text
                        1186 
                        1187 --423: }
                        1188 
                        1189 --425: /*******************************************************************************
                        1190 --426:   Function: R_DEV_GetVersion
                        1191 --427:   
                        1192 --428:   see r_dev_api.h for details  
                        1193 --430: */
                        1194 --432: uint32_t R_DEV_GetVersion(void) 
                        1195 	.align	2
                        1196 	.align	2
                        1197 	.global	_R_DEV_GetVersion
                        1198 _R_DEV_GetVersion:
0000016c 8007e100       1199 	prepare	{r28,r29,r31},0
                        1200 --	    .bf
                        1201 .LDW52:
                        1202 --433: {
                        1203 --434:     /* RH850/D1x product version register PRDVER

                                                                      Page 21
                                                              C:\Users\Frank\AppData\Local\Temp\gh_0000po81.si
                        1204 --435:         PRDVER access is 32bit address is 0xFFCD00C8.
                        1205 --436:         PRDVER bits [27:16] show the device revision,
                        1206 --437:                and bits [31:28 + 15:0] are undefined indicated by "X":
                        1207 --438:             
                        1208 --439:             RH850/D1x revision: 0xXRRRXXXX
                        1209 --440:                                    ^^^ bits 27 to 16 relevant for revision
                        1210 --441:             
                        1211 --442:             R7F701417-V1 V1.0 (#Yx1):  0xX100XXXX    (D1L1 die based marketing product)
                        1212 --443:             R7F701417-V2 V2.0 (#Yx2):  0xX200XXXX    (acutal R7F701417 die product)
                        1213 --444:             
                        1214 --445:             D1L1    V1.0 (#Yx1):  0xX100XXXX
                        1215 --446:             D1L1    V1.1 (#Yx2):  0xX200XXXX
                        1216 --447:             
                        1217 --448:             D1L2(H) V1.0 (#Yx1):  0xX100XXXX
                        1218 --449:             D1L2(H) V2.0 (#Yx2):  0xX200XXXX
                        1219 --450:             D1L2(H) V2.1 (#Yx3):  0xX300XXXX
                        1220 --451:             D1L2(H) V2.2 (#Yx4):  0xX400XXXX
                        1221 --452:             
                        1222 --453:             D1M1-V2 V1.0 (#Yx1):  0xX100XXXX
                        1223 --454:             
                        1224 --455:             D1M1(H) V1.0 (#Yx1):  0xX100XXXX
                        1225 --456:             D1M1(H) V1.2 (#Yx2):  0xX200XXXX
                        1226 --457:             
                        1227 --458:             D1M1A   V1.0 (#Yx1):  0xX100XXXX
                        1228 --459:             
                        1229 --460:             D1M2(H) V1.0 (#Yx1):  0xX100XXXX
                        1230 --461:             D1M2(H) V2.0 (#Yx2):  0xX200XXXX
                        1231 --462:             D1M2(H) V3.0 (#Yx3):  0xX300XXXX
                        1232 --463:             
                        1233 --464:             R7F701460 POD      : 0xXFFFXXXX (special revision used to identify Emulation POD)
                        1234 --465:             
                        1235 --466:         Devise version the function R_DEV_GetVersion() returns is
                        1236 --467:         mapped to the format 0xAABB,
                        1237 --468:         where AA is the mayor revision number
                        1238 --469:         and BB is the minor revision number.
                        1239 --470:             e.g. "0x0102" is the device revision "V1.2"
                        1240 --471:     */
                        1241 --472:     uint32_t        version;
                        1242 --473:     r_dev_Device_t  device;
                        1243 --475:     version = R_DEV_READ_REG(32,0xFFCD00C8u);
00000170 800789ec019a   1244 	ld.w	4291625160[zero],r29
                        1245 --476:     version = ((version >> 16uL) & 0x0FFFu);
00000176 1d08           1246 	mov	r29,r1
00000178 900a           1247 	shr	16,r1
0000017a c10eff0f       1248 	andi	4095,r1,r1
0000017e 01e8           1249 	mov	r1,r29
                        1250 --477:     
                        1251 --478:     device  =  R_DEV_GetDev();
                        1252 	jarl	_R_DEV_GetDev,lp
                        1252 <EXPANSION BEGIN>
                        1252 jarl22 _R_DEV_GetDev , lp 
00000180 bfff4aff*      1252 <EXPANSION END>
00000184 0ae0           1253 	mov	r10,r28
                        1254 --479:     
                        1255 --480:     /* R7F701460 POD revision mapping
                        1256 --481:        (It has special revision to distinguish Emulation POD from real device.) */
                        1257 --482:     if (version == 0xFFF)
                        1258 --line482
                        1259 ..lin.C.3A.5Cgit.5Crh850.5Csrc.5Capp.5Cgfx_apps.5Csimple_draw.5Ctarget.5Cd1mx_mango_ghs.5Cobj.5Cr_dev_init.20::
                        1260 .LDWlin20:
00000186 1d0601f0       1261 	addi	-4095,r29,zero

                                                                      Page 22
                                                              C:\Users\Frank\AppData\Local\Temp\gh_0000po81.si
0000018a ea05*          1262 	bne	.L496
                        1263 --483:     {
                        1264 --484:         version = R_DEV_REVISION_EMU;    /* "0xFFF" => Emulation POD */
                        1265 --line484
                        1266 ..lin.C.3A.5Cgit.5Crh850.5Csrc.5Capp.5Cgfx_apps.5Csimple_draw.5Ctarget.5Cd1mx_mango_ghs.5Cobj.5Cr_dev_init.21::
                        1267 .LDWlin21:
0000018c 20eeff0f       1268 	movea	4095,zero,r29
                        1269 --485:         return version;
00000190 1d50           1270 	mov	r29,r10
00000192 80073601*      1271 	br	.L494
                        1272 .L496:
                        1273 --486:     }
                        1274 --487:     
                        1275 --488:     /* R7F701417 revision mapping */
                        1276 --489:     if ((device >= R_DEV_R7F701416) && (device <= R_DEV_R7F701417))    /* R7F701417 */
                        1277 --line489
                        1278 ..lin.C.3A.5Cgit.5Crh850.5Csrc.5Capp.5Cgfx_apps.5Csimple_draw.5Ctarget.5Cd1mx_mango_ghs.5Cobj.5Cr_dev_init.22::
                        1279 .LDWlin22:
00000196 1c0678fa       1280 	addi	-1416,r28,zero
0000019a c915*          1281 	bnl	.L499
0000019c 1c0676fa       1282 	addi	-1418,r28,zero
000001a0 9115*          1283 	bl	.L499
                        1284 --490:     {
                        1285 --491:         if (version == 0x100)
                        1286 --line491
                        1287 ..lin.C.3A.5Cgit.5Crh850.5Csrc.5Capp.5Cgfx_apps.5Csimple_draw.5Ctarget.5Cd1mx_mango_ghs.5Cobj.5Cr_dev_init.23::
                        1288 .LDWlin23:
000001a2 1d0600ff       1289 	addi	-256,r29,zero
000001a6 ca05*          1290 	bne	.L502
                        1291 --492:         {
                        1292 --493:             version = R_DEV_REVISION_1V0;    /* V1.0 => R7F701417-V1 (D1L1 die based marketing product) */
                        1293 --line493
                        1294 ..lin.C.3A.5Cgit.5Crh850.5Csrc.5Capp.5Cgfx_apps.5Csimple_draw.5Ctarget.5Cd1mx_mango_ghs.5Cobj.5Cr_dev_init.24::
                        1295 .LDWlin24:
000001a8 20ee0001       1296 	movea	256,zero,r29
000001ac 850d*          1297 	br	.L504
                        1298 .L502:
                        1299 --494:         } else if (version == 0x200)
                        1300 --line494
                        1301 ..lin.C.3A.5Cgit.5Crh850.5Csrc.5Capp.5Cgfx_apps.5Csimple_draw.5Ctarget.5Cd1mx_mango_ghs.5Cobj.5Cr_dev_init.25::
                        1302 .LDWlin25:
000001ae 1d0600fe       1303 	addi	-512,r29,zero
000001b2 ca05*          1304 	bne	.L505
                        1305 --495:         {
                        1306 --496:             version = R_DEV_REVISION_2V0;    /* V2.0 => R7F701417-V2 (acutal R7F701417 die product) */
                        1307 --line496
                        1308 ..lin.C.3A.5Cgit.5Crh850.5Csrc.5Capp.5Cgfx_apps.5Csimple_draw.5Ctarget.5Cd1mx_mango_ghs.5Cobj.5Cr_dev_init.26::
                        1309 .LDWlin26:
000001b4 20ee0002       1310 	movea	512,zero,r29
000001b8 a505*          1311 	br	.L504
                        1312 .L505:
                        1313 --497:         } else
                        1314 --498:         {
                        1315 --499:             version = R_DEV_UNKNOWN_DEVICE_REVISION;    /* error, version not supported */
                        1316 --line499
                        1317 ..lin.C.3A.5Cgit.5Crh850.5Csrc.5Capp.5Cgfx_apps.5Csimple_draw.5Ctarget.5Cd1mx_mango_ghs.5Cobj.5Cr_dev_init.27::
                        1318 .LDWlin27:
000001ba 00ea           1319 	mov	0,r29
                        1320 .L504:
                        1321 --500:         }
                        1322 --501:         return version;

                                                                      Page 23
                                                              C:\Users\Frank\AppData\Local\Temp\gh_0000po81.si
000001bc 1d50           1323 	mov	r29,r10
000001be 80070a01*      1324 	br	.L494
                        1325 .L499:
                        1326 --502:     }
                        1327 --503:     /* D1L1 revision mapping */
                        1328 --504:     if ((device >= R_DEV_R7F701400) && (device <= R_DEV_R7F701401))    /* D1L1 */
                        1329 --line504
                        1330 ..lin.C.3A.5Cgit.5Crh850.5Csrc.5Capp.5Cgfx_apps.5Csimple_draw.5Ctarget.5Cd1mx_mango_ghs.5Cobj.5Cr_dev_init.28::
                        1331 .LDWlin28:
000001c2 1c0688fa       1332 	addi	-1400,r28,zero
000001c6 b915*          1333 	bnl	.L509
000001c8 1c0686fa       1334 	addi	-1402,r28,zero
000001cc 8115*          1335 	bl	.L509
                        1336 --505:     {
                        1337 --506:         if (version == 0x100)
                        1338 --line506
                        1339 ..lin.C.3A.5Cgit.5Crh850.5Csrc.5Capp.5Cgfx_apps.5Csimple_draw.5Ctarget.5Cd1mx_mango_ghs.5Cobj.5Cr_dev_init.29::
                        1340 .LDWlin29:
000001ce 1d0600ff       1341 	addi	-256,r29,zero
000001d2 ca05*          1342 	bne	.L512
                        1343 --507:         {
                        1344 --508:             version = R_DEV_REVISION_1V0;    /* V1.0 */
                        1345 --line508
                        1346 ..lin.C.3A.5Cgit.5Crh850.5Csrc.5Capp.5Cgfx_apps.5Csimple_draw.5Ctarget.5Cd1mx_mango_ghs.5Cobj.5Cr_dev_init.30::
                        1347 .LDWlin30:
000001d4 20ee0001       1348 	movea	256,zero,r29
000001d8 850d*          1349 	br	.L514
                        1350 .L512:
                        1351 --509:         } else if (version == 0x200)
                        1352 --line509
                        1353 ..lin.C.3A.5Cgit.5Crh850.5Csrc.5Capp.5Cgfx_apps.5Csimple_draw.5Ctarget.5Cd1mx_mango_ghs.5Cobj.5Cr_dev_init.31::
                        1354 .LDWlin31:
000001da 1d0600fe       1355 	addi	-512,r29,zero
000001de ca05*          1356 	bne	.L515
                        1357 --510:         {
                        1358 --511:             version = R_DEV_REVISION_1V1;    /* V1.1 */
                        1359 --line511
                        1360 ..lin.C.3A.5Cgit.5Crh850.5Csrc.5Capp.5Cgfx_apps.5Csimple_draw.5Ctarget.5Cd1mx_mango_ghs.5Cobj.5Cr_dev_init.32::
                        1361 .LDWlin32:
000001e0 20ee0101       1362 	movea	257,zero,r29
000001e4 a505*          1363 	br	.L514
                        1364 .L515:
                        1365 --512:         } else
                        1366 --513:         {
                        1367 --514:             version = R_DEV_UNKNOWN_DEVICE_REVISION;    /* error, version not supported */
                        1368 --line514
                        1369 ..lin.C.3A.5Cgit.5Crh850.5Csrc.5Capp.5Cgfx_apps.5Csimple_draw.5Ctarget.5Cd1mx_mango_ghs.5Cobj.5Cr_dev_init.33::
                        1370 .LDWlin33:
000001e6 00ea           1371 	mov	0,r29
                        1372 .L514:
                        1373 --515:         }
                        1374 --516:         return version;
000001e8 1d50           1375 	mov	r29,r10
000001ea f56d*          1376 	br	.L494
                        1377 .L509:
                        1378 --517:     }
                        1379 --518:     /* D1L2(H) revision mapping */
                        1380 --519:     if ((device >= R_DEV_R7F701402) && (device <= R_DEV_R7F701403))    /* D1L2(H) */
                        1381 --line519
                        1382 ..lin.C.3A.5Cgit.5Crh850.5Csrc.5Capp.5Cgfx_apps.5Csimple_draw.5Ctarget.5Cd1mx_mango_ghs.5Cobj.5Cr_dev_init.34::
                        1383 .LDWlin34:

                                                                      Page 24
                                                              C:\Users\Frank\AppData\Local\Temp\gh_0000po81.si
000001ec 1c0686fa       1384 	addi	-1402,r28,zero
000001f0 f91d*          1385 	bnl	.L519
000001f2 1c0684fa       1386 	addi	-1404,r28,zero
000001f6 c11d*          1387 	bl	.L519
                        1388 --520:     {
                        1389 --521:         if (version == 0x100)
                        1390 --line521
                        1391 ..lin.C.3A.5Cgit.5Crh850.5Csrc.5Capp.5Cgfx_apps.5Csimple_draw.5Ctarget.5Cd1mx_mango_ghs.5Cobj.5Cr_dev_init.35::
                        1392 .LDWlin35:
000001f8 1d0600ff       1393 	addi	-256,r29,zero
000001fc ca05*          1394 	bne	.L522
                        1395 --522:         {
                        1396 --523:             version = R_DEV_REVISION_1V0;    /* V1.0 */
                        1397 --line523
                        1398 ..lin.C.3A.5Cgit.5Crh850.5Csrc.5Capp.5Cgfx_apps.5Csimple_draw.5Ctarget.5Cd1mx_mango_ghs.5Cobj.5Cr_dev_init.36::
                        1399 .LDWlin36:
000001fe 20ee0001       1400 	movea	256,zero,r29
00000202 c515*          1401 	br	.L524
                        1402 .L522:
                        1403 --524:         } else if (version == 0x200)
                        1404 --line524
                        1405 ..lin.C.3A.5Cgit.5Crh850.5Csrc.5Capp.5Cgfx_apps.5Csimple_draw.5Ctarget.5Cd1mx_mango_ghs.5Cobj.5Cr_dev_init.37::
                        1406 .LDWlin37:
00000204 1d0600fe       1407 	addi	-512,r29,zero
00000208 ca05*          1408 	bne	.L525
                        1409 --525:         {
                        1410 --526:             version = R_DEV_REVISION_2V0;    /* V2.0 */
                        1411 --line526
                        1412 ..lin.C.3A.5Cgit.5Crh850.5Csrc.5Capp.5Cgfx_apps.5Csimple_draw.5Ctarget.5Cd1mx_mango_ghs.5Cobj.5Cr_dev_init.38::
                        1413 .LDWlin38:
0000020a 20ee0002       1414 	movea	512,zero,r29
0000020e e50d*          1415 	br	.L524
                        1416 .L525:
                        1417 --527:         } else if (version == 0x300)
                        1418 --line527
                        1419 ..lin.C.3A.5Cgit.5Crh850.5Csrc.5Capp.5Cgfx_apps.5Csimple_draw.5Ctarget.5Cd1mx_mango_ghs.5Cobj.5Cr_dev_init.39::
                        1420 .LDWlin39:
00000210 1d0600fd       1421 	addi	-768,r29,zero
00000214 ca05*          1422 	bne	.L528
                        1423 --528:         {
                        1424 --529:             version = R_DEV_REVISION_2V1;    /* V2.1 */
                        1425 --line529
                        1426 ..lin.C.3A.5Cgit.5Crh850.5Csrc.5Capp.5Cgfx_apps.5Csimple_draw.5Ctarget.5Cd1mx_mango_ghs.5Cobj.5Cr_dev_init.40::
                        1427 .LDWlin40:
00000216 20ee0102       1428 	movea	513,zero,r29
0000021a 850d*          1429 	br	.L524
                        1430 .L528:
                        1431 --530:         } else if (version == 0x400)
                        1432 --line530
                        1433 ..lin.C.3A.5Cgit.5Crh850.5Csrc.5Capp.5Cgfx_apps.5Csimple_draw.5Ctarget.5Cd1mx_mango_ghs.5Cobj.5Cr_dev_init.41::
                        1434 .LDWlin41:
0000021c 1d0600fc       1435 	addi	-1024,r29,zero
00000220 ca05*          1436 	bne	.L531
                        1437 --531:         {
                        1438 --532:             version = R_DEV_REVISION_2V2;    /* V2.2 */
                        1439 --line532
                        1440 ..lin.C.3A.5Cgit.5Crh850.5Csrc.5Capp.5Cgfx_apps.5Csimple_draw.5Ctarget.5Cd1mx_mango_ghs.5Cobj.5Cr_dev_init.42::
                        1441 .LDWlin42:
00000222 20ee0202       1442 	movea	514,zero,r29
00000226 a505*          1443 	br	.L524
                        1444 .L531:

                                                                      Page 25
                                                              C:\Users\Frank\AppData\Local\Temp\gh_0000po81.si
                        1445 --533:         } else
                        1446 --534:         {
                        1447 --535:             version = R_DEV_UNKNOWN_DEVICE_REVISION;    /* error, version not supported */
                        1448 --line535
                        1449 ..lin.C.3A.5Cgit.5Crh850.5Csrc.5Capp.5Cgfx_apps.5Csimple_draw.5Ctarget.5Cd1mx_mango_ghs.5Cobj.5Cr_dev_init.43::
                        1450 .LDWlin43:
00000228 00ea           1451 	mov	0,r29
                        1452 .L524:
                        1453 --536:         }
                        1454 --537:         return version;
0000022a 1d50           1455 	mov	r29,r10
0000022c e54d*          1456 	br	.L494
                        1457 .L519:
                        1458 --538:     }
                        1459 --540:     /* D1M1-V2 revision mapping */
                        1460 --541:     if (device == R_DEV_R7F701442)    /* D1M1-V2 */
                        1461 --line541
                        1462 ..lin.C.3A.5Cgit.5Crh850.5Csrc.5Capp.5Cgfx_apps.5Csimple_draw.5Ctarget.5Cd1mx_mango_ghs.5Cobj.5Cr_dev_init.44::
                        1463 .LDWlin44:
0000022e 1c065efa       1464 	addi	-1442,r28,zero
00000232 aa0d*          1465 	bne	.L535
                        1466 --542:     {
                        1467 --543:         if (version == 0x100)
                        1468 --line543
                        1469 ..lin.C.3A.5Cgit.5Crh850.5Csrc.5Capp.5Cgfx_apps.5Csimple_draw.5Ctarget.5Cd1mx_mango_ghs.5Cobj.5Cr_dev_init.45::
                        1470 .LDWlin45:
00000234 1d0600ff       1471 	addi	-256,r29,zero
00000238 ca05*          1472 	bne	.L537
                        1473 --544:         {
                        1474 --545:             version = R_DEV_REVISION_1V0;    /* V1.0 */
                        1475 --line545
                        1476 ..lin.C.3A.5Cgit.5Crh850.5Csrc.5Capp.5Cgfx_apps.5Csimple_draw.5Ctarget.5Cd1mx_mango_ghs.5Cobj.5Cr_dev_init.46::
                        1477 .LDWlin46:
0000023a 20ee0001       1478 	movea	256,zero,r29
0000023e a505*          1479 	br	.L539
                        1480 .L537:
                        1481 --546:         } else
                        1482 --547:         {
                        1483 --548:             version = R_DEV_UNKNOWN_DEVICE_REVISION;    /* error, version not supported */
                        1484 --line548
                        1485 ..lin.C.3A.5Cgit.5Crh850.5Csrc.5Capp.5Cgfx_apps.5Csimple_draw.5Ctarget.5Cd1mx_mango_ghs.5Cobj.5Cr_dev_init.47::
                        1486 .LDWlin47:
00000240 00ea           1487 	mov	0,r29
                        1488 .L539:
                        1489 --549:         }
                        1490 --550:         return version;
00000242 1d50           1491 	mov	r29,r10
00000244 a545*          1492 	br	.L494
                        1493 .L535:
                        1494 --551:     }
                        1495 --553:     /* D1M1(H) revision mapping */
                        1496 --554:     if ((device >= R_DEV_R7F701404) && (device <= R_DEV_R7F701407))    /* D1M1(H) */
                        1497 --line554
                        1498 ..lin.C.3A.5Cgit.5Crh850.5Csrc.5Capp.5Cgfx_apps.5Csimple_draw.5Ctarget.5Cd1mx_mango_ghs.5Cobj.5Cr_dev_init.48::
                        1499 .LDWlin48:
00000246 1c0684fa       1500 	addi	-1404,r28,zero
0000024a b915*          1501 	bnl	.L541
0000024c 1c0680fa       1502 	addi	-1408,r28,zero
00000250 8115*          1503 	bl	.L541
                        1504 --555:     {
                        1505 --556:         if (version == 0x100)

                                                                      Page 26
                                                              C:\Users\Frank\AppData\Local\Temp\gh_0000po81.si
                        1506 --line556
                        1507 ..lin.C.3A.5Cgit.5Crh850.5Csrc.5Capp.5Cgfx_apps.5Csimple_draw.5Ctarget.5Cd1mx_mango_ghs.5Cobj.5Cr_dev_init.49::
                        1508 .LDWlin49:
00000252 1d0600ff       1509 	addi	-256,r29,zero
00000256 ca05*          1510 	bne	.L544
                        1511 --557:         {
                        1512 --558:             version = R_DEV_REVISION_1V0;    /* V1.0 */
                        1513 --line558
                        1514 ..lin.C.3A.5Cgit.5Crh850.5Csrc.5Capp.5Cgfx_apps.5Csimple_draw.5Ctarget.5Cd1mx_mango_ghs.5Cobj.5Cr_dev_init.50::
                        1515 .LDWlin50:
00000258 20ee0001       1516 	movea	256,zero,r29
0000025c 850d*          1517 	br	.L546
                        1518 .L544:
                        1519 --559:         } else if (version == 0x200)
                        1520 --line559
                        1521 ..lin.C.3A.5Cgit.5Crh850.5Csrc.5Capp.5Cgfx_apps.5Csimple_draw.5Ctarget.5Cd1mx_mango_ghs.5Cobj.5Cr_dev_init.51::
                        1522 .LDWlin51:
0000025e 1d0600fe       1523 	addi	-512,r29,zero
00000262 ca05*          1524 	bne	.L547
                        1525 --560:         {
                        1526 --561:             version = R_DEV_REVISION_1V2;    /* V1.2 */
                        1527 --line561
                        1528 ..lin.C.3A.5Cgit.5Crh850.5Csrc.5Capp.5Cgfx_apps.5Csimple_draw.5Ctarget.5Cd1mx_mango_ghs.5Cobj.5Cr_dev_init.52::
                        1529 .LDWlin52:
00000264 20ee0201       1530 	movea	258,zero,r29
00000268 a505*          1531 	br	.L546
                        1532 .L547:
                        1533 --562:         } else
                        1534 --563:         {
                        1535 --564:             version = R_DEV_UNKNOWN_DEVICE_REVISION;    /* error, version not supported */
                        1536 --line564
                        1537 ..lin.C.3A.5Cgit.5Crh850.5Csrc.5Capp.5Cgfx_apps.5Csimple_draw.5Ctarget.5Cd1mx_mango_ghs.5Cobj.5Cr_dev_init.53::
                        1538 .LDWlin53:
0000026a 00ea           1539 	mov	0,r29
                        1540 .L546:
                        1541 --565:         }
                        1542 --566:         return version;
0000026c 1d50           1543 	mov	r29,r10
0000026e d52d*          1544 	br	.L494
                        1545 .L541:
                        1546 --567:     }
                        1547 --568:     
                        1548 --569:     /* D1M1A revision mapping */
                        1549 --570:     if ((device == R_DEV_R7F701441) || (device == R_DEV_R7F701418))    /* D1M1A */
                        1550 --line570
                        1551 ..lin.C.3A.5Cgit.5Crh850.5Csrc.5Capp.5Cgfx_apps.5Csimple_draw.5Ctarget.5Cd1mx_mango_ghs.5Cobj.5Cr_dev_init.54::
                        1552 .LDWlin54:
00000270 1c065ffa       1553 	addi	-1441,r28,zero
00000274 c205*          1554 	be	.L552
00000276 1c0676fa       1555 	addi	-1418,r28,zero
0000027a aa0d*          1556 	bne	.L551
                        1557 .L552:
                        1558 --571:     {
                        1559 --572:         if (version == 0x100)
                        1560 --line572
                        1561 ..lin.C.3A.5Cgit.5Crh850.5Csrc.5Capp.5Cgfx_apps.5Csimple_draw.5Ctarget.5Cd1mx_mango_ghs.5Cobj.5Cr_dev_init.55::
                        1562 .LDWlin55:
0000027c 1d0600ff       1563 	addi	-256,r29,zero
00000280 ca05*          1564 	bne	.L554
                        1565 --573:         {
                        1566 --574:             version = R_DEV_REVISION_1V0;    /* V1.0 */

                                                                      Page 27
                                                              C:\Users\Frank\AppData\Local\Temp\gh_0000po81.si
                        1567 --line574
                        1568 ..lin.C.3A.5Cgit.5Crh850.5Csrc.5Capp.5Cgfx_apps.5Csimple_draw.5Ctarget.5Cd1mx_mango_ghs.5Cobj.5Cr_dev_init.56::
                        1569 .LDWlin56:
00000282 20ee0001       1570 	movea	256,zero,r29
00000286 a505*          1571 	br	.L556
                        1572 .L554:
                        1573 --575:         } else
                        1574 --576:         {
                        1575 --577:             version = R_DEV_UNKNOWN_DEVICE_REVISION;    /* error, version not supported */
                        1576 --line577
                        1577 ..lin.C.3A.5Cgit.5Crh850.5Csrc.5Capp.5Cgfx_apps.5Csimple_draw.5Ctarget.5Cd1mx_mango_ghs.5Cobj.5Cr_dev_init.57::
                        1578 .LDWlin57:
00000288 00ea           1579 	mov	0,r29
                        1580 .L556:
                        1581 --578:         }
                        1582 --579:         return version;
0000028a 1d50           1583 	mov	r29,r10
0000028c e51d*          1584 	br	.L494
                        1585 .L551:
                        1586 --580:     }
                        1587 --581:     
                        1588 --582:     /* D1M2(H) revision mapping */
                        1589 --583:     if ((device >= R_DEV_R7F701408) && (device <= R_DEV_R7F701412))    /* D1M2(H) */
                        1590 --line583
                        1591 ..lin.C.3A.5Cgit.5Crh850.5Csrc.5Capp.5Cgfx_apps.5Csimple_draw.5Ctarget.5Cd1mx_mango_ghs.5Cobj.5Cr_dev_init.58::
                        1592 .LDWlin58:
0000028e 1c0680fa       1593 	addi	-1408,r28,zero
00000292 991d*          1594 	bnl	.L558
00000294 1c067bfa       1595 	addi	-1413,r28,zero
00000298 e115*          1596 	bl	.L558
                        1597 --584:     {
                        1598 --585:         if (version == 0x100)
                        1599 --line585
                        1600 ..lin.C.3A.5Cgit.5Crh850.5Csrc.5Capp.5Cgfx_apps.5Csimple_draw.5Ctarget.5Cd1mx_mango_ghs.5Cobj.5Cr_dev_init.59::
                        1601 .LDWlin59:
0000029a 1d0600ff       1602 	addi	-256,r29,zero
0000029e ca05*          1603 	bne	.L561
                        1604 --586:         {
                        1605 --587:             version = R_DEV_REVISION_1V0;    /* V1.0 */
                        1606 --line587
                        1607 ..lin.C.3A.5Cgit.5Crh850.5Csrc.5Capp.5Cgfx_apps.5Csimple_draw.5Ctarget.5Cd1mx_mango_ghs.5Cobj.5Cr_dev_init.60::
                        1608 .LDWlin60:
000002a0 20ee0001       1609 	movea	256,zero,r29
000002a4 e50d*          1610 	br	.L563
                        1611 .L561:
                        1612 --588:         } else if (version == 0x200)
                        1613 --line588
                        1614 ..lin.C.3A.5Cgit.5Crh850.5Csrc.5Capp.5Cgfx_apps.5Csimple_draw.5Ctarget.5Cd1mx_mango_ghs.5Cobj.5Cr_dev_init.61::
                        1615 .LDWlin61:
000002a6 1d0600fe       1616 	addi	-512,r29,zero
000002aa ca05*          1617 	bne	.L564
                        1618 --589:         {
                        1619 --590:             version = R_DEV_REVISION_2V0;    /* V2.0 */
                        1620 --line590
                        1621 ..lin.C.3A.5Cgit.5Crh850.5Csrc.5Capp.5Cgfx_apps.5Csimple_draw.5Ctarget.5Cd1mx_mango_ghs.5Cobj.5Cr_dev_init.62::
                        1622 .LDWlin62:
000002ac 20ee0002       1623 	movea	512,zero,r29
000002b0 850d*          1624 	br	.L563
                        1625 .L564:
                        1626 --591:         } else if (version == 0x300)
                        1627 --line591

                                                                      Page 28
                                                              C:\Users\Frank\AppData\Local\Temp\gh_0000po81.si
                        1628 ..lin.C.3A.5Cgit.5Crh850.5Csrc.5Capp.5Cgfx_apps.5Csimple_draw.5Ctarget.5Cd1mx_mango_ghs.5Cobj.5Cr_dev_init.63::
                        1629 .LDWlin63:
000002b2 1d0600fd       1630 	addi	-768,r29,zero
000002b6 ca05*          1631 	bne	.L567
                        1632 --592:         {
                        1633 --593:             version = R_DEV_REVISION_3V0;    /* V3.0 */
                        1634 --line593
                        1635 ..lin.C.3A.5Cgit.5Crh850.5Csrc.5Capp.5Cgfx_apps.5Csimple_draw.5Ctarget.5Cd1mx_mango_ghs.5Cobj.5Cr_dev_init.64::
                        1636 .LDWlin64:
000002b8 20ee0003       1637 	movea	768,zero,r29
000002bc a505*          1638 	br	.L563
                        1639 .L567:
                        1640 --594:         } else
                        1641 --595:         {
                        1642 --596:             version = R_DEV_UNKNOWN_DEVICE_REVISION;    /* error, version not supported */
                        1643 --line596
                        1644 ..lin.C.3A.5Cgit.5Crh850.5Csrc.5Capp.5Cgfx_apps.5Csimple_draw.5Ctarget.5Cd1mx_mango_ghs.5Cobj.5Cr_dev_init.65::
                        1645 .LDWlin65:
000002be 00ea           1646 	mov	0,r29
                        1647 .L563:
                        1648 --597:         }
                        1649 --598:         return version;
000002c0 1d50           1650 	mov	r29,r10
000002c2 b505*          1651 	br	.L494
                        1652 .L558:
                        1653 --599:     }
                        1654 --600:     
                        1655 --601:     /* failure, version is not supported. */
                        1656 --602:     version = R_DEV_UNKNOWN_DEVICE_REVISION;
                        1657 --line602
                        1658 ..lin.C.3A.5Cgit.5Crh850.5Csrc.5Capp.5Cgfx_apps.5Csimple_draw.5Ctarget.5Cd1mx_mango_ghs.5Cobj.5Cr_dev_init.66::
                        1659 .LDWlin66:
000002c4 00ea           1660 	mov	0,r29
                        1661 --603:     return version;
000002c6 1d50           1662 	mov	r29,r10
                        1663 .L494:
                        1664 --	    .ef
                        1665 .LDW62:
000002c8 4006ff00       1666 	dispose	0,{r28,r29,r31},[lp]
                        1667 	.type	_R_DEV_GetVersion,@function
                        1668 	.size	_R_DEV_GetVersion,.-_R_DEV_GetVersion
                        1669 	.align	2
                        1670 .LDW72:
                        1671 --_version	r29	local
                        1672 --_device	r28	local
                        1673 
                        1674 	.section ".bss","awb"
                        1675 .L846:
                        1676 	.type	.L846,@object
                        1677 	.size	.L846,0
                        1678 	.data
                        1679 	.text
                        1680 
                        1681 --604: }
                        1682 
                        1683 --607: /*******************************************************************************
                        1684 --608:   Function: R_DEV_GetDevName
                        1685 --609:   
                        1686 --610:   see r_dev_api.h for details  
                        1687 --612: */
                        1688 --614: const char *R_DEV_GetDevName(void) 

                                                                      Page 29
                                                              C:\Users\Frank\AppData\Local\Temp\gh_0000po81.si
                        1689 	.align	2
                        1690 	.align	2
                        1691 	.global	_R_DEV_GetDevName
                        1692 _R_DEV_GetDevName:
000002cc 8007e100       1693 	prepare	{r28,r29,r31},0
000002d0 3d0600000000*  1694 	mov	_loc_DevHasCanFD,r29
                        1695 --	    .bf
                        1696 .LDW82:
                        1697 --615: {
                        1698 --616:     uint32_t device = (uint32_t) R_DEV_GetDev(); 
                        1699 	jarl	_R_DEV_GetDev,lp
                        1699 <EXPANSION BEGIN>
                        1699 jarl22 _R_DEV_GetDev , lp 
000002d6 bffff4fd*      1699 <EXPANSION END>
000002da 0ae0           1700 	mov	r10,r28
                        1701 --617:     const char * dev_name; 
                        1702 --618:     
                        1703 --619:     if (device > R_DEV_R7F7014OFFS)
                        1704 --line619
                        1705 ..lin.C.3A.5Cgit.5Crh850.5Csrc.5Capp.5Cgfx_apps.5Csimple_draw.5Ctarget.5Cd1mx_mango_ghs.5Cobj.5Cr_dev_init.67::
                        1706 .LDWlin67:
000002dc 1c0687fa       1707 	addi	-1401,r28,zero
000002e0 c905*          1708 	bnl	.L1052
                        1709 --620:     {
                        1710 --621:        device -= R_DEV_R7F7014OFFS;
                        1711 --line621
                        1712 ..lin.C.3A.5Cgit.5Crh850.5Csrc.5Capp.5Cgfx_apps.5Csimple_draw.5Ctarget.5Cd1mx_mango_ghs.5Cobj.5Cr_dev_init.68::
                        1713 .LDWlin68:
000002e2 1ce688fa       1714 	addi	-1400,r28,r28
000002e6 a505*          1715 	br	.L1054
                        1716 .L1052:
                        1717 --622:     }
                        1718 --623:     else 
                        1719 --624:     {
                        1720 --625:         device = R_DEV_UNKNOWN_DEVICE; 
                        1721 --line625
                        1722 ..lin.C.3A.5Cgit.5Crh850.5Csrc.5Capp.5Cgfx_apps.5Csimple_draw.5Ctarget.5Cd1mx_mango_ghs.5Cobj.5Cr_dev_init.69::
                        1723 .LDWlin69:
000002e8 00e2           1724 	mov	0,r28
                        1725 .L1054:
                        1726 --626:     }
                        1727 --627:     dev_name = loc_DevName[device]; 
000002ea 1cf0           1728 	mov	r28,ep
000002ec c2f2           1729 	shl	2,ep
000002ee ddf1           1730 	add	r29,ep
000002f0 040d           1731 	sld.w	8[ep],r1
                        1732 --628:     if (0 == loc_DevHasCanFD)
000002f2 2e0600000000*  1733 	mov	_loc_DevHasCanFD,r14
000002f8 2e770100       1734 	ld.w	0[r14],r14
000002fc e071           1735 	cmp	zero,r14
000002fe aa05*          1736 	bne	.L1055
                        1737 --629:     {
                        1738 --630:         /* skip leading CAN-FD in the string */
                        1739 --631:         dev_name += 7; 
                        1740 --line631
                        1741 ..lin.C.3A.5Cgit.5Crh850.5Csrc.5Capp.5Cgfx_apps.5Csimple_draw.5Ctarget.5Cd1mx_mango_ghs.5Cobj.5Cr_dev_init.70::
                        1742 .LDWlin70:
00000300 470a           1743 	add	7,r1
                        1744 .L1055:
                        1745 --632:     }
                        1746 --633:     return dev_name; 

                                                                      Page 30
                                                              C:\Users\Frank\AppData\Local\Temp\gh_0000po81.si
00000302 0150           1747 	mov	r1,r10
                        1748 --	    .ef
                        1749 .LDW92:
00000304 4006ff00       1750 	dispose	0,{r28,r29,r31},[lp]
                        1751 	.type	_R_DEV_GetDevName,@function
                        1752 	.size	_R_DEV_GetDevName,.-_R_DEV_GetDevName
                        1753 	.align	2
                        1754 .LDW03:
                        1755 --_device	r28	local
                        1756 --_dev_name	r1	local
                        1757 
                        1758 	.data
                        1759 	.text
                        1760 
                        1761 --634: } 
                        1762 	.align	2
                        1763 --_loc_IntCtrl	_loc_IntCtrl	static
                        1764 --_loc_DevName	_loc_DevName	static
                        1765 --_loc_DevNum	_loc_DevNum	static
                        1766 --_loc_DevHasCanFD	_loc_DevHasCanFD	static
                        1767 --_loc_ErrorHandler	_loc_ErrorHandler	static
                        1768 
                        1769 	.data
                        1770 	.ghsnote version,15
                        1771 	.ghsnote tools,3
                        1772 	.ghsnote options,144
                        1773 	.text
                        1774 	.align	2
                        1775 ..eof.C.3A.5Cgit.5Crh850.5Csrc.5Capp.5Cgfx_apps.5Csimple_draw.5Ctarget.5Cd1mx_mango_ghs.5Cobj.5Cr_dev_init...43.3A.5Cgit.5Crh850.5Csrc.5Capp.5Cgfx_apps.5Csimple_draw.5Ctarget.5Cd1mx_mango_ghs..5BC5D024..0::
                        1776 .rh850_flags REGMODE22,DATA_ALIGN8,GP_FIX,EP_NONFIX,TP_FIX,REG2_RESERVE,G3M
