                                                                      Page 1
                                                              C:\Users\Frank\AppData\Local\Temp\gh_0000p101.si
Command Line: C:\GHS\V800.V2014.1.7\comp_201417\ease850.exe -w -elf -b0 -I../../../../../app/common/dhd -I../../../../../app/gfx_apps/simple_draw/src -I../../../../../app/gfx_apps/simple_draw/lib -I../../../../../bsp/board//config -I../../../../../bsp/board//src/gfx -I../../../../../bsp/board//src/hmi -I../../../../../bsp/board//src/stdio -I../../../../../bsp/board/d1mx_mango/config -I../../../../../bsp/board/d1mx_mango/src -I../../../../../bsp/board/d1mx_mango/src/gfx -I../../../../../bsp/board/d1mx_mango/src/hmi -I../../../../../bsp/board/d1mx_mango/src/stdio -I../../../../../bsp/gfx/lib -I../../../../../bsp/gfx/src -I../../../../../bsp/hmi/lib -I../../../../../bsp/hmi/src -I../../../../../bsp/lib -I../../../../../bsp/stdio/lib -I../../../../../bsp/stdio/src -I../../../../../cdi/lib -I../../../../../cdi/src -I../../../../../compiler/rh850_ghs/inc -I../../../../../device/d1mx/lib -I../../../../../device/d1mx/macro_cfg -I../../../../../device/d1mx/macro_cfg/csisw -I../../../../../device/d1mx/macro_cfg/davehd -I../../../../../device/d1mx/macro_cfg/ddb -I../../../../../device/d1mx/macro_cfg/drw2d -I../../../../../device/d1mx/macro_cfg/gfxbus -I../../../../../device/d1mx/macro_cfg/gpio -I../../../../../device/d1mx/macro_cfg/hypb -I../../../../../device/d1mx/macro_cfg/hypdb -I../../../../../device/d1mx/macro_cfg/jcua -I../../../../../device/d1mx/macro_cfg/nfmabare -I../../../../../device/d1mx/macro_cfg/octa -I../../../../../device/d1mx/macro_cfg/octacdb -I../../../../../device/d1mx/macro_cfg/ostm -I../../../../../device/d1mx/macro_cfg/pbg -I../../../../../device/d1mx/macro_cfg/riic -I../../../../../device/d1mx/macro_cfg/sfcdb -I../../../../../device/d1mx/macro_cfg/sfma -I../../../../../device/d1mx/macro_cfg/spea -I../../../../../device/d1mx/macro_cfg/tauj -I../../../../../device/d1mx/macro_cfg/tick -I../../../../../device/d1mx/macro_cfg/vdce -I../../../../../device/d1mx/macro_cfg/vowe -I../../../../../device/d1mx/macro_cfg/wm -I../../../../../device/d1mx/macro_cfg/xbus -I../../../../../device/d1mx/src/dev -I../../../../../device/d1mx/src/dhd -I../../../../../device/d1mx/src/hypb -I../../../../../device/d1mx/src/jcua -I../../../../../device/d1mx/src/nfmabare -I../../../../../device/d1mx/src/octa -I../../../../../device/d1mx/src/rh850_ghs -I../../../../../device/d1mx/src/vowe -I../../../../../device/d1x_common/macro_cfg -I../../../../../device/d1x_common/macro_cfg/csisw -I../../../../../device/d1x_common/macro_cfg/davehd -I../../../../../device/d1x_common/macro_cfg/ddb -I../../../../../device/d1x_common/macro_cfg/drw2d -I../../../../../device/d1x_common/macro_cfg/gfxbus -I../../../../../device/d1x_common/macro_cfg/gpio -I../../../../../device/d1x_common/macro_cfg/hypb -I../../../../../device/d1x_common/macro_cfg/hypdb -I../../../../../device/d1x_common/macro_cfg/jcua -I../../../../../device/d1x_common/macro_cfg/nfmabare -I../../../../../device/d1x_common/macro_cfg/octa -I../../../../../device/d1x_common/macro_cfg/octacdb -I../../../../../device/d1x_common/macro_cfg/ostm -I../../../../../device/d1x_common/macro_cfg/pbg -I../../../../../device/d1x_common/macro_cfg/riic -I../../../../../device/d1x_common/macro_cfg/sfcdb -I../../../../../device/d1x_common/macro_cfg/sfma -I../../../../../device/d1x_common/macro_cfg/spea -I../../../../../device/d1x_common/macro_cfg/tauj -I../../../../../device/d1x_common/macro_cfg/tick -I../../../../../device/d1x_common/macro_cfg/vdce -I../../../../../device/d1x_common/macro_cfg/vowe -I../../../../../device/d1x_common/macro_cfg/wm -I../../../../../device/d1x_common/macro_cfg/xbus -I../../../../../device/d1x_common/src/csisw -I../../../../../device/d1x_common/src/ddb -I../../../../../device/d1x_common/src/dev -I../../../../../device/d1x_common/src/gfxbus -I../../../../../device/d1x_common/src/gpio -I../../../../../device/d1x_common/src/ostm -I../../../../../device/d1x_common/src/pbg -I../../../../../device/d1x_common/src/riic -I../../../../../device/d1x_common/src/sfma -I../../../../../device/d1x_common/src/spea -I../../../../../device/d1x_common/src/tauj -I../../../../../device/d1x_common/src/tick -I../../../../../device/d1x_common/src/vdce -I../../../../../device/d1x_common/src/wm -I../../../../../device/d1x_common/src/xbus -I../../../../../device/lib -I../../../../../macro/bus/pbg/lib -I../../../../../macro/bus/pbg/src -I../../../../../macro/csi/csisw/lib -I../../../../../macro/csi/csisw/src -I../../../../../macro/drw2d/lib -I../../../../../macro/drw2d/platform/davehd -I../../../../../macro/drw2d/platform/os/no_os -I../../../../../macro/drw2d/src -I../../../../../macro/flashc/hypb/lib -I../../../../../macro/flashc/hypb/src -I../../../../../macro/flashc/hypdb/lib -I../../../../../macro/flashc/hypdb/src -I../../../../../macro/flashc/nfmabare/lib -I../../../../../macro/flashc/nfmabare/src -I../../../../../macro/flashc/octa/lib -I../../../../../macro/flashc/octa/src -I../../../../../macro/flashc/octacdb/lib -I../../../../../macro/flashc/octacdb/src -I../../../../../macro/flashc/sfcdb/lib -I../../../../../macro/flashc/sfcdb/src -I../../../../../macro/flashc/sfma/lib -I../../../../../macro/flashc/sfma/src -I../../../../../macro/gfxbus/lib -I../../../../../macro/gfxbus/src -I../../../../../macro/gfxbus/xbus/lib -I../../../../../macro/gfxbus/xbus/src -I../../../../../macro/gpio/lib -I../../../../../macro/gpio/src -I../../../../../macro/gpu/davehd/common/inc -I../../../../../macro/gpu/davehd/common/inc/platform -I../../../../../macro/gpu/davehd/common/inc/platform/d1mx -I../../../../../macro/gpu/davehd/docs -I../../../../../macro/gpu/davehd/kernel/inc -I../../../../../macro/gpu/davehd/kernel/platform/d1mx -I../../../../../macro/gpu/davehd/kernel/platform/d1mx/bridge -I../../../../../macro/gpu/davehd/kernel/platform/d1mx/non_threaded -I../../../../../macro/gpu/davehd/kernel/platform/ree -I../../../../../macro/gpu/davehd/kernel/src -I../../../../../macro/gpu/davehd/user/inc -I../../../../../macro/gpu/davehd/user/platform/d1mx/no_os -I../../../../../macro/gpu/davehd/user/src -I../../../../../macro/gpu/jcua/lib -I../../../../../macro/gpu/jcua/src -I../../../../../macro/i2c/riic/lib -I../../../../../macro/i2c/riic/src -I../../../../../macro/tick/lib -I../../../../../macro/tick/src -I../../../../../macro/timer/ostm/lib -I../../../../../macro/timer/ostm/src -I../../../../../macro/timer/tauj/lib -I../../../../../macro/timer/tauj/src -I../../../../../macro/vdce/lib -I../../../../../macro/vdce/src -I../../../../../macro/vo/ddb/lib -I../../../../../macro/vo/ddb/src -I../../../../../macro/vo/spea/lib -I../../../../../macro/vo/spea/src -I../../../../../macro/vo/vowe/lib -I../../../../../macro/vo/vowe/src -I../../../../../macro/wm/lib -I../../../../../macro/wm/src -I../../../../../macro/pwm/lib -I../../../../../macro/reset/lib -I../../../../../macro/rscan/lib -I../../../../../macro/uart/rlin3/lib -I../../../../../macro/uart/rlin3/src -I../../../../../device/d1x_common/macro_cfg/rlin3 -I../../../../../macro/stbc/lib -I../../../../../macro/adc/lib -I../../../../../device/d1x_common/macro_cfg/adc7010 -IC:\GHS\V800.V2014.1.7\comp_201417\lib\rh850_22 -cg_underscore -cpu=rh850g3m -no_v850_simd -rh850_fpsimd=none -nomacro -patch_dbo=C:\git\rh850\src\app\gfx_apps\simple_draw\target\d1mx_mango_ghs\obj\r_nfma_bare.dbo -source=r_nfma_bare.c -o .\obj\gh_0000p101.o -list=.\obj\r_nfma_bare.lst C:\Users\Frank\AppData\Local\Temp\gh_0000p101.si 
Original File: C:\Users\Frank\AppData\Local\Temp\gh_0000p101.si
Source File: r_nfma_bare.c
Directory: C:\git\rh850\src\app\gfx_apps\simple_draw\target\d1mx_mango_ghs
Host OS: Windows
EASE: Copyright (C) 1983-2014 Green Hills Software.  All Rights Reversed.
Release: Compiler v2014.1.7
Build Directory: [Directory] BTOWINBOX:c:/build_2014_1_bto/2014-09-04.2200-2014_1_bto/win32-comp-ecom
Revision: [VCInfo] http://toolsvc/branches/release-branch-2014-1-bto/src@515859 (built by build)
Revision Date: Fri Sep 05 14:05:06 2014

Release Date: Fri Sep 05 14:43:29 2014

                           1 --Driver Command: ccv850 -c -MD -I../../../../../app/common/dhd
                           2 --		-I../../../../../app/gfx_apps/simple_draw/src
                           3 --		-I../../../../../app/gfx_apps/simple_draw/lib
                           4 --		-I../../../../../bsp/board//config
                           5 --		-I../../../../../bsp/board//src/gfx
                           6 --		-I../../../../../bsp/board//src/hmi
                           7 --		-I../../../../../bsp/board//src/stdio
                           8 --		-I../../../../../bsp/board/d1mx_mango/config
                           9 --		-I../../../../../bsp/board/d1mx_mango/src
                          10 --		-I../../../../../bsp/board/d1mx_mango/src/gfx
                          11 --		-I../../../../../bsp/board/d1mx_mango/src/hmi
                          12 --		-I../../../../../bsp/board/d1mx_mango/src/stdio
                          13 --		-I../../../../../bsp/gfx/lib -I../../../../../bsp/gfx/src
                          14 --		-I../../../../../bsp/hmi/lib -I../../../../../bsp/hmi/src
                          15 --		-I../../../../../bsp/lib -I../../../../../bsp/stdio/lib
                          16 --		-I../../../../../bsp/stdio/src -I../../../../../cdi/lib
                          17 --		-I../../../../../cdi/src -I../../../../../compiler/rh850_ghs/inc
                          18 --		-I../../../../../device/d1mx/lib
                          19 --		-I../../../../../device/d1mx/macro_cfg
                          20 --		-I../../../../../device/d1mx/macro_cfg/csisw
                          21 --		-I../../../../../device/d1mx/macro_cfg/davehd
                          22 --		-I../../../../../device/d1mx/macro_cfg/ddb
                          23 --		-I../../../../../device/d1mx/macro_cfg/drw2d
                          24 --		-I../../../../../device/d1mx/macro_cfg/gfxbus
                          25 --		-I../../../../../device/d1mx/macro_cfg/gpio
                          26 --		-I../../../../../device/d1mx/macro_cfg/hypb
                          27 --		-I../../../../../device/d1mx/macro_cfg/hypdb
                          28 --		-I../../../../../device/d1mx/macro_cfg/jcua
                          29 --		-I../../../../../device/d1mx/macro_cfg/nfmabare
                          30 --		-I../../../../../device/d1mx/macro_cfg/octa
                          31 --		-I../../../../../device/d1mx/macro_cfg/octacdb
                          32 --		-I../../../../../device/d1mx/macro_cfg/ostm
                          33 --		-I../../../../../device/d1mx/macro_cfg/pbg
                          34 --		-I../../../../../device/d1mx/macro_cfg/riic
                          35 --		-I../../../../../device/d1mx/macro_cfg/sfcdb
                          36 --		-I../../../../../device/d1mx/macro_cfg/sfma
                          37 --		-I../../../../../device/d1mx/macro_cfg/spea
                          38 --		-I../../../../../device/d1mx/macro_cfg/tauj
                          39 --		-I../../../../../device/d1mx/macro_cfg/tick
                          40 --		-I../../../../../device/d1mx/macro_cfg/vdce
                          41 --		-I../../../../../device/d1mx/macro_cfg/vowe
                          42 --		-I../../../../../device/d1mx/macro_cfg/wm
                          43 --		-I../../../../../device/d1mx/macro_cfg/xbus
                          44 --		-I../../../../../device/d1mx/src/dev
                          45 --		-I../../../../../device/d1mx/src/dhd
                          46 --		-I../../../../../device/d1mx/src/hypb
                          47 --		-I../../../../../device/d1mx/src/jcua
                          48 --		-I../../../../../device/d1mx/src/nfmabare
                          49 --		-I../../../../../device/d1mx/src/octa
                          50 --		-I../../../../../device/d1mx/src/rh850_ghs

                                                                      Page 2
                                                              C:\Users\Frank\AppData\Local\Temp\gh_0000p101.si
                          51 --		-I../../../../../device/d1mx/src/vowe
                          52 --		-I../../../../../device/d1x_common/macro_cfg
                          53 --		-I../../../../../device/d1x_common/macro_cfg/csisw
                          54 --		-I../../../../../device/d1x_common/macro_cfg/davehd
                          55 --		-I../../../../../device/d1x_common/macro_cfg/ddb
                          56 --		-I../../../../../device/d1x_common/macro_cfg/drw2d
                          57 --		-I../../../../../device/d1x_common/macro_cfg/gfxbus
                          58 --		-I../../../../../device/d1x_common/macro_cfg/gpio
                          59 --		-I../../../../../device/d1x_common/macro_cfg/hypb
                          60 --		-I../../../../../device/d1x_common/macro_cfg/hypdb
                          61 --		-I../../../../../device/d1x_common/macro_cfg/jcua
                          62 --		-I../../../../../device/d1x_common/macro_cfg/nfmabare
                          63 --		-I../../../../../device/d1x_common/macro_cfg/octa
                          64 --		-I../../../../../device/d1x_common/macro_cfg/octacdb
                          65 --		-I../../../../../device/d1x_common/macro_cfg/ostm
                          66 --		-I../../../../../device/d1x_common/macro_cfg/pbg
                          67 --		-I../../../../../device/d1x_common/macro_cfg/riic
                          68 --		-I../../../../../device/d1x_common/macro_cfg/sfcdb
                          69 --		-I../../../../../device/d1x_common/macro_cfg/sfma
                          70 --		-I../../../../../device/d1x_common/macro_cfg/spea
                          71 --		-I../../../../../device/d1x_common/macro_cfg/tauj
                          72 --		-I../../../../../device/d1x_common/macro_cfg/tick
                          73 --		-I../../../../../device/d1x_common/macro_cfg/vdce
                          74 --		-I../../../../../device/d1x_common/macro_cfg/vowe
                          75 --		-I../../../../../device/d1x_common/macro_cfg/wm
                          76 --		-I../../../../../device/d1x_common/macro_cfg/xbus
                          77 --		-I../../../../../device/d1x_common/src/csisw
                          78 --		-I../../../../../device/d1x_common/src/ddb
                          79 --		-I../../../../../device/d1x_common/src/dev
                          80 --		-I../../../../../device/d1x_common/src/gfxbus
                          81 --		-I../../../../../device/d1x_common/src/gpio
                          82 --		-I../../../../../device/d1x_common/src/ostm
                          83 --		-I../../../../../device/d1x_common/src/pbg
                          84 --		-I../../../../../device/d1x_common/src/riic
                          85 --		-I../../../../../device/d1x_common/src/sfma
                          86 --		-I../../../../../device/d1x_common/src/spea
                          87 --		-I../../../../../device/d1x_common/src/tauj
                          88 --		-I../../../../../device/d1x_common/src/tick
                          89 --		-I../../../../../device/d1x_common/src/vdce
                          90 --		-I../../../../../device/d1x_common/src/wm
                          91 --		-I../../../../../device/d1x_common/src/xbus
                          92 --		-I../../../../../device/lib -I../../../../../macro/bus/pbg/lib
                          93 --		-I../../../../../macro/bus/pbg/src
                          94 --		-I../../../../../macro/csi/csisw/lib
                          95 --		-I../../../../../macro/csi/csisw/src
                          96 --		-I../../../../../macro/drw2d/lib
                          97 --		-I../../../../../macro/drw2d/platform/davehd
                          98 --		-I../../../../../macro/drw2d/platform/os/no_os
                          99 --		-I../../../../../macro/drw2d/src
                         100 --		-I../../../../../macro/flashc/hypb/lib
                         101 --		-I../../../../../macro/flashc/hypb/src
                         102 --		-I../../../../../macro/flashc/hypdb/lib
                         103 --		-I../../../../../macro/flashc/hypdb/src
                         104 --		-I../../../../../macro/flashc/nfmabare/lib
                         105 --		-I../../../../../macro/flashc/nfmabare/src
                         106 --		-I../../../../../macro/flashc/octa/lib
                         107 --		-I../../../../../macro/flashc/octa/src
                         108 --		-I../../../../../macro/flashc/octacdb/lib
                         109 --		-I../../../../../macro/flashc/octacdb/src
                         110 --		-I../../../../../macro/flashc/sfcdb/lib
                         111 --		-I../../../../../macro/flashc/sfcdb/src

                                                                      Page 3
                                                              C:\Users\Frank\AppData\Local\Temp\gh_0000p101.si
                         112 --		-I../../../../../macro/flashc/sfma/lib
                         113 --		-I../../../../../macro/flashc/sfma/src
                         114 --		-I../../../../../macro/gfxbus/lib
                         115 --		-I../../../../../macro/gfxbus/src
                         116 --		-I../../../../../macro/gfxbus/xbus/lib
                         117 --		-I../../../../../macro/gfxbus/xbus/src
                         118 --		-I../../../../../macro/gpio/lib -I../../../../../macro/gpio/src
                         119 --		-I../../../../../macro/gpu/davehd/common/inc
                         120 --		-I../../../../../macro/gpu/davehd/common/inc/platform
                         121 --		-I../../../../../macro/gpu/davehd/common/inc/platform/d1mx
                         122 --		-I../../../../../macro/gpu/davehd/docs
                         123 --		-I../../../../../macro/gpu/davehd/kernel/inc
                         124 --		-I../../../../../macro/gpu/davehd/kernel/platform/d1mx
                         125 --		-I../../../../../macro/gpu/davehd/kernel/platform/d1mx/bridge
                         126 --		-I../../../../../macro/gpu/davehd/kernel/platform/d1mx/non_threaded
                         127 --		-I../../../../../macro/gpu/davehd/kernel/platform/ree
                         128 --		-I../../../../../macro/gpu/davehd/kernel/src
                         129 --		-I../../../../../macro/gpu/davehd/user/inc
                         130 --		-I../../../../../macro/gpu/davehd/user/platform/d1mx/no_os
                         131 --		-I../../../../../macro/gpu/davehd/user/src
                         132 --		-I../../../../../macro/gpu/jcua/lib
                         133 --		-I../../../../../macro/gpu/jcua/src
                         134 --		-I../../../../../macro/i2c/riic/lib
                         135 --		-I../../../../../macro/i2c/riic/src
                         136 --		-I../../../../../macro/tick/lib -I../../../../../macro/tick/src
                         137 --		-I../../../../../macro/timer/ostm/lib
                         138 --		-I../../../../../macro/timer/ostm/src
                         139 --		-I../../../../../macro/timer/tauj/lib
                         140 --		-I../../../../../macro/timer/tauj/src
                         141 --		-I../../../../../macro/vdce/lib -I../../../../../macro/vdce/src
                         142 --		-I../../../../../macro/vo/ddb/lib
                         143 --		-I../../../../../macro/vo/ddb/src
                         144 --		-I../../../../../macro/vo/spea/lib
                         145 --		-I../../../../../macro/vo/spea/src
                         146 --		-I../../../../../macro/vo/vowe/lib
                         147 --		-I../../../../../macro/vo/vowe/src -I../../../../../macro/wm/lib
                         148 --		-I../../../../../macro/wm/src -I../../../../../macro/pwm/lib
                         149 --		-I../../../../../macro/i2c/riic/lib
                         150 --		-I../../../../../macro/reset/lib -I../../../../../macro/rscan/lib
                         151 --		-I../../../../../macro/uart/rlin3/lib
                         152 --		-I../../../../../macro/uart/rlin3/src
                         153 --		-I../../../../../device/d1x_common/macro_cfg/rlin3
                         154 --		-I../../../../../macro/stbc/lib
                         155 --		-I../../../../../app/gfx_apps/simple_draw/lib
                         156 --		-I../../../../../macro/adc/lib
                         157 --		-I../../../../../device/d1x_common/macro_cfg/adc7010 -G
                         158 --		--no_commons --no_implicit_include --prototype_errors
                         159 --		-DRENESAS_D1X -DR_DRW2D_OS_NO_OS -DR_DRW2D_SYS_DHD
                         160 --		-DUSED_CPU=RH850G3M -DUSE_BSP_GFX -DUSE_BSP_HMI -DUSE_BSP_STDIO
                         161 --		-DUSE_CDI -DUSE_CSISW -DUSE_DAVEHD -DUSE_DDB -DUSE_DRW2D
                         162 --		-DUSE_GFXBUS -DUSE_GPIO -DUSE_HYPB -DUSE_HYPDB -DUSE_JCUA
                         163 --		-DUSE_NFMABARE -DUSE_OCTA -DUSE_OCTACDB -DUSE_OSTM -DUSE_PBG
                         164 --		-DUSE_RIIC -DUSE_SFCDB -DUSE_SFMA -DUSE_SPEA -DUSE_TAUJ
                         165 --		-DUSE_TICK -DUSE_VDCE -DUSE_WM -DUSE_XBUS -DMAG -MD -Zuse1bit
                         166 --		-allocate_ep -cpu=rh850g3m -large_sda -list -no_callt -notda
                         167 --		-passsource -preprocess_assembly_files -registermode=22
                         168 --		-reserve_r2 --diag_warning 1 -object_dir=./obj -DUSE_VDCE_OPENLDI
                         169 --		-gnu99 -filetype.c
                         170 --		..\..\..\..\..\macro\flashc\nfmabare\src\r_nfma_bare.c -o
                         171 --		.\obj\r_nfma_bare.o
                         172 --Source File:   ..\..\..\..\..\macro\flashc\nfmabare\src\r_nfma_bare.c

                                                                      Page 4
                                                              C:\Users\Frank\AppData\Local\Temp\gh_0000p101.si
                         173 --Directory:     
                         174 --		C:\git\rh850\src\app\gfx_apps\simple_draw\target\d1mx_mango_ghs
                         175 --Compile Date:  Tue Oct 16 19:48:54 2018
                         176 --Host OS:       Win32
                         177 --Version:       C-RH850 2014.1.7 RELEASE VERSION
                         178 --Release:       Compiler v2014.1.7
                         179 --Revision Date: Fri Sep 05 14:10:46 2014
                         180 --Release Date:  Fri Sep 05 14:44:23 2014
                         181 -- ecom  -g -w
                         182 
                         183 --1: /*
                         184 --2: ****************************************************************************
                         185 --3: PROJECT : NFMA driver
                         186 --4: FILE    : $Id: r_nfma_bare.c 13286 2017-04-12 15:36:16Z tobyas.hennig $
                         187 --5: ============================================================================
                         188 --6: DESCRIPTION
                         189 --7: Driver for NFMA macro - main driver functions
                         190 --8: ============================================================================
                         191 --9:                             C O P Y R I G H T
                         192 --10: ============================================================================
                         193 --11:                            Copyright (c) 2017
                         194 --12:                                   by
                         195 --13:                     Renesas Electronics (Europe) GmbH.
                         196 --14:                            Arcadiastrasse 10
                         197 --15:                           D-40472 Duesseldorf
                         198 --16:                                Germany
                         199 --17:                           All rights reserved.
                         200 --18: ============================================================================
                         201 --19: Purpose: only for testing
                         202 --21: DISCLAIMER
                         203 --22: This software is supplied by Renesas Electronics Corporation and is only
                         204 --23: intended for use with Renesas products. No other uses are authorized. This
                         205 --24: software is owned by Renesas Electronics Corporation and is protected under
                         206 --25: all applicable laws, including copyright laws.
                         207 --26: THIS SOFTWARE IS PROVIDED "AS IS" AND RENESAS MAKES NO WARRANTIES REGARDING
                         208 --27: THIS SOFTWARE, WHETHER EXPRESS, IMPLIED OR STATUTORY, INCLUDING BUT NOT
                         209 --28: LIMITED TO WARRANTIES OF MERCHANTABILITY, FITNESS FOR A PARTICULAR PURPOSE
                         210 --29: AND NON-INFRINGEMENT. ALL SUCH WARRANTIES ARE EXPRESSLY DISCLAIMED.
                         211 --30: TO THE MAXIMUM EXTENT PERMITTED NOT PROHIBITED BY LAW, NEITHER RENESAS
                         212 --31: ELECTRONICS CORPORATION NOR ANY OF ITS AFFILIATED COMPANIES SHALL BE LIABLE
                         213 --32: FOR ANY DIRECT, INDIRECT, SPECIAL, INCIDENTAL OR CONSEQUENTIAL DAMAGES FOR
                         214 --33: ANY REASON RELATED TO THIS SOFTWARE, EVEN IF RENESAS OR ITS AFFILIATES HAVE
                         215 --34: BEEN ADVISED OF THE POSSIBILITY OF SUCH DAMAGES.
                         216 --35: Renesas reserves the right, without notice, to make changes to this software
                         217 --36: and to discontinue the availability of this software. By using this software,
                         218 --37: you agree to the additional terms and conditions found by accessing the
                         219 --38: following link:
                         220 --39: http://www.renesas.com/disclaimer *
                         221 --40: Copyright (C) 2011 Renesas Electronics Corporation. All rights reserved.
                         222 --42: ****************************************************************************
                         223 --43: */
                         224 --45: #include "r_typedefs.h"
                         225 --46: #include "r_dev_api.h"
                         226 --48: #include "r_bsp_api.h"
                         227 --49: #include "r_bsp_stdio_api.h"
                         228 --51: #include "r_nfma_bare_api.h"
                         229 --52: #include "r_nfma_bare_sys.h"
                         230 --53: #include "r_nfma_bare_reg.h"
                         231 --56: static const r_onfi_timing_mode_t timing_modes[ONFI_NUM_TIMING_MODES] =
                         232 --57: {
                         233 --58: /*  tADL tALH tALS tAR tCEA tCH tCHZ tCLH tCLR tCLS tCOH tCS tDH tDS tFEAT tIR tRC  tREA tREH tRHOH tRHW tRHZ tRLOH tRP  tRR tRST  tWB  tWC tWH tWHR  tWP tWW */

                                                                      Page 5
                                                              C:\Users\Frank\AppData\Local\Temp\gh_0000p101.si
                         234 --59: /*    ns   ns   ns  ns   ns  ns   ns  ns   ns   ns   ns  ns  ns  ns  us    ns  ns   ns   ns   ns    ns   ns   ns    ns   ns   us   ns   ns   ns   ns  ns   ns */
                         235 --60:     {200, 20, 50,  25, 100, 20, 100, 20,  20,  50,   0,  70, 20, 40, 1,    10, 100, 40,  30,   0,   200, 200, 0,    50,  40, 1000, 200, 100, 30, 120, 50, 100},  /* ONFi1.0 mode 0 */
                         236 --61:     {100, 10, 25,  10,  45, 10,  50, 10,  10,  25,  15,  35, 10, 20, 1,    0,  50,  30,  15,  15,   100, 100, 0,    25,  20,  500, 100,  45, 15,  80, 25, 100},  /* ONFi1.0 mode 1 (Fastest mode possible w/ RH850/D1M1A) */
                         237 --62:     {100, 10, 15,  10,  30, 10,  50, 10,  10,  15,  15,  25,  5, 15, 1,    0,  35,  25,  15,  15,   100, 100, 0,    17,  20,  500, 100,  35, 15,  80, 17, 100},
                         238 --63:     {100, 5,  10,  10,  25,  5,  50,  5,  10,  10,  15,  25,  5, 10, 1,    0,  30,  20,  10,  15,   100, 100, 0,    15,  20,  500, 100,  30, 10,  60, 15, 100},
                         239 --64:     { 70, 5,  10,  10,  25,  5,  30,  5,  10,  10,  15,  20,  5, 10, 1,    0,  25,  20,  10,  15,   100, 100, 5,    12,  20,  500, 100,  25, 10,  60, 12, 100},
                         240 --65:     { 70, 5,  10,  10,  25,  5,  30,  5,  10,  10,  15,  15,  5,  7, 1,    0,  20,  16,   7,  15,   100, 100, 5,    10,  20,  500, 100,  20,  7,  60, 10, 100}
                         241 --66: };
                         242 --69: /*******************************************************************************
                         243 --70:   Section: Local Functions
                         244 --71: */
                         245 --72: static void WaitNFMA_Flags(uint32_t instance, uint32_t statusreg, uint32_t flags);
                         246 --73: static void WaitNFMA_Flags(uint32_t instance, uint32_t statusreg, uint32_t flags)
                         247 	.text
                         248 ..bof.C.3A.5Cgit.5Crh850.5Csrc.5Capp.5Cgfx_apps.5Csimple_draw.5Ctarget.5Cd1mx_mango_ghs.5Cobj.5Cr_nfma_bare...43.3A.5Cgit.5Crh850.5Csrc.5Capp.5Cgfx_apps.5Csimple_draw.5Ctarget.5Cd1mx_mango_ghs..5BC5D026..0::
                         249 	.align	2
                         250 	.global	_WaitNFMA_Flags..C.3A.5Cgit.5Crh850.5Csrc.5Capp.5Cgfx_apps.5Csimple_draw.5Ctarget.5Cd1mx_mango_ghs.5Cobj.5Cr_nfma_bare.
                         251 _WaitNFMA_Flags..C.3A.5Cgit.5Crh850.5Csrc.5Capp.5Cgfx_apps.5Csimple_draw.5Ctarget.5Cd1mx_mango_ghs.5Cobj.5Cr_nfma_bare.:
                         252 _WaitNFMA_Flags:
00000000 8007e130        253 	prepare	{r26,r27,r28,r29,r31},0
00000004 06d8            254 	mov	r6,r27
00000006 07d0            255 	mov	r7,r26
00000008 08e8            256 	mov	r8,r29
                         257 --	    .bf
                         258 .LDW01:
                         259 --74: {
                         260 --75:     uint32_t NFMAn_BASE;
                         261 --76:   
                         262 --77:     NFMAn_BASE = R_SYS_NFMA_GetBaseAddr(instance);
0000000a 1b30            263 	mov	r27,r6
                         264 	jarl	_R_SYS_NFMA_GetBaseAddr,lp
                         264 <EXPANSION BEGIN>
                         264 jarl22 _R_SYS_NFMA_GetBaseAddr , lp 
0000000c 80ff0000*       264 <EXPANSION END>
00000010 0ae0            265 	mov	r10,r28
                         266 --78:   
                         267 --79:     while((flags & R_NFMA_READ_REG(32, NFMAn_BASE + statusreg)) != flags);
                         268 .L4:
                         269 --line79
                         270 ..lin.C.3A.5Cgit.5Crh850.5Csrc.5Capp.5Cgfx_apps.5Csimple_draw.5Ctarget.5Cd1mx_mango_ghs.5Cobj.5Cr_nfma_bare.1::
                         271 .LDWlin1:
00000012 1af0            272 	mov	r26,ep
00000014 dcf1            273 	add	r28,ep
00000016 000d            274 	sld.w	0[ep],r1
00000018 5d09            275 	and	r29,r1
0000001a fd09            276 	cmp	r29,r1
0000001c bafd*           277 	bne	.L4
                         278 --80: }
                         279 --	    .ef
                         280 .LDW11:
                         281 --line80
                         282 ..lin.C.3A.5Cgit.5Crh850.5Csrc.5Capp.5Cgfx_apps.5Csimple_draw.5Ctarget.5Cd1mx_mango_ghs.5Cobj.5Cr_nfma_bare.2::
                         283 .LDWlin2:
0000001e 4006ff30        284 	dispose	0,{r26,r27,r28,r29,r31},[lp]
                         285 	.type	_WaitNFMA_Flags,@function
                         286 	.size	_WaitNFMA_Flags,.-_WaitNFMA_Flags
                         287 	.type	_WaitNFMA_Flags..C.3A.5Cgit.5Crh850.5Csrc.5Capp.5Cgfx_apps.5Csimple_draw.5Ctarget.5Cd1mx_mango_ghs.5Cobj.5Cr_nfma_bare.,@function
                         288 	.size	_WaitNFMA_Flags..C.3A.5Cgit.5Crh850.5Csrc.5Capp.5Cgfx_apps.5Csimple_draw.5Ctarget.5Cd1mx_mango_ghs.5Cobj.5Cr_nfma_bare.,.-_WaitNFMA_Flags..C.3A.5Cgit.5Crh850.5Csrc.5Capp.5Cgfx_apps.5Csimple_draw.5Ctarget.5Cd1mx_mango_ghs.5Cobj.5Cr_nfma_bare.
                         289 	.align	2
                         290 .LDW21:
                         291 --_NFMAn_BASE	r28	local

                                                                      Page 6
                                                              C:\Users\Frank\AppData\Local\Temp\gh_0000p101.si
                         292 
                         293 --_instance	r27	param
                         294 --_statusreg	r26	param
                         295 --_flags	r29	param
                         296 
                         297 	.section ".bss","awb"
                         298 .L42:
                         299 	.type	.L42,@object
                         300 	.size	.L42,0
                         301 	.data
                         302 	.text
                         303 
                         304 
                         305 --82: /* Convert a timing value in nanoseconds to counts of CLKB */
                         306 --83: static uint32_t ConvNFMA_ClkB_NanoSec(uint32_t ns);
                         307 --84: static uint32_t ConvNFMA_ClkB_NanoSec(uint32_t ns)
                         308 	.align	2
                         309 	.align	2
                         310 	.global	_ConvNFMA_ClkB_NanoSec..C.3A.5Cgit.5Crh850.5Csrc.5Capp.5Cgfx_apps.5Csimple_draw.5Ctarget.5Cd1mx_mango_ghs.5Cobj.5Cr_nfma_bare.
                         311 _ConvNFMA_ClkB_NanoSec..C.3A.5Cgit.5Crh850.5Csrc.5Capp.5Cgfx_apps.5Csimple_draw.5Ctarget.5Cd1mx_mango_ghs.5Cobj.5Cr_nfma_bare.:
                         312 _ConvNFMA_ClkB_NanoSec:
00000022 8007e100        313 	prepare	{r28,r29,r31},0
00000026 06e0            314 	mov	r6,r28
                         315 --	    .bf
                         316 .LDW31:
                         317 --85: {
                         318 --86:     uint32_t freq_clkb;
                         319 --87:     
                         320 --88:     freq_clkb = R_SYS_NFMA_GetClkFreqMHz(0);
00000028 0032            321 	mov	0,r6
                         322 	jarl	_R_SYS_NFMA_GetClkFreqMHz,lp
                         322 <EXPANSION BEGIN>
                         322 jarl22 _R_SYS_NFMA_GetClkFreqMHz , lp 
0000002a 80ff0000*       322 <EXPANSION END>
0000002e 0ae8            323 	mov	r10,r29
                         324 --89:     return ((freq_clkb * (ns))/1000);
                         325 --line89
                         326 ..lin.C.3A.5Cgit.5Crh850.5Csrc.5Capp.5Cgfx_apps.5Csimple_draw.5Ctarget.5Cd1mx_mango_ghs.5Cobj.5Cr_nfma_bare.3::
                         327 .LDWlin3:
00000030 1d08            328 	mov	r29,r1
00000032 fc0f2202        329 	mulu	r28,r1,zero
00000036 2c06d34d6210    330 	mov	274877907,r12
0000003c e167226a        331 	mulu	r1,r12,r13
00000040 0d50            332 	mov	r13,r10
00000042 8652            333 	shr	6,r10
                         334 --	    .ef
                         335 .LDW41:
00000044 4006ff00        336 	dispose	0,{r28,r29,r31},[lp]
                         337 	.type	_ConvNFMA_ClkB_NanoSec,@function
                         338 	.size	_ConvNFMA_ClkB_NanoSec,.-_ConvNFMA_ClkB_NanoSec
                         339 	.type	_ConvNFMA_ClkB_NanoSec..C.3A.5Cgit.5Crh850.5Csrc.5Capp.5Cgfx_apps.5Csimple_draw.5Ctarget.5Cd1mx_mango_ghs.5Cobj.5Cr_nfma_bare.,@function
                         340 	.size	_ConvNFMA_ClkB_NanoSec..C.3A.5Cgit.5Crh850.5Csrc.5Capp.5Cgfx_apps.5Csimple_draw.5Ctarget.5Cd1mx_mango_ghs.5Cobj.5Cr_nfma_bare.,.-_ConvNFMA_ClkB_NanoSec..C.3A.5Cgit.5Crh850.5Csrc.5Capp.5Cgfx_apps.5Csimple_draw.5Ctarget.5Cd1mx_mango_ghs.5Cobj.5Cr_nfma_bare.
                         341 	.align	2
                         342 .LDW51:
                         343 --_freq_clkb	r29	local
                         344 
                         345 --_ns	r28	param
                         346 
                         347 	.section ".bss","awb"
                         348 .L82:
                         349 	.type	.L82,@object

                                                                      Page 7
                                                              C:\Users\Frank\AppData\Local\Temp\gh_0000p101.si
                         350 	.size	.L82,0
                         351 	.data
                         352 	.text
                         353 
                         354 --90: }
                         355 
                         356 --92: /*******************************************************************************
                         357 --93:   Section: Global Functions
                         358 --94: */
                         359 --96: void R_NFMA_Init(uint32_t instance, r_nfma_param_t config)
                         360 	.align	2
                         361 	.align	2
                         362 	.align	2
                         363 	.global	_R_NFMA_Init
                         364 _R_NFMA_Init:
00000048 8007e170        365 	prepare	{r25,r26,r27,r28,r29,r31},0
0000004c 06d0            366 	mov	r6,r26
0000004e 07c8            367 	mov	r7,r25
                         368 --	    .bf
                         369 .LDW61:
                         370 --97: {
                         371 --98:   uint32_t NFMAn_BASE;
                         372 --99:   uint32_t dataL;
                         373 --100:   const r_onfi_timing_mode_t *mode = mode = &timing_modes[NFMA_DEFAULT_TIMING_MODE];
00000050 210600000000*   374 	mov	_timing_modes+128,r1
00000056 01d8            375 	mov	r1,r27
00000058 01d8            376 	mov	r1,r27
                         377 --102:   NFMAn_BASE = R_SYS_NFMA_GetBaseAddr(instance);
0000005a 1a30            378 	mov	r26,r6
                         379 	jarl	_R_SYS_NFMA_GetBaseAddr,lp
                         379 <EXPANSION BEGIN>
                         379 jarl22 _R_SYS_NFMA_GetBaseAddr , lp 
0000005c 80ff0000*       379 <EXPANSION END>
00000060 0ae0            380 	mov	r10,r28
                         381 --104:   /* Clear and mask all interrupts */
                         382 --105:   R_NFMA_WRITE_REG(32, NFMAn_BASE + NFMA_INT_STATUS, 0x0);
                         383 --line105
                         384 ..lin.C.3A.5Cgit.5Crh850.5Csrc.5Capp.5Cgfx_apps.5Csimple_draw.5Ctarget.5Cd1mx_mango_ghs.5Cobj.5Cr_nfma_bare.4::
                         385 .LDWlin4:
00000062 7c071500        386 	st.w	zero,20[r28]
                         387 --106:   R_NFMA_WRITE_REG(32, NFMAn_BASE + NFMA_INT_MASK, 0x0);
00000066 7c071100        388 	st.w	zero,16[r28]
                         389 --108:   dataL  = 0x1<<NFMA_RBFO_AUTO_READ_STAT_EN; /* Auto read status */
0000006a 40ee8000        390 	movhi	hi(8388608),zero,r29
                         391 --109:   dataL |= 0x0<<NFMA_RBFO_IO_WIDTH;          /* I/O width 8 bit */
0000006e 0000            392 	nop
                         393 --110:   dataL |= 0x0<<NFMA_RBFO_BLOCK_SIZE;
00000070 0000            394 	nop
                         395 --111:   dataL |= 0x1<<NFMA_RBFO_INT_EN;
00000072 9dee1000        396 	ori	16,r29,r29
                         397 --112:   dataL |= 0x1<<NFMA_RBFO_READ_STATUS_EN;
00000076 9dee0100        398 	ori	1,r29,r29
                         399 --113:   R_NFMA_WRITE_REG(32, NFMAn_BASE + NFMA_CONTROL, dataL);
0000007a 7cef0500        400 	st.w	r29,4[r28]
                         401 --115:   /* Is used when NFMA_RBFO_AUTO_READ_STAT_EN is used
                         402 --116:      [15:8] is for the READ_STATUS data of the NandFlash (FAIL, FAILC bits)
                         403 --117:       [7:0]  is for the READ_STATUS data of the NandFlash (RDY, ARDY bits) 
                         404 --118:   */
                         405 --119:   R_NFMA_WRITE_REG(32, NFMAn_BASE + NFMA_STATUS_MASK, 0x140);
0000007e 200e4001        406 	movea	320,zero,r1
00000082 7c0f0d00        407 	st.w	r1,12[r28]

                                                                      Page 8
                                                              C:\Users\Frank\AppData\Local\Temp\gh_0000p101.si
                         408 --121:   
                         409 --122:   /* write MEM_CTRL */
                         410 --123:   R_NFMA_WRITE_REG(32, NFMAn_BASE + NFMA_MEM_CTRL, 0x0|NFMA_RBF_MEM0_WP);
00000086 200e0001        411 	movea	256,zero,r1
0000008a 7c0f8100        412 	st.w	r1,128[r28]
                         413 --125:   R_NFMA_WRITE_REG(32, NFMAn_BASE + NFMA_DATA_REG_SIZE, 0x3);
0000008e 030a            414 	mov	3,r1
00000090 7c0f4100        415 	st.w	r1,64[r28]
                         416 --127:   dataL  = (ConvNFMA_ClkB_NanoSec(mode->tWHR) << NFMA_RBFO_TWHR);
00000094 3b377500        417 	ld.w	116[r27],r6
                         418 	jarl	_ConvNFMA_ClkB_NanoSec,lp
                         418 <EXPANSION BEGIN>
                         418 jarl22 _ConvNFMA_ClkB_NanoSec , lp 
00000098 bfff8aff*       418 <EXPANSION END>
0000009c 0ae8            419 	mov	r10,r29
0000009e d8ea            420 	shl	24,r29
                         421 --128:   dataL |= (ConvNFMA_ClkB_NanoSec(mode->tRHW) << NFMA_RBFO_TRHW);
                         422 --line128
                         423 ..lin.C.3A.5Cgit.5Crh850.5Csrc.5Capp.5Cgfx_apps.5Csimple_draw.5Ctarget.5Cd1mx_mango_ghs.5Cobj.5Cr_nfma_bare.5::
                         424 .LDWlin5:
000000a0 3b375100        425 	ld.w	80[r27],r6
                         426 	jarl	_ConvNFMA_ClkB_NanoSec,lp
                         426 <EXPANSION BEGIN>
                         426 jarl22 _ConvNFMA_ClkB_NanoSec , lp 
000000a4 bfff7eff*       426 <EXPANSION END>
000000a8 0a08            427 	mov	r10,r1
000000aa d00a            428 	shl	16,r1
000000ac 01e9            429 	or	r1,r29
                         430 --129:   dataL |= (ConvNFMA_ClkB_NanoSec(mode->tADL) << NFMA_RBFO_TADL);
                         431 --line129
                         432 ..lin.C.3A.5Cgit.5Crh850.5Csrc.5Capp.5Cgfx_apps.5Csimple_draw.5Ctarget.5Cd1mx_mango_ghs.5Cobj.5Cr_nfma_bare.6::
                         433 .LDWlin6:
000000ae 3b370100        434 	ld.w	0[r27],r6
                         435 	jarl	_ConvNFMA_ClkB_NanoSec,lp
                         435 <EXPANSION BEGIN>
                         435 jarl22 _ConvNFMA_ClkB_NanoSec , lp 
000000b2 bfff70ff*       435 <EXPANSION END>
000000b6 0a08            436 	mov	r10,r1
000000b8 c80a            437 	shl	8,r1
000000ba 01e9            438 	or	r1,r29
                         439 --130:   dataL |= (ConvNFMA_ClkB_NanoSec(ONFI_DEFAULT_TCCS_NS) << NFMA_RBFO_TCCS);
                         440 --line130
                         441 ..lin.C.3A.5Cgit.5Crh850.5Csrc.5Capp.5Cgfx_apps.5Csimple_draw.5Ctarget.5Cd1mx_mango_ghs.5Cobj.5Cr_nfma_bare.7::
                         442 .LDWlin7:
000000bc 2036f401        443 	movea	500,zero,r6
                         444 	jarl	_ConvNFMA_ClkB_NanoSec,lp
                         444 <EXPANSION BEGIN>
                         444 jarl22 _ConvNFMA_ClkB_NanoSec , lp 
000000c0 bfff62ff*       444 <EXPANSION END>
000000c4 0ae9            445 	or	r10,r29
                         446 --131:   R_NFMA_WRITE_REG(32, NFMAn_BASE + NFMA_TIME_SEQ_0, dataL);
                         447 --line131
                         448 ..lin.C.3A.5Cgit.5Crh850.5Csrc.5Capp.5Cgfx_apps.5Csimple_draw.5Ctarget.5Cd1mx_mango_ghs.5Cobj.5Cr_nfma_bare.8::
                         449 .LDWlin8:
000000c6 7cef9100        450 	st.w	r29,144[r28]
                         451 --133:   dataL  = (ConvNFMA_ClkB_NanoSec(mode->tWW) << NFMA_RBFO_TWW);
000000ca 3b377d00        452 	ld.w	124[r27],r6
                         453 	jarl	_ConvNFMA_ClkB_NanoSec,lp
                         453 <EXPANSION BEGIN>
                         453 jarl22 _ConvNFMA_ClkB_NanoSec , lp 
000000ce bfff54ff*       453 <EXPANSION END>

                                                                      Page 9
                                                              C:\Users\Frank\AppData\Local\Temp\gh_0000p101.si
000000d2 0ae8            454 	mov	r10,r29
000000d4 d0ea            455 	shl	16,r29
                         456 --134:   dataL |= (ConvNFMA_ClkB_NanoSec(mode->tRR) << NFMA_RBFO_TRR);
                         457 --line134
                         458 ..lin.C.3A.5Cgit.5Crh850.5Csrc.5Capp.5Cgfx_apps.5Csimple_draw.5Ctarget.5Cd1mx_mango_ghs.5Cobj.5Cr_nfma_bare.9::
                         459 .LDWlin9:
000000d6 3b376100        460 	ld.w	96[r27],r6
                         461 	jarl	_ConvNFMA_ClkB_NanoSec,lp
                         461 <EXPANSION BEGIN>
                         461 jarl22 _ConvNFMA_ClkB_NanoSec , lp 
000000da bfff48ff*       461 <EXPANSION END>
000000de 0a08            462 	mov	r10,r1
000000e0 c80a            463 	shl	8,r1
000000e2 01e9            464 	or	r1,r29
                         465 --135:   dataL |= (ConvNFMA_ClkB_NanoSec(mode->tWB) << NFMA_RBFO_TWB);
                         466 --line135
                         467 ..lin.C.3A.5Cgit.5Crh850.5Csrc.5Capp.5Cgfx_apps.5Csimple_draw.5Ctarget.5Cd1mx_mango_ghs.5Cobj.5Cr_nfma_bare.10::
                         468 .LDWlin10:
000000e4 3b376900        469 	ld.w	104[r27],r6
                         470 	jarl	_ConvNFMA_ClkB_NanoSec,lp
                         470 <EXPANSION BEGIN>
                         470 jarl22 _ConvNFMA_ClkB_NanoSec , lp 
000000e8 bfff3aff*       470 <EXPANSION END>
000000ec 0ae9            471 	or	r10,r29
                         472 --136:   R_NFMA_WRITE_REG(32, NFMAn_BASE + NFMA_TIME_SEQ_1, dataL);
                         473 --line136
                         474 ..lin.C.3A.5Cgit.5Crh850.5Csrc.5Capp.5Cgfx_apps.5Csimple_draw.5Ctarget.5Cd1mx_mango_ghs.5Cobj.5Cr_nfma_bare.11::
                         475 .LDWlin11:
000000ee 7cef9500        476 	st.w	r29,148[r28]
                         477 --138:   dataL  = (ConvNFMA_ClkB_NanoSec(mode->tREH) << NFMA_RBFO_ASYN_TRWH);
000000f2 3b374900        478 	ld.w	72[r27],r6
                         479 	jarl	_ConvNFMA_ClkB_NanoSec,lp
                         479 <EXPANSION BEGIN>
                         479 jarl22 _ConvNFMA_ClkB_NanoSec , lp 
000000f6 bfff2cff*       479 <EXPANSION END>
000000fa 0ae8            480 	mov	r10,r29
000000fc c4ea            481 	shl	4,r29
                         482 --139:   dataL |= (ConvNFMA_ClkB_NanoSec(mode->tREA) << NFMA_RBFO_ASYN_TRWP);
                         483 --line139
                         484 ..lin.C.3A.5Cgit.5Crh850.5Csrc.5Capp.5Cgfx_apps.5Csimple_draw.5Ctarget.5Cd1mx_mango_ghs.5Cobj.5Cr_nfma_bare.12::
                         485 .LDWlin12:
000000fe 3b374500        486 	ld.w	68[r27],r6
                         487 	jarl	_ConvNFMA_ClkB_NanoSec,lp
                         487 <EXPANSION BEGIN>
                         487 jarl22 _ConvNFMA_ClkB_NanoSec , lp 
00000102 bfff20ff*       487 <EXPANSION END>
00000106 0ae9            488 	or	r10,r29
                         489 --140:   R_NFMA_WRITE_REG(32, NFMAn_BASE + NFMA_TIMINGS_ASYN, dataL);
                         490 --line140
                         491 ..lin.C.3A.5Cgit.5Crh850.5Csrc.5Capp.5Cgfx_apps.5Csimple_draw.5Ctarget.5Cd1mx_mango_ghs.5Cobj.5Cr_nfma_bare.13::
                         492 .LDWlin13:
00000108 7cef8900        493 	st.w	r29,136[r28]
                         494 --142: NFMA_reset:
                         495 .LDW71:
                         496 .L99:
                         497 --143:   /* STATUS.MEM_ST */
                         498 --144:   WaitNFMA_Flags(instance, NFMA_STATUS, NFMA_RBF_MEM0_ST);
0000010c 1a30            499 	mov	r26,r6
0000010e 083a            500 	mov	8,r7
00000110 0142            501 	mov	1,r8
                         502 	jarl	_WaitNFMA_Flags,lp

                                                                      Page 10
                                                              C:\Users\Frank\AppData\Local\Temp\gh_0000p101.si
                         502 <EXPANSION BEGIN>
                         502 jarl22 _WaitNFMA_Flags , lp 
00000112 bfffeefe*       502 <EXPANSION END>
                         503 --146:   /* FIFO_STATE.CF_EMPTY*/
                         504 --147:   WaitNFMA_Flags(instance, NFMA_FIFO_STATE, NFMA_RBF_CF_EMPTY);
                         505 --line147
                         506 ..lin.C.3A.5Cgit.5Crh850.5Csrc.5Capp.5Cgfx_apps.5Csimple_draw.5Ctarget.5Cd1mx_mango_ghs.5Cobj.5Cr_nfma_bare.14::
                         507 .LDWlin14:
00000116 1a30            508 	mov	r26,r6
00000118 203eb400        509 	movea	180,zero,r7
0000011c 0442            510 	mov	4,r8
                         511 	jarl	_WaitNFMA_Flags,lp
                         511 <EXPANSION BEGIN>
                         511 jarl22 _WaitNFMA_Flags , lp 
0000011e bfffe2fe*       511 <EXPANSION END>
                         512 --149:   /* RESET COMMAND 0xFF00 */
                         513 --150:   dataL = 0xFF00;
                         514 --line150
                         515 ..lin.C.3A.5Cgit.5Crh850.5Csrc.5Capp.5Cgfx_apps.5Csimple_draw.5Ctarget.5Cd1mx_mango_ghs.5Cobj.5Cr_nfma_bare.15::
                         516 .LDWlin15:
00000122 80ee00ff        517 	ori	65280,zero,r29
                         518 --151:   R_NFMA_WRITE_REG(32, NFMAn_BASE + NFMA_COMMAND, dataL);
00000126 7cef0100        519 	st.w	r29,0[r28]
                         520 --153:   /* STATUS.MEM_ST */
                         521 --154:   WaitNFMA_Flags(instance, NFMA_STATUS, NFMA_RBF_MEM0_ST);
0000012a 1a30            522 	mov	r26,r6
0000012c 083a            523 	mov	8,r7
0000012e 0142            524 	mov	1,r8
                         525 	jarl	_WaitNFMA_Flags,lp
                         525 <EXPANSION BEGIN>
                         525 jarl22 _WaitNFMA_Flags , lp 
00000130 bfffd0fe*       525 <EXPANSION END>
                         526 --156:   dataL = R_NFMA_READ_REG(32, NFMAn_BASE + NFMA_INT_STATUS);
                         527 --line156
                         528 ..lin.C.3A.5Cgit.5Crh850.5Csrc.5Capp.5Cgfx_apps.5Csimple_draw.5Ctarget.5Cd1mx_mango_ghs.5Cobj.5Cr_nfma_bare.16::
                         529 .LDWlin16:
00000134 3cef1500        530 	ld.w	20[r28],r29
                         531 --157:   if (dataL & NFMA_RBF_TRANS_ERR_FL) {
00000138 dd061000        532 	andi	16,r29,zero
0000013c f205*           533 	be	.L100
                         534 --158:     R_BSP_STDIO_Printf("NFMA Reset Transfer Error");
                         535 --line158
                         536 ..lin.C.3A.5Cgit.5Crh850.5Csrc.5Capp.5Cgfx_apps.5Csimple_draw.5Ctarget.5Cd1mx_mango_ghs.5Cobj.5Cr_nfma_bare.17::
                         537 .LDWlin17:
0000013e 260600000000*   538 	mov	.L346,r6
                         539 	jarl	_R_BSP_STDIO_Printf,lp
                         539 <EXPANSION BEGIN>
                         539 jarl22 _R_BSP_STDIO_Printf , lp 
00000144 80ff0000*       539 <EXPANSION END>
                         540 --159:     goto NFMA_reset;
                         541 --line159
                         542 ..lin.C.3A.5Cgit.5Crh850.5Csrc.5Capp.5Cgfx_apps.5Csimple_draw.5Ctarget.5Cd1mx_mango_ghs.5Cobj.5Cr_nfma_bare.18::
                         543 .LDWlin18:
00000148 a5e5*           544 	br	.L99
                         545 .L100:
                         546 --160:   }
                         547 --161: }
                         548 --	    .ef
                         549 .LDW81:
                         550 --line161
                         551 ..lin.C.3A.5Cgit.5Crh850.5Csrc.5Capp.5Cgfx_apps.5Csimple_draw.5Ctarget.5Cd1mx_mango_ghs.5Cobj.5Cr_nfma_bare.19::

                                                                      Page 11
                                                              C:\Users\Frank\AppData\Local\Temp\gh_0000p101.si
                         552 .LDWlin19:
0000014a 4006ff70        553 	dispose	0,{r25,r26,r27,r28,r29,r31},[lp]
                         554 	.type	_R_NFMA_Init,@function
                         555 	.size	_R_NFMA_Init,.-_R_NFMA_Init
                         556 	.align	2
                         557 .LDW91:
                         558 --_NFMAn_BASE	r28	local
                         559 --_dataL	r29	local
                         560 --_mode	r27	local
                         561 --.L267	.L346	static
                         562 
                         563 --_instance	r26	param
                         564 --_config	r25	param
                         565 
                         566 	.section ".bss","awb"
                         567 .L266:
                         568 	.type	.L266,@object
                         569 	.size	.L266,0
                         570 	.section ".rodata","a"
                         571 	.align	4
                         572 	.global	_timing_modes..C.3A.5Cgit.5Crh850.5Csrc.5Capp.5Cgfx_apps.5Csimple_draw.5Ctarget.5Cd1mx_mango_ghs.5Cobj.5Cr_nfma_bare.
                         573 _timing_modes..C.3A.5Cgit.5Crh850.5Csrc.5Capp.5Cgfx_apps.5Csimple_draw.5Ctarget.5Cd1mx_mango_ghs.5Cobj.5Cr_nfma_bare.:
00000000 c8000000        574 _timing_modes:	.byte	200,0,0,0
00000004 14000000        575 	.byte	20,0,0,0
00000008 32000000        576 	.byte	50,0,0,0
0000000c 19000000        577 	.byte	25,0,0,0
00000010 64000000        578 	.byte	100,0,0,0
00000014 14000000        579 	.byte	20,0,0,0
00000018 64000000        580 	.byte	100,0,0,0
0000001c 14000000        581 	.byte	20,0,0,0
00000020 14000000        582 	.byte	20,0,0,0
00000024 32000000        583 	.byte	50,0,0,0
00000028 00000000        584 	.space	4
0000002c 46000000        585 	.byte	70,0,0,0
00000030 14000000        586 	.byte	20,0,0,0
00000034 28000000        587 	.byte	40,0,0,0
00000038 01000000        588 	.byte	1,0,0,0
0000003c 0a000000        589 	.byte	10,0,0,0
00000040 64000000        590 	.byte	100,0,0,0
00000044 28000000        591 	.byte	40,0,0,0
00000048 1e000000        592 	.byte	30,0,0,0
0000004c 00000000        593 	.space	4
00000050 c8000000        594 	.byte	200,0,0,0
00000054 c8000000        595 	.byte	200,0,0,0
00000058 00000000        596 	.space	4
0000005c 32000000        597 	.byte	50,0,0,0
00000060 28000000        598 	.byte	40,0,0,0
00000064 e8030000        599 	.byte	232,3,0,0
00000068 c8000000        600 	.byte	200,0,0,0
0000006c 64000000        601 	.byte	100,0,0,0
00000070 1e000000        602 	.byte	30,0,0,0
00000074 78000000        603 	.byte	120,0,0,0
00000078 32000000        604 	.byte	50,0,0,0
0000007c 64000000        605 	.byte	100,0,0,0
00000080 64000000        606 	.byte	100,0,0,0
00000084 0a000000        607 	.byte	10,0,0,0
00000088 19000000        608 	.byte	25,0,0,0
0000008c 0a000000        609 	.byte	10,0,0,0
00000090 2d000000        610 	.byte	45,0,0,0
00000094 0a000000        611 	.byte	10,0,0,0
00000098 32000000        612 	.byte	50,0,0,0

                                                                      Page 12
                                                              C:\Users\Frank\AppData\Local\Temp\gh_0000p101.si
0000009c 0a000000        613 	.byte	10,0,0,0
000000a0 0a000000        614 	.byte	10,0,0,0
000000a4 19000000        615 	.byte	25,0,0,0
000000a8 0f000000        616 	.byte	15,0,0,0
000000ac 23000000        617 	.byte	35,0,0,0
000000b0 0a000000        618 	.byte	10,0,0,0
000000b4 14000000        619 	.byte	20,0,0,0
000000b8 01000000        620 	.byte	1,0,0,0
000000bc 00000000        621 	.space	4
000000c0 32000000        622 	.byte	50,0,0,0
000000c4 1e000000        623 	.byte	30,0,0,0
000000c8 0f000000        624 	.byte	15,0,0,0
000000cc 0f000000        625 	.byte	15,0,0,0
000000d0 64000000        626 	.byte	100,0,0,0
000000d4 64000000        627 	.byte	100,0,0,0
000000d8 00000000        628 	.space	4
000000dc 19000000        629 	.byte	25,0,0,0
000000e0 14000000        630 	.byte	20,0,0,0
000000e4 f4010000        631 	.byte	244,1,0,0
000000e8 64000000        632 	.byte	100,0,0,0
000000ec 2d000000        633 	.byte	45,0,0,0
000000f0 0f000000        634 	.byte	15,0,0,0
000000f4 50000000        635 	.byte	80,0,0,0
000000f8 19000000        636 	.byte	25,0,0,0
000000fc 64000000        637 	.byte	100,0,0,0
00000100 64000000        638 	.byte	100,0,0,0
00000104 0a000000        639 	.byte	10,0,0,0
00000108 0f000000        640 	.byte	15,0,0,0
0000010c 0a000000        641 	.byte	10,0,0,0
00000110 1e000000        642 	.byte	30,0,0,0
00000114 0a000000        643 	.byte	10,0,0,0
00000118 32000000        644 	.byte	50,0,0,0
0000011c 0a000000        645 	.byte	10,0,0,0
00000120 0a000000        646 	.byte	10,0,0,0
00000124 0f000000        647 	.byte	15,0,0,0
00000128 0f000000        648 	.byte	15,0,0,0
0000012c 19000000        649 	.byte	25,0,0,0
00000130 05000000        650 	.byte	5,0,0,0
00000134 0f000000        651 	.byte	15,0,0,0
00000138 01000000        652 	.byte	1,0,0,0
0000013c 00000000        653 	.space	4
00000140 23000000        654 	.byte	35,0,0,0
00000144 19000000        655 	.byte	25,0,0,0
00000148 0f000000        656 	.byte	15,0,0,0
0000014c 0f000000        657 	.byte	15,0,0,0
00000150 64000000        658 	.byte	100,0,0,0
00000154 64000000        659 	.byte	100,0,0,0
00000158 00000000        660 	.space	4
0000015c 11000000        661 	.byte	17,0,0,0
00000160 14000000        662 	.byte	20,0,0,0
00000164 f4010000        663 	.byte	244,1,0,0
00000168 64000000        664 	.byte	100,0,0,0
0000016c 23000000        665 	.byte	35,0,0,0
00000170 0f000000        666 	.byte	15,0,0,0
00000174 50000000        667 	.byte	80,0,0,0
00000178 11000000        668 	.byte	17,0,0,0
0000017c 64000000        669 	.byte	100,0,0,0
00000180 64000000        670 	.byte	100,0,0,0
00000184 05000000        671 	.byte	5,0,0,0
00000188 0a000000        672 	.byte	10,0,0,0
0000018c 0a000000        673 	.byte	10,0,0,0

                                                                      Page 13
                                                              C:\Users\Frank\AppData\Local\Temp\gh_0000p101.si
00000190 19000000        674 	.byte	25,0,0,0
00000194 05000000        675 	.byte	5,0,0,0
00000198 32000000        676 	.byte	50,0,0,0
0000019c 05000000        677 	.byte	5,0,0,0
000001a0 0a000000        678 	.byte	10,0,0,0
000001a4 0a000000        679 	.byte	10,0,0,0
000001a8 0f000000        680 	.byte	15,0,0,0
000001ac 19000000        681 	.byte	25,0,0,0
000001b0 05000000        682 	.byte	5,0,0,0
000001b4 0a000000        683 	.byte	10,0,0,0
000001b8 01000000        684 	.byte	1,0,0,0
000001bc 00000000        685 	.space	4
000001c0 1e000000        686 	.byte	30,0,0,0
000001c4 14000000        687 	.byte	20,0,0,0
000001c8 0a000000        688 	.byte	10,0,0,0
000001cc 0f000000        689 	.byte	15,0,0,0
000001d0 64000000        690 	.byte	100,0,0,0
000001d4 64000000        691 	.byte	100,0,0,0
000001d8 00000000        692 	.space	4
000001dc 0f000000        693 	.byte	15,0,0,0
000001e0 14000000        694 	.byte	20,0,0,0
000001e4 f4010000        695 	.byte	244,1,0,0
000001e8 64000000        696 	.byte	100,0,0,0
000001ec 1e000000        697 	.byte	30,0,0,0
000001f0 0a000000        698 	.byte	10,0,0,0
000001f4 3c000000        699 	.byte	60,0,0,0
000001f8 0f000000        700 	.byte	15,0,0,0
000001fc 64000000        701 	.byte	100,0,0,0
00000200 46000000        702 	.byte	70,0,0,0
00000204 05000000        703 	.byte	5,0,0,0
00000208 0a000000        704 	.byte	10,0,0,0
0000020c 0a000000        705 	.byte	10,0,0,0
00000210 19000000        706 	.byte	25,0,0,0
00000214 05000000        707 	.byte	5,0,0,0
00000218 1e000000        708 	.byte	30,0,0,0
0000021c 05000000        709 	.byte	5,0,0,0
00000220 0a000000        710 	.byte	10,0,0,0
00000224 0a000000        711 	.byte	10,0,0,0
00000228 0f000000        712 	.byte	15,0,0,0
0000022c 14000000        713 	.byte	20,0,0,0
00000230 05000000        714 	.byte	5,0,0,0
00000234 0a000000        715 	.byte	10,0,0,0
00000238 01000000        716 	.byte	1,0,0,0
0000023c 00000000        717 	.space	4
00000240 19000000        718 	.byte	25,0,0,0
00000244 14000000        719 	.byte	20,0,0,0
00000248 0a000000        720 	.byte	10,0,0,0
0000024c 0f000000        721 	.byte	15,0,0,0
00000250 64000000        722 	.byte	100,0,0,0
00000254 64000000        723 	.byte	100,0,0,0
00000258 05000000        724 	.byte	5,0,0,0
0000025c 0c000000        725 	.byte	12,0,0,0
00000260 14000000        726 	.byte	20,0,0,0
00000264 f4010000        727 	.byte	244,1,0,0
00000268 64000000        728 	.byte	100,0,0,0
0000026c 19000000        729 	.byte	25,0,0,0
00000270 0a000000        730 	.byte	10,0,0,0
00000274 3c000000        731 	.byte	60,0,0,0
00000278 0c000000        732 	.byte	12,0,0,0
0000027c 64000000        733 	.byte	100,0,0,0
00000280 46000000        734 	.byte	70,0,0,0

                                                                      Page 14
                                                              C:\Users\Frank\AppData\Local\Temp\gh_0000p101.si
00000284 05000000        735 	.byte	5,0,0,0
00000288 0a000000        736 	.byte	10,0,0,0
0000028c 0a000000        737 	.byte	10,0,0,0
00000290 19000000        738 	.byte	25,0,0,0
00000294 05000000        739 	.byte	5,0,0,0
00000298 1e000000        740 	.byte	30,0,0,0
0000029c 05000000        741 	.byte	5,0,0,0
000002a0 0a000000        742 	.byte	10,0,0,0
000002a4 0a000000        743 	.byte	10,0,0,0
000002a8 0f000000        744 	.byte	15,0,0,0
000002ac 0f000000        745 	.byte	15,0,0,0
000002b0 05000000        746 	.byte	5,0,0,0
000002b4 07000000        747 	.byte	7,0,0,0
000002b8 01000000        748 	.byte	1,0,0,0
000002bc 00000000        749 	.space	4
000002c0 14000000        750 	.byte	20,0,0,0
000002c4 10000000        751 	.byte	16,0,0,0
000002c8 07000000        752 	.byte	7,0,0,0
000002cc 0f000000        753 	.byte	15,0,0,0
000002d0 64000000        754 	.byte	100,0,0,0
000002d4 64000000        755 	.byte	100,0,0,0
000002d8 05000000        756 	.byte	5,0,0,0
000002dc 0a000000        757 	.byte	10,0,0,0
000002e0 14000000        758 	.byte	20,0,0,0
000002e4 f4010000        759 	.byte	244,1,0,0
000002e8 64000000        760 	.byte	100,0,0,0
000002ec 14000000        761 	.byte	20,0,0,0
000002f0 07000000        762 	.byte	7,0,0,0
000002f4 3c000000        763 	.byte	60,0,0,0
000002f8 0a000000        764 	.byte	10,0,0,0
000002fc 64000000        765 	.byte	100,0,0,0
                         766 	.type	_timing_modes..C.3A.5Cgit.5Crh850.5Csrc.5Capp.5Cgfx_apps.5Csimple_draw.5Ctarget.5Cd1mx_mango_ghs.5Cobj.5Cr_nfma_bare.,@object
                         767 	.size	_timing_modes..C.3A.5Cgit.5Crh850.5Csrc.5Capp.5Cgfx_apps.5Csimple_draw.5Ctarget.5Cd1mx_mango_ghs.5Cobj.5Cr_nfma_bare.,768
                         768 	.type	_timing_modes,@object
                         769 	.size	_timing_modes,768
                         770 .L346:--	"NFMA Reset Transfer Error"
00000300 4e464d41        771 	.byte	78,70,77,65
00000304 20526573        772 	.byte	32,82,101,115
00000308 65742054        773 	.byte	101,116,32,84
0000030c 72616e73        774 	.byte	114,97,110,115
00000310 66657220        775 	.byte	102,101,114,32
00000314 4572726f        776 	.byte	69,114,114,111
00000318 7200            777 	.byte	114,0
                         778 	.type	.L346,@object
                         779 	.size	.L346,26
                         780 	.data
                         781 	.text
                         782 
                         783 
                         784 --164: uint8_t R_NFMA_BlockErase(uint32_t instance, r_nfma_erase_param_t erase_config)
                         785 	.align	2
                         786 	.align	2
                         787 	.global	_R_NFMA_BlockErase
                         788 _R_NFMA_BlockErase:
0000014e 8007e170        789 	prepare	{r25,r26,r27,r28,r29,r31},0
00000152 06d0            790 	mov	r6,r26
00000154 07c8            791 	mov	r7,r25
                         792 --	    .bf
                         793 .LDW02:
                         794 --165: {
                         795 --166:   uint32_t NFMAn_BASE;

                                                                      Page 15
                                                              C:\Users\Frank\AppData\Local\Temp\gh_0000p101.si
                         796 --167:   uint32_t dataL;
                         797 --168:   uint32_t block;
                         798 --170:   NFMAn_BASE = R_SYS_NFMA_GetBaseAddr(instance);
00000156 1a30            799 	mov	r26,r6
                         800 	jarl	_R_SYS_NFMA_GetBaseAddr,lp
                         800 <EXPANSION BEGIN>
                         800 jarl22 _R_SYS_NFMA_GetBaseAddr , lp 
00000158 80ff0000*       800 <EXPANSION END>
0000015c 0ae8            801 	mov	r10,r29
                         802 --172: NFMA_erase:
                         803 .LDW12:
                         804 .L387:
                         805 --173:   R_NFMA_WRITE_REG(32, NFMAn_BASE + NFMA_INT_STATUS, 0x0);
                         806 --line173
                         807 ..lin.C.3A.5Cgit.5Crh850.5Csrc.5Capp.5Cgfx_apps.5Csimple_draw.5Ctarget.5Cd1mx_mango_ghs.5Cobj.5Cr_nfma_bare.20::
                         808 .LDWlin20:
0000015e 7d071500        809 	st.w	zero,20[r29]
                         810 --174:   R_NFMA_WRITE_REG(32, NFMAn_BASE + NFMA_INT_MASK, 0x0);
00000162 7d071100        811 	st.w	zero,16[r29]
                         812 --176:   /* write ADDR0_ROW */
                         813 --177:   block = (erase_config.AccessAddr * 4 / (NFMA_PAGE_SIZE_BYTE * NFMA_PAGES_PER_BLOCK));
00000166 1908            814 	mov	r25,r1
00000168 c20a            815 	shl	2,r1
0000016a 01e0            816 	mov	r1,r28
0000016c 91e2            817 	shr	17,r28
                         818 --178:   R_NFMA_WRITE_REG(32, NFMAn_BASE + NFMA_ADDR0_ROW, ((block*NFMA_PAGES_PER_BLOCK) & NFMA_MASK_ROW_BLOCK_NO));
0000016e 1c08            819 	mov	r28,r1
00000170 c60a            820 	shl	6,r1
00000172 2e06c0ff0300    821 	mov	262080,r14
00000178 4e09            822 	and	r14,r1
0000017a 7d0f2900        823 	st.w	r1,40[r29]
                         824 --179:   R_NFMA_WRITE_REG(32, NFMAn_BASE + NFMA_ADDR0_COL, (0x0 & NFMA_MASK_COL_PAGE_SIZE));  /* ADDR0_COL not used by PageErase (SEQ_14) */
0000017e 7d072500        825 	st.w	zero,36[r29]
                         826 --180:   
                         827 --181:   /* write MEM_CTRL */
                         828 --182:   R_NFMA_WRITE_REG(32, NFMAn_BASE + NFMA_MEM_CTRL, 0x0);
00000182 7d078100        829 	st.w	zero,128[r29]
                         830 --184:   /* Erase BLOCK COMMAND 0x00D0600E */
                         831 --185:   R_NFMA_WRITE_REG(32, NFMAn_BASE + NFMA_COMMAND, 0x00D0600E);
00000186 21060e60d000    832 	mov	13656078,r1
0000018c 7d0f0100        833 	st.w	r1,0[r29]
                         834 --187:   /* STATUS.MEM_ST */
                         835 --188:   WaitNFMA_Flags(instance, NFMA_STATUS, NFMA_RBF_MEM0_ST);
00000190 1a30            836 	mov	r26,r6
00000192 083a            837 	mov	8,r7
00000194 0142            838 	mov	1,r8
                         839 	jarl	_WaitNFMA_Flags,lp
                         839 <EXPANSION BEGIN>
                         839 jarl22 _WaitNFMA_Flags , lp 
00000196 bfff6afe*       839 <EXPANSION END>
                         840 --190:   dataL = R_NFMA_READ_REG(32, NFMAn_BASE + NFMA_INT_STATUS);
                         841 --line190
                         842 ..lin.C.3A.5Cgit.5Crh850.5Csrc.5Capp.5Cgfx_apps.5Csimple_draw.5Ctarget.5Cd1mx_mango_ghs.5Cobj.5Cr_nfma_bare.21::
                         843 .LDWlin21:
0000019a 3ddf1500        844 	ld.w	20[r29],r27
                         845 --191:   if (dataL & NFMA_RBF_TRANS_ERR_FL)
0000019e db061000        846 	andi	16,r27,zero
000001a2 f205*           847 	be	.L388
                         848 --192:   {
                         849 --193:     R_BSP_STDIO_Printf("NFMA Erase Transfer Error");
                         850 --line193

                                                                      Page 16
                                                              C:\Users\Frank\AppData\Local\Temp\gh_0000p101.si
                         851 ..lin.C.3A.5Cgit.5Crh850.5Csrc.5Capp.5Cgfx_apps.5Csimple_draw.5Ctarget.5Cd1mx_mango_ghs.5Cobj.5Cr_nfma_bare.22::
                         852 .LDWlin22:
000001a4 260600000000*   853 	mov	.L527,r6
                         854 	jarl	_R_BSP_STDIO_Printf,lp
                         854 <EXPANSION BEGIN>
                         854 jarl22 _R_BSP_STDIO_Printf , lp 
000001aa 80ff0000*       854 <EXPANSION END>
                         855 --194:     goto NFMA_erase;
                         856 --line194
                         857 ..lin.C.3A.5Cgit.5Crh850.5Csrc.5Capp.5Cgfx_apps.5Csimple_draw.5Ctarget.5Cd1mx_mango_ghs.5Cobj.5Cr_nfma_bare.23::
                         858 .LDWlin23:
000001ae 85dd*           859 	br	.L387
                         860 .L388:
                         861 --195:   }
                         862 --197:   if (dataL & NFMA_RBF_STAT_ERR_INT0_FL)
                         863 --line197
                         864 ..lin.C.3A.5Cgit.5Crh850.5Csrc.5Capp.5Cgfx_apps.5Csimple_draw.5Ctarget.5Cd1mx_mango_ghs.5Cobj.5Cr_nfma_bare.24::
                         865 .LDWlin24:
000001b0 400e0100        866 	movhi	1,zero,r1
000001b4 5b09            867 	and	r27,r1
000001b6 f205*           868 	be	.L391
                         869 --198:   {
                         870 --199:     R_BSP_STDIO_Printf("NFMA Erase Error");
                         871 --line199
                         872 ..lin.C.3A.5Cgit.5Crh850.5Csrc.5Capp.5Cgfx_apps.5Csimple_draw.5Ctarget.5Cd1mx_mango_ghs.5Cobj.5Cr_nfma_bare.25::
                         873 .LDWlin25:
000001b8 260600000000*   874 	mov	.L528,r6
                         875 	jarl	_R_BSP_STDIO_Printf,lp
                         875 <EXPANSION BEGIN>
                         875 jarl22 _R_BSP_STDIO_Printf , lp 
000001be 80ff0000*       875 <EXPANSION END>
                         876 --200:     goto NFMA_erase;
                         877 --line200
                         878 ..lin.C.3A.5Cgit.5Crh850.5Csrc.5Capp.5Cgfx_apps.5Csimple_draw.5Ctarget.5Cd1mx_mango_ghs.5Cobj.5Cr_nfma_bare.26::
                         879 .LDWlin26:
000001c2 e5cd*           880 	br	.L387
                         881 .L391:
                         882 --201:   }
                         883 --202:   return 0x0;
                         884 --line202
                         885 ..lin.C.3A.5Cgit.5Crh850.5Csrc.5Capp.5Cgfx_apps.5Csimple_draw.5Ctarget.5Cd1mx_mango_ghs.5Cobj.5Cr_nfma_bare.27::
                         886 .LDWlin27:
000001c4 0052            887 	mov	0,r10
                         888 --	    .ef
                         889 .LDW22:
000001c6 4006ff70        890 	dispose	0,{r25,r26,r27,r28,r29,r31},[lp]
                         891 	.type	_R_NFMA_BlockErase,@function
                         892 	.size	_R_NFMA_BlockErase,.-_R_NFMA_BlockErase
                         893 	.align	2
                         894 .LDW32:
                         895 --_NFMAn_BASE	r29	local
                         896 --_dataL	r27	local
                         897 --_block	r28	local
                         898 --.L483	.L527	static
                         899 --.L484	.L528	static
                         900 
                         901 --_instance	r26	param
                         902 --_erase_config	r25	param
                         903 
                         904 	.section ".bss","awb"
                         905 .L482:

                                                                      Page 17
                                                              C:\Users\Frank\AppData\Local\Temp\gh_0000p101.si
                         906 	.type	.L482,@object
                         907 	.size	.L482,0
                         908 	.section ".rodata","a"
                         909 .L527:--	"NFMA Erase Transfer Error"
0000031a 4e464d41        910 	.byte	78,70,77,65
0000031e 20457261        911 	.byte	32,69,114,97
00000322 73652054        912 	.byte	115,101,32,84
00000326 72616e73        913 	.byte	114,97,110,115
0000032a 66657220        914 	.byte	102,101,114,32
0000032e 4572726f        915 	.byte	69,114,114,111
00000332 7200            916 	.byte	114,0
                         917 	.type	.L527,@object
                         918 	.size	.L527,26
                         919 .L528:--	"NFMA Erase Error"
00000334 4e464d41        920 	.byte	78,70,77,65
00000338 20457261        921 	.byte	32,69,114,97
0000033c 73652045        922 	.byte	115,101,32,69
00000340 72726f72        923 	.byte	114,114,111,114
00000344 00              924 	.byte	0
                         925 	.type	.L528,@object
                         926 	.size	.L528,17
                         927 	.data
                         928 	.text
                         929 
                         930 --203: }
                         931 
                         932 --205: uint8_t R_NFMA_PageWrite(uint32_t instance, r_nfma_write_param_t write_config)
                         933 	.align	2
                         934 	.align	2
                         935 	.global	_R_NFMA_PageWrite
                         936 _R_NFMA_PageWrite:
000001ca 031ed8ff        937 	addi	-40,sp,sp
000001ce 634f2500        938 	st.w	r9,36[sp]
000001d2 63472100        939 	st.w	r8,32[sp]
000001d6 633f1d00        940 	st.w	r7,28[sp]
000001da 63ff1500        941 	st.w	lp,20[sp]
000001de 63d70d00        942 	st.w	r26,12[sp]
000001e2 63cf1100        943 	st.w	r25,16[sp]
000001e6 06d0            944 	mov	r6,r26
000001e8 63df0900        945 	st.w	r27,8[sp]
000001ec 63e70500        946 	st.w	r28,4[sp]
000001f0 63ef0100        947 	st.w	r29,0[sp]
                         948 --	    .bf
                         949 .LDW42:
                         950 --206: {
                         951 --207:   uint32_t NFMAn_BASE;
                         952 --208:   uint32_t dataL;
                         953 --209:   uint32_t count;
                         954 --210:   uint32_t page;
                         955 --212:   NFMAn_BASE = R_SYS_NFMA_GetBaseAddr(instance);
000001f4 1a30            956 	mov	r26,r6
                         957 	jarl	_R_SYS_NFMA_GetBaseAddr,lp
                         957 <EXPANSION BEGIN>
                         957 jarl22 _R_SYS_NFMA_GetBaseAddr , lp 
000001f6 80ff0000*       957 <EXPANSION END>
000001fa 0ae8            958 	mov	r10,r29
                         959 --214:   if( 1>write_config.WrCount ) return 0x1;
                         960 --line214
                         961 ..lin.C.3A.5Cgit.5Crh850.5Csrc.5Capp.5Cgfx_apps.5Csimple_draw.5Ctarget.5Cd1mx_mango_ghs.5Cobj.5Cr_nfma_bare.28::
                         962 .LDWlin28:
000001fc 230f2100        963 	ld.w	32[sp],r1

                                                                      Page 18
                                                              C:\Users\Frank\AppData\Local\Temp\gh_0000p101.si
00000200 610a            964 	cmp	1,r1
00000202 b905*           965 	bnl	.L554
                         966 --line214
                         967 ..lin.C.3A.5Cgit.5Crh850.5Csrc.5Capp.5Cgfx_apps.5Csimple_draw.5Ctarget.5Cd1mx_mango_ghs.5Cobj.5Cr_nfma_bare.29::
                         968 .LDWlin29:
00000204 0152            969 	mov	1,r10
00000206 8565*           970 	br	.L549
                         971 --216: NFMA_write:
                         972 .LDW52:
                         973 .L554:
                         974 --217:   /* FIFO flush */
                         975 --218:   R_NFMA_WRITE_REG(32, NFMAn_BASE + NFMA_FIFO_INIT, 0x1);
                         976 --line218
                         977 ..lin.C.3A.5Cgit.5Crh850.5Csrc.5Capp.5Cgfx_apps.5Csimple_draw.5Ctarget.5Cd1mx_mango_ghs.5Cobj.5Cr_nfma_bare.30::
                         978 .LDWlin30:
00000208 010a            979 	mov	1,r1
0000020a 7d0fb100        980 	st.w	r1,176[r29]
                         981 --219:   WaitNFMA_Flags(instance, NFMA_FIFO_STATE, NFMA_RBF_DF_W_EMPTY);
0000020e 1a30            982 	mov	r26,r6
00000210 203eb400        983 	movea	180,zero,r7
00000214 20468000        984 	movea	128,zero,r8
                         985 	jarl	_WaitNFMA_Flags,lp
                         985 <EXPANSION BEGIN>
                         985 jarl22 _WaitNFMA_Flags , lp 
00000218 bfffe8fd*       985 <EXPANSION END>
                         986 --221:   /* Clear and mask all interrupts */
                         987 --222:   R_NFMA_WRITE_REG(32, NFMAn_BASE + NFMA_INT_STATUS, 0x0);
                         988 --line222
                         989 ..lin.C.3A.5Cgit.5Crh850.5Csrc.5Capp.5Cgfx_apps.5Csimple_draw.5Ctarget.5Cd1mx_mango_ghs.5Cobj.5Cr_nfma_bare.31::
                         990 .LDWlin31:
0000021c 7d071500        991 	st.w	zero,20[r29]
                         992 --223:   R_NFMA_WRITE_REG(32, NFMAn_BASE + NFMA_INT_MASK, 0x0);
00000220 7d071100        993 	st.w	zero,16[r29]
                         994 --225:   /* write ADDR0_COL , write ADDR0_ROW, write DATA_SIZE */
                         995 --226:   page = (write_config.AccessAddr * 4 / NFMA_PAGE_SIZE_BYTE);
00000224 230f1d00        996 	ld.w	28[sp],r1
00000228 c20a            997 	shl	2,r1
0000022a 01d8            998 	mov	r1,r27
0000022c 8bda            999 	shr	11,r27
                        1000 --227:   R_NFMA_WRITE_REG(32, NFMAn_BASE + NFMA_ADDR0_ROW, (page & NFMA_MASK_ROW_PAGE_NO));
0000022e 2106ffff0300   1001 	mov	262143,r1
00000234 5b09           1002 	and	r27,r1
00000236 7d0f2900       1003 	st.w	r1,40[r29]
                        1004 --228:   R_NFMA_WRITE_REG(32, NFMAn_BASE + NFMA_ADDR0_COL, (write_config.AccessAddr & NFMA_MASK_COL_PAGE_SIZE));
0000023a 230f1d00       1005 	ld.w	28[sp],r1
0000023e c10eff01       1006 	andi	511,r1,r1
00000242 7d0f2500       1007 	st.w	r1,36[r29]
                        1008 --230:   /* Write the Number of Required Bytes */
                        1009 --231:   R_NFMA_WRITE_REG(32, NFMAn_BASE + NFMA_DATA_SIZE, (write_config.WrCount * 4));
00000246 230f2100       1010 	ld.w	32[sp],r1
0000024a c20a           1011 	shl	2,r1
0000024c 7d0f8500       1012 	st.w	r1,132[r29]
                        1013 --232:   
                        1014 --233:   
                        1015 --234:   /* write MEM_CTRL */
                        1016 --235:   R_NFMA_WRITE_REG(32, NFMAn_BASE + NFMA_MEM_CTRL, 0x0);
00000250 7d078100       1017 	st.w	zero,128[r29]
                        1018 --237:   /* Program PAGE COMMAND 0x0010800c */
                        1019 --238:   R_NFMA_WRITE_REG(32, NFMAn_BASE + NFMA_COMMAND, 0x0010800c);
00000254 21060c801000   1020 	mov	1081356,r1
0000025a 7d0f0100       1021 	st.w	r1,0[r29]

                                                                      Page 19
                                                              C:\Users\Frank\AppData\Local\Temp\gh_0000p101.si
                        1022 --240:   /* FIFO_STATE.CF_EMPTY*/
                        1023 --241:   WaitNFMA_Flags(instance, NFMA_FIFO_STATE, NFMA_RBF_CF_EMPTY);
0000025e 1a30           1024 	mov	r26,r6
00000260 203eb400       1025 	movea	180,zero,r7
00000264 0442           1026 	mov	4,r8
                        1027 	jarl	_WaitNFMA_Flags,lp
                        1027 <EXPANSION BEGIN>
                        1027 jarl22 _WaitNFMA_Flags , lp 
00000266 bfff9afd*      1027 <EXPANSION END>
                        1028 --243:   /* Write Data to FIFO */
                        1029 --244:   for (count = 0; count < write_config.WrCount; count++)
                        1030 --line244
                        1031 ..lin.C.3A.5Cgit.5Crh850.5Csrc.5Capp.5Cgfx_apps.5Csimple_draw.5Ctarget.5Cd1mx_mango_ghs.5Cobj.5Cr_nfma_bare.32::
                        1032 .LDWlin32:
0000026a 00e2           1033 	mov	0,r28
0000026c e50d*          1034 	br	.L558
                        1035 .L557:
                        1036 --245:   {
                        1037 --246:     /* TODO: Add a timeout to this loop */
                        1038 --247:     while ((R_NFMA_READ_REG(32, NFMAn_BASE + NFMA_FIFO_STATE) & NFMA_RBF_DF_W_FULL) != 0)
                        1039 .L559:
                        1040 --248:     {
                        1041 --line247
                        1042 ..lin.C.3A.5Cgit.5Crh850.5Csrc.5Capp.5Cgfx_apps.5Csimple_draw.5Ctarget.5Cd1mx_mango_ghs.5Cobj.5Cr_nfma_bare.33::
                        1043 .LDWlin33:
0000026e 3d0fb500       1044 	ld.w	180[r29],r1
00000272 820a           1045 	shr	2,r1
00000274 d1fd*          1046 	bl	.L559
                        1047 --249:         /* Nothing */
                        1048 --250:     }
                        1049 --251:     R_NFMA_WRITE_REG(32, NFMAn_BASE + NFMA_FIFO_DATA, *(write_config.WrData+count));
                        1050 --line251
                        1051 ..lin.C.3A.5Cgit.5Crh850.5Csrc.5Capp.5Cgfx_apps.5Csimple_draw.5Ctarget.5Cd1mx_mango_ghs.5Cobj.5Cr_nfma_bare.34::
                        1052 .LDWlin34:
00000276 23772500       1053 	ld.w	36[sp],r14
0000027a 1cf0           1054 	mov	r28,ep
0000027c c2f2           1055 	shl	2,ep
0000027e cef1           1056 	add	r14,ep
00000280 000d           1057 	sld.w	0[ep],r1
00000282 7d0f3900       1058 	st.w	r1,56[r29]
00000286 41e2           1059 	add	1,r28
                        1060 .L558:
00000288 230f2100       1061 	ld.w	32[sp],r1
0000028c e1e1           1062 	cmp	r1,r28
0000028e 81f5*          1063 	bl	.L557
                        1064 --252:   }
                        1065 --254:   /* STATUS.MEM_ST */
                        1066 --255:   WaitNFMA_Flags(instance, NFMA_STATUS, NFMA_RBF_MEM0_ST);
                        1067 --line255
                        1068 ..lin.C.3A.5Cgit.5Crh850.5Csrc.5Capp.5Cgfx_apps.5Csimple_draw.5Ctarget.5Cd1mx_mango_ghs.5Cobj.5Cr_nfma_bare.35::
                        1069 .LDWlin35:
00000290 1a30           1070 	mov	r26,r6
00000292 083a           1071 	mov	8,r7
00000294 0142           1072 	mov	1,r8
                        1073 	jarl	_WaitNFMA_Flags,lp
                        1073 <EXPANSION BEGIN>
                        1073 jarl22 _WaitNFMA_Flags , lp 
00000296 bfff6afd*      1073 <EXPANSION END>
                        1074 --257:   dataL = R_NFMA_READ_REG(32, NFMAn_BASE + NFMA_INT_STATUS);
                        1075 --line257
                        1076 ..lin.C.3A.5Cgit.5Crh850.5Csrc.5Capp.5Cgfx_apps.5Csimple_draw.5Ctarget.5Cd1mx_mango_ghs.5Cobj.5Cr_nfma_bare.36::

                                                                      Page 20
                                                              C:\Users\Frank\AppData\Local\Temp\gh_0000p101.si
                        1077 .LDWlin36:
0000029a 3dcf1500       1078 	ld.w	20[r29],r25
                        1079 --258:   if (dataL & NFMA_RBF_TRANS_ERR_FL)
0000029e d9061000       1080 	andi	16,r25,zero
000002a2 f205*          1081 	be	.L562
                        1082 --259:   {
                        1083 --260:     R_BSP_STDIO_Printf("NFMA Write Transfer Error");
                        1084 --line260
                        1085 ..lin.C.3A.5Cgit.5Crh850.5Csrc.5Capp.5Cgfx_apps.5Csimple_draw.5Ctarget.5Cd1mx_mango_ghs.5Cobj.5Cr_nfma_bare.37::
                        1086 .LDWlin37:
000002a4 260600000000*  1087 	mov	.L781,r6
                        1088 	jarl	_R_BSP_STDIO_Printf,lp
                        1088 <EXPANSION BEGIN>
                        1088 jarl22 _R_BSP_STDIO_Printf , lp 
000002aa 80ff0000*      1088 <EXPANSION END>
                        1089 --261:     goto NFMA_write;
                        1090 --line261
                        1091 ..lin.C.3A.5Cgit.5Crh850.5Csrc.5Capp.5Cgfx_apps.5Csimple_draw.5Ctarget.5Cd1mx_mango_ghs.5Cobj.5Cr_nfma_bare.38::
                        1092 .LDWlin38:
000002ae d5ad*          1093 	br	.L554
                        1094 .L562:
                        1095 --262:   }
                        1096 --264:   if (dataL & NFMA_RBF_STAT_ERR_INT0_FL)
                        1097 --line264
                        1098 ..lin.C.3A.5Cgit.5Crh850.5Csrc.5Capp.5Cgfx_apps.5Csimple_draw.5Ctarget.5Cd1mx_mango_ghs.5Cobj.5Cr_nfma_bare.39::
                        1099 .LDWlin39:
000002b0 400e0100       1100 	movhi	1,zero,r1
000002b4 5909           1101 	and	r25,r1
000002b6 f205*          1102 	be	.L565
                        1103 --265:   {
                        1104 --266:     R_BSP_STDIO_Printf("NFMA Write Error");
                        1105 --line266
                        1106 ..lin.C.3A.5Cgit.5Crh850.5Csrc.5Capp.5Cgfx_apps.5Csimple_draw.5Ctarget.5Cd1mx_mango_ghs.5Cobj.5Cr_nfma_bare.40::
                        1107 .LDWlin40:
000002b8 260600000000*  1108 	mov	.L782,r6
                        1109 	jarl	_R_BSP_STDIO_Printf,lp
                        1109 <EXPANSION BEGIN>
                        1109 jarl22 _R_BSP_STDIO_Printf , lp 
000002be 80ff0000*      1109 <EXPANSION END>
                        1110 --267:     goto NFMA_write;
                        1111 --line267
                        1112 ..lin.C.3A.5Cgit.5Crh850.5Csrc.5Capp.5Cgfx_apps.5Csimple_draw.5Ctarget.5Cd1mx_mango_ghs.5Cobj.5Cr_nfma_bare.41::
                        1113 .LDWlin41:
000002c2 b5a5*          1114 	br	.L554
                        1115 .L565:
                        1116 --268:   }
                        1117 --270:   return 0x0;
                        1118 --line270
                        1119 ..lin.C.3A.5Cgit.5Crh850.5Csrc.5Capp.5Cgfx_apps.5Csimple_draw.5Ctarget.5Cd1mx_mango_ghs.5Cobj.5Cr_nfma_bare.42::
                        1120 .LDWlin42:
000002c4 0052           1121 	mov	0,r10
                        1122 .L549:
                        1123 --	    .ef
                        1124 .LDW62:
000002c6 23ff1500       1125 	ld.w	20[sp],lp
000002ca 23ef0100       1126 	ld.w	0[sp],r29
000002ce 23e70500       1127 	ld.w	4[sp],r28
000002d2 23df0900       1128 	ld.w	8[sp],r27
000002d6 23d70d00       1129 	ld.w	12[sp],r26
000002da 23cf1100       1130 	ld.w	16[sp],r25
000002de 031e2800       1131 	addi	40,sp,sp

                                                                      Page 21
                                                              C:\Users\Frank\AppData\Local\Temp\gh_0000p101.si
000002e2 7f00           1132 	jmp	[lp]
                        1133 	.type	_R_NFMA_PageWrite,@function
                        1134 	.size	_R_NFMA_PageWrite,.-_R_NFMA_PageWrite
                        1135 	.align	2
                        1136 .LDW72:
                        1137 --_NFMAn_BASE	r29	local
                        1138 --_dataL	r25	local
                        1139 --_count	r28	local
                        1140 --_page	r27	local
                        1141 --.L711	.L781	static
                        1142 --.L712	.L782	static
                        1143 
                        1144 --_instance	r26	param
                        1145 --_write_config	28[sp]	param
                        1146 
                        1147 	.section ".bss","awb"
                        1148 .L710:
                        1149 	.type	.L710,@object
                        1150 	.size	.L710,0
                        1151 	.section ".rodata","a"
                        1152 .L781:--	"NFMA Write Transfer Error"
00000345 4e464d41       1153 	.byte	78,70,77,65
00000349 20577269       1154 	.byte	32,87,114,105
0000034d 74652054       1155 	.byte	116,101,32,84
00000351 72616e73       1156 	.byte	114,97,110,115
00000355 66657220       1157 	.byte	102,101,114,32
00000359 4572726f       1158 	.byte	69,114,114,111
0000035d 7200           1159 	.byte	114,0
                        1160 	.type	.L781,@object
                        1161 	.size	.L781,26
                        1162 .L782:--	"NFMA Write Error"
0000035f 4e464d41       1163 	.byte	78,70,77,65
00000363 20577269       1164 	.byte	32,87,114,105
00000367 74652045       1165 	.byte	116,101,32,69
0000036b 72726f72       1166 	.byte	114,114,111,114
0000036f 00             1167 	.byte	0
                        1168 	.type	.L782,@object
                        1169 	.size	.L782,17
                        1170 	.data
                        1171 	.text
                        1172 
                        1173 --271: }
                        1174 
                        1175 --273: uint8_t R_NFMA_PageRead(uint32_t instance, r_nfma_read_param_t read_config)
                        1176 	.align	2
                        1177 	.align	2
                        1178 	.global	_R_NFMA_PageRead
                        1179 _R_NFMA_PageRead:
000002e4 031edcff       1180 	addi	-36,sp,sp
000002e8 634f2100       1181 	st.w	r9,32[sp]
000002ec 63471d00       1182 	st.w	r8,28[sp]
000002f0 633f1900       1183 	st.w	r7,24[sp]
000002f4 63ff1100       1184 	st.w	lp,16[sp]
000002f8 63d70d00       1185 	st.w	r26,12[sp]
000002fc 63df0900       1186 	st.w	r27,8[sp]
00000300 06d0           1187 	mov	r6,r26
00000302 63e70500       1188 	st.w	r28,4[sp]
00000306 63ef0100       1189 	st.w	r29,0[sp]
                        1190 --	    .bf
                        1191 .LDW82:
                        1192 --274: {

                                                                      Page 22
                                                              C:\Users\Frank\AppData\Local\Temp\gh_0000p101.si
                        1193 --275:   uint32_t NFMAn_BASE;
                        1194 --276:   uint32_t dataL;
                        1195 --277:   uint32_t count;
                        1196 --278:   uint32_t page;
                        1197 --280:   NFMAn_BASE = R_SYS_NFMA_GetBaseAddr(instance);
0000030a 1a30           1198 	mov	r26,r6
                        1199 	jarl	_R_SYS_NFMA_GetBaseAddr,lp
                        1199 <EXPANSION BEGIN>
                        1199 jarl22 _R_SYS_NFMA_GetBaseAddr , lp 
0000030c 80ff0000*      1199 <EXPANSION END>
00000310 0ae8           1200 	mov	r10,r29
                        1201 --282:   if( 1>read_config.RdCount ) return 0x1;
                        1202 --line282
                        1203 ..lin.C.3A.5Cgit.5Crh850.5Csrc.5Capp.5Cgfx_apps.5Csimple_draw.5Ctarget.5Cd1mx_mango_ghs.5Cobj.5Cr_nfma_bare.43::
                        1204 .LDWlin43:
00000312 230f1d00       1205 	ld.w	28[sp],r1
00000316 610a           1206 	cmp	1,r1
00000318 b905*          1207 	bnl	.L821
                        1208 --line282
                        1209 ..lin.C.3A.5Cgit.5Crh850.5Csrc.5Capp.5Cgfx_apps.5Csimple_draw.5Ctarget.5Cd1mx_mango_ghs.5Cobj.5Cr_nfma_bare.44::
                        1210 .LDWlin44:
0000031a 0152           1211 	mov	1,r10
0000031c 855d*          1212 	br	.L816
                        1213 --284: NFMA_read:
                        1214 .LDW92:
                        1215 .L821:
                        1216 --285:   R_NFMA_WRITE_REG(32, NFMAn_BASE + NFMA_FIFO_INIT, 0x1);
                        1217 --line285
                        1218 ..lin.C.3A.5Cgit.5Crh850.5Csrc.5Capp.5Cgfx_apps.5Csimple_draw.5Ctarget.5Cd1mx_mango_ghs.5Cobj.5Cr_nfma_bare.45::
                        1219 .LDWlin45:
0000031e 010a           1220 	mov	1,r1
00000320 7d0fb100       1221 	st.w	r1,176[r29]
                        1222 --286:   WaitNFMA_Flags(instance, NFMA_FIFO_STATE, NFMA_RBF_DF_W_EMPTY);
00000324 1a30           1223 	mov	r26,r6
00000326 203eb400       1224 	movea	180,zero,r7
0000032a 20468000       1225 	movea	128,zero,r8
                        1226 	jarl	_WaitNFMA_Flags,lp
                        1226 <EXPANSION BEGIN>
                        1226 jarl22 _WaitNFMA_Flags , lp 
0000032e bfffd2fc*      1226 <EXPANSION END>
                        1227 --288:   /* Clear and mask all interrupts */
                        1228 --289:   R_NFMA_WRITE_REG(32, NFMAn_BASE + NFMA_INT_STATUS, 0x0);
                        1229 --line289
                        1230 ..lin.C.3A.5Cgit.5Crh850.5Csrc.5Capp.5Cgfx_apps.5Csimple_draw.5Ctarget.5Cd1mx_mango_ghs.5Cobj.5Cr_nfma_bare.46::
                        1231 .LDWlin46:
00000332 7d071500       1232 	st.w	zero,20[r29]
                        1233 --290:   R_NFMA_WRITE_REG(32, NFMAn_BASE + NFMA_INT_MASK, 0x0);
00000336 7d071100       1234 	st.w	zero,16[r29]
                        1235 --292:   /* write ADDR0_COL , write ADDR0_ROW */
                        1236 --293:   page = (read_config.AccessAddr * 4 / NFMA_PAGE_SIZE_BYTE);
0000033a 230f1900       1237 	ld.w	24[sp],r1
0000033e c20a           1238 	shl	2,r1
00000340 01d8           1239 	mov	r1,r27
00000342 8bda           1240 	shr	11,r27
                        1241 --294:   R_NFMA_WRITE_REG(32, NFMAn_BASE + NFMA_ADDR0_ROW, (page & NFMA_MASK_ROW_PAGE_NO));
00000344 2106ffff0300   1242 	mov	262143,r1
0000034a 5b09           1243 	and	r27,r1
0000034c 7d0f2900       1244 	st.w	r1,40[r29]
                        1245 --295:   R_NFMA_WRITE_REG(32, NFMAn_BASE + NFMA_ADDR0_COL, (read_config.AccessAddr & NFMA_MASK_COL_PAGE_SIZE));
00000350 230f1900       1246 	ld.w	24[sp],r1
00000354 c10eff01       1247 	andi	511,r1,r1

                                                                      Page 23
                                                              C:\Users\Frank\AppData\Local\Temp\gh_0000p101.si
00000358 7d0f2500       1248 	st.w	r1,36[r29]
                        1249 --297:   /* Read the Number of Required Bytes */
                        1250 --298:   R_NFMA_WRITE_REG(32, NFMAn_BASE + NFMA_DATA_SIZE, (read_config.RdCount * 4));
0000035c 230f1d00       1251 	ld.w	28[sp],r1
00000360 c20a           1252 	shl	2,r1
00000362 7d0f8500       1253 	st.w	r1,132[r29]
                        1254 --300:   
                        1255 --301:   /* write MEM_CTRL */
                        1256 --302:   R_NFMA_WRITE_REG(32, NFMAn_BASE + NFMA_MEM_CTRL, 0x0|(0x1<<NFMA_RBFO_MEM0_WP));
00000366 200e0001       1257 	movea	256,zero,r1
0000036a 7d0f8100       1258 	st.w	r1,128[r29]
                        1259 --304:   /* Read PAGE COMMAND 0x3000002A */
                        1260 --305:   R_NFMA_WRITE_REG(32, NFMAn_BASE + NFMA_COMMAND, 0x3000002A);
0000036e 21062a000030   1261 	mov	805306410,r1
00000374 7d0f0100       1262 	st.w	r1,0[r29]
                        1263 --307:   /* FIFO_STATE.CF_EMPTY, FIFO_STATE.DF_R_EMPTY*/
                        1264 --308:   WaitNFMA_Flags(instance, NFMA_FIFO_STATE, NFMA_RBF_CF_EMPTY);
00000378 1a30           1265 	mov	r26,r6
0000037a 203eb400       1266 	movea	180,zero,r7
0000037e 0442           1267 	mov	4,r8
                        1268 	jarl	_WaitNFMA_Flags,lp
                        1268 <EXPANSION BEGIN>
                        1268 jarl22 _WaitNFMA_Flags , lp 
00000380 bfff80fc*      1268 <EXPANSION END>
                        1269 --310:   /* STATUS.MEM_ST */
                        1270 --311:   WaitNFMA_Flags(instance, NFMA_STATUS, NFMA_RBF_MEM0_ST);
                        1271 --line311
                        1272 ..lin.C.3A.5Cgit.5Crh850.5Csrc.5Capp.5Cgfx_apps.5Csimple_draw.5Ctarget.5Cd1mx_mango_ghs.5Cobj.5Cr_nfma_bare.47::
                        1273 .LDWlin47:
00000384 1a30           1274 	mov	r26,r6
00000386 083a           1275 	mov	8,r7
00000388 0142           1276 	mov	1,r8
                        1277 	jarl	_WaitNFMA_Flags,lp
                        1277 <EXPANSION BEGIN>
                        1277 jarl22 _WaitNFMA_Flags , lp 
0000038a bfff76fc*      1277 <EXPANSION END>
                        1278 --313:   dataL = R_NFMA_READ_REG(32, NFMAn_BASE + NFMA_INT_STATUS);
                        1279 --line313
                        1280 ..lin.C.3A.5Cgit.5Crh850.5Csrc.5Capp.5Cgfx_apps.5Csimple_draw.5Ctarget.5Cd1mx_mango_ghs.5Cobj.5Cr_nfma_bare.48::
                        1281 .LDWlin48:
0000038e 3de71500       1282 	ld.w	20[r29],r28
                        1283 --314:   if (dataL & NFMA_RBF_TRANS_ERR_FL)
00000392 dc061000       1284 	andi	16,r28,zero
00000396 f205*          1285 	be	.L822
                        1286 --315:   {
                        1287 --316:     R_BSP_STDIO_Printf("NFMA Read Transfer Error");
                        1288 --line316
                        1289 ..lin.C.3A.5Cgit.5Crh850.5Csrc.5Capp.5Cgfx_apps.5Csimple_draw.5Ctarget.5Cd1mx_mango_ghs.5Cobj.5Cr_nfma_bare.49::
                        1290 .LDWlin49:
00000398 260600000000*  1291 	mov	.L1024,r6
                        1292 	jarl	_R_BSP_STDIO_Printf,lp
                        1292 <EXPANSION BEGIN>
                        1292 jarl22 _R_BSP_STDIO_Printf , lp 
0000039e 80ff0000*      1292 <EXPANSION END>
                        1293 --317:     goto NFMA_read;
                        1294 --line317
                        1295 ..lin.C.3A.5Cgit.5Crh850.5Csrc.5Capp.5Cgfx_apps.5Csimple_draw.5Ctarget.5Cd1mx_mango_ghs.5Cobj.5Cr_nfma_bare.50::
                        1296 .LDWlin50:
000003a2 e5bd*          1297 	br	.L821
                        1298 .L822:
                        1299 --318:   }

                                                                      Page 24
                                                              C:\Users\Frank\AppData\Local\Temp\gh_0000p101.si
                        1300 --320:   /* Read Data from FIFO */
                        1301 --321:   for (count = 0; count < read_config.RdCount; count++)
                        1302 --line321
                        1303 ..lin.C.3A.5Cgit.5Crh850.5Csrc.5Capp.5Cgfx_apps.5Csimple_draw.5Ctarget.5Cd1mx_mango_ghs.5Cobj.5Cr_nfma_bare.51::
                        1304 .LDWlin51:
000003a4 000a           1305 	mov	0,r1
000003a6 e50d*          1306 	br	.L828
                        1307 .L827:
                        1308 --322:   {
                        1309 --323:     while ((R_NFMA_READ_REG(32, NFMAn_BASE + NFMA_FIFO_STATE) & NFMA_RBF_DF_R_EMPTY) != 0)
                        1310 .L829:
                        1311 --324:     {
                        1312 --line323
                        1313 ..lin.C.3A.5Cgit.5Crh850.5Csrc.5Capp.5Cgfx_apps.5Csimple_draw.5Ctarget.5Cd1mx_mango_ghs.5Cobj.5Cr_nfma_bare.52::
                        1314 .LDWlin52:
000003a8 3d77b500       1315 	ld.w	180[r29],r14
000003ac 8172           1316 	shr	1,r14
000003ae d1fd*          1317 	bl	.L829
                        1318 --326:     }
                        1319 --327:     dataL = R_NFMA_READ_REG(32, NFMAn_BASE + NFMA_FIFO_DATA);
                        1320 --line327
                        1321 ..lin.C.3A.5Cgit.5Crh850.5Csrc.5Capp.5Cgfx_apps.5Csimple_draw.5Ctarget.5Cd1mx_mango_ghs.5Cobj.5Cr_nfma_bare.53::
                        1322 .LDWlin53:
000003b0 3de73900       1323 	ld.w	56[r29],r28
                        1324 --328:     *(read_config.RdData+count) = dataL;
000003b4 236f2100       1325 	ld.w	32[sp],r13
000003b8 01f0           1326 	mov	r1,ep
000003ba c2f2           1327 	shl	2,ep
000003bc cdf1           1328 	add	r13,ep
000003be 01e5           1329 	sst.w	r28,0[ep]
000003c0 410a           1330 	add	1,r1
                        1331 .L828:
000003c2 23771d00       1332 	ld.w	28[sp],r14
000003c6 ee09           1333 	cmp	r14,r1
000003c8 81f5*          1334 	bl	.L827
                        1335 --329:   }
                        1336 --331:   return 0x0;
                        1337 --line331
                        1338 ..lin.C.3A.5Cgit.5Crh850.5Csrc.5Capp.5Cgfx_apps.5Csimple_draw.5Ctarget.5Cd1mx_mango_ghs.5Cobj.5Cr_nfma_bare.54::
                        1339 .LDWlin54:
000003ca 0052           1340 	mov	0,r10
                        1341 .L816:
                        1342 --	    .ef
                        1343 .LDW03:
000003cc 23ff1100       1344 	ld.w	16[sp],lp
000003d0 23ef0100       1345 	ld.w	0[sp],r29
000003d4 23e70500       1346 	ld.w	4[sp],r28
000003d8 23df0900       1347 	ld.w	8[sp],r27
000003dc 23d70d00       1348 	ld.w	12[sp],r26
000003e0 031e2400       1349 	addi	36,sp,sp
000003e4 7f00           1350 	jmp	[lp]
                        1351 	.type	_R_NFMA_PageRead,@function
                        1352 	.size	_R_NFMA_PageRead,.-_R_NFMA_PageRead
                        1353 	.align	2
                        1354 .LDW13:
                        1355 --_NFMAn_BASE	r29	local
                        1356 --_dataL	r28	local
                        1357 --_count	r1	local
                        1358 --_page	r27	local
                        1359 --.L959	.L1024	static
                        1360 

                                                                      Page 25
                                                              C:\Users\Frank\AppData\Local\Temp\gh_0000p101.si
                        1361 --_instance	r26	param
                        1362 --_read_config	24[sp]	param
                        1363 
                        1364 	.section ".bss","awb"
                        1365 .L958:
                        1366 	.type	.L958,@object
                        1367 	.size	.L958,0
                        1368 	.section ".rodata","a"
                        1369 .L1024:--	"NFMA Read Transfer Error"
00000370 4e464d41       1370 	.byte	78,70,77,65
00000374 20526561       1371 	.byte	32,82,101,97
00000378 64205472       1372 	.byte	100,32,84,114
0000037c 616e7366       1373 	.byte	97,110,115,102
00000380 65722045       1374 	.byte	101,114,32,69
00000384 72726f72       1375 	.byte	114,114,111,114
00000388 00             1376 	.byte	0
                        1377 	.type	.L1024,@object
                        1378 	.size	.L1024,25
                        1379 	.data
                        1380 	.text
                        1381 
                        1382 --332: }
                        1383 
                        1384 --335: uint8_t R_NFMA_PageRead_Dma(uint32_t instance, r_nfma_read_param_t read_config)
                        1385 	.align	2
                        1386 	.align	2
                        1387 	.global	_R_NFMA_PageRead_Dma
                        1388 _R_NFMA_PageRead_Dma:
000003e6 031ee0ff       1389 	addi	-32,sp,sp
000003ea 634f1d00       1390 	st.w	r9,28[sp]
000003ee 63471900       1391 	st.w	r8,24[sp]
000003f2 633f1500       1392 	st.w	r7,20[sp]
000003f6 63ff0d00       1393 	st.w	lp,12[sp]
000003fa 63df0900       1394 	st.w	r27,8[sp]
000003fe 63e70500       1395 	st.w	r28,4[sp]
00000402 06d8           1396 	mov	r6,r27
00000404 63ef0100       1397 	st.w	r29,0[sp]
                        1398 --	    .bf
                        1399 .LDW23:
                        1400 --336: {
                        1401 --337:   uint32_t NFMAn_BASE;
                        1402 --338:   uint32_t page;
                        1403 --340:   NFMAn_BASE = R_SYS_NFMA_GetBaseAddr(instance);
00000408 1b30           1404 	mov	r27,r6
                        1405 	jarl	_R_SYS_NFMA_GetBaseAddr,lp
                        1405 <EXPANSION BEGIN>
                        1405 jarl22 _R_SYS_NFMA_GetBaseAddr , lp 
0000040a 80ff0000*      1405 <EXPANSION END>
0000040e 0ae8           1406 	mov	r10,r29
                        1407 --342:   if( 1>read_config.RdCount ) return 0x1;
                        1408 --line342
                        1409 ..lin.C.3A.5Cgit.5Crh850.5Csrc.5Capp.5Cgfx_apps.5Csimple_draw.5Ctarget.5Cd1mx_mango_ghs.5Cobj.5Cr_nfma_bare.55::
                        1410 .LDWlin55:
00000410 230f1900       1411 	ld.w	24[sp],r1
00000414 610a           1412 	cmp	1,r1
00000416 b905*          1413 	bnl	.L1058
                        1414 --line342
                        1415 ..lin.C.3A.5Cgit.5Crh850.5Csrc.5Capp.5Cgfx_apps.5Csimple_draw.5Ctarget.5Cd1mx_mango_ghs.5Cobj.5Cr_nfma_bare.56::
                        1416 .LDWlin56:
00000418 0152           1417 	mov	1,r10
0000041a c545*          1418 	br	.L1056

                                                                      Page 26
                                                              C:\Users\Frank\AppData\Local\Temp\gh_0000p101.si
                        1419 .L1058:
                        1420 --344:   /* Clear and mask all interrupts */
                        1421 --345:   R_NFMA_WRITE_REG(32, NFMAn_BASE + NFMA_INT_STATUS, 0x0);
                        1422 --line345
                        1423 ..lin.C.3A.5Cgit.5Crh850.5Csrc.5Capp.5Cgfx_apps.5Csimple_draw.5Ctarget.5Cd1mx_mango_ghs.5Cobj.5Cr_nfma_bare.57::
                        1424 .LDWlin57:
0000041c 7d071500       1425 	st.w	zero,20[r29]
                        1426 --346:   R_NFMA_WRITE_REG(32, NFMAn_BASE + NFMA_INT_MASK, 0x0);
00000420 7d071100       1427 	st.w	zero,16[r29]
                        1428 --348:   R_NFMA_WRITE_REG(32, NFMAn_BASE + NFMA_FIFO_INIT, 0x1);
00000424 010a           1429 	mov	1,r1
00000426 7d0fb100       1430 	st.w	r1,176[r29]
                        1431 --349:   WaitNFMA_Flags(instance, NFMA_FIFO_STATE, NFMA_RBF_DF_W_EMPTY);
0000042a 1b30           1432 	mov	r27,r6
0000042c 203eb400       1433 	movea	180,zero,r7
00000430 20468000       1434 	movea	128,zero,r8
                        1435 	jarl	_WaitNFMA_Flags,lp
                        1435 <EXPANSION BEGIN>
                        1435 jarl22 _WaitNFMA_Flags , lp 
00000434 bfffccfb*      1435 <EXPANSION END>
                        1436 --351:   /* write ADDR0_COL , write ADDR0_ROW */
                        1437 --352:   page = (read_config.AccessAddr * 4 / NFMA_PAGE_SIZE_BYTE);
                        1438 --line352
                        1439 ..lin.C.3A.5Cgit.5Crh850.5Csrc.5Capp.5Cgfx_apps.5Csimple_draw.5Ctarget.5Cd1mx_mango_ghs.5Cobj.5Cr_nfma_bare.58::
                        1440 .LDWlin58:
00000438 230f1500       1441 	ld.w	20[sp],r1
0000043c c20a           1442 	shl	2,r1
0000043e 01e0           1443 	mov	r1,r28
00000440 8be2           1444 	shr	11,r28
                        1445 --353:   R_NFMA_WRITE_REG(32, NFMAn_BASE + NFMA_ADDR0_ROW, (page & NFMA_MASK_ROW_PAGE_NO));
00000442 2106ffff0300   1446 	mov	262143,r1
00000448 5c09           1447 	and	r28,r1
0000044a 7d0f2900       1448 	st.w	r1,40[r29]
                        1449 --354:   R_NFMA_WRITE_REG(32, NFMAn_BASE + NFMA_ADDR0_COL, (read_config.AccessAddr & NFMA_MASK_COL_PAGE_SIZE));
0000044e 230f1500       1450 	ld.w	20[sp],r1
00000452 c10eff01       1451 	andi	511,r1,r1
00000456 7d0f2500       1452 	st.w	r1,36[r29]
                        1453 --356:   /* Write the Number of Required Bytes */
                        1454 --357:   R_NFMA_WRITE_REG(32, NFMAn_BASE + NFMA_DATA_SIZE, (read_config.RdCount * 4));
0000045a 230f1900       1455 	ld.w	24[sp],r1
0000045e c20a           1456 	shl	2,r1
00000460 7d0f8500       1457 	st.w	r1,132[r29]
                        1458 --359:   /* write MEM_CTRL */
                        1459 --360:   R_NFMA_WRITE_REG(32, NFMAn_BASE + NFMA_MEM_CTRL, 0x0|(0x1<<NFMA_RBFO_MEM0_WP));
00000464 200e0001       1460 	movea	256,zero,r1
00000468 7d0f8100       1461 	st.w	r1,128[r29]
                        1462 --362:   /* setup DMA */
                        1463 --363:   /* Write the address of the first descriptor to the DMA_ADDR register.
                        1464 --364:      And the size of data to be transfered to the DMA_CNT register. */
                        1465 --365:   R_NFMA_WRITE_REG(32, NFMAn_BASE + NFMA_DMA_ADDR_H, 0x0);
0000046c 7d076900       1466 	st.w	zero,104[r29]
                        1467 --366:   R_NFMA_WRITE_REG(32, NFMAn_BASE + NFMA_DMA_ADDR_L, (uint32_t)read_config.RdData);
00000470 230f1d00       1468 	ld.w	28[sp],r1
00000474 7d0f6500       1469 	st.w	r1,100[r29]
                        1470 --367:   R_NFMA_WRITE_REG(32, NFMAn_BASE + NFMA_DMA_CNT,    (read_config.RdCount * 4));
00000478 230f1900       1471 	ld.w	24[sp],r1
0000047c c20a           1472 	shl	2,r1
0000047e 7d0f6d00       1473 	st.w	r1,108[r29]
                        1474 --368:   /* Set DMA_START bit to start DMA when the command sequence
                        1475 --369:      is sent to the NAND Flash memory.
                        1476 --370:      mode: register managed mode / single transfer(addr inc) */

                                                                      Page 27
                                                              C:\Users\Frank\AppData\Local\Temp\gh_0000p101.si
                        1477 --371:   R_NFMA_WRITE_REG(32, NFMAn_BASE + NFMA_DMA_CTRL,   0x88);
00000482 200e8800       1478 	movea	136,zero,r1
00000486 7d0f7100       1479 	st.w	r1,112[r29]
                        1480 --373:   /* Read PAGE COMMAND 0x3000002A, but w/ DMA -> 0x3000006A */
                        1481 --374:   R_NFMA_WRITE_REG(32, NFMAn_BASE + NFMA_COMMAND, 0x3000006A);
0000048a 21066a000030   1482 	mov	805306474,r1
00000490 7d0f0100       1483 	st.w	r1,0[r29]
                        1484 --376:   /* When the controller is ready for further work,
                        1485 --377:      the appropriate DMA_INT_FL bit is set and the interrupt is activated. */
                        1486 --378:   WaitNFMA_Flags(instance, NFMA_INT_STATUS, NFMA_INTSTAT_DMA_INT_FL);
00000494 1b30           1487 	mov	r27,r6
00000496 203e1400       1488 	movea	20,zero,r7
0000049a 0842           1489 	mov	8,r8
                        1490 	jarl	_WaitNFMA_Flags,lp
                        1490 <EXPANSION BEGIN>
                        1490 jarl22 _WaitNFMA_Flags , lp 
0000049c bfff64fb*      1490 <EXPANSION END>
                        1491 --380:   return 0x0;
                        1492 --line380
                        1493 ..lin.C.3A.5Cgit.5Crh850.5Csrc.5Capp.5Cgfx_apps.5Csimple_draw.5Ctarget.5Cd1mx_mango_ghs.5Cobj.5Cr_nfma_bare.59::
                        1494 .LDWlin59:
000004a0 0052           1495 	mov	0,r10
                        1496 .L1056:
                        1497 --	    .ef
                        1498 .LDW33:
000004a2 23ff0d00       1499 	ld.w	12[sp],lp
000004a6 23ef0100       1500 	ld.w	0[sp],r29
000004aa 23e70500       1501 	ld.w	4[sp],r28
000004ae 23df0900       1502 	ld.w	8[sp],r27
000004b2 031e2000       1503 	addi	32,sp,sp
000004b6 7f00           1504 	jmp	[lp]
                        1505 	.type	_R_NFMA_PageRead_Dma,@function
                        1506 	.size	_R_NFMA_PageRead_Dma,.-_R_NFMA_PageRead_Dma
                        1507 	.align	2
                        1508 .LDW43:
                        1509 --_NFMAn_BASE	r29	local
                        1510 --_page	r28	local
                        1511 
                        1512 --_instance	r27	param
                        1513 --_read_config	20[sp]	param
                        1514 
                        1515 	.section ".bss","awb"
                        1516 .L1158:
                        1517 	.type	.L1158,@object
                        1518 	.size	.L1158,0
                        1519 	.data
                        1520 	.text
                        1521 
                        1522 --381: }
                        1523 
                        1524 --385: uint8_t R_NFMA_Read(uint32_t instance, r_nfma_read_param_t read_config)
                        1525 	.align	2
                        1526 	.align	2
                        1527 	.global	_R_NFMA_Read
                        1528 _R_NFMA_Read:
000004b8 031ed4ff       1529 	addi	-44,sp,sp
000004bc 634f2900       1530 	st.w	r9,40[sp]
000004c0 63472500       1531 	st.w	r8,36[sp]
000004c4 633f2100       1532 	st.w	r7,32[sp]
000004c8 63ff1900       1533 	st.w	lp,24[sp]
000004cc 63df1500       1534 	st.w	r27,20[sp]

                                                                      Page 28
                                                              C:\Users\Frank\AppData\Local\Temp\gh_0000p101.si
000004d0 63e71100       1535 	st.w	r28,16[sp]
000004d4 06d8           1536 	mov	r6,r27
000004d6 63ef0d00       1537 	st.w	r29,12[sp]
                        1538 --	    .bf
                        1539 .LDW53:
                        1540 --386: {
                        1541 --387:     r_nfma_read_param_t page_read_config;
                        1542 --388:     uint32_t byteCount = 0;
000004da 00ea           1543 	mov	0,r29
                        1544 --389:     uint32_t err = 0;
000004dc 00e2           1545 	mov	0,r28
                        1546 --390:     
                        1547 --391:     /* Error check: Access Address to be aligned to one Page */
                        1548 --392:     if ((read_config.AccessAddr % NFMA_PAGE_SIZE_BYTE) != 0x0)
000004de 230f2100       1549 	ld.w	32[sp],r1
000004e2 d50a           1550 	shl	21,r1
000004e4 a205*          1551 	be	.L1226
                        1552 --393:     {
                        1553 --394:         /* Access Address is not aligned to one Page */
                        1554 --395:         err = 1;
                        1555 --line395
                        1556 ..lin.C.3A.5Cgit.5Crh850.5Csrc.5Capp.5Cgfx_apps.5Csimple_draw.5Ctarget.5Cd1mx_mango_ghs.5Cobj.5Cr_nfma_bare.60::
                        1557 .LDWlin60:
000004e6 01e2           1558 	mov	1,r28
                        1559 .L1226:
                        1560 --396:     }    
                        1561 --397:     
                        1562 --398:     /* Slit read data request into page read requests
                        1563 --399:         and process page read requests one after each other. */
                        1564 --400:     while (byteCount < read_config.RdCount)
000004e8 d535*          1565 	br	.L1228
                        1566 .L1230:
                        1567 --401:     {
                        1568 --402:         page_read_config.AccessAddr = (read_config.AccessAddr + byteCount/4);
                        1569 --line402
                        1570 ..lin.C.3A.5Cgit.5Crh850.5Csrc.5Capp.5Cgfx_apps.5Csimple_draw.5Ctarget.5Cd1mx_mango_ghs.5Cobj.5Cr_nfma_bare.61::
                        1571 .LDWlin61:
000004ea 23772100       1572 	ld.w	32[sp],r14
000004ee 1d08           1573 	mov	r29,r1
000004f0 820a           1574 	shr	2,r1
000004f2 ce09           1575 	add	r14,r1
000004f4 630f0100       1576 	st.w	r1,0[sp]
                        1577 --403:         page_read_config.RdData     = (read_config.RdData + byteCount/4);
000004f8 23772900       1578 	ld.w	40[sp],r14
000004fc 1d08           1579 	mov	r29,r1
000004fe 820a           1580 	shr	2,r1
00000500 c20a           1581 	shl	2,r1
00000502 ce09           1582 	add	r14,r1
00000504 630f0900       1583 	st.w	r1,8[sp]
                        1584 --404:         if ((read_config.RdCount - byteCount) > (NFMA_PAGE_SIZE_BYTE))
00000508 230f2500       1585 	ld.w	36[sp],r1
0000050c bd09           1586 	sub	r29,r1
0000050e 0106fff7       1587 	addi	-2049,r1,zero
00000512 e905*          1588 	bnl	.L1231
                        1589 --405:         {
                        1590 --406:             page_read_config.RdCount    = (NFMA_PAGE_SIZE_BYTE/4);
                        1591 --line406
                        1592 ..lin.C.3A.5Cgit.5Crh850.5Csrc.5Capp.5Cgfx_apps.5Csimple_draw.5Ctarget.5Cd1mx_mango_ghs.5Cobj.5Cr_nfma_bare.62::
                        1593 .LDWlin62:
00000514 200e0002       1594 	movea	512,zero,r1
00000518 630f0500       1595 	st.w	r1,4[sp]

                                                                      Page 29
                                                              C:\Users\Frank\AppData\Local\Temp\gh_0000p101.si
0000051c f505*          1596 	br	.L1233
                        1597 .L1231:
                        1598 --407:         } else {
                        1599 --408:             page_read_config.RdCount    = ((read_config.RdCount - byteCount)/4);
                        1600 --line408
                        1601 ..lin.C.3A.5Cgit.5Crh850.5Csrc.5Capp.5Cgfx_apps.5Csimple_draw.5Ctarget.5Cd1mx_mango_ghs.5Cobj.5Cr_nfma_bare.63::
                        1602 .LDWlin63:
0000051e 230f2500       1603 	ld.w	36[sp],r1
00000522 bd09           1604 	sub	r29,r1
00000524 820a           1605 	shr	2,r1
00000526 630f0500       1606 	st.w	r1,4[sp]
                        1607 .L1233:
                        1608 --409:         }
                        1609 --410:         
                        1610 --411:         err = R_NFMA_PageRead(instance, page_read_config);
0000052a 23f60000       1611 	movea	0,sp,ep
0000052e 1b30           1612 	mov	r27,r6
00000530 003d           1613 	sld.w	0[ep],r7
00000532 a30749400000   1614 	ld.dw	4[sp],r8
                        1615 	jarl	_R_NFMA_PageRead,lp
                        1615 <EXPANSION BEGIN>
                        1615 jarl22 _R_NFMA_PageRead , lp 
00000538 bfffacfd*      1615 <EXPANSION END>
0000053c 0ae0           1616 	mov	r10,r28
                        1617 --412:         if (0 != err)
                        1618 --line412
                        1619 ..lin.C.3A.5Cgit.5Crh850.5Csrc.5Capp.5Cgfx_apps.5Csimple_draw.5Ctarget.5Cd1mx_mango_ghs.5Cobj.5Cr_nfma_bare.64::
                        1620 .LDWlin64:
0000053e e0e1           1621 	cmp	zero,r28
00000540 d205*          1622 	be	.L1234
                        1623 --413:         {
                        1624 --414:             return err;
                        1625 --line414
                        1626 ..lin.C.3A.5Cgit.5Crh850.5Csrc.5Capp.5Cgfx_apps.5Csimple_draw.5Ctarget.5Cd1mx_mango_ghs.5Cobj.5Cr_nfma_bare.65::
                        1627 .LDWlin65:
00000542 1c08           1628 	mov	r28,r1
00000544 8100           1629 	zxb	r1
00000546 0150           1630 	mov	r1,r10
00000548 8525*          1631 	br	.L1224
                        1632 .L1234:
                        1633 --415:         }
                        1634 --416:         
                        1635 --417:         byteCount += (page_read_config.RdCount * 4);
                        1636 --line417
                        1637 ..lin.C.3A.5Cgit.5Crh850.5Csrc.5Capp.5Cgfx_apps.5Csimple_draw.5Ctarget.5Cd1mx_mango_ghs.5Cobj.5Cr_nfma_bare.66::
                        1638 .LDWlin66:
0000054a 230f0500       1639 	ld.w	4[sp],r1
0000054e c20a           1640 	shl	2,r1
00000550 c1e9           1641 	add	r1,r29
                        1642 .L1228:
00000552 230f2500       1643 	ld.w	36[sp],r1
00000556 e1e9           1644 	cmp	r1,r29
00000558 91cd*          1645 	bl	.L1230
                        1646 --418:     }
                        1647 --419:     
                        1648 --420:     /* Error check: Number of read data */
                        1649 --421:     page_read_config.RdData     = (read_config.RdData + byteCount/4);
                        1650 --line421
                        1651 ..lin.C.3A.5Cgit.5Crh850.5Csrc.5Capp.5Cgfx_apps.5Csimple_draw.5Ctarget.5Cd1mx_mango_ghs.5Cobj.5Cr_nfma_bare.67::
                        1652 .LDWlin67:
0000055a 23772900       1653 	ld.w	40[sp],r14

                                                                      Page 30
                                                              C:\Users\Frank\AppData\Local\Temp\gh_0000p101.si
0000055e 1d08           1654 	mov	r29,r1
00000560 820a           1655 	shr	2,r1
00000562 c20a           1656 	shl	2,r1
00000564 ce09           1657 	add	r14,r1
00000566 630f0900       1658 	st.w	r1,8[sp]
                        1659 --422:     if (page_read_config.RdData != (read_config.RdData + read_config.RdCount/4))
0000056a 230f2500       1660 	ld.w	36[sp],r1
0000056e 23772900       1661 	ld.w	40[sp],r14
00000572 820a           1662 	shr	2,r1
00000574 c20a           1663 	shl	2,r1
00000576 ce09           1664 	add	r14,r1
00000578 23770900       1665 	ld.w	8[sp],r14
0000057c e171           1666 	cmp	r1,r14
0000057e a205*          1667 	be	.L1237
                        1668 --423:     {
                        1669 --424:         /* Size of read data does not match to read data size request.  */
                        1670 --425:         err = 1;
                        1671 --line425
                        1672 ..lin.C.3A.5Cgit.5Crh850.5Csrc.5Capp.5Cgfx_apps.5Csimple_draw.5Ctarget.5Cd1mx_mango_ghs.5Cobj.5Cr_nfma_bare.68::
                        1673 .LDWlin68:
00000580 01e2           1674 	mov	1,r28
                        1675 .L1237:
                        1676 --426:     }
                        1677 --427:     
                        1678 --428:     return err;
00000582 1c08           1679 	mov	r28,r1
00000584 8100           1680 	zxb	r1
00000586 0150           1681 	mov	r1,r10
                        1682 .L1224:
                        1683 --	    .ef
                        1684 .LDW63:
00000588 23ff1900       1685 	ld.w	24[sp],lp
0000058c 23ef0d00       1686 	ld.w	12[sp],r29
00000590 23e71100       1687 	ld.w	16[sp],r28
00000594 23df1500       1688 	ld.w	20[sp],r27
00000598 031e2c00       1689 	addi	44,sp,sp
0000059c 7f00           1690 	jmp	[lp]
                        1691 	.type	_R_NFMA_Read,@function
                        1692 	.size	_R_NFMA_Read,.-_R_NFMA_Read
                        1693 	.align	2
                        1694 .LDW73:
                        1695 --_page_read_config	0[sp]	local
                        1696 --_byteCount	r29	local
                        1697 --_err	r28	local
                        1698 
                        1699 --_instance	r27	param
                        1700 --_read_config	32[sp]	param
                        1701 
                        1702 	.section ".bss","awb"
                        1703 .L1338:
                        1704 	.type	.L1338,@object
                        1705 	.size	.L1338,0
                        1706 	.data
                        1707 	.text
                        1708 
                        1709 --429: }
                        1710 
                        1711 --432: uint8_t R_NFMA_Read_Dma(uint32_t instance, r_nfma_read_param_t read_config)
                        1712 	.align	2
                        1713 	.align	2
                        1714 	.global	_R_NFMA_Read_Dma

                                                                      Page 31
                                                              C:\Users\Frank\AppData\Local\Temp\gh_0000p101.si
                        1715 _R_NFMA_Read_Dma:
0000059e 031ed4ff       1716 	addi	-44,sp,sp
000005a2 634f2900       1717 	st.w	r9,40[sp]
000005a6 63472500       1718 	st.w	r8,36[sp]
000005aa 633f2100       1719 	st.w	r7,32[sp]
000005ae 63ff1900       1720 	st.w	lp,24[sp]
000005b2 63df1500       1721 	st.w	r27,20[sp]
000005b6 63e71100       1722 	st.w	r28,16[sp]
000005ba 06d8           1723 	mov	r6,r27
000005bc 63ef0d00       1724 	st.w	r29,12[sp]
                        1725 --	    .bf
                        1726 .LDW83:
                        1727 --433: {
                        1728 --434:     r_nfma_read_param_t page_read_config;
                        1729 --435:     uint32_t byteCount = 0;
000005c0 00ea           1730 	mov	0,r29
                        1731 --436:     uint32_t err = 0;
000005c2 00e2           1732 	mov	0,r28
                        1733 --437:     
                        1734 --438:     /* Error check: Access Address to be aligned to one Page */
                        1735 --439:     if ((read_config.AccessAddr % NFMA_PAGE_SIZE_BYTE) != 0x0)
000005c4 230f2100       1736 	ld.w	32[sp],r1
000005c8 d50a           1737 	shl	21,r1
000005ca a205*          1738 	be	.L1409
                        1739 --440:     {
                        1740 --441:         /* Access Address is not aligned to one Page */
                        1741 --442:         err = 1;
                        1742 --line442
                        1743 ..lin.C.3A.5Cgit.5Crh850.5Csrc.5Capp.5Cgfx_apps.5Csimple_draw.5Ctarget.5Cd1mx_mango_ghs.5Cobj.5Cr_nfma_bare.69::
                        1744 .LDWlin69:
000005cc 01e2           1745 	mov	1,r28
                        1746 .L1409:
                        1747 --443:     }    
                        1748 --444:     
                        1749 --445:     /* Slit read data request into page read requests
                        1750 --446:         and process page read requests one after each other. */
                        1751 --447:     while (byteCount < read_config.RdCount)
000005ce d535*          1752 	br	.L1411
                        1753 .L1413:
                        1754 --448:     {
                        1755 --449:         page_read_config.AccessAddr = (read_config.AccessAddr + byteCount/4);
                        1756 --line449
                        1757 ..lin.C.3A.5Cgit.5Crh850.5Csrc.5Capp.5Cgfx_apps.5Csimple_draw.5Ctarget.5Cd1mx_mango_ghs.5Cobj.5Cr_nfma_bare.70::
                        1758 .LDWlin70:
000005d0 23772100       1759 	ld.w	32[sp],r14
000005d4 1d08           1760 	mov	r29,r1
000005d6 820a           1761 	shr	2,r1
000005d8 ce09           1762 	add	r14,r1
000005da 630f0100       1763 	st.w	r1,0[sp]
                        1764 --450:         page_read_config.RdData     = (read_config.RdData + byteCount/4);
000005de 23772900       1765 	ld.w	40[sp],r14
000005e2 1d08           1766 	mov	r29,r1
000005e4 820a           1767 	shr	2,r1
000005e6 c20a           1768 	shl	2,r1
000005e8 ce09           1769 	add	r14,r1
000005ea 630f0900       1770 	st.w	r1,8[sp]
                        1771 --451:         if ((read_config.RdCount - byteCount) > (NFMA_PAGE_SIZE_BYTE))
000005ee 230f2500       1772 	ld.w	36[sp],r1
000005f2 bd09           1773 	sub	r29,r1
000005f4 0106fff7       1774 	addi	-2049,r1,zero
000005f8 e905*          1775 	bnl	.L1414

                                                                      Page 32
                                                              C:\Users\Frank\AppData\Local\Temp\gh_0000p101.si
                        1776 --452:         {
                        1777 --453:             page_read_config.RdCount    = (NFMA_PAGE_SIZE_BYTE/4);
                        1778 --line453
                        1779 ..lin.C.3A.5Cgit.5Crh850.5Csrc.5Capp.5Cgfx_apps.5Csimple_draw.5Ctarget.5Cd1mx_mango_ghs.5Cobj.5Cr_nfma_bare.71::
                        1780 .LDWlin71:
000005fa 200e0002       1781 	movea	512,zero,r1
000005fe 630f0500       1782 	st.w	r1,4[sp]
00000602 f505*          1783 	br	.L1416
                        1784 .L1414:
                        1785 --454:         } else {
                        1786 --455:             page_read_config.RdCount    = ((read_config.RdCount - byteCount)/4);
                        1787 --line455
                        1788 ..lin.C.3A.5Cgit.5Crh850.5Csrc.5Capp.5Cgfx_apps.5Csimple_draw.5Ctarget.5Cd1mx_mango_ghs.5Cobj.5Cr_nfma_bare.72::
                        1789 .LDWlin72:
00000604 230f2500       1790 	ld.w	36[sp],r1
00000608 bd09           1791 	sub	r29,r1
0000060a 820a           1792 	shr	2,r1
0000060c 630f0500       1793 	st.w	r1,4[sp]
                        1794 .L1416:
                        1795 --456:         }
                        1796 --457:         
                        1797 --458:         err = R_NFMA_PageRead_Dma(instance, page_read_config);
00000610 23f60000       1798 	movea	0,sp,ep
00000614 1b30           1799 	mov	r27,r6
00000616 003d           1800 	sld.w	0[ep],r7
00000618 a30749400000   1801 	ld.dw	4[sp],r8
                        1802 	jarl	_R_NFMA_PageRead_Dma,lp
                        1802 <EXPANSION BEGIN>
                        1802 jarl22 _R_NFMA_PageRead_Dma , lp 
0000061e bfffc8fd*      1802 <EXPANSION END>
00000622 0ae0           1803 	mov	r10,r28
                        1804 --459:         if (0 != err)
                        1805 --line459
                        1806 ..lin.C.3A.5Cgit.5Crh850.5Csrc.5Capp.5Cgfx_apps.5Csimple_draw.5Ctarget.5Cd1mx_mango_ghs.5Cobj.5Cr_nfma_bare.73::
                        1807 .LDWlin73:
00000624 e0e1           1808 	cmp	zero,r28
00000626 d205*          1809 	be	.L1417
                        1810 --460:         {
                        1811 --461:             return err;
                        1812 --line461
                        1813 ..lin.C.3A.5Cgit.5Crh850.5Csrc.5Capp.5Cgfx_apps.5Csimple_draw.5Ctarget.5Cd1mx_mango_ghs.5Cobj.5Cr_nfma_bare.74::
                        1814 .LDWlin74:
00000628 1c08           1815 	mov	r28,r1
0000062a 8100           1816 	zxb	r1
0000062c 0150           1817 	mov	r1,r10
0000062e 8525*          1818 	br	.L1407
                        1819 .L1417:
                        1820 --462:         }
                        1821 --463:         
                        1822 --464:         byteCount += (page_read_config.RdCount * 4);
                        1823 --line464
                        1824 ..lin.C.3A.5Cgit.5Crh850.5Csrc.5Capp.5Cgfx_apps.5Csimple_draw.5Ctarget.5Cd1mx_mango_ghs.5Cobj.5Cr_nfma_bare.75::
                        1825 .LDWlin75:
00000630 230f0500       1826 	ld.w	4[sp],r1
00000634 c20a           1827 	shl	2,r1
00000636 c1e9           1828 	add	r1,r29
                        1829 .L1411:
00000638 230f2500       1830 	ld.w	36[sp],r1
0000063c e1e9           1831 	cmp	r1,r29
0000063e 91cd*          1832 	bl	.L1413
                        1833 --465:     }

                                                                      Page 33
                                                              C:\Users\Frank\AppData\Local\Temp\gh_0000p101.si
                        1834 --466:     
                        1835 --467:     /* Error check: Number of read data */
                        1836 --468:     page_read_config.RdData     = (read_config.RdData + byteCount/4);
                        1837 --line468
                        1838 ..lin.C.3A.5Cgit.5Crh850.5Csrc.5Capp.5Cgfx_apps.5Csimple_draw.5Ctarget.5Cd1mx_mango_ghs.5Cobj.5Cr_nfma_bare.76::
                        1839 .LDWlin76:
00000640 23772900       1840 	ld.w	40[sp],r14
00000644 1d08           1841 	mov	r29,r1
00000646 820a           1842 	shr	2,r1
00000648 c20a           1843 	shl	2,r1
0000064a ce09           1844 	add	r14,r1
0000064c 630f0900       1845 	st.w	r1,8[sp]
                        1846 --469:     if (page_read_config.RdData != (read_config.RdData + read_config.RdCount/4))
00000650 230f2500       1847 	ld.w	36[sp],r1
00000654 23772900       1848 	ld.w	40[sp],r14
00000658 820a           1849 	shr	2,r1
0000065a c20a           1850 	shl	2,r1
0000065c ce09           1851 	add	r14,r1
0000065e 23770900       1852 	ld.w	8[sp],r14
00000662 e171           1853 	cmp	r1,r14
00000664 a205*          1854 	be	.L1420
                        1855 --470:     {
                        1856 --471:         /* Size of read data does not match to read data size request.  */
                        1857 --472:         err = 1;
                        1858 --line472
                        1859 ..lin.C.3A.5Cgit.5Crh850.5Csrc.5Capp.5Cgfx_apps.5Csimple_draw.5Ctarget.5Cd1mx_mango_ghs.5Cobj.5Cr_nfma_bare.77::
                        1860 .LDWlin77:
00000666 01e2           1861 	mov	1,r28
                        1862 .L1420:
                        1863 --473:     }
                        1864 --474:     
                        1865 --475:     return err;
00000668 1c08           1866 	mov	r28,r1
0000066a 8100           1867 	zxb	r1
0000066c 0150           1868 	mov	r1,r10
                        1869 .L1407:
                        1870 --	    .ef
                        1871 .LDW93:
0000066e 23ff1900       1872 	ld.w	24[sp],lp
00000672 23ef0d00       1873 	ld.w	12[sp],r29
00000676 23e71100       1874 	ld.w	16[sp],r28
0000067a 23df1500       1875 	ld.w	20[sp],r27
0000067e 031e2c00       1876 	addi	44,sp,sp
00000682 7f00           1877 	jmp	[lp]
                        1878 	.type	_R_NFMA_Read_Dma,@function
                        1879 	.size	_R_NFMA_Read_Dma,.-_R_NFMA_Read_Dma
                        1880 	.align	2
                        1881 .LDW04:
                        1882 --_page_read_config	0[sp]	local
                        1883 --_byteCount	r29	local
                        1884 --_err	r28	local
                        1885 
                        1886 --_instance	r27	param
                        1887 --_read_config	32[sp]	param
                        1888 
                        1889 	.section ".bss","awb"
                        1890 .L1514:
                        1891 	.type	.L1514,@object
                        1892 	.size	.L1514,0
                        1893 	.data
                        1894 	.text

                                                                      Page 34
                                                              C:\Users\Frank\AppData\Local\Temp\gh_0000p101.si
                        1895 
                        1896 --476: }
                        1897 	.align	2
                        1898 --_timing_modes	_timing_modes	static
                        1899 
                        1900 	.data
                        1901 	.ghsnote version,15
                        1902 	.ghsnote tools,3
                        1903 	.ghsnote options,144
                        1904 	.text
                        1905 	.align	2
                        1906 ..eof.C.3A.5Cgit.5Crh850.5Csrc.5Capp.5Cgfx_apps.5Csimple_draw.5Ctarget.5Cd1mx_mango_ghs.5Cobj.5Cr_nfma_bare...43.3A.5Cgit.5Crh850.5Csrc.5Capp.5Cgfx_apps.5Csimple_draw.5Ctarget.5Cd1mx_mango_ghs..5BC5D026..0::
                        1907 .rh850_flags REGMODE22,DATA_ALIGN8,GP_FIX,EP_NONFIX,TP_FIX,REG2_RESERVE,G3M
