                                                                      Page 1
                                                              C:\Users\Frank\AppData\Local\Temp\gh_0000pt81.si
Command Line: C:\GHS\V800.V2014.1.7\comp_201417\ease850.exe -w -elf -b0 -I../../../../../app/common/dhd -I../../../../../app/gfx_apps/simple_draw/src -I../../../../../app/gfx_apps/simple_draw/lib -I../../../../../bsp/board//config -I../../../../../bsp/board//src/gfx -I../../../../../bsp/board//src/hmi -I../../../../../bsp/board//src/stdio -I../../../../../bsp/board/d1mx_mango/config -I../../../../../bsp/board/d1mx_mango/src -I../../../../../bsp/board/d1mx_mango/src/gfx -I../../../../../bsp/board/d1mx_mango/src/hmi -I../../../../../bsp/board/d1mx_mango/src/stdio -I../../../../../bsp/gfx/lib -I../../../../../bsp/gfx/src -I../../../../../bsp/hmi/lib -I../../../../../bsp/hmi/src -I../../../../../bsp/lib -I../../../../../bsp/stdio/lib -I../../../../../bsp/stdio/src -I../../../../../cdi/lib -I../../../../../cdi/src -I../../../../../compiler/rh850_ghs/inc -I../../../../../device/d1mx/lib -I../../../../../device/d1mx/macro_cfg -I../../../../../device/d1mx/macro_cfg/csisw -I../../../../../device/d1mx/macro_cfg/davehd -I../../../../../device/d1mx/macro_cfg/ddb -I../../../../../device/d1mx/macro_cfg/drw2d -I../../../../../device/d1mx/macro_cfg/gfxbus -I../../../../../device/d1mx/macro_cfg/gpio -I../../../../../device/d1mx/macro_cfg/hypb -I../../../../../device/d1mx/macro_cfg/hypdb -I../../../../../device/d1mx/macro_cfg/jcua -I../../../../../device/d1mx/macro_cfg/nfmabare -I../../../../../device/d1mx/macro_cfg/octa -I../../../../../device/d1mx/macro_cfg/octacdb -I../../../../../device/d1mx/macro_cfg/ostm -I../../../../../device/d1mx/macro_cfg/pbg -I../../../../../device/d1mx/macro_cfg/riic -I../../../../../device/d1mx/macro_cfg/sfcdb -I../../../../../device/d1mx/macro_cfg/sfma -I../../../../../device/d1mx/macro_cfg/spea -I../../../../../device/d1mx/macro_cfg/tauj -I../../../../../device/d1mx/macro_cfg/tick -I../../../../../device/d1mx/macro_cfg/vdce -I../../../../../device/d1mx/macro_cfg/vowe -I../../../../../device/d1mx/macro_cfg/wm -I../../../../../device/d1mx/macro_cfg/xbus -I../../../../../device/d1mx/src/dev -I../../../../../device/d1mx/src/dhd -I../../../../../device/d1mx/src/hypb -I../../../../../device/d1mx/src/jcua -I../../../../../device/d1mx/src/nfmabare -I../../../../../device/d1mx/src/octa -I../../../../../device/d1mx/src/rh850_ghs -I../../../../../device/d1mx/src/vowe -I../../../../../device/d1x_common/macro_cfg -I../../../../../device/d1x_common/macro_cfg/csisw -I../../../../../device/d1x_common/macro_cfg/davehd -I../../../../../device/d1x_common/macro_cfg/ddb -I../../../../../device/d1x_common/macro_cfg/drw2d -I../../../../../device/d1x_common/macro_cfg/gfxbus -I../../../../../device/d1x_common/macro_cfg/gpio -I../../../../../device/d1x_common/macro_cfg/hypb -I../../../../../device/d1x_common/macro_cfg/hypdb -I../../../../../device/d1x_common/macro_cfg/jcua -I../../../../../device/d1x_common/macro_cfg/nfmabare -I../../../../../device/d1x_common/macro_cfg/octa -I../../../../../device/d1x_common/macro_cfg/octacdb -I../../../../../device/d1x_common/macro_cfg/ostm -I../../../../../device/d1x_common/macro_cfg/pbg -I../../../../../device/d1x_common/macro_cfg/riic -I../../../../../device/d1x_common/macro_cfg/sfcdb -I../../../../../device/d1x_common/macro_cfg/sfma -I../../../../../device/d1x_common/macro_cfg/spea -I../../../../../device/d1x_common/macro_cfg/tauj -I../../../../../device/d1x_common/macro_cfg/tick -I../../../../../device/d1x_common/macro_cfg/vdce -I../../../../../device/d1x_common/macro_cfg/vowe -I../../../../../device/d1x_common/macro_cfg/wm -I../../../../../device/d1x_common/macro_cfg/xbus -I../../../../../device/d1x_common/src/csisw -I../../../../../device/d1x_common/src/ddb -I../../../../../device/d1x_common/src/dev -I../../../../../device/d1x_common/src/gfxbus -I../../../../../device/d1x_common/src/gpio -I../../../../../device/d1x_common/src/ostm -I../../../../../device/d1x_common/src/pbg -I../../../../../device/d1x_common/src/riic -I../../../../../device/d1x_common/src/sfma -I../../../../../device/d1x_common/src/spea -I../../../../../device/d1x_common/src/tauj -I../../../../../device/d1x_common/src/tick -I../../../../../device/d1x_common/src/vdce -I../../../../../device/d1x_common/src/wm -I../../../../../device/d1x_common/src/xbus -I../../../../../device/lib -I../../../../../macro/bus/pbg/lib -I../../../../../macro/bus/pbg/src -I../../../../../macro/csi/csisw/lib -I../../../../../macro/csi/csisw/src -I../../../../../macro/drw2d/lib -I../../../../../macro/drw2d/platform/davehd -I../../../../../macro/drw2d/platform/os/no_os -I../../../../../macro/drw2d/src -I../../../../../macro/flashc/hypb/lib -I../../../../../macro/flashc/hypb/src -I../../../../../macro/flashc/hypdb/lib -I../../../../../macro/flashc/hypdb/src -I../../../../../macro/flashc/nfmabare/lib -I../../../../../macro/flashc/nfmabare/src -I../../../../../macro/flashc/octa/lib -I../../../../../macro/flashc/octa/src -I../../../../../macro/flashc/octacdb/lib -I../../../../../macro/flashc/octacdb/src -I../../../../../macro/flashc/sfcdb/lib -I../../../../../macro/flashc/sfcdb/src -I../../../../../macro/flashc/sfma/lib -I../../../../../macro/flashc/sfma/src -I../../../../../macro/gfxbus/lib -I../../../../../macro/gfxbus/src -I../../../../../macro/gfxbus/xbus/lib -I../../../../../macro/gfxbus/xbus/src -I../../../../../macro/gpio/lib -I../../../../../macro/gpio/src -I../../../../../macro/gpu/davehd/common/inc -I../../../../../macro/gpu/davehd/common/inc/platform -I../../../../../macro/gpu/davehd/common/inc/platform/d1mx -I../../../../../macro/gpu/davehd/docs -I../../../../../macro/gpu/davehd/kernel/inc -I../../../../../macro/gpu/davehd/kernel/platform/d1mx -I../../../../../macro/gpu/davehd/kernel/platform/d1mx/bridge -I../../../../../macro/gpu/davehd/kernel/platform/d1mx/non_threaded -I../../../../../macro/gpu/davehd/kernel/platform/ree -I../../../../../macro/gpu/davehd/kernel/src -I../../../../../macro/gpu/davehd/user/inc -I../../../../../macro/gpu/davehd/user/platform/d1mx/no_os -I../../../../../macro/gpu/davehd/user/src -I../../../../../macro/gpu/jcua/lib -I../../../../../macro/gpu/jcua/src -I../../../../../macro/i2c/riic/lib -I../../../../../macro/i2c/riic/src -I../../../../../macro/tick/lib -I../../../../../macro/tick/src -I../../../../../macro/timer/ostm/lib -I../../../../../macro/timer/ostm/src -I../../../../../macro/timer/tauj/lib -I../../../../../macro/timer/tauj/src -I../../../../../macro/vdce/lib -I../../../../../macro/vdce/src -I../../../../../macro/vo/ddb/lib -I../../../../../macro/vo/ddb/src -I../../../../../macro/vo/spea/lib -I../../../../../macro/vo/spea/src -I../../../../../macro/vo/vowe/lib -I../../../../../macro/vo/vowe/src -I../../../../../macro/wm/lib -I../../../../../macro/wm/src -I../../../../../macro/pwm/lib -I../../../../../macro/reset/lib -I../../../../../macro/rscan/lib -I../../../../../macro/uart/rlin3/lib -I../../../../../macro/uart/rlin3/src -I../../../../../device/d1x_common/macro_cfg/rlin3 -I../../../../../macro/stbc/lib -I../../../../../macro/adc/lib -I../../../../../device/d1x_common/macro_cfg/adc7010 -IC:\GHS\V800.V2014.1.7\comp_201417\lib\rh850_22 -cg_underscore -cpu=rh850g3m -no_v850_simd -rh850_fpsimd=none -nomacro -patch_dbo=C:\git\rh850\src\app\gfx_apps\simple_draw\target\d1mx_mango_ghs\obj\r_pbg_main.dbo -source=r_pbg_main.c -o .\obj\gh_0000pt81.o -list=.\obj\r_pbg_main.lst C:\Users\Frank\AppData\Local\Temp\gh_0000pt81.si 
Original File: C:\Users\Frank\AppData\Local\Temp\gh_0000pt81.si
Source File: r_pbg_main.c
Directory: C:\git\rh850\src\app\gfx_apps\simple_draw\target\d1mx_mango_ghs
Host OS: Windows
EASE: Copyright (C) 1983-2014 Green Hills Software.  All Rights Reversed.
Release: Compiler v2014.1.7
Build Directory: [Directory] BTOWINBOX:c:/build_2014_1_bto/2014-09-04.2200-2014_1_bto/win32-comp-ecom
Revision: [VCInfo] http://toolsvc/branches/release-branch-2014-1-bto/src@515859 (built by build)
Revision Date: Fri Sep 05 14:05:06 2014

Release Date: Fri Sep 05 14:43:29 2014

                           1 --Driver Command: ccv850 -c -MD -I../../../../../app/common/dhd
                           2 --		-I../../../../../app/gfx_apps/simple_draw/src
                           3 --		-I../../../../../app/gfx_apps/simple_draw/lib
                           4 --		-I../../../../../bsp/board//config
                           5 --		-I../../../../../bsp/board//src/gfx
                           6 --		-I../../../../../bsp/board//src/hmi
                           7 --		-I../../../../../bsp/board//src/stdio
                           8 --		-I../../../../../bsp/board/d1mx_mango/config
                           9 --		-I../../../../../bsp/board/d1mx_mango/src
                          10 --		-I../../../../../bsp/board/d1mx_mango/src/gfx
                          11 --		-I../../../../../bsp/board/d1mx_mango/src/hmi
                          12 --		-I../../../../../bsp/board/d1mx_mango/src/stdio
                          13 --		-I../../../../../bsp/gfx/lib -I../../../../../bsp/gfx/src
                          14 --		-I../../../../../bsp/hmi/lib -I../../../../../bsp/hmi/src
                          15 --		-I../../../../../bsp/lib -I../../../../../bsp/stdio/lib
                          16 --		-I../../../../../bsp/stdio/src -I../../../../../cdi/lib
                          17 --		-I../../../../../cdi/src -I../../../../../compiler/rh850_ghs/inc
                          18 --		-I../../../../../device/d1mx/lib
                          19 --		-I../../../../../device/d1mx/macro_cfg
                          20 --		-I../../../../../device/d1mx/macro_cfg/csisw
                          21 --		-I../../../../../device/d1mx/macro_cfg/davehd
                          22 --		-I../../../../../device/d1mx/macro_cfg/ddb
                          23 --		-I../../../../../device/d1mx/macro_cfg/drw2d
                          24 --		-I../../../../../device/d1mx/macro_cfg/gfxbus
                          25 --		-I../../../../../device/d1mx/macro_cfg/gpio
                          26 --		-I../../../../../device/d1mx/macro_cfg/hypb
                          27 --		-I../../../../../device/d1mx/macro_cfg/hypdb
                          28 --		-I../../../../../device/d1mx/macro_cfg/jcua
                          29 --		-I../../../../../device/d1mx/macro_cfg/nfmabare
                          30 --		-I../../../../../device/d1mx/macro_cfg/octa
                          31 --		-I../../../../../device/d1mx/macro_cfg/octacdb
                          32 --		-I../../../../../device/d1mx/macro_cfg/ostm
                          33 --		-I../../../../../device/d1mx/macro_cfg/pbg
                          34 --		-I../../../../../device/d1mx/macro_cfg/riic
                          35 --		-I../../../../../device/d1mx/macro_cfg/sfcdb
                          36 --		-I../../../../../device/d1mx/macro_cfg/sfma
                          37 --		-I../../../../../device/d1mx/macro_cfg/spea
                          38 --		-I../../../../../device/d1mx/macro_cfg/tauj
                          39 --		-I../../../../../device/d1mx/macro_cfg/tick
                          40 --		-I../../../../../device/d1mx/macro_cfg/vdce
                          41 --		-I../../../../../device/d1mx/macro_cfg/vowe
                          42 --		-I../../../../../device/d1mx/macro_cfg/wm
                          43 --		-I../../../../../device/d1mx/macro_cfg/xbus
                          44 --		-I../../../../../device/d1mx/src/dev
                          45 --		-I../../../../../device/d1mx/src/dhd
                          46 --		-I../../../../../device/d1mx/src/hypb
                          47 --		-I../../../../../device/d1mx/src/jcua
                          48 --		-I../../../../../device/d1mx/src/nfmabare
                          49 --		-I../../../../../device/d1mx/src/octa
                          50 --		-I../../../../../device/d1mx/src/rh850_ghs

                                                                      Page 2
                                                              C:\Users\Frank\AppData\Local\Temp\gh_0000pt81.si
                          51 --		-I../../../../../device/d1mx/src/vowe
                          52 --		-I../../../../../device/d1x_common/macro_cfg
                          53 --		-I../../../../../device/d1x_common/macro_cfg/csisw
                          54 --		-I../../../../../device/d1x_common/macro_cfg/davehd
                          55 --		-I../../../../../device/d1x_common/macro_cfg/ddb
                          56 --		-I../../../../../device/d1x_common/macro_cfg/drw2d
                          57 --		-I../../../../../device/d1x_common/macro_cfg/gfxbus
                          58 --		-I../../../../../device/d1x_common/macro_cfg/gpio
                          59 --		-I../../../../../device/d1x_common/macro_cfg/hypb
                          60 --		-I../../../../../device/d1x_common/macro_cfg/hypdb
                          61 --		-I../../../../../device/d1x_common/macro_cfg/jcua
                          62 --		-I../../../../../device/d1x_common/macro_cfg/nfmabare
                          63 --		-I../../../../../device/d1x_common/macro_cfg/octa
                          64 --		-I../../../../../device/d1x_common/macro_cfg/octacdb
                          65 --		-I../../../../../device/d1x_common/macro_cfg/ostm
                          66 --		-I../../../../../device/d1x_common/macro_cfg/pbg
                          67 --		-I../../../../../device/d1x_common/macro_cfg/riic
                          68 --		-I../../../../../device/d1x_common/macro_cfg/sfcdb
                          69 --		-I../../../../../device/d1x_common/macro_cfg/sfma
                          70 --		-I../../../../../device/d1x_common/macro_cfg/spea
                          71 --		-I../../../../../device/d1x_common/macro_cfg/tauj
                          72 --		-I../../../../../device/d1x_common/macro_cfg/tick
                          73 --		-I../../../../../device/d1x_common/macro_cfg/vdce
                          74 --		-I../../../../../device/d1x_common/macro_cfg/vowe
                          75 --		-I../../../../../device/d1x_common/macro_cfg/wm
                          76 --		-I../../../../../device/d1x_common/macro_cfg/xbus
                          77 --		-I../../../../../device/d1x_common/src/csisw
                          78 --		-I../../../../../device/d1x_common/src/ddb
                          79 --		-I../../../../../device/d1x_common/src/dev
                          80 --		-I../../../../../device/d1x_common/src/gfxbus
                          81 --		-I../../../../../device/d1x_common/src/gpio
                          82 --		-I../../../../../device/d1x_common/src/ostm
                          83 --		-I../../../../../device/d1x_common/src/pbg
                          84 --		-I../../../../../device/d1x_common/src/riic
                          85 --		-I../../../../../device/d1x_common/src/sfma
                          86 --		-I../../../../../device/d1x_common/src/spea
                          87 --		-I../../../../../device/d1x_common/src/tauj
                          88 --		-I../../../../../device/d1x_common/src/tick
                          89 --		-I../../../../../device/d1x_common/src/vdce
                          90 --		-I../../../../../device/d1x_common/src/wm
                          91 --		-I../../../../../device/d1x_common/src/xbus
                          92 --		-I../../../../../device/lib -I../../../../../macro/bus/pbg/lib
                          93 --		-I../../../../../macro/bus/pbg/src
                          94 --		-I../../../../../macro/csi/csisw/lib
                          95 --		-I../../../../../macro/csi/csisw/src
                          96 --		-I../../../../../macro/drw2d/lib
                          97 --		-I../../../../../macro/drw2d/platform/davehd
                          98 --		-I../../../../../macro/drw2d/platform/os/no_os
                          99 --		-I../../../../../macro/drw2d/src
                         100 --		-I../../../../../macro/flashc/hypb/lib
                         101 --		-I../../../../../macro/flashc/hypb/src
                         102 --		-I../../../../../macro/flashc/hypdb/lib
                         103 --		-I../../../../../macro/flashc/hypdb/src
                         104 --		-I../../../../../macro/flashc/nfmabare/lib
                         105 --		-I../../../../../macro/flashc/nfmabare/src
                         106 --		-I../../../../../macro/flashc/octa/lib
                         107 --		-I../../../../../macro/flashc/octa/src
                         108 --		-I../../../../../macro/flashc/octacdb/lib
                         109 --		-I../../../../../macro/flashc/octacdb/src
                         110 --		-I../../../../../macro/flashc/sfcdb/lib
                         111 --		-I../../../../../macro/flashc/sfcdb/src

                                                                      Page 3
                                                              C:\Users\Frank\AppData\Local\Temp\gh_0000pt81.si
                         112 --		-I../../../../../macro/flashc/sfma/lib
                         113 --		-I../../../../../macro/flashc/sfma/src
                         114 --		-I../../../../../macro/gfxbus/lib
                         115 --		-I../../../../../macro/gfxbus/src
                         116 --		-I../../../../../macro/gfxbus/xbus/lib
                         117 --		-I../../../../../macro/gfxbus/xbus/src
                         118 --		-I../../../../../macro/gpio/lib -I../../../../../macro/gpio/src
                         119 --		-I../../../../../macro/gpu/davehd/common/inc
                         120 --		-I../../../../../macro/gpu/davehd/common/inc/platform
                         121 --		-I../../../../../macro/gpu/davehd/common/inc/platform/d1mx
                         122 --		-I../../../../../macro/gpu/davehd/docs
                         123 --		-I../../../../../macro/gpu/davehd/kernel/inc
                         124 --		-I../../../../../macro/gpu/davehd/kernel/platform/d1mx
                         125 --		-I../../../../../macro/gpu/davehd/kernel/platform/d1mx/bridge
                         126 --		-I../../../../../macro/gpu/davehd/kernel/platform/d1mx/non_threaded
                         127 --		-I../../../../../macro/gpu/davehd/kernel/platform/ree
                         128 --		-I../../../../../macro/gpu/davehd/kernel/src
                         129 --		-I../../../../../macro/gpu/davehd/user/inc
                         130 --		-I../../../../../macro/gpu/davehd/user/platform/d1mx/no_os
                         131 --		-I../../../../../macro/gpu/davehd/user/src
                         132 --		-I../../../../../macro/gpu/jcua/lib
                         133 --		-I../../../../../macro/gpu/jcua/src
                         134 --		-I../../../../../macro/i2c/riic/lib
                         135 --		-I../../../../../macro/i2c/riic/src
                         136 --		-I../../../../../macro/tick/lib -I../../../../../macro/tick/src
                         137 --		-I../../../../../macro/timer/ostm/lib
                         138 --		-I../../../../../macro/timer/ostm/src
                         139 --		-I../../../../../macro/timer/tauj/lib
                         140 --		-I../../../../../macro/timer/tauj/src
                         141 --		-I../../../../../macro/vdce/lib -I../../../../../macro/vdce/src
                         142 --		-I../../../../../macro/vo/ddb/lib
                         143 --		-I../../../../../macro/vo/ddb/src
                         144 --		-I../../../../../macro/vo/spea/lib
                         145 --		-I../../../../../macro/vo/spea/src
                         146 --		-I../../../../../macro/vo/vowe/lib
                         147 --		-I../../../../../macro/vo/vowe/src -I../../../../../macro/wm/lib
                         148 --		-I../../../../../macro/wm/src -I../../../../../macro/pwm/lib
                         149 --		-I../../../../../macro/i2c/riic/lib
                         150 --		-I../../../../../macro/reset/lib -I../../../../../macro/rscan/lib
                         151 --		-I../../../../../macro/uart/rlin3/lib
                         152 --		-I../../../../../macro/uart/rlin3/src
                         153 --		-I../../../../../device/d1x_common/macro_cfg/rlin3
                         154 --		-I../../../../../macro/stbc/lib
                         155 --		-I../../../../../app/gfx_apps/simple_draw/lib
                         156 --		-I../../../../../macro/adc/lib
                         157 --		-I../../../../../device/d1x_common/macro_cfg/adc7010 -G
                         158 --		--no_commons --no_implicit_include --prototype_errors
                         159 --		-DRENESAS_D1X -DR_DRW2D_OS_NO_OS -DR_DRW2D_SYS_DHD
                         160 --		-DUSED_CPU=RH850G3M -DUSE_BSP_GFX -DUSE_BSP_HMI -DUSE_BSP_STDIO
                         161 --		-DUSE_CDI -DUSE_CSISW -DUSE_DAVEHD -DUSE_DDB -DUSE_DRW2D
                         162 --		-DUSE_GFXBUS -DUSE_GPIO -DUSE_HYPB -DUSE_HYPDB -DUSE_JCUA
                         163 --		-DUSE_NFMABARE -DUSE_OCTA -DUSE_OCTACDB -DUSE_OSTM -DUSE_PBG
                         164 --		-DUSE_RIIC -DUSE_SFCDB -DUSE_SFMA -DUSE_SPEA -DUSE_TAUJ
                         165 --		-DUSE_TICK -DUSE_VDCE -DUSE_WM -DUSE_XBUS -DMAG -MD -Zuse1bit
                         166 --		-allocate_ep -cpu=rh850g3m -large_sda -list -no_callt -notda
                         167 --		-passsource -preprocess_assembly_files -registermode=22
                         168 --		-reserve_r2 --diag_warning 1 -object_dir=./obj -DUSE_VDCE_OPENLDI
                         169 --		-gnu99 -filetype.c ..\..\..\..\..\macro\bus\pbg\src\r_pbg_main.c
                         170 --		-o .\obj\r_pbg_main.o
                         171 --Source File:   ..\..\..\..\..\macro\bus\pbg\src\r_pbg_main.c
                         172 --Directory:     

                                                                      Page 4
                                                              C:\Users\Frank\AppData\Local\Temp\gh_0000pt81.si
                         173 --		C:\git\rh850\src\app\gfx_apps\simple_draw\target\d1mx_mango_ghs
                         174 --Compile Date:  Tue Oct 16 19:48:53 2018
                         175 --Host OS:       Win32
                         176 --Version:       C-RH850 2014.1.7 RELEASE VERSION
                         177 --Release:       Compiler v2014.1.7
                         178 --Revision Date: Fri Sep 05 14:10:46 2014
                         179 --Release Date:  Fri Sep 05 14:44:23 2014
                         180 -- ecom  -g -w
                         181 
                         182 --1: /*
                         183 --2: ****************************************************************************
                         184 --3: PROJECT : VLIB Macro Driver  
                         185 --4: FILE    : $Id: r_pbg_main.c 7171 2016-01-06 17:52:36Z tobyas.hennig $
                         186 --5: ============================================================================ 
                         187 --6: DESCRIPTION
                         188 --7: Driver for the XC GUARD macro
                         189 --8: ============================================================================
                         190 --9:                             C O P Y R I G H T                            
                         191 --10: ============================================================================
                         192 --11:                            Copyright (c) 2012
                         193 --12:                                   by 
                         194 --13:                        Renesas Electronics (Europe) GmbH. 
                         195 --14:                            Arcadiastrasse 10
                         196 --15:                           D-40472 Duesseldorf
                         197 --16:                                Germany
                         198 --17:                           All rights reserved.
                         199 --18: ============================================================================
                         200 --19: Purpose: only for testing
                         201 --21: DISCLAIMER                                                                   
                         202 --22: This software is supplied by Renesas Electronics Corporation and is only     
                         203 --23: intended for use with Renesas products. No other uses are authorized. This   
                         204 --24: software is owned by Renesas Electronics Corporation and is protected under  
                         205 --25: all applicable laws, including copyright laws.                               
                         206 --26: THIS SOFTWARE IS PROVIDED "AS IS" AND RENESAS MAKES NO WARRANTIES REGARDING  
                         207 --27: THIS SOFTWARE, WHETHER EXPRESS, IMPLIED OR STATUTORY, INCLUDING BUT NOT      
                         208 --28: LIMITED TO WARRANTIES OF MERCHANTABILITY, FITNESS FOR A PARTICULAR PURPOSE   
                         209 --29: AND NON-INFRINGEMENT. ALL SUCH WARRANTIES ARE EXPRESSLY DISCLAIMED.          
                         210 --30: TO THE MAXIMUM EXTENT PERMITTED NOT PROHIBITED BY LAW, NEITHER RENESAS       
                         211 --31: ELECTRONICS CORPORATION NOR ANY OF ITS AFFILIATED COMPANIES SHALL BE LIABLE  
                         212 --32: FOR ANY DIRECT, INDIRECT, SPECIAL, INCIDENTAL OR CONSEQUENTIAL DAMAGES FOR   
                         213 --33: ANY REASON RELATED TO THIS SOFTWARE, EVEN IF RENESAS OR ITS AFFILIATES HAVE  
                         214 --34: BEEN ADVISED OF THE POSSIBILITY OF SUCH DAMAGES.                             
                         215 --35: Renesas reserves the right, without notice, to make changes to this software 
                         216 --36: and to discontinue the availability of this software. By using this software,
                         217 --37: you agree to the additional terms and conditions found by accessing the      
                         218 --38: following link:                                                              
                         219 --39: http://www.renesas.com/disclaimer *                                          
                         220 --40: Copyright (C) 2011 Renesas Electronics Corporation. All rights reserved.     
                         221 --42: ****************************************************************************
                         222 --43: */
                         223 --45: /*******************************************************************************
                         224 --46:   Title: PBG Main Module
                         225 --48:   Implementation of the API and other global functions.
                         226 --49: */
                         227 --51: /*******************************************************************************
                         228 --52:   Section: Includes
                         229 --53: */
                         230 --55: #include "r_typedefs.h"
                         231 --56: #include "r_dev_api.h"
                         232 --58: #include "r_config_pbg.h"
                         233 --59: #include "r_pbg_api.h"

                                                                      Page 5
                                                              C:\Users\Frank\AppData\Local\Temp\gh_0000pt81.si
                         234 --60: #define PBG_MAIN_GLOBALS_
                         235 --61: #include "r_pbg_main.h"
                         236 --62: #include "r_pbg_sys.h"
                         237 --65: /*******************************************************************************
                         238 --66:   Section: Local Constants
                         239 --67: */
                         240 --69: /*******************************************************************************
                         241 --70:   Constant: loc_PBGVersion
                         242 --72:   A string containig the macro driver version information  
                         243 --73: */
                         244 --75: static const int8_t  loc_pbgDrvVer[] = R_VERSION(PBG, R_PBG_VERSION_HI, R_PBG_VERSION_LO);
                         245 --79: /*******************************************************************************
                         246 --80:   Section: Local Variables
                         247 --81: */
                         248 --83: /*******************************************************************************
                         249 --84:   Variable: loc_ErrorHandler
                         250 --86:   A function pointer to a user callback (Applications error handler)  
                         251 --87:   
                         252 --88:   The value is assigned by the application using the driver 
                         253 --89: */
                         254 --91: static void (*loc_ErrorHandler )(uint32_t Unit, uint32_t Error) = 0u;
                         255 --94: /*******************************************************************************
                         256 --95:   Section: Global Functions
                         257 --96: */
                         258 --98: /*******************************************************************************
                         259 --99:   Function: R_PBG_CheckMacroParams
                         260 --100:   
                         261 --101:   See: <PBG_main.h>
                         262 --102: */
                         263 --103: r_pbg_Error_t R_PBG_CheckMacroParams(uint32_t Unit);
                         264 --104: r_pbg_Error_t R_PBG_CheckMacroParams(uint32_t Unit)
                         265 	.text
                         266 ..bof.C.3A.5Cgit.5Crh850.5Csrc.5Capp.5Cgfx_apps.5Csimple_draw.5Ctarget.5Cd1mx_mango_ghs.5Cobj.5Cr_pbg_main...43.3A.5Cgit.5Crh850.5Csrc.5Capp.5Cgfx_apps.5Csimple_draw.5Ctarget.5Cd1mx_mango_ghs..5BC5D026..0::
                         267 	.align	2
                         268 	.global	_R_PBG_CheckMacroParams
                         269 _R_PBG_CheckMacroParams:
00000000 0608            270 	mov	r6,r1
                         271 --	    .bf
                         272 .LDW01:
                         273 --105: {
                         274 --106:     /* Feel free to add any more usefull parameter checks */
                         275 --107:     if (R_PBG_MACRO_NUM <= Unit)
00000002 6f0a            276 	cmp	15,r1
00000004 b105*           277 	bl	.L4
                         278 --108:     {
                         279 --109:         return  R_PBG_ERR_RANGE; 
                         280 --line109
                         281 ..lin.C.3A.5Cgit.5Crh850.5Csrc.5Capp.5Cgfx_apps.5Csimple_draw.5Ctarget.5Cd1mx_mango_ghs.5Cobj.5Cr_pbg_main.1::
                         282 .LDWlin1:
00000006 0252            283 	mov	2,r10
00000008 a505*           284 	br	.L2
                         285 .L4:
                         286 --110:     }
                         287 --111:     return R_PBG_ERR_OK;  
                         288 --line111
                         289 ..lin.C.3A.5Cgit.5Crh850.5Csrc.5Capp.5Cgfx_apps.5Csimple_draw.5Ctarget.5Cd1mx_mango_ghs.5Cobj.5Cr_pbg_main.2::
                         290 .LDWlin2:
0000000a 0052            291 	mov	0,r10
                         292 .L2:
                         293 --	    .ef
                         294 .LDW11:

                                                                      Page 6
                                                              C:\Users\Frank\AppData\Local\Temp\gh_0000pt81.si
0000000c 7f00            295 	jmp	[lp]
                         296 	.type	_R_PBG_CheckMacroParams,@function
                         297 	.size	_R_PBG_CheckMacroParams,.-_R_PBG_CheckMacroParams
                         298 	.align	2
                         299 .LDW21:
                         300 
                         301 --_Unit	r1	param
                         302 
                         303 	.section ".bss","awb"
                         304 .L38:
                         305 	.type	.L38,@object
                         306 	.size	.L38,0
                         307 	.data
                         308 	.text
                         309 
                         310 --112: }
                         311 
                         312 --114: /*******************************************************************************
                         313 --115:   Function: R_PBG_ErrorHandler
                         314 --116:   
                         315 --117:   See: <PBG_main.h>
                         316 --118: */
                         317 --119: void R_PBG_ErrorHandler(uint32_t Unit, r_pbg_Error_t Error) 
                         318 	.align	2
                         319 	.align	2
                         320 	.align	2
                         321 	.global	_R_PBG_ErrorHandler
                         322 _R_PBG_ErrorHandler:
0000000e 8007e170        323 	prepare	{r25,r26,r27,r28,r29,r31},0
00000012 3d0600000000*   324 	mov	.L94,r29
00000018 06e0            325 	mov	r6,r28
0000001a 07d8            326 	mov	r7,r27
0000001c 1dd0            327 	mov	r29,r26
                         328 --	    .bf
                         329 .LDW31:
                         330 --120: {
                         331 --121:     if (0 != loc_ErrorHandler) 
0000001e 3d0f0100        332 	ld.w	0[r29],r1
00000022 e009            333 	cmp	zero,r1
00000024 820d*           334 	be	.L58
                         335 --122:     {      /* we've got a registered error handler here ...*/
                         336 --123:         loc_ErrorHandler(Unit, (uint32_t) Error);      /* ... and we gonna use it!*/
                         337 --line123
                         338 ..lin.C.3A.5Cgit.5Crh850.5Csrc.5Capp.5Cgfx_apps.5Csimple_draw.5Ctarget.5Cd1mx_mango_ghs.5Cobj.5Cr_pbg_main.3::
                         339 .LDWlin3:
00000026 3dcf0100        340 	ld.w	0[r29],r25
0000002a 1c30            341 	mov	r28,r6
0000002c 1b38            342 	mov	r27,r7
0000002e f9c760f9        343 	jarl	[r25],lp
00000032 a505*           344 	br	.L60
                         345 .L58:
                         346 --124:     } 
                         347 --125:     else 
                         348 --126:     {
                         349 --127:         for(;;) 
                         350 .L63:
                         351 --128:         {        /* we don't have a handler */
                         352 --line127
                         353 ..lin.C.3A.5Cgit.5Crh850.5Csrc.5Capp.5Cgfx_apps.5Csimple_draw.5Ctarget.5Cd1mx_mango_ghs.5Cobj.5Cr_pbg_main.4::
                         354 .LDWlin4:
00000034 8505*           355 	br	.L63

                                                                      Page 7
                                                              C:\Users\Frank\AppData\Local\Temp\gh_0000pt81.si
                         356 .L60:
                         357 --129:         }        /* so, let's wait here */
                         358 --130:     }
                         359 --131: }
                         360 --	    .ef
                         361 .LDW41:
                         362 --line131
                         363 ..lin.C.3A.5Cgit.5Crh850.5Csrc.5Capp.5Cgfx_apps.5Csimple_draw.5Ctarget.5Cd1mx_mango_ghs.5Cobj.5Cr_pbg_main.5::
                         364 .LDWlin5:
00000036 4006ff70        365 	dispose	0,{r25,r26,r27,r28,r29,r31},[lp]
                         366 	.type	_R_PBG_ErrorHandler,@function
                         367 	.size	_R_PBG_ErrorHandler,.-_R_PBG_ErrorHandler
                         368 	.align	2
                         369 .LDW51:
                         370 
                         371 --_Unit	r28	param
                         372 --_Error	r27	param
                         373 
                         374 	.data
                         375 	.align	4
                         376 .L94:
                         377 	.type	.L94,@object
                         378 	.size	.L94,0
                         379 	.global	_loc_ErrorHandler..C.3A.5Cgit.5Crh850.5Csrc.5Capp.5Cgfx_apps.5Csimple_draw.5Ctarget.5Cd1mx_mango_ghs.5Cobj.5Cr_pbg_main.
                         380 _loc_ErrorHandler..C.3A.5Cgit.5Crh850.5Csrc.5Capp.5Cgfx_apps.5Csimple_draw.5Ctarget.5Cd1mx_mango_ghs.5Cobj.5Cr_pbg_main.:
00000000 00000000        381 _loc_ErrorHandler:	.byte	0,0,0,0
                         382 	.type	_loc_ErrorHandler..C.3A.5Cgit.5Crh850.5Csrc.5Capp.5Cgfx_apps.5Csimple_draw.5Ctarget.5Cd1mx_mango_ghs.5Cobj.5Cr_pbg_main.,@object
                         383 	.size	_loc_ErrorHandler..C.3A.5Cgit.5Crh850.5Csrc.5Capp.5Cgfx_apps.5Csimple_draw.5Ctarget.5Cd1mx_mango_ghs.5Cobj.5Cr_pbg_main.,4
                         384 	.type	_loc_ErrorHandler,@object
                         385 	.size	_loc_ErrorHandler,4
                         386 	.section ".rodata","a"
                         387 	.global	_loc_pbgDrvVer..C.3A.5Cgit.5Crh850.5Csrc.5Capp.5Cgfx_apps.5Csimple_draw.5Ctarget.5Cd1mx_mango_ghs.5Cobj.5Cr_pbg_main.
                         388 _loc_pbgDrvVer..C.3A.5Cgit.5Crh850.5Csrc.5Capp.5Cgfx_apps.5Csimple_draw.5Ctarget.5Cd1mx_mango_ghs.5Cobj.5Cr_pbg_main.:
                         389 _loc_pbgDrvVer:--	"@(#)PBG driver version 0.1"
00000000 40282329        390 	.byte	64,40,35,41
00000004 50424720        391 	.byte	80,66,71,32
00000008 64726976        392 	.byte	100,114,105,118
0000000c 65722076        393 	.byte	101,114,32,118
00000010 65727369        394 	.byte	101,114,115,105
00000014 6f6e2030        395 	.byte	111,110,32,48
00000018 2e31            396 	.byte	46,49
0000001a 00              397 	.byte	0
                         398 	.type	_loc_pbgDrvVer..C.3A.5Cgit.5Crh850.5Csrc.5Capp.5Cgfx_apps.5Csimple_draw.5Ctarget.5Cd1mx_mango_ghs.5Cobj.5Cr_pbg_main.,@object
                         399 	.size	_loc_pbgDrvVer..C.3A.5Cgit.5Crh850.5Csrc.5Capp.5Cgfx_apps.5Csimple_draw.5Ctarget.5Cd1mx_mango_ghs.5Cobj.5Cr_pbg_main.,27
                         400 	.type	_loc_pbgDrvVer,@object
                         401 	.size	_loc_pbgDrvVer,27
                         402 	.data
                         403 	.text
                         404 
                         405 
                         406 --133: /*******************************************************************************
                         407 --134:   Section: Global API Functions
                         408 --135:   
                         409 --136:   See: <r_pbg_api.h>
                         410 --137: */
                         411 --139: /*******************************************************************************
                         412 --140:   Function: R_PBG_GetVersionStr
                         413 --142:   See: <r_pbg_api.h> 
                         414 --143: */
                         415 --144: const int8_t * R_PBG_GetVersionStr(void) 
                         416 	.align	2

                                                                      Page 8
                                                              C:\Users\Frank\AppData\Local\Temp\gh_0000pt81.si
                         417 	.align	2
                         418 	.global	_R_PBG_GetVersionStr
                         419 _R_PBG_GetVersionStr:
                         420 --	    .bf
                         421 .LDW61:
                         422 --145: {
                         423 --146:     return (const int8_t *) loc_pbgDrvVer;
0000003a 2a0600000000*   424 	mov	_loc_pbgDrvVer,r10
                         425 --	    .ef
                         426 .LDW71:
00000040 7f00            427 	jmp	[lp]
                         428 	.type	_R_PBG_GetVersionStr,@function
                         429 	.size	_R_PBG_GetVersionStr,.-_R_PBG_GetVersionStr
                         430 	.align	2
                         431 .LDW81:
                         432 
                         433 	.section ".bss","awb"
                         434 .L142:
                         435 	.type	.L142,@object
                         436 	.size	.L142,0
                         437 	.data
                         438 	.text
                         439 
                         440 --147: }
                         441 
                         442 --149: /*******************************************************************************
                         443 --150:   Function: R_PBG_GetMajorVersion
                         444 --152:   See: <r_pbg_api.h> 
                         445 --153: */
                         446 --154: const uint16_t R_PBG_GetMajorVersion(void) 
                         447 	.align	2
                         448 	.align	2
                         449 	.global	_R_PBG_GetMajorVersion
                         450 _R_PBG_GetMajorVersion:
                         451 --	    .bf
                         452 .LDW91:
                         453 --155: {
                         454 --156:     return (uint16_t)R_PBG_VERSION_HI; 
00000042 0052            455 	mov	0,r10
                         456 --	    .ef
                         457 .LDW02:
00000044 7f00            458 	jmp	[lp]
                         459 	.type	_R_PBG_GetMajorVersion,@function
                         460 	.size	_R_PBG_GetMajorVersion,.-_R_PBG_GetMajorVersion
                         461 	.align	2
                         462 .LDW12:
                         463 
                         464 	.section ".bss","awb"
                         465 .L174:
                         466 	.type	.L174,@object
                         467 	.size	.L174,0
                         468 	.data
                         469 	.text
                         470 
                         471 --157: }
                         472 
                         473 --159: /*******************************************************************************
                         474 --160:   Function: R_PBG_GetMinorVersion
                         475 --162:   See: <r_pbg_api.h> 
                         476 --163: */
                         477 --164: const uint16_t R_PBG_GetMinorVersion(void) 

                                                                      Page 9
                                                              C:\Users\Frank\AppData\Local\Temp\gh_0000pt81.si
                         478 	.align	2
                         479 	.align	2
                         480 	.global	_R_PBG_GetMinorVersion
                         481 _R_PBG_GetMinorVersion:
                         482 --	    .bf
                         483 .LDW22:
                         484 --165: {
                         485 --166:     return (uint16_t)R_PBG_VERSION_LO; 
00000046 0152            486 	mov	1,r10
                         487 --	    .ef
                         488 .LDW32:
00000048 7f00            489 	jmp	[lp]
                         490 	.type	_R_PBG_GetMinorVersion,@function
                         491 	.size	_R_PBG_GetMinorVersion,.-_R_PBG_GetMinorVersion
                         492 	.align	2
                         493 .LDW42:
                         494 
                         495 	.section ".bss","awb"
                         496 .L206:
                         497 	.type	.L206,@object
                         498 	.size	.L206,0
                         499 	.data
                         500 	.text
                         501 
                         502 --167: }
                         503 
                         504 --171: /*******************************************************************************
                         505 --172:   Function: R_PBG_Init
                         506 --174:   See: <r_pbg_api.h> 
                         507 --175: */
                         508 --176: r_pbg_Error_t R_PBG_Init(void) 
                         509 	.align	2
                         510 	.align	2
                         511 	.global	_R_PBG_Init
                         512 _R_PBG_Init:
0000004a 80076100        513 	prepare	{r29,r31},0
                         514 --	    .bf
                         515 .LDW52:
                         516 --177: {
                         517 --178:     r_dev_PbgInstance_t Instance;
                         518 --179:     
                         519 --180:     for (Instance = (r_dev_PbgInstance_t)0; Instance < R_DEV_PBG_NUM; Instance++)
0000004e 00ea            520 	mov	0,r29
00000050 0000            521 	nop
                         522 .L222:
                         523 --181:     {
                         524 --182:         R_PBG_InitInstance(Instance);
00000052 1d30            525 	mov	r29,r6
                         526 	jarl	_R_PBG_InitInstance,lp
                         526 <EXPANSION BEGIN>
                         526 jarl22 _R_PBG_InitInstance , lp 
00000054 80ff1000*       526 <EXPANSION END>
                         527 --line180
                         528 ..lin.C.3A.5Cgit.5Crh850.5Csrc.5Capp.5Cgfx_apps.5Csimple_draw.5Ctarget.5Cd1mx_mango_ghs.5Cobj.5Cr_pbg_main.6::
                         529 .LDWlin6:
00000058 41ea            530 	add	1,r29
0000005a 6fea            531 	cmp	15,r29
0000005c b1fd*           532 	bl	.L222
                         533 --183:     }
                         534 --184:     
                         535 --185:     return R_PBG_ERR_OK;

                                                                      Page 10
                                                              C:\Users\Frank\AppData\Local\Temp\gh_0000pt81.si
                         536 --line185
                         537 ..lin.C.3A.5Cgit.5Crh850.5Csrc.5Capp.5Cgfx_apps.5Csimple_draw.5Ctarget.5Cd1mx_mango_ghs.5Cobj.5Cr_pbg_main.7::
                         538 .LDWlin7:
0000005e 0052            539 	mov	0,r10
                         540 --	    .ef
                         541 .LDW62:
00000060 40067f00        542 	dispose	0,{r29,r31},[lp]
                         543 	.type	_R_PBG_Init,@function
                         544 	.size	_R_PBG_Init,.-_R_PBG_Init
                         545 	.align	2
                         546 .LDW72:
                         547 --_Instance	r29	local
                         548 
                         549 	.section ".bss","awb"
                         550 .L258:
                         551 	.type	.L258,@object
                         552 	.size	.L258,0
                         553 	.data
                         554 	.text
                         555 
                         556 --186: }
                         557 
                         558 --188: /*******************************************************************************
                         559 --189:   Function: R_PBG_InitInstance
                         560 --191:   See: <r_pbg_api.h> 
                         561 --192: */
                         562 --193: r_pbg_Error_t R_PBG_InitInstance(r_dev_PbgInstance_t Instance) 
                         563 	.align	2
                         564 	.align	2
                         565 	.global	_R_PBG_InitInstance
                         566 _R_PBG_InitInstance:
00000064 8407e110        567 	prepare	{r27,r28,r29,r31},2
00000068 06d8            568 	mov	r6,r27
                         569 --	    .bf
                         570 .LDW82:
                         571 --194: {
                         572 --195:     r_pbg_Id_t      Id;
                         573 --196:     r_pbg_Error_t   Err = R_PBG_ERR_NG;
0000006a 01ea            574 	mov	1,r29
                         575 --197:     r_pbg_Error_t   LoopErr;
                         576 --198:     
                         577 --199:     Id.Instance = Instance;
0000006c 63df0100        578 	st.w	r27,0[sp]
                         579 --200:     
                         580 --201:     for (Id.Channel = 0; Id.Channel < 16; Id.Channel++)
00000070 63070500        581 	st.w	zero,4[sp]
00000074 f50d*           582 	br	.L290
                         583 .L289:
                         584 --202:     {
                         585 --203:         /* Try to initialialize a certain channel, risking that it might not exist */
                         586 --204:         LoopErr = R_PBG_InitChannel(Id);
                         587 --line204
                         588 ..lin.C.3A.5Cgit.5Crh850.5Csrc.5Capp.5Cgfx_apps.5Csimple_draw.5Ctarget.5Cd1mx_mango_ghs.5Cobj.5Cr_pbg_main.8::
                         589 .LDWlin8:
00000076 a30709300000    590 	ld.dw	0[sp],r6
                         591 	jarl	_R_PBG_InitChannel,lp
                         591 <EXPANSION BEGIN>
                         591 jarl22 _R_PBG_InitChannel , lp 
0000007c 80ff2600*       591 <EXPANSION END>
00000080 0ae0            592 	mov	r10,r28
                         593 --205:         

                                                                      Page 11
                                                              C:\Users\Frank\AppData\Local\Temp\gh_0000pt81.si
                         594 --206:         /* If at least one channel was set up correctly, return OK. */
                         595 --207:         if (R_PBG_ERR_OK == LoopErr)
                         596 --line207
                         597 ..lin.C.3A.5Cgit.5Crh850.5Csrc.5Capp.5Cgfx_apps.5Csimple_draw.5Ctarget.5Cd1mx_mango_ghs.5Cobj.5Cr_pbg_main.9::
                         598 .LDWlin9:
00000082 e0e1            599 	cmp	zero,r28
00000084 aa05*           600 	bne	.L288
                         601 --208:         {
                         602 --209:             Err = R_PBG_ERR_OK;
                         603 --line209
                         604 ..lin.C.3A.5Cgit.5Crh850.5Csrc.5Capp.5Cgfx_apps.5Csimple_draw.5Ctarget.5Cd1mx_mango_ghs.5Cobj.5Cr_pbg_main.10::
                         605 .LDWlin10:
00000086 00ea            606 	mov	0,r29
                         607 .L288:
00000088 230f0500        608 	ld.w	4[sp],r1
0000008c 410a            609 	add	1,r1
0000008e 630f0500        610 	st.w	r1,4[sp]
                         611 .L290:
00000092 230f0500        612 	ld.w	4[sp],r1
00000096 0106f0ff        613 	addi	-16,r1,zero
0000009a e9ed*           614 	bnl	.L289
                         615 --210:         }
                         616 --211:     }
                         617 --212:     
                         618 --213:     return Err;
                         619 --line213
                         620 ..lin.C.3A.5Cgit.5Crh850.5Csrc.5Capp.5Cgfx_apps.5Csimple_draw.5Ctarget.5Cd1mx_mango_ghs.5Cobj.5Cr_pbg_main.11::
                         621 .LDWlin11:
0000009c 1d50            622 	mov	r29,r10
                         623 --	    .ef
                         624 .LDW92:
0000009e 4406ff10        625 	dispose	2,{r27,r28,r29,r31},[lp]
                         626 	.type	_R_PBG_InitInstance,@function
                         627 	.size	_R_PBG_InitInstance,.-_R_PBG_InitInstance
                         628 	.align	2
                         629 .LDW03:
                         630 --_Id	0[sp]	local
                         631 --_Err	r29	local
                         632 --_LoopErr	r28	local
                         633 
                         634 --_Instance	r27	param
                         635 
                         636 	.section ".bss","awb"
                         637 .L354:
                         638 	.type	.L354,@object
                         639 	.size	.L354,0
                         640 	.data
                         641 	.text
                         642 
                         643 --214: }
                         644 
                         645 --216: /*******************************************************************************
                         646 --217:   Function: R_PBG_InitChannel
                         647 --219:   See: <r_pbg_api.h> 
                         648 --220: */
                         649 --221: r_pbg_Error_t R_PBG_InitChannel(r_pbg_Id_t Id) 
                         650 	.align	2
                         651 	.align	2
                         652 	.global	_R_PBG_InitChannel
                         653 _R_PBG_InitChannel:
000000a2 031ed8ff        654 	addi	-40,sp,sp

                                                                      Page 12
                                                              C:\Users\Frank\AppData\Local\Temp\gh_0000pt81.si
000000a6 633f1d00        655 	st.w	r7,28[sp]
000000aa 63371900        656 	st.w	r6,24[sp]
000000ae 63ff1500        657 	st.w	lp,20[sp]
000000b2 63ef1100        658 	st.w	r29,16[sp]
                         659 --	    .bf
                         660 .LDW13:
                         661 --222: {
                         662 --223:     r_pbg_t Instance;
                         663 --224:     r_pbg_Error_t err = R_PBG_SYS_GetInstance(Id, &Instance);
000000b6 a30789310000    664 	ld.dw	24[sp],r6
000000bc 23460000        665 	movea	0,sp,r8
                         666 	jarl	_R_PBG_SYS_GetInstance,lp
                         666 <EXPANSION BEGIN>
                         666 jarl22 _R_PBG_SYS_GetInstance , lp 
000000c0 80ff0000*       666 <EXPANSION END>
000000c4 0ae8            667 	mov	r10,r29
                         668 --225:     
                         669 --226:     /* Initialize channel if it exists */
                         670 --227:     if (R_PBG_ERR_OK == err)
                         671 --line227
                         672 ..lin.C.3A.5Cgit.5Crh850.5Csrc.5Capp.5Cgfx_apps.5Csimple_draw.5Ctarget.5Cd1mx_mango_ghs.5Cobj.5Cr_pbg_main.12::
                         673 .LDWlin12:
000000c6 e0e9            674 	cmp	zero,r29
000000c8 ba0d*           675 	bne	.L395
                         676 --228:     {        
                         677 --229:         R_PBG_WRITE32(Instance.Base0 + (4 * Id.Channel), R_PBG_DEFAULT_SETTING);
                         678 --line229
                         679 ..lin.C.3A.5Cgit.5Crh850.5Csrc.5Capp.5Cgfx_apps.5Csimple_draw.5Ctarget.5Cd1mx_mango_ghs.5Cobj.5Cr_pbg_main.13::
                         680 .LDWlin13:
000000ca 230f1d00        681 	ld.w	28[sp],r1
000000ce 23f70900        682 	ld.w	8[sp],ep
000000d2 c20a            683 	shl	2,r1
000000d4 c1f1            684 	add	r1,ep
000000d6 2106ffffff07    685 	mov	134217727,r1
000000dc 010d            686 	sst.w	r1,0[ep]
                         687 .L395:
                         688 --230:     }
                         689 --231:     return err;
000000de 1d50            690 	mov	r29,r10
                         691 --	    .ef
                         692 .LDW23:
000000e0 23ff1500        693 	ld.w	20[sp],lp
000000e4 23ef1100        694 	ld.w	16[sp],r29
000000e8 031e2800        695 	addi	40,sp,sp
000000ec 7f00            696 	jmp	[lp]
                         697 	.type	_R_PBG_InitChannel,@function
                         698 	.size	_R_PBG_InitChannel,.-_R_PBG_InitChannel
                         699 	.align	2
                         700 .LDW33:
                         701 --_Instance	0[sp]	local
                         702 --_err	r29	local
                         703 
                         704 --_Id	24[sp]	param
                         705 
                         706 	.section ".bss","awb"
                         707 .L426:
                         708 	.type	.L426,@object
                         709 	.size	.L426,0
                         710 	.data
                         711 	.text
                         712 

                                                                      Page 13
                                                              C:\Users\Frank\AppData\Local\Temp\gh_0000pt81.si
                         713 --232: }
                         714 
                         715 --235: /*******************************************************************************
                         716 --236:   Function: R_PBG_ConfigureGuard
                         717 --238:   See: <r_pbg_api.h> 
                         718 --239: */
                         719 --240: r_pbg_Error_t R_PBG_ConfigureGuard(r_pbg_Id_t Id, r_pbg_Config_t Config)
                         720 	.align	2
                         721 	.align	2
                         722 	.global	_R_PBG_ConfigureGuard
                         723 _R_PBG_ConfigureGuard:
000000ee 031ed4ff        724 	addi	-44,sp,sp
000000f2 633f2100        725 	st.w	r7,32[sp]
000000f6 63371d00        726 	st.w	r6,28[sp]
000000fa 63ff1900        727 	st.w	lp,24[sp]
000000fe 63ef1100        728 	st.w	r29,16[sp]
00000102 63e71500        729 	st.w	r28,20[sp]
00000106 08e8            730 	mov	r8,r29
                         731 --	    .bf
                         732 .LDW43:
                         733 --241: {
                         734 --242:     r_pbg_t Instance;
                         735 --243:     r_pbg_Error_t err = R_PBG_SYS_GetInstance(Id, &Instance);
00000108 a307c9310000    736 	ld.dw	28[sp],r6
0000010e 23460000        737 	movea	0,sp,r8
                         738 	jarl	_R_PBG_SYS_GetInstance,lp
                         738 <EXPANSION BEGIN>
                         738 jarl22 _R_PBG_SYS_GetInstance , lp 
00000112 80ff0000*       738 <EXPANSION END>
00000116 0ae0            739 	mov	r10,r28
                         740 --244:     
                         741 --245:     uint32_t prot_reg_value = 0;
                         742 --line245
                         743 ..lin.C.3A.5Cgit.5Crh850.5Csrc.5Capp.5Cgfx_apps.5Csimple_draw.5Ctarget.5Cd1mx_mango_ghs.5Cobj.5Cr_pbg_main.14::
                         744 .LDWlin14:
00000118 000a            745 	mov	0,r1
                         746 --246:     uint32_t prot_reg_address = 0;
0000011a 00f2            747 	mov	0,ep
                         748 --248:     if (R_PBG_ERR_OK != err)
0000011c e0e1            749 	cmp	zero,r28
0000011e ea3d*           750 	bne	.L451
                         751 --249:     {
                         752 --250:         /* ERROR - Guard does not exist */
                         753 --251:     }
                         754 --252:     else
                         755 --253:     {
                         756 --254:         prot_reg_value |= (Config.PROTLOCK  << PROTLOCK_BIT);
                         757 --line254
                         758 ..lin.C.3A.5Cgit.5Crh850.5Csrc.5Capp.5Cgfx_apps.5Csimple_draw.5Ctarget.5Cd1mx_mango_ghs.5Cobj.5Cr_pbg_main.15::
                         759 .LDWlin15:
00000120 dd760100        760 	andi	1,r29,r14
00000124 df72            761 	shl	31,r14
00000126 0e09            762 	or	r14,r1
                         763 --255:         prot_reg_value |= (Config.PROTVM    << PROTVM_BIT);
00000128 1d70            764 	mov	r29,r14
0000012a de72            765 	shl	30,r14
0000012c 9f72            766 	shr	31,r14
0000012e da72            767 	shl	26,r14
00000130 0e09            768 	or	r14,r1
                         769 --256:         prot_reg_value |= (Config.PROTUM    << PROTUM_BIT);
00000132 1d70            770 	mov	r29,r14

                                                                      Page 14
                                                              C:\Users\Frank\AppData\Local\Temp\gh_0000pt81.si
00000134 dd72            771 	shl	29,r14
00000136 9f72            772 	shr	31,r14
00000138 d972            773 	shl	25,r14
0000013a 0e09            774 	or	r14,r1
                         775 --257:         prot_reg_value |= (Config.PROTPEID  << PROTPEID_BIT);
0000013c 1d70            776 	mov	r29,r14
0000013e d572            777 	shl	21,r14
00000140 9872            778 	shr	24,r14
00000142 d172            779 	shl	17,r14
00000144 0e09            780 	or	r14,r1
                         781 --258:         prot_reg_value |= (Config.VCID      << VCID_BIT);
00000146 1d70            782 	mov	r29,r14
00000148 cd72            783 	shl	13,r14
0000014a 9872            784 	shr	24,r14
0000014c c972            785 	shl	9,r14
0000014e 0e09            786 	or	r14,r1
                         787 --259:         prot_reg_value |= (Config.PROTSPID  << PROTSPID_BIT);
00000150 1d70            788 	mov	r29,r14
00000152 c972            789 	shl	9,r14
00000154 9c72            790 	shr	28,r14
00000156 c572            791 	shl	5,r14
00000158 0e09            792 	or	r14,r1
                         793 --260:         prot_reg_value |= (Config.PROTDEB   << PROTDEB_BIT);
0000015a 1d70            794 	mov	r29,r14
0000015c c872            795 	shl	8,r14
0000015e 9f72            796 	shr	31,r14
00000160 c472            797 	shl	4,r14
00000162 0e09            798 	or	r14,r1
                         799 --261:         prot_reg_value |= (Config.PROTRDPDEF << PROTRDPDEF_BIT);
00000164 1d70            800 	mov	r29,r14
00000166 c772            801 	shl	7,r14
00000168 9f72            802 	shr	31,r14
0000016a c372            803 	shl	3,r14
0000016c 0e09            804 	or	r14,r1
                         805 --262:         prot_reg_value |= (Config.PROTWRPDEF << PROTWRPDEF_BIT);
0000016e 1d70            806 	mov	r29,r14
00000170 c672            807 	shl	6,r14
00000172 9f72            808 	shr	31,r14
00000174 c272            809 	shl	2,r14
00000176 0e09            810 	or	r14,r1
                         811 --263:         prot_reg_value |= (Config.PROTRD    << PROTRD_BIT);
00000178 1d70            812 	mov	r29,r14
0000017a c572            813 	shl	5,r14
0000017c 9f72            814 	shr	31,r14
0000017e c172            815 	shl	1,r14
00000180 0e09            816 	or	r14,r1
                         817 --264:         prot_reg_value |= (Config.PROTWR    << PROTWR_BIT);
00000182 1d70            818 	mov	r29,r14
00000184 c472            819 	shl	4,r14
00000186 9f72            820 	shr	31,r14
00000188 0e09            821 	or	r14,r1
                         822 --265:         
                         823 --266:         prot_reg_address = Instance.Base0 + (4 * Id.Channel);
0000018a 23772100        824 	ld.w	32[sp],r14
0000018e 236f0900        825 	ld.w	8[sp],r13
00000192 c272            826 	shl	2,r14
00000194 0ef0            827 	mov	r14,ep
00000196 cdf1            828 	add	r13,ep
                         829 --267:         
                         830 --268:         R_PBG_WRITE32(prot_reg_address, prot_reg_value);
00000198 010d            831 	sst.w	r1,0[ep]

                                                                      Page 15
                                                              C:\Users\Frank\AppData\Local\Temp\gh_0000pt81.si
                         832 .L451:
                         833 --269:     }
                         834 --271:     return err;
0000019a 1c50            835 	mov	r28,r10
                         836 --	    .ef
                         837 .LDW53:
0000019c 23ff1900        838 	ld.w	24[sp],lp
000001a0 23ef1100        839 	ld.w	16[sp],r29
000001a4 23e71500        840 	ld.w	20[sp],r28
000001a8 031e2c00        841 	addi	44,sp,sp
000001ac 7f00            842 	jmp	[lp]
                         843 	.type	_R_PBG_ConfigureGuard,@function
                         844 	.size	_R_PBG_ConfigureGuard,.-_R_PBG_ConfigureGuard
                         845 	.align	2
                         846 .LDW63:
                         847 --_Instance	0[sp]	local
                         848 --_err	r28	local
                         849 --_prot_reg_value	r1	local
                         850 --_prot_reg_address	ep	local
                         851 
                         852 --_Id	28[sp]	param
                         853 --_Config	r29	param
                         854 
                         855 	.section ".bss","awb"
                         856 .L546:
                         857 	.type	.L546,@object
                         858 	.size	.L546,0
                         859 	.data
                         860 	.text
                         861 
                         862 --272: }
                         863 
                         864 --274: /*******************************************************************************
                         865 --275:   Function: R_PBG_ConfigureGuardSysCall
                         866 --277:   See: <r_pbg_api.h> 
                         867 --278: */
                         868 --279: r_pbg_Error_t R_PBG_ConfigureGuardSysCall(r_pbg_Id_t Id, r_pbg_Config_t Config)
                         869 	.align	2
                         870 	.align	2
                         871 	.global	_R_PBG_ConfigureGuardSysCall
                         872 _R_PBG_ConfigureGuardSysCall:
000001ae 031ee8ff        873 	addi	-24,sp,sp
000001b2 633f0d00        874 	st.w	r7,12[sp]
000001b6 63370900        875 	st.w	r6,8[sp]
000001ba 63ff0500        876 	st.w	lp,4[sp]
000001be 63ef0100        877 	st.w	r29,0[sp]
000001c2 08e8            878 	mov	r8,r29
                         879 --	    .bf
                         880 .LDW73:
                         881 --280: {
                         882 --281:     return R_PBG_ConfigureGuardSysCall_Internal(Id, Config);
000001c4 a30789300000    883 	ld.dw	8[sp],r6
000001ca 1d40            884 	mov	r29,r8
                         885 	jarl	_R_PBG_ConfigureGuardSysCall_Internal,lp
                         885 <EXPANSION BEGIN>
                         885 jarl22 _R_PBG_ConfigureGuardSysCall_Internal , lp 
000001cc 80ff0000*       885 <EXPANSION END>
                         886 --	    .ef
                         887 .LDW83:
                         888 --line282
                         889 ..lin.C.3A.5Cgit.5Crh850.5Csrc.5Capp.5Cgfx_apps.5Csimple_draw.5Ctarget.5Cd1mx_mango_ghs.5Cobj.5Cr_pbg_main.16::

                                                                      Page 16
                                                              C:\Users\Frank\AppData\Local\Temp\gh_0000pt81.si
                         890 .LDWlin16:
000001d0 23ff0500        891 	ld.w	4[sp],lp
000001d4 23ef0100        892 	ld.w	0[sp],r29
000001d8 031e1800        893 	addi	24,sp,sp
000001dc 7f00            894 	jmp	[lp]
                         895 	.type	_R_PBG_ConfigureGuardSysCall,@function
                         896 	.size	_R_PBG_ConfigureGuardSysCall,.-_R_PBG_ConfigureGuardSysCall
                         897 	.align	2
                         898 .LDW93:
                         899 
                         900 --_Id	8[sp]	param
                         901 --_Config	r29	param
                         902 
                         903 	.section ".bss","awb"
                         904 .L638:
                         905 	.type	.L638,@object
                         906 	.size	.L638,0
                         907 	.data
                         908 	.text
                         909 
                         910 --282: }
                         911 
                         912 --284: /*******************************************************************************
                         913 --285:   Function: R_PBG_ClearErrorStatus
                         914 --287:   See: <r_pbg_api.h> 
                         915 --288: */
                         916 --289: void R_PBG_ClearErrorStatus(r_pbg_Id_t Id)
                         917 	.align	2
                         918 	.align	2
                         919 	.global	_R_PBG_ClearErrorStatus
                         920 _R_PBG_ClearErrorStatus:
000001de 031ed8ff        921 	addi	-40,sp,sp
000001e2 633f1d00        922 	st.w	r7,28[sp]
000001e6 63371900        923 	st.w	r6,24[sp]
000001ea 63ff1500        924 	st.w	lp,20[sp]
000001ee 63ef1100        925 	st.w	r29,16[sp]
                         926 --	    .bf
                         927 .LDW04:
                         928 --290: {
                         929 --291:     r_pbg_t Instance;
                         930 --292:     r_pbg_Error_t err = R_PBG_SYS_GetInstance(Id, &Instance);
000001f2 a30789310000    931 	ld.dw	24[sp],r6
000001f8 23460000        932 	movea	0,sp,r8
                         933 	jarl	_R_PBG_SYS_GetInstance,lp
                         933 <EXPANSION BEGIN>
                         933 jarl22 _R_PBG_SYS_GetInstance , lp 
000001fc 80ff0000*       933 <EXPANSION END>
00000200 0ae8            934 	mov	r10,r29
                         935 --293:     
                         936 --294:     uint32_t ctl_reg_address = 0;
                         937 --line294
                         938 ..lin.C.3A.5Cgit.5Crh850.5Csrc.5Capp.5Cgfx_apps.5Csimple_draw.5Ctarget.5Cd1mx_mango_ghs.5Cobj.5Cr_pbg_main.17::
                         939 .LDWlin17:
00000202 00f2            940 	mov	0,ep
                         941 --296:     if (R_PBG_ERR_OK != err)
00000204 e0e9            942 	cmp	zero,r29
00000206 da05*           943 	bne	.L654
                         944 --297:     {
                         945 --298:         /* ERROR - Guard does not exist */
                         946 --299:     }
                         947 --300:     else

                                                                      Page 17
                                                              C:\Users\Frank\AppData\Local\Temp\gh_0000pt81.si
                         948 --301:     {
                         949 --302:         ctl_reg_address = Instance.Base1 + R_PBG_REG_CTL;
                         950 --line302
                         951 ..lin.C.3A.5Cgit.5Crh850.5Csrc.5Capp.5Cgfx_apps.5Csimple_draw.5Ctarget.5Cd1mx_mango_ghs.5Cobj.5Cr_pbg_main.18::
                         952 .LDWlin18:
00000208 23f70d00        953 	ld.w	12[sp],ep
                         954 --303:         
                         955 --304:         R_PBG_WRITE32(ctl_reg_address, 0x03);
0000020c 030a            956 	mov	3,r1
0000020e 010d            957 	sst.w	r1,0[ep]
                         958 .L654:
                         959 --305:     }
                         960 --306: }
                         961 --	    .ef
                         962 .LDW14:
00000210 23ff1500        963 	ld.w	20[sp],lp
00000214 23ef1100        964 	ld.w	16[sp],r29
00000218 031e2800        965 	addi	40,sp,sp
0000021c 7f00            966 	jmp	[lp]
                         967 	.type	_R_PBG_ClearErrorStatus,@function
                         968 	.size	_R_PBG_ClearErrorStatus,.-_R_PBG_ClearErrorStatus
                         969 	.align	2
                         970 .LDW24:
                         971 --_Instance	0[sp]	local
                         972 --_err	r29	local
                         973 --_ctl_reg_address	ep	local
                         974 
                         975 --_Id	24[sp]	param
                         976 
                         977 	.section ".bss","awb"
                         978 .L690:
                         979 	.type	.L690,@object
                         980 	.size	.L690,0
                         981 	.data
                         982 	.text
                         983 
                         984 
                         985 --308: /*******************************************************************************
                         986 --309:   Function: R_PBG_GetErrorStatus
                         987 --311:   See: <r_pbg_api.h> 
                         988 --312: */
                         989 --313: uint32_t R_PBG_GetErrorStatus(r_pbg_Id_t Id)
                         990 	.align	2
                         991 	.align	2
                         992 	.global	_R_PBG_GetErrorStatus
                         993 _R_PBG_GetErrorStatus:
0000021e 031ed8ff        994 	addi	-40,sp,sp
00000222 633f1d00        995 	st.w	r7,28[sp]
00000226 63371900        996 	st.w	r6,24[sp]
0000022a 63ff1500        997 	st.w	lp,20[sp]
0000022e 63ef1100        998 	st.w	r29,16[sp]
                         999 --	    .bf
                        1000 .LDW34:
                        1001 --314: {
                        1002 --315:     r_pbg_t Instance;
                        1003 --316:     r_pbg_Error_t err = R_PBG_SYS_GetInstance(Id, &Instance);
00000232 a30789310000   1004 	ld.dw	24[sp],r6
00000238 23460000       1005 	movea	0,sp,r8
                        1006 	jarl	_R_PBG_SYS_GetInstance,lp
                        1006 <EXPANSION BEGIN>
                        1006 jarl22 _R_PBG_SYS_GetInstance , lp 

                                                                      Page 18
                                                              C:\Users\Frank\AppData\Local\Temp\gh_0000pt81.si
0000023c 80ff0000*      1006 <EXPANSION END>
00000240 0ae8           1007 	mov	r10,r29
                        1008 --317:     
                        1009 --318:     uint32_t stat_reg_address = 0;
                        1010 --line318
                        1011 ..lin.C.3A.5Cgit.5Crh850.5Csrc.5Capp.5Cgfx_apps.5Csimple_draw.5Ctarget.5Cd1mx_mango_ghs.5Cobj.5Cr_pbg_main.19::
                        1012 .LDWlin19:
00000242 00f2           1013 	mov	0,ep
                        1014 --320:     if (R_PBG_ERR_OK != err)
00000244 e0e9           1015 	cmp	zero,r29
00000246 b205*          1016 	be	.L719
                        1017 --321:     {
                        1018 --322:         /* ERROR - Guard does not exist */
                        1019 --323:         return 0;
                        1020 --line323
                        1021 ..lin.C.3A.5Cgit.5Crh850.5Csrc.5Capp.5Cgfx_apps.5Csimple_draw.5Ctarget.5Cd1mx_mango_ghs.5Cobj.5Cr_pbg_main.20::
                        1022 .LDWlin20:
00000248 0052           1023 	mov	0,r10
0000024a d505*          1024 	br	.L717
                        1025 .L719:
                        1026 --324:     }
                        1027 --325:     else
                        1028 --326:     {
                        1029 --327:         stat_reg_address = Instance.Base1 + R_PBG_REG_STAT;
                        1030 --line327
                        1031 ..lin.C.3A.5Cgit.5Crh850.5Csrc.5Capp.5Cgfx_apps.5Csimple_draw.5Ctarget.5Cd1mx_mango_ghs.5Cobj.5Cr_pbg_main.21::
                        1032 .LDWlin21:
0000024c 23f70d00       1033 	ld.w	12[sp],ep
00000250 44f2           1034 	add	4,ep
                        1035 --328:         
                        1036 --329:         return R_PBG_READ32(stat_reg_address);
00000252 0055           1037 	sld.w	0[ep],r10
                        1038 .L717:
                        1039 --	    .ef
                        1040 .LDW44:
00000254 23ff1500       1041 	ld.w	20[sp],lp
00000258 23ef1100       1042 	ld.w	16[sp],r29
0000025c 031e2800       1043 	addi	40,sp,sp
00000260 7f00           1044 	jmp	[lp]
                        1045 	.type	_R_PBG_GetErrorStatus,@function
                        1046 	.size	_R_PBG_GetErrorStatus,.-_R_PBG_GetErrorStatus
                        1047 	.align	2
                        1048 .LDW54:
                        1049 --_Instance	0[sp]	local
                        1050 --_err	r29	local
                        1051 --_stat_reg_address	ep	local
                        1052 
                        1053 --_Id	24[sp]	param
                        1054 
                        1055 	.section ".bss","awb"
                        1056 .L770:
                        1057 	.type	.L770,@object
                        1058 	.size	.L770,0
                        1059 	.data
                        1060 	.text
                        1061 
                        1062 --330:     }
                        1063 --331: }
                        1064 
                        1065 --333: /*******************************************************************************
                        1066 --334:   Function: R_PBG_GetErrorDetails

                                                                      Page 19
                                                              C:\Users\Frank\AppData\Local\Temp\gh_0000pt81.si
                        1067 --336:   See: <r_pbg_api.h> 
                        1068 --337: */
                        1069 --338: uint32_t R_PBG_GetErrorDetails(r_pbg_Id_t Id, uint32_t *Addr, uint32_t *Type)
                        1070 	.align	2
                        1071 	.align	2
                        1072 	.global	_R_PBG_GetErrorDetails
                        1073 _R_PBG_GetErrorDetails:
00000262 031ed0ff       1074 	addi	-48,sp,sp
00000266 633f2500       1075 	st.w	r7,36[sp]
0000026a 63372100       1076 	st.w	r6,32[sp]
0000026e 63ff1d00       1077 	st.w	lp,28[sp]
00000272 63e71500       1078 	st.w	r28,20[sp]
00000276 63ef1100       1079 	st.w	r29,16[sp]
0000027a 09e0           1080 	mov	r9,r28
0000027c 63df1900       1081 	st.w	r27,24[sp]
00000280 08e8           1082 	mov	r8,r29
                        1083 --	    .bf
                        1084 .LDW64:
                        1085 --339: {
                        1086 --340:     r_pbg_t Instance;
                        1087 --341:     r_pbg_Error_t err = R_PBG_SYS_GetInstance(Id, &Instance);
00000282 a30709320000   1088 	ld.dw	32[sp],r6
00000288 23460000       1089 	movea	0,sp,r8
                        1090 	jarl	_R_PBG_SYS_GetInstance,lp
                        1090 <EXPANSION BEGIN>
                        1090 jarl22 _R_PBG_SYS_GetInstance , lp 
0000028c 80ff0000*      1090 <EXPANSION END>
00000290 0ad8           1091 	mov	r10,r27
                        1092 --342:     
                        1093 --343:     uint32_t addr_reg_address = 0;
                        1094 --line343
                        1095 ..lin.C.3A.5Cgit.5Crh850.5Csrc.5Capp.5Cgfx_apps.5Csimple_draw.5Ctarget.5Cd1mx_mango_ghs.5Cobj.5Cr_pbg_main.22::
                        1096 .LDWlin22:
00000292 00f2           1097 	mov	0,ep
                        1098 --344:     uint32_t type_reg_address = 0;
00000294 000a           1099 	mov	0,r1
                        1100 --346:     if (R_PBG_ERR_OK != err)
00000296 e0d9           1101 	cmp	zero,r27
00000298 b205*          1102 	be	.L799
                        1103 --347:     {
                        1104 --348:         /* ERROR - Guard does not exist */
                        1105 --349:         return 0;
                        1106 --line349
                        1107 ..lin.C.3A.5Cgit.5Crh850.5Csrc.5Capp.5Cgfx_apps.5Csimple_draw.5Ctarget.5Cd1mx_mango_ghs.5Cobj.5Cr_pbg_main.23::
                        1108 .LDWlin23:
0000029a 0052           1109 	mov	0,r10
0000029c b515*          1110 	br	.L797
                        1111 .L799:
                        1112 --350:     }
                        1113 --351:     else
                        1114 --352:     {
                        1115 --353:         addr_reg_address = Instance.Base1 + R_PBG_REG_ADDR;
                        1116 --line353
                        1117 ..lin.C.3A.5Cgit.5Crh850.5Csrc.5Capp.5Cgfx_apps.5Csimple_draw.5Ctarget.5Cd1mx_mango_ghs.5Cobj.5Cr_pbg_main.24::
                        1118 .LDWlin24:
0000029e 23f70d00       1119 	ld.w	12[sp],ep
000002a2 48f2           1120 	add	8,ep
                        1121 --354:         type_reg_address = Instance.Base1 + R_PBG_REG_TYPE;
000002a4 230f0d00       1122 	ld.w	12[sp],r1
000002a8 4c0a           1123 	add	12,r1
                        1124 --355:         

                                                                      Page 20
                                                              C:\Users\Frank\AppData\Local\Temp\gh_0000pt81.si
                        1125 --356:         if (0 != Addr)
000002aa e0e9           1126 	cmp	zero,r29
000002ac c205*          1127 	be	.L803
                        1128 --357:         {
                        1129 --358:             *Addr = R_PBG_READ32(addr_reg_address);
                        1130 --line358
                        1131 ..lin.C.3A.5Cgit.5Crh850.5Csrc.5Capp.5Cgfx_apps.5Csimple_draw.5Ctarget.5Cd1mx_mango_ghs.5Cobj.5Cr_pbg_main.25::
                        1132 .LDWlin25:
000002ae 0075           1133 	sld.w	0[ep],r14
000002b0 7d770100       1134 	st.w	r14,0[r29]
                        1135 .L803:
                        1136 --359:         }
                        1137 --361:         if (0 != Type)
000002b4 e0e1           1138 	cmp	zero,r28
000002b6 d205*          1139 	be	.L805
                        1140 --362:         {
                        1141 --363:             *Type = R_PBG_READ32(type_reg_address);
                        1142 --line363
                        1143 ..lin.C.3A.5Cgit.5Crh850.5Csrc.5Capp.5Cgfx_apps.5Csimple_draw.5Ctarget.5Cd1mx_mango_ghs.5Cobj.5Cr_pbg_main.26::
                        1144 .LDWlin26:
000002b8 21770100       1145 	ld.w	0[r1],r14
000002bc 7c770100       1146 	st.w	r14,0[r28]
                        1147 .L805:
                        1148 --364:         }
                        1149 --365:         
                        1150 --366:         return 0;
000002c0 0052           1151 	mov	0,r10
                        1152 .L797:
                        1153 --	    .ef
                        1154 .LDW74:
000002c2 23ff1d00       1155 	ld.w	28[sp],lp
000002c6 23ef1100       1156 	ld.w	16[sp],r29
000002ca 23e71500       1157 	ld.w	20[sp],r28
000002ce 23df1900       1158 	ld.w	24[sp],r27
000002d2 031e3000       1159 	addi	48,sp,sp
000002d6 7f00           1160 	jmp	[lp]
                        1161 	.type	_R_PBG_GetErrorDetails,@function
                        1162 	.size	_R_PBG_GetErrorDetails,.-_R_PBG_GetErrorDetails
                        1163 	.align	2
                        1164 .LDW84:
                        1165 --_Instance	0[sp]	local
                        1166 --_err	r27	local
                        1167 --_addr_reg_address	ep	local
                        1168 --_type_reg_address	r1	local
                        1169 
                        1170 --_Id	32[sp]	param
                        1171 --_Addr	r29	param
                        1172 --_Type	r28	param
                        1173 
                        1174 	.section ".bss","awb"
                        1175 .L874:
                        1176 	.type	.L874,@object
                        1177 	.size	.L874,0
                        1178 	.data
                        1179 	.text
                        1180 
                        1181 --367:     }
                        1182 --368: }
                        1183 	.align	2
                        1184 --_loc_pbgDrvVer	_loc_pbgDrvVer	static
                        1185 --_loc_ErrorHandler	_loc_ErrorHandler	static

                                                                      Page 21
                                                              C:\Users\Frank\AppData\Local\Temp\gh_0000pt81.si
                        1186 
                        1187 	.data
                        1188 	.ghsnote version,15
                        1189 	.ghsnote tools,3
                        1190 	.ghsnote options,144
                        1191 	.text
                        1192 	.align	2
                        1193 ..eof.C.3A.5Cgit.5Crh850.5Csrc.5Capp.5Cgfx_apps.5Csimple_draw.5Ctarget.5Cd1mx_mango_ghs.5Cobj.5Cr_pbg_main...43.3A.5Cgit.5Crh850.5Csrc.5Capp.5Cgfx_apps.5Csimple_draw.5Ctarget.5Cd1mx_mango_ghs..5BC5D026..0::
                        1194 .rh850_flags REGMODE22,DATA_ALIGN8,GP_FIX,EP_NONFIX,TP_FIX,REG2_RESERVE,G3M
