                                                                      Page 1
                                                              C:\Users\Frank\AppData\Local\Temp\gh_0000om41.si
Command Line: C:\GHS\V800.V2014.1.7\comp_201417\ease850.exe -w -elf -b0 -I../../../../../app/common/dhd -I../../../../../app/gfx_apps/simple_draw/src -I../../../../../app/gfx_apps/simple_draw/lib -I../../../../../bsp/board//config -I../../../../../bsp/board//src/gfx -I../../../../../bsp/board//src/hmi -I../../../../../bsp/board//src/stdio -I../../../../../bsp/board/d1mx_mango/config -I../../../../../bsp/board/d1mx_mango/src -I../../../../../bsp/board/d1mx_mango/src/gfx -I../../../../../bsp/board/d1mx_mango/src/hmi -I../../../../../bsp/board/d1mx_mango/src/stdio -I../../../../../bsp/gfx/lib -I../../../../../bsp/gfx/src -I../../../../../bsp/hmi/lib -I../../../../../bsp/hmi/src -I../../../../../bsp/lib -I../../../../../bsp/stdio/lib -I../../../../../bsp/stdio/src -I../../../../../cdi/lib -I../../../../../cdi/src -I../../../../../compiler/rh850_ghs/inc -I../../../../../device/d1mx/lib -I../../../../../device/d1mx/macro_cfg -I../../../../../device/d1mx/macro_cfg/csisw -I../../../../../device/d1mx/macro_cfg/davehd -I../../../../../device/d1mx/macro_cfg/ddb -I../../../../../device/d1mx/macro_cfg/drw2d -I../../../../../device/d1mx/macro_cfg/gfxbus -I../../../../../device/d1mx/macro_cfg/gpio -I../../../../../device/d1mx/macro_cfg/hypb -I../../../../../device/d1mx/macro_cfg/hypdb -I../../../../../device/d1mx/macro_cfg/jcua -I../../../../../device/d1mx/macro_cfg/nfmabare -I../../../../../device/d1mx/macro_cfg/octa -I../../../../../device/d1mx/macro_cfg/octacdb -I../../../../../device/d1mx/macro_cfg/ostm -I../../../../../device/d1mx/macro_cfg/pbg -I../../../../../device/d1mx/macro_cfg/riic -I../../../../../device/d1mx/macro_cfg/sfcdb -I../../../../../device/d1mx/macro_cfg/sfma -I../../../../../device/d1mx/macro_cfg/spea -I../../../../../device/d1mx/macro_cfg/tauj -I../../../../../device/d1mx/macro_cfg/tick -I../../../../../device/d1mx/macro_cfg/vdce -I../../../../../device/d1mx/macro_cfg/vowe -I../../../../../device/d1mx/macro_cfg/wm -I../../../../../device/d1mx/macro_cfg/xbus -I../../../../../device/d1mx/src/dev -I../../../../../device/d1mx/src/dhd -I../../../../../device/d1mx/src/hypb -I../../../../../device/d1mx/src/jcua -I../../../../../device/d1mx/src/nfmabare -I../../../../../device/d1mx/src/octa -I../../../../../device/d1mx/src/rh850_ghs -I../../../../../device/d1mx/src/vowe -I../../../../../device/d1x_common/macro_cfg -I../../../../../device/d1x_common/macro_cfg/csisw -I../../../../../device/d1x_common/macro_cfg/davehd -I../../../../../device/d1x_common/macro_cfg/ddb -I../../../../../device/d1x_common/macro_cfg/drw2d -I../../../../../device/d1x_common/macro_cfg/gfxbus -I../../../../../device/d1x_common/macro_cfg/gpio -I../../../../../device/d1x_common/macro_cfg/hypb -I../../../../../device/d1x_common/macro_cfg/hypdb -I../../../../../device/d1x_common/macro_cfg/jcua -I../../../../../device/d1x_common/macro_cfg/nfmabare -I../../../../../device/d1x_common/macro_cfg/octa -I../../../../../device/d1x_common/macro_cfg/octacdb -I../../../../../device/d1x_common/macro_cfg/ostm -I../../../../../device/d1x_common/macro_cfg/pbg -I../../../../../device/d1x_common/macro_cfg/riic -I../../../../../device/d1x_common/macro_cfg/sfcdb -I../../../../../device/d1x_common/macro_cfg/sfma -I../../../../../device/d1x_common/macro_cfg/spea -I../../../../../device/d1x_common/macro_cfg/tauj -I../../../../../device/d1x_common/macro_cfg/tick -I../../../../../device/d1x_common/macro_cfg/vdce -I../../../../../device/d1x_common/macro_cfg/vowe -I../../../../../device/d1x_common/macro_cfg/wm -I../../../../../device/d1x_common/macro_cfg/xbus -I../../../../../device/d1x_common/src/csisw -I../../../../../device/d1x_common/src/ddb -I../../../../../device/d1x_common/src/dev -I../../../../../device/d1x_common/src/gfxbus -I../../../../../device/d1x_common/src/gpio -I../../../../../device/d1x_common/src/ostm -I../../../../../device/d1x_common/src/pbg -I../../../../../device/d1x_common/src/riic -I../../../../../device/d1x_common/src/sfma -I../../../../../device/d1x_common/src/spea -I../../../../../device/d1x_common/src/tauj -I../../../../../device/d1x_common/src/tick -I../../../../../device/d1x_common/src/vdce -I../../../../../device/d1x_common/src/wm -I../../../../../device/d1x_common/src/xbus -I../../../../../device/lib -I../../../../../macro/bus/pbg/lib -I../../../../../macro/bus/pbg/src -I../../../../../macro/csi/csisw/lib -I../../../../../macro/csi/csisw/src -I../../../../../macro/drw2d/lib -I../../../../../macro/drw2d/platform/davehd -I../../../../../macro/drw2d/platform/os/no_os -I../../../../../macro/drw2d/src -I../../../../../macro/flashc/hypb/lib -I../../../../../macro/flashc/hypb/src -I../../../../../macro/flashc/hypdb/lib -I../../../../../macro/flashc/hypdb/src -I../../../../../macro/flashc/nfmabare/lib -I../../../../../macro/flashc/nfmabare/src -I../../../../../macro/flashc/octa/lib -I../../../../../macro/flashc/octa/src -I../../../../../macro/flashc/octacdb/lib -I../../../../../macro/flashc/octacdb/src -I../../../../../macro/flashc/sfcdb/lib -I../../../../../macro/flashc/sfcdb/src -I../../../../../macro/flashc/sfma/lib -I../../../../../macro/flashc/sfma/src -I../../../../../macro/gfxbus/lib -I../../../../../macro/gfxbus/src -I../../../../../macro/gfxbus/xbus/lib -I../../../../../macro/gfxbus/xbus/src -I../../../../../macro/gpio/lib -I../../../../../macro/gpio/src -I../../../../../macro/gpu/davehd/common/inc -I../../../../../macro/gpu/davehd/common/inc/platform -I../../../../../macro/gpu/davehd/common/inc/platform/d1mx -I../../../../../macro/gpu/davehd/docs -I../../../../../macro/gpu/davehd/kernel/inc -I../../../../../macro/gpu/davehd/kernel/platform/d1mx -I../../../../../macro/gpu/davehd/kernel/platform/d1mx/bridge -I../../../../../macro/gpu/davehd/kernel/platform/d1mx/non_threaded -I../../../../../macro/gpu/davehd/kernel/platform/ree -I../../../../../macro/gpu/davehd/kernel/src -I../../../../../macro/gpu/davehd/user/inc -I../../../../../macro/gpu/davehd/user/platform/d1mx/no_os -I../../../../../macro/gpu/davehd/user/src -I../../../../../macro/gpu/jcua/lib -I../../../../../macro/gpu/jcua/src -I../../../../../macro/i2c/riic/lib -I../../../../../macro/i2c/riic/src -I../../../../../macro/tick/lib -I../../../../../macro/tick/src -I../../../../../macro/timer/ostm/lib -I../../../../../macro/timer/ostm/src -I../../../../../macro/timer/tauj/lib -I../../../../../macro/timer/tauj/src -I../../../../../macro/vdce/lib -I../../../../../macro/vdce/src -I../../../../../macro/vo/ddb/lib -I../../../../../macro/vo/ddb/src -I../../../../../macro/vo/spea/lib -I../../../../../macro/vo/spea/src -I../../../../../macro/vo/vowe/lib -I../../../../../macro/vo/vowe/src -I../../../../../macro/wm/lib -I../../../../../macro/wm/src -I../../../../../macro/pwm/lib -I../../../../../macro/reset/lib -I../../../../../macro/rscan/lib -I../../../../../macro/uart/rlin3/lib -I../../../../../macro/uart/rlin3/src -I../../../../../device/d1x_common/macro_cfg/rlin3 -I../../../../../macro/stbc/lib -I../../../../../macro/adc/lib -I../../../../../device/d1x_common/macro_cfg/adc7010 -IC:\GHS\V800.V2014.1.7\comp_201417\lib\rh850_22 -cg_underscore -cpu=rh850g3m -no_v850_simd -rh850_fpsimd=none -nomacro -patch_dbo=C:\git\rh850\src\app\gfx_apps\simple_draw\target\d1mx_mango_ghs\obj\r_sys_vdce.dbo -source=r_sys_vdce.c -o .\obj\gh_0000om41.o -list=.\obj\r_sys_vdce.lst C:\Users\Frank\AppData\Local\Temp\gh_0000om41.si 
Original File: C:\Users\Frank\AppData\Local\Temp\gh_0000om41.si
Source File: r_sys_vdce.c
Directory: C:\git\rh850\src\app\gfx_apps\simple_draw\target\d1mx_mango_ghs
Host OS: Windows
EASE: Copyright (C) 1983-2014 Green Hills Software.  All Rights Reversed.
Release: Compiler v2014.1.7
Build Directory: [Directory] BTOWINBOX:c:/build_2014_1_bto/2014-09-04.2200-2014_1_bto/win32-comp-ecom
Revision: [VCInfo] http://toolsvc/branches/release-branch-2014-1-bto/src@515859 (built by build)
Revision Date: Fri Sep 05 14:05:06 2014

Release Date: Fri Sep 05 14:43:29 2014

                           1 --Driver Command: ccv850 -c -MD -I../../../../../app/common/dhd
                           2 --		-I../../../../../app/gfx_apps/simple_draw/src
                           3 --		-I../../../../../app/gfx_apps/simple_draw/lib
                           4 --		-I../../../../../bsp/board//config
                           5 --		-I../../../../../bsp/board//src/gfx
                           6 --		-I../../../../../bsp/board//src/hmi
                           7 --		-I../../../../../bsp/board//src/stdio
                           8 --		-I../../../../../bsp/board/d1mx_mango/config
                           9 --		-I../../../../../bsp/board/d1mx_mango/src
                          10 --		-I../../../../../bsp/board/d1mx_mango/src/gfx
                          11 --		-I../../../../../bsp/board/d1mx_mango/src/hmi
                          12 --		-I../../../../../bsp/board/d1mx_mango/src/stdio
                          13 --		-I../../../../../bsp/gfx/lib -I../../../../../bsp/gfx/src
                          14 --		-I../../../../../bsp/hmi/lib -I../../../../../bsp/hmi/src
                          15 --		-I../../../../../bsp/lib -I../../../../../bsp/stdio/lib
                          16 --		-I../../../../../bsp/stdio/src -I../../../../../cdi/lib
                          17 --		-I../../../../../cdi/src -I../../../../../compiler/rh850_ghs/inc
                          18 --		-I../../../../../device/d1mx/lib
                          19 --		-I../../../../../device/d1mx/macro_cfg
                          20 --		-I../../../../../device/d1mx/macro_cfg/csisw
                          21 --		-I../../../../../device/d1mx/macro_cfg/davehd
                          22 --		-I../../../../../device/d1mx/macro_cfg/ddb
                          23 --		-I../../../../../device/d1mx/macro_cfg/drw2d
                          24 --		-I../../../../../device/d1mx/macro_cfg/gfxbus
                          25 --		-I../../../../../device/d1mx/macro_cfg/gpio
                          26 --		-I../../../../../device/d1mx/macro_cfg/hypb
                          27 --		-I../../../../../device/d1mx/macro_cfg/hypdb
                          28 --		-I../../../../../device/d1mx/macro_cfg/jcua
                          29 --		-I../../../../../device/d1mx/macro_cfg/nfmabare
                          30 --		-I../../../../../device/d1mx/macro_cfg/octa
                          31 --		-I../../../../../device/d1mx/macro_cfg/octacdb
                          32 --		-I../../../../../device/d1mx/macro_cfg/ostm
                          33 --		-I../../../../../device/d1mx/macro_cfg/pbg
                          34 --		-I../../../../../device/d1mx/macro_cfg/riic
                          35 --		-I../../../../../device/d1mx/macro_cfg/sfcdb
                          36 --		-I../../../../../device/d1mx/macro_cfg/sfma
                          37 --		-I../../../../../device/d1mx/macro_cfg/spea
                          38 --		-I../../../../../device/d1mx/macro_cfg/tauj
                          39 --		-I../../../../../device/d1mx/macro_cfg/tick
                          40 --		-I../../../../../device/d1mx/macro_cfg/vdce
                          41 --		-I../../../../../device/d1mx/macro_cfg/vowe
                          42 --		-I../../../../../device/d1mx/macro_cfg/wm
                          43 --		-I../../../../../device/d1mx/macro_cfg/xbus
                          44 --		-I../../../../../device/d1mx/src/dev
                          45 --		-I../../../../../device/d1mx/src/dhd
                          46 --		-I../../../../../device/d1mx/src/hypb
                          47 --		-I../../../../../device/d1mx/src/jcua
                          48 --		-I../../../../../device/d1mx/src/nfmabare
                          49 --		-I../../../../../device/d1mx/src/octa
                          50 --		-I../../../../../device/d1mx/src/rh850_ghs

                                                                      Page 2
                                                              C:\Users\Frank\AppData\Local\Temp\gh_0000om41.si
                          51 --		-I../../../../../device/d1mx/src/vowe
                          52 --		-I../../../../../device/d1x_common/macro_cfg
                          53 --		-I../../../../../device/d1x_common/macro_cfg/csisw
                          54 --		-I../../../../../device/d1x_common/macro_cfg/davehd
                          55 --		-I../../../../../device/d1x_common/macro_cfg/ddb
                          56 --		-I../../../../../device/d1x_common/macro_cfg/drw2d
                          57 --		-I../../../../../device/d1x_common/macro_cfg/gfxbus
                          58 --		-I../../../../../device/d1x_common/macro_cfg/gpio
                          59 --		-I../../../../../device/d1x_common/macro_cfg/hypb
                          60 --		-I../../../../../device/d1x_common/macro_cfg/hypdb
                          61 --		-I../../../../../device/d1x_common/macro_cfg/jcua
                          62 --		-I../../../../../device/d1x_common/macro_cfg/nfmabare
                          63 --		-I../../../../../device/d1x_common/macro_cfg/octa
                          64 --		-I../../../../../device/d1x_common/macro_cfg/octacdb
                          65 --		-I../../../../../device/d1x_common/macro_cfg/ostm
                          66 --		-I../../../../../device/d1x_common/macro_cfg/pbg
                          67 --		-I../../../../../device/d1x_common/macro_cfg/riic
                          68 --		-I../../../../../device/d1x_common/macro_cfg/sfcdb
                          69 --		-I../../../../../device/d1x_common/macro_cfg/sfma
                          70 --		-I../../../../../device/d1x_common/macro_cfg/spea
                          71 --		-I../../../../../device/d1x_common/macro_cfg/tauj
                          72 --		-I../../../../../device/d1x_common/macro_cfg/tick
                          73 --		-I../../../../../device/d1x_common/macro_cfg/vdce
                          74 --		-I../../../../../device/d1x_common/macro_cfg/vowe
                          75 --		-I../../../../../device/d1x_common/macro_cfg/wm
                          76 --		-I../../../../../device/d1x_common/macro_cfg/xbus
                          77 --		-I../../../../../device/d1x_common/src/csisw
                          78 --		-I../../../../../device/d1x_common/src/ddb
                          79 --		-I../../../../../device/d1x_common/src/dev
                          80 --		-I../../../../../device/d1x_common/src/gfxbus
                          81 --		-I../../../../../device/d1x_common/src/gpio
                          82 --		-I../../../../../device/d1x_common/src/ostm
                          83 --		-I../../../../../device/d1x_common/src/pbg
                          84 --		-I../../../../../device/d1x_common/src/riic
                          85 --		-I../../../../../device/d1x_common/src/sfma
                          86 --		-I../../../../../device/d1x_common/src/spea
                          87 --		-I../../../../../device/d1x_common/src/tauj
                          88 --		-I../../../../../device/d1x_common/src/tick
                          89 --		-I../../../../../device/d1x_common/src/vdce
                          90 --		-I../../../../../device/d1x_common/src/wm
                          91 --		-I../../../../../device/d1x_common/src/xbus
                          92 --		-I../../../../../device/lib -I../../../../../macro/bus/pbg/lib
                          93 --		-I../../../../../macro/bus/pbg/src
                          94 --		-I../../../../../macro/csi/csisw/lib
                          95 --		-I../../../../../macro/csi/csisw/src
                          96 --		-I../../../../../macro/drw2d/lib
                          97 --		-I../../../../../macro/drw2d/platform/davehd
                          98 --		-I../../../../../macro/drw2d/platform/os/no_os
                          99 --		-I../../../../../macro/drw2d/src
                         100 --		-I../../../../../macro/flashc/hypb/lib
                         101 --		-I../../../../../macro/flashc/hypb/src
                         102 --		-I../../../../../macro/flashc/hypdb/lib
                         103 --		-I../../../../../macro/flashc/hypdb/src
                         104 --		-I../../../../../macro/flashc/nfmabare/lib
                         105 --		-I../../../../../macro/flashc/nfmabare/src
                         106 --		-I../../../../../macro/flashc/octa/lib
                         107 --		-I../../../../../macro/flashc/octa/src
                         108 --		-I../../../../../macro/flashc/octacdb/lib
                         109 --		-I../../../../../macro/flashc/octacdb/src
                         110 --		-I../../../../../macro/flashc/sfcdb/lib
                         111 --		-I../../../../../macro/flashc/sfcdb/src

                                                                      Page 3
                                                              C:\Users\Frank\AppData\Local\Temp\gh_0000om41.si
                         112 --		-I../../../../../macro/flashc/sfma/lib
                         113 --		-I../../../../../macro/flashc/sfma/src
                         114 --		-I../../../../../macro/gfxbus/lib
                         115 --		-I../../../../../macro/gfxbus/src
                         116 --		-I../../../../../macro/gfxbus/xbus/lib
                         117 --		-I../../../../../macro/gfxbus/xbus/src
                         118 --		-I../../../../../macro/gpio/lib -I../../../../../macro/gpio/src
                         119 --		-I../../../../../macro/gpu/davehd/common/inc
                         120 --		-I../../../../../macro/gpu/davehd/common/inc/platform
                         121 --		-I../../../../../macro/gpu/davehd/common/inc/platform/d1mx
                         122 --		-I../../../../../macro/gpu/davehd/docs
                         123 --		-I../../../../../macro/gpu/davehd/kernel/inc
                         124 --		-I../../../../../macro/gpu/davehd/kernel/platform/d1mx
                         125 --		-I../../../../../macro/gpu/davehd/kernel/platform/d1mx/bridge
                         126 --		-I../../../../../macro/gpu/davehd/kernel/platform/d1mx/non_threaded
                         127 --		-I../../../../../macro/gpu/davehd/kernel/platform/ree
                         128 --		-I../../../../../macro/gpu/davehd/kernel/src
                         129 --		-I../../../../../macro/gpu/davehd/user/inc
                         130 --		-I../../../../../macro/gpu/davehd/user/platform/d1mx/no_os
                         131 --		-I../../../../../macro/gpu/davehd/user/src
                         132 --		-I../../../../../macro/gpu/jcua/lib
                         133 --		-I../../../../../macro/gpu/jcua/src
                         134 --		-I../../../../../macro/i2c/riic/lib
                         135 --		-I../../../../../macro/i2c/riic/src
                         136 --		-I../../../../../macro/tick/lib -I../../../../../macro/tick/src
                         137 --		-I../../../../../macro/timer/ostm/lib
                         138 --		-I../../../../../macro/timer/ostm/src
                         139 --		-I../../../../../macro/timer/tauj/lib
                         140 --		-I../../../../../macro/timer/tauj/src
                         141 --		-I../../../../../macro/vdce/lib -I../../../../../macro/vdce/src
                         142 --		-I../../../../../macro/vo/ddb/lib
                         143 --		-I../../../../../macro/vo/ddb/src
                         144 --		-I../../../../../macro/vo/spea/lib
                         145 --		-I../../../../../macro/vo/spea/src
                         146 --		-I../../../../../macro/vo/vowe/lib
                         147 --		-I../../../../../macro/vo/vowe/src -I../../../../../macro/wm/lib
                         148 --		-I../../../../../macro/wm/src -I../../../../../macro/pwm/lib
                         149 --		-I../../../../../macro/i2c/riic/lib
                         150 --		-I../../../../../macro/reset/lib -I../../../../../macro/rscan/lib
                         151 --		-I../../../../../macro/uart/rlin3/lib
                         152 --		-I../../../../../macro/uart/rlin3/src
                         153 --		-I../../../../../device/d1x_common/macro_cfg/rlin3
                         154 --		-I../../../../../macro/stbc/lib
                         155 --		-I../../../../../app/gfx_apps/simple_draw/lib
                         156 --		-I../../../../../macro/adc/lib
                         157 --		-I../../../../../device/d1x_common/macro_cfg/adc7010 -G
                         158 --		--no_commons --no_implicit_include --prototype_errors
                         159 --		-DRENESAS_D1X -DR_DRW2D_OS_NO_OS -DR_DRW2D_SYS_DHD
                         160 --		-DUSED_CPU=RH850G3M -DUSE_BSP_GFX -DUSE_BSP_HMI -DUSE_BSP_STDIO
                         161 --		-DUSE_CDI -DUSE_CSISW -DUSE_DAVEHD -DUSE_DDB -DUSE_DRW2D
                         162 --		-DUSE_GFXBUS -DUSE_GPIO -DUSE_HYPB -DUSE_HYPDB -DUSE_JCUA
                         163 --		-DUSE_NFMABARE -DUSE_OCTA -DUSE_OCTACDB -DUSE_OSTM -DUSE_PBG
                         164 --		-DUSE_RIIC -DUSE_SFCDB -DUSE_SFMA -DUSE_SPEA -DUSE_TAUJ
                         165 --		-DUSE_TICK -DUSE_VDCE -DUSE_WM -DUSE_XBUS -DMAG -MD -Zuse1bit
                         166 --		-allocate_ep -cpu=rh850g3m -large_sda -list -no_callt -notda
                         167 --		-passsource -preprocess_assembly_files -registermode=22
                         168 --		-reserve_r2 --diag_warning 1 -object_dir=./obj -DUSE_VDCE_OPENLDI
                         169 --		-gnu99 -filetype.c
                         170 --		..\..\..\..\..\device\d1x_common\src\vdce\r_sys_vdce.c -o
                         171 --		.\obj\r_sys_vdce.o
                         172 --Source File:   ..\..\..\..\..\device\d1x_common\src\vdce\r_sys_vdce.c

                                                                      Page 4
                                                              C:\Users\Frank\AppData\Local\Temp\gh_0000om41.si
                         173 --Directory:     
                         174 --		C:\git\rh850\src\app\gfx_apps\simple_draw\target\d1mx_mango_ghs
                         175 --Compile Date:  Tue Oct 16 19:48:56 2018
                         176 --Host OS:       Win32
                         177 --Version:       C-RH850 2014.1.7 RELEASE VERSION
                         178 --Release:       Compiler v2014.1.7
                         179 --Revision Date: Fri Sep 05 14:10:46 2014
                         180 --Release Date:  Fri Sep 05 14:44:23 2014
                         181 -- ecom  -g -w
                         182 
                         183 --1: /*
                         184 --2: ****************************************************************************
                         185 --3: PROJECT : VDCE driver
                         186 --4: FILE    : $Id: r_sys_vdce.c 13578 2017-05-29 13:31:52Z matthias.nippert $
                         187 --5: ============================================================================
                         188 --6: DESCRIPTION
                         189 --7: VDCE system functions
                         190 --8: ============================================================================
                         191 --9:                             C O P Y R I G H T
                         192 --10: ============================================================================
                         193 --11:                            Copyright (c) 2013 - 2015
                         194 --12:                                   by
                         195 --13:                        Renesas Electronics (Europe) GmbH.
                         196 --14:                            Arcadiastrasse 10
                         197 --15:                           D-40472 Duesseldorf
                         198 --16:                                Germany
                         199 --17:                           All rights reserved.
                         200 --18: ============================================================================
                         201 --19: Purpose: only for testing, not for mass production
                         202 --21: DISCLAIMER
                         203 --23: LICENSEE has read, understood and accepted the terms and conditions defined in
                         204 --24: the license agreement, especially the usage rights. In any case, it is
                         205 --25: LICENSEE's responsibility to make sure that any user of the software complies
                         206 --26: with the terms and conditions of the signed license agreement.
                         207 --28: SAMPLE CODE is not part of the licensed software, as such it must not be used in
                         208 --29: mass-production applications. It can only be used for evaluation and
                         209 --30: demonstration purposes at customer's premises listed in the signed license
                         210 --31: agreement.
                         211 --32: ****************************************************************************
                         212 --33: */
                         213 --35: /******************************************************************************
                         214 --36:   Title: Generic VDCE Support Functions
                         215 --38:     VDCE driver Support Functions
                         216 --40: ******************************************************************************/
                         217 --42: /*******************************************************************************
                         218 --43:   Section: Includes
                         219 --44: */
                         220 --46: #include "r_typedefs.h"   /* Renesas basic types, e.g. uint32_t */
                         221 --47: #include "r_ddb_api.h"    /* display database with display timings */
                         222 --48: #include "r_dev_api.h"
                         223 --49: #include "r_config_hwversion.h"
                         224 --50: #include "r_config_vdce.h"
                         225 --51: #include "r_config_vdce_num.h"
                         226 --52: #include "r_vdce_api.h"
                         227 --53: #include "r_vdce_sys.h"
                         228 --55: /*******************************************************************************
                         229 --56:   Section: Local Defines
                         230 --57: */
                         231 --59: /*
                         232 --60: The following is sample code, which may not respect the correct value of <Unit>,
                         233 --61: if both following conditions are satisfied:

                                                                      Page 5
                                                              C:\Users\Frank\AppData\Local\Temp\gh_0000om41.si
                         234 --63:   * Both video channels are active
                         235 --64:   * One of the channel uses RSDS, OpenLDI or SerialRGB
                         236 --66: Please make sure to remove sample code for that Unit that is not required to use 
                         237 --67: one of the above features.
                         238 --68: */
                         239 --70: /*
                         240 --71: The following flags are used in several files.
                         241 --72: Thus, these flags are best set globally, e.g. in a Makefile.
                         242 --74:     USE_VDCE_RSDS       -   Configure VDCE to use RSDS on Pins "VDCE0 Out"
                         243 --75:     USE_VDCE_SERIALRGB  -   Configure VDCE to use Serial RGB on Pins "VDCE1 Out"
                         244 --76:     USE_VDCE_OPENLDI    -   Configure VDCE to use Open LDI on Pins "VDCE0 Out"
                         245 --77:     USE_VDCE_VODDR      -   Configure VDCE to use VO-DDR on Pins "VDCE0 Out"
                         246 --78:     
                         247 --79:     TODO for system integrator:
                         248 --80:     At the moment, for RSDS, OpenLDI and SerialRGB, divider is set for both Units 0 and 1.
                         249 --81:     It should just be set for the Unit currently using the respective mode.
                         250 --82: */
                         251 --84: /* USE_VDCE_RSDS
                         252 --85:     0 = LVTTL, (default, if undefined)
                         253 --86:     1 = RSDS
                         254 --87: */
                         255 --88: #ifndef USE_VDCE_RSDS
                         256 --89:     #define USE_VDCE_RSDS       (0u)
                         257 --90: #endif
                         258 --92: /* USE_VDCE_OPENLDI
                         259 --93:     0 = Parallel Video Output (default, if undefined)
                         260 --94:     1 = Open LDI
                         261 --95: */
                         262 --96: #ifndef USE_VDCE_OPENLDI
                         263 --97:     #define USE_VDCE_OPENLDI    (1u)
                         264 --98: #endif
                         265 --100: /* USE_VDCE_VODDR
                         266 --101:     0 = Parallel Video Output (default, if undefined)
                         267 --102:     1 = VO DDR Video Output
                         268 --103: */
                         269 --104: #ifndef USE_VDCE_VODDR
                         270 --105:     #define USE_VDCE_VODDR      (0u)
                         271 --106: #endif
                         272 --108: /* USE_VDCE_SERIALRGB
                         273 --109:     0 = Parallel Video Output (default, if undefined)
                         274 --110:     1 = Serial RGB
                         275 --111: */
                         276 --112: #ifndef USE_VDCE_SERIALRGB
                         277 --113:     #define USE_VDCE_SERIALRGB  (0u)
                         278 --114: #endif
                         279 --116: /* USE_VDCE_SERIALRGB_SPEED
                         280 --117:     3 = Triple Speed (default, if undefined)
                         281 --118:     4 = Quadruple Speed
                         282 --119: */
                         283 --120: #ifndef USE_VDCE_SERIALRGB_SPEED
                         284 --121:     #define USE_VDCE_SERIALRGB_SPEED  (3u)
                         285 --122: #endif
                         286 --127: #if (USE_VDCE_SERIALRGB | USE_VDCE_OPENLDI) & USE_VDCE_VODDR
                         287 --128:     #error "VO-DDR must not be enabled together with SerialRGB and OpenLDI"
                         288 --129: #endif
                         289 --132: #define LOC_PRDNAME_THRESHOLD  (300u)
                         290 --133: #define LOC_VDCE_REVISION_1    (1u)
                         291 --134: #define LOC_VDCE_REVISION_2    (2u)
                         292 --137: /* Video output pixel clocks exchange register (RH850/D1M2(H) and D1M1A only)
                         293 --138: */
                         294 --139: #define VDCECTL         0xFFC0601Cu

                                                                      Page 6
                                                              C:\Users\Frank\AppData\Local\Temp\gh_0000om41.si
                         295 --140: #define VDCECTL_VOSL    (1ul<<2)
                         296 --142: #define LOC_CKSC_IVOEXS_CTL_REG_ADDR    (0xFFF85900u)
                         297 --143: #define LOC_PROTCMDD1     (0xfff87000u)
                         298 --146: #define LOC_PINV45  (0xFF610B70u)
                         299 --147: #define LOC_PINV47  (0xFF610BF0u)
                         300 --148: #define LOC_PPCMD45 (0xFFC14B6Cu)
                         301 --149: #define LOC_PPCMD47 (0xFFC14BECu)
                         302 --151: /* Video Output DDR Mode clock divider register (RH850/D1M1A only)
                         303 --152: */
                         304 --154: #define VODDR0_SYSCNT               (0xF2001000ul)
                         305 --155: #define VODDR0_CLKDIV               (0xF2001004ul)
                         306 --157: #define VODDR0_SYSCNT_CLK_START     (1ul<<0)
                         307 --158: #define VODDR0_SYSCNT_VO1_ENABLE    (1ul<<16)
                         308 --160: #define VODDR0_CLKDIV_CLKDIV0(div)  (((div)&0xFFul)<<0)  /* Set clock divider of 2..254 of PLLCLK */
                         309 --161: #define VODDR0_CLKDIV_CLKDIV1(div)  (((div)&0xFFul)<<16) /* Set clock divider of 2..254 of PLLCLK */
                         310 --163: /* The definition of the interrupt control.
                         311 --164: */
                         312 --165: #define LOC_INTC_UNIT0_START   (R_DEV_INT_VDCE0ERR)
                         313 --166: #define LOC_INTC_UNIT0_END     (R_DEV_INT_VDCE0IRVLINE)
                         314 --167: #define LOC_INTC_UNIT1_START   (R_DEV_INT_VDCE1ERR)
                         315 --168: #define LOC_INTC_UNIT1_END     (R_DEV_INT_VDCE1S1LOVSYNC)
                         316 --169: #define LOC_INTC_UNIT1_OFFSET  (R_DEV_INT_VDCE1ERR - R_DEV_INT_VDCE0ERR)
                         317 --171: #define LOC_MASK_0X00000001 (0x00000001u)
                         318 --172: #define LOC_MASK_0X00000100 (0x00000100u)
                         319 --174: /***************************************************************************
                         320 --175:   Constants: LOC_CPU_FREQ_MAX
                         321 --176:   
                         322 --177:   The definition for maximum CPU clock frequency (Hz).
                         323 --178:   It does not matter if it is greater than actual value.
                         324 --179:   
                         325 --180: */
                         326 --181: #define LOC_CPU_FREQ_MAX                   (240000000)
                         327 --183: /***************************************************************************
                         328 --184:   Constants: LOC_SYNC_FREQ_MIN
                         329 --185:   
                         330 --186:   The definition for minimum syncronization clock frequency (Hz).
                         331 --187:   When frequency is unknown (i.e. external VIN clock), this definition value is used. 
                         332 --188:   It should be enough small value.
                         333 --189:   
                         334 --190: */
                         335 --191: #define LOC_SYNC_FREQ_MIN                  (1000000)
                         336 --193: /***************************************************************************
                         337 --194:   Constants: LOC_1ST_WAIT_CYCLE
                         338 --195:   
                         339 --196:   The definition for cycle number that H/W accepts clear instruction.
                         340 --197:   The cycle is based on synchronization clock for each interrupt. 
                         341 --198:   
                         342 --199:   Simulatuion result : 2 Cycle. 
                         343 --200:   margin             : 2 Cycle. 
                         344 --201:   It does not matter if it is greater than actual value.
                         345 --202: */
                         346 --204: #define LOC_1ST_WAIT_CYCLE                  (4)
                         347 --206: /***************************************************************************
                         348 --207:   Constants: LOC_2ND_WAIT_CYCLE
                         349 --208:   
                         350 --209:   The definition for cycle number that H/W completes clear instruction.
                         351 --210:   The cycle is based on synchronization clock for each interrupt. 
                         352 --211:   
                         353 --212:   Simulatuion result : 4 Cycle. 
                         354 --213:   margin             : 4 Cycle. 
                         355 --214:   It does not matter if it is greater than actual value.

                                                                      Page 7
                                                              C:\Users\Frank\AppData\Local\Temp\gh_0000om41.si
                         356 --215: */
                         357 --216: #define LOC_2ND_WAIT_CYCLE                  (8)
                         358 --219: /* The definition of the device version.
                         359 --221:    If this definition is not defined, VDCE works as H/W device version.
                         360 --222:    If this definition is defined, VDCE works as specified device version for debug.
                         361 --223:    
                         362 --224:   Values:
                         363 --225:     R_DEV_R7F701403 - VDCE works as RH850/D1L2x.
                         364 --226:     R_DEV_R7F701407 - VDCE works as RH850/D1M1(H).
                         365 --227:     R_DEV_R7F701410 - VDCE works as RH850/D1M2
                         366 --228:     R_DEV_R7F701412 - VDCE works as RH850/D1M2H
                         367 --229: */
                         368 --230: /* #define LOC_VDCE_FORCE_DEV_NUM    (R_DEV_R7F701403) */
                         369 --232: /***************************************************************************
                         370 --233:   Constants: LOC_UNKOWN_INT_SEL
                         371 --234:   
                         372 --235:   The definition for unknown interrupt. 
                         373 --236:   
                         374 --237: */
                         375 --238: #define LOC_UNKOWN_INT_SEL            ((r_dev_IntSel_t)0xFFFFFFFFu)
                         376 --240: /***************************************************************************
                         377 --241:   Constants: LOC_WAIT_CLEAR_COUNT
                         378 --242:   
                         379 --243:   The definition for maximum loop counter that H/W completes clear instruction.
                         380 --244:   
                         381 --245:   Simulatuion result : It took max 7 Loops in case of 1.88MHz pixel clock and 240MHz CPU clock. 
                         382 --246: */
                         383 --247: #define LOC_WAIT_CLEAR_COUNT         (16)
                         384 --249: /*******************************************************************************
                         385 --250:   Section: Local functions
                         386 --251: */
                         387 --252: /* list of static functions: */
                         388 --253: static uint32_t loc_calcClockDiv(const uint32_t Clkin, const uint32_t Clkout) ; 
                         389 --254: static uint32_t loc_Vdce_Pixel_SetClockM2(const uint32_t Unit, const uint32_t Freq);
                         390 --255: static uint32_t loc_Vdce_Pixel_SetClockM1A(const uint32_t Unit, const uint32_t Freq, const uint32_t OtherUnitActive);
                         391 --256: static uint32_t loc_Vdce_Pixel_SetClockL2M1(const uint32_t Unit, const uint32_t Freq);
                         392 --257: static r_vdce_Error_t loc_IntcCtrl(const uint32_t       Unit,
                         393 --258:                                    const r_dev_IntSel_t IntSel,
                         394 --259:                                    const uint8_t        Enable);
                         395 --260: static r_dev_Device_t loc_GetDev(void);
                         396 --261: static r_vdce_Error_t loc_IntcCtrlAll(const uint32_t Unit, const uint8_t Enable);
                         397 --262: static r_vdce_Error_t loc_IntcCtrl(const uint32_t Unit, const r_dev_IntSel_t IntSel, const uint8_t Enable);
                         398 --263: static r_dev_IntSel_t loc_ConvertToIntSel(const uint32_t Unit, const r_vdce_IntType_t IntType);
                         399 --265: /*******************************************************************************
                         400 --266:   Function: loc_calcClockDiv
                         401 --267: */
                         402 --269: static uint32_t loc_calcClockDiv(const uint32_t Clkin, const uint32_t Clkout)
                         403 	.text
                         404 ..bof.C.3A.5Cgit.5Crh850.5Csrc.5Capp.5Cgfx_apps.5Csimple_draw.5Ctarget.5Cd1mx_mango_ghs.5Cobj.5Cr_sys_vdce...43.3A.5Cgit.5Crh850.5Csrc.5Capp.5Cgfx_apps.5Csimple_draw.5Ctarget.5Cd1mx_mango_ghs..5BC5D028..0::
                         405 	.align	2
                         406 	.global	_loc_calcClockDiv..C.3A.5Cgit.5Crh850.5Csrc.5Capp.5Cgfx_apps.5Csimple_draw.5Ctarget.5Cd1mx_mango_ghs.5Cobj.5Cr_sys_vdce.
                         407 _loc_calcClockDiv..C.3A.5Cgit.5Crh850.5Csrc.5Capp.5Cgfx_apps.5Csimple_draw.5Ctarget.5Cd1mx_mango_ghs.5Cobj.5Cr_sys_vdce.:
                         408 _loc_calcClockDiv:
00000000 0660            409 	mov	r6,r12
00000002 0758            410 	mov	r7,r11
                         411 --	    .bf
                         412 .LDW01:
                         413 --270: {
                         414 --271:     uint32_t divider;
                         415 --272:     uint32_t divfrq;
                         416 --273:     uint32_t divfrq_next;

                                                                      Page 8
                                                              C:\Users\Frank\AppData\Local\Temp\gh_0000om41.si
                         417 --275:     /* calc near divider */
                         418 --276:     divider = Clkin / Clkout;
00000004 0c08            419 	mov	r12,r1
00000006 eb0ffe02        420 	divqu	r11,r1,zero
                         421 --278:     /* test if next divider is better, if yes choose next divider */
                         422 --279:     divfrq = Clkin / divider;
0000000a 0c70            423 	mov	r12,r14
0000000c e177fe02        424 	divqu	r1,r14,zero
                         425 --280:     divfrq_next = Clkin / (divider+1u);
00000010 01560100        426 	addi	1,r1,r10
00000014 0c68            427 	mov	r12,r13
00000016 ea6ffe02        428 	divqu	r10,r13,zero
                         429 --281:     if ( (divfrq - Clkout) > (Clkout - divfrq_next))
0000001a 0e50            430 	mov	r14,r10
0000001c 0b48            431 	mov	r11,r9
0000001e ab51            432 	sub	r11,r10
00000020 ad49            433 	sub	r13,r9
00000022 e951            434 	cmp	r9,r10
00000024 a305*           435 	bnh	.L4
                         436 --282:     {
                         437 --283:         divider += 1u;
                         438 --line283
                         439 ..lin.C.3A.5Cgit.5Crh850.5Csrc.5Capp.5Cgfx_apps.5Csimple_draw.5Ctarget.5Cd1mx_mango_ghs.5Cobj.5Cr_sys_vdce.1::
                         440 .LDWlin1:
00000026 410a            441 	add	1,r1
                         442 .L4:
                         443 --284:     }
                         444 --286:     /* divider value 0 is invalid, choose 1 instead */
                         445 --287:     if (divider == 0u)
00000028 e009            446 	cmp	zero,r1
0000002a aa05*           447 	bne	.L6
                         448 --288:     {
                         449 --289:         divider = 1;
                         450 --line289
                         451 ..lin.C.3A.5Cgit.5Crh850.5Csrc.5Capp.5Cgfx_apps.5Csimple_draw.5Ctarget.5Cd1mx_mango_ghs.5Cobj.5Cr_sys_vdce.2::
                         452 .LDWlin2:
0000002c 010a            453 	mov	1,r1
                         454 .L6:
                         455 --290:     }
                         456 --292:     return divider;
0000002e 0150            457 	mov	r1,r10
                         458 --	    .ef
                         459 .LDW11:
00000030 7f00            460 	jmp	[lp]
                         461 	.type	_loc_calcClockDiv,@function
                         462 	.size	_loc_calcClockDiv,.-_loc_calcClockDiv
                         463 	.type	_loc_calcClockDiv..C.3A.5Cgit.5Crh850.5Csrc.5Capp.5Cgfx_apps.5Csimple_draw.5Ctarget.5Cd1mx_mango_ghs.5Cobj.5Cr_sys_vdce.,@function
                         464 	.size	_loc_calcClockDiv..C.3A.5Cgit.5Crh850.5Csrc.5Capp.5Cgfx_apps.5Csimple_draw.5Ctarget.5Cd1mx_mango_ghs.5Cobj.5Cr_sys_vdce.,.-_loc_calcClockDiv..C.3A.5Cgit.5Crh850.5Csrc.5Capp.5Cgfx_apps.5Csimple_draw.5Ctarget.5Cd1mx_mango_ghs.5Cobj.5Cr_sys_vdce.
                         465 	.align	2
                         466 .LDW21:
                         467 --_divider	r1	local
                         468 --_divfrq	r14	local
                         469 --_divfrq_next	r13	local
                         470 
                         471 --_Clkin	r12	param
                         472 --_Clkout	r11	param
                         473 
                         474 	.section ".bss","awb"
                         475 .L58:
                         476 	.type	.L58,@object
                         477 	.size	.L58,0

                                                                      Page 9
                                                              C:\Users\Frank\AppData\Local\Temp\gh_0000om41.si
                         478 	.data
                         479 	.text
                         480 
                         481 --293: }
                         482 
                         483 --295: /*******************************************************************************
                         484 --296:   Function: loc_Vdce_Pixel_SetClockM2
                         485 --297: */
                         486 --299: static uint32_t loc_Vdce_Pixel_SetClockM2(const uint32_t Unit, const uint32_t Freq)
                         487 	.align	2
                         488 	.align	2
                         489 	.global	_loc_Vdce_Pixel_SetClockM2..C.3A.5Cgit.5Crh850.5Csrc.5Capp.5Cgfx_apps.5Csimple_draw.5Ctarget.5Cd1mx_mango_ghs.5Cobj.5Cr_sys_vdce.
                         490 _loc_Vdce_Pixel_SetClockM2..C.3A.5Cgit.5Crh850.5Csrc.5Capp.5Cgfx_apps.5Csimple_draw.5Ctarget.5Cd1mx_mango_ghs.5Cobj.5Cr_sys_vdce.:
                         491 _loc_Vdce_Pixel_SetClockM2:
00000032 8c07e130        492 	prepare	{r26,r27,r28,r29,r31},6
00000036 06d0            493 	mov	r6,r26
00000038 07d8            494 	mov	r7,r27
                         495 --	    .bf
                         496 .LDW31:
                         497 --300: {
                         498 --301:     uint32_t divider;
                         499 --302:     uint32_t clkin;
                         500 --303:     r_dev_ClkSelConfig_t ClkSelCfg[2];
                         501 --304:     
                         502 --305:     /* get VDCE clock */
                         503 --306:     clkin = R_DEV_BusFrequencyHz(R_DEV_CLK_PLL2);
0000003a 0232            504 	mov	2,r6
                         505 	jarl	_R_DEV_BusFrequencyHz,lp
                         505 <EXPANSION BEGIN>
                         505 jarl22 _R_DEV_BusFrequencyHz , lp 
0000003c 80ff0000*       505 <EXPANSION END>
00000040 0ae0            506 	mov	r10,r28
                         507 --307: #if USE_VDCE_RSDS    /* 0=LVTTL, 1=RSDS (divider by 4 for pixel clock, when RSDS is used) */
                         508 --308:     clkin /= 4;
                         509 --309: #endif /* USE_VDCE_RSDS */
                         510 --310:     /* dbg into: Set VDCE clock divider */
                         511 --311:     divider = (Freq != 0) ? loc_calcClockDiv(clkin, Freq) : 0;
                         512 --line311
                         513 ..lin.C.3A.5Cgit.5Crh850.5Csrc.5Capp.5Cgfx_apps.5Csimple_draw.5Ctarget.5Cd1mx_mango_ghs.5Cobj.5Cr_sys_vdce.3::
                         514 .LDWlin3:
00000042 e0d9            515 	cmp	zero,r27
00000044 00ea            516 	mov	0,r29
00000046 e205*           517 	be	.L156
00000048 1c30            518 	mov	r28,r6
0000004a 1b38            519 	mov	r27,r7
                         520 	jarl	_loc_calcClockDiv,lp
                         520 <EXPANSION BEGIN>
                         520 jarl22 _loc_calcClockDiv , lp 
0000004c bfffb4ff*       520 <EXPANSION END>
00000050 0ae8            521 	mov	r10,r29
                         522 .L156:
                         523 --312:     if (divider == 1)
                         524 --line312
                         525 ..lin.C.3A.5Cgit.5Crh850.5Csrc.5Capp.5Cgfx_apps.5Csimple_draw.5Ctarget.5Cd1mx_mango_ghs.5Cobj.5Cr_sys_vdce.4::
                         526 .LDWlin4:
00000052 61ea            527 	cmp	1,r29
00000054 aa05*           528 	bne	.L96
                         529 --313:     {
                         530 --314:         divider = 2;
                         531 --line314
                         532 ..lin.C.3A.5Cgit.5Crh850.5Csrc.5Capp.5Cgfx_apps.5Csimple_draw.5Ctarget.5Cd1mx_mango_ghs.5Cobj.5Cr_sys_vdce.5::

                                                                      Page 10
                                                              C:\Users\Frank\AppData\Local\Temp\gh_0000om41.si
                         533 .LDWlin5:
00000056 02ea            534 	mov	2,r29
                         535 .L96:
                         536 --315:     }
                         537 --316:     if (divider > 255)
00000058 1d0600ff        538 	addi	-256,r29,zero
0000005c b905*           539 	bnl	.L98
                         540 --317:     {
                         541 --318:         divider = 255;
                         542 --line318
                         543 ..lin.C.3A.5Cgit.5Crh850.5Csrc.5Capp.5Cgfx_apps.5Csimple_draw.5Ctarget.5Cd1mx_mango_ghs.5Cobj.5Cr_sys_vdce.6::
                         544 .LDWlin6:
0000005e 20eeff00        545 	movea	255,zero,r29
                         546 .L98:
                         547 --319:     }
                         548 --320:     
                         549 --321:     if (Unit == 0)
00000062 e0d1            550 	cmp	zero,r26
00000064 9a1d*           551 	bne	.L100
                         552 --322:     {
                         553 --323:         ClkSelCfg[0].Cks       = R_DEV_CKS_DOTCK0;
                         554 --line323
                         555 ..lin.C.3A.5Cgit.5Crh850.5Csrc.5Capp.5Cgfx_apps.5Csimple_draw.5Ctarget.5Cd1mx_mango_ghs.5Cobj.5Cr_sys_vdce.7::
                         556 .LDWlin7:
00000066 200e1600        557 	movea	22,zero,r1
0000006a 630f0100        558 	st.w	r1,0[sp]
                         559 --324:         ClkSelCfg[0].SrcId     = R_DEV_CKS_SRC_PLL2;
0000006e 0b0a            560 	mov	11,r1
00000070 630f0500        561 	st.w	r1,4[sp]
                         562 --325:         ClkSelCfg[0].Div       = (uint16_t)divider;
00000074 63ef0800        563 	st.h	r29,8[sp]
                         564 --326:         ClkSelCfg[0].StpReqMsk = 0;
00000078 43070a00        565 	st.b	zero,10[sp]
                         566 --327:         
                         567 --328:         ClkSelCfg[1].Cks       = R_DEV_CKS_VDCE0CK;
0000007c 200e1800        568 	movea	24,zero,r1
00000080 630f0d00        569 	st.w	r1,12[sp]
                         570 --329: #if USE_VDCE_RSDS    /* 0=LVTTL, 1=RSDS (divider by 4 for pixel clock, when RSDS is used) */
                         571 --330:         ClkSelCfg[1].SrcId     = R_DEV_CKS_SRC_DOTCK0_4;
                         572 --331: #else        
                         573 --332:         ClkSelCfg[1].SrcId     = R_DEV_CKS_SRC_DOTCK0;
00000084 200e1a00        574 	movea	26,zero,r1
00000088 630f1100        575 	st.w	r1,16[sp]
                         576 --333: #endif /* USE_VDCE_RSDS */
                         577 --334:         ClkSelCfg[1].Div       = 0;
0000008c 63071400        578 	st.h	zero,20[sp]
                         579 --335:         ClkSelCfg[1].StpReqMsk = 0;
00000090 43071600        580 	st.b	zero,22[sp]
00000094 851d*           581 	br	.L102
                         582 .L100:
                         583 --336:     }
                         584 --337:     else
                         585 --338:     {
                         586 --339:         ClkSelCfg[0].Cks       = R_DEV_CKS_DOTCK1;
                         587 --line339
                         588 ..lin.C.3A.5Cgit.5Crh850.5Csrc.5Capp.5Cgfx_apps.5Csimple_draw.5Ctarget.5Cd1mx_mango_ghs.5Cobj.5Cr_sys_vdce.8::
                         589 .LDWlin8:
00000096 200e1700        590 	movea	23,zero,r1
0000009a 630f0100        591 	st.w	r1,0[sp]
                         592 --340:         ClkSelCfg[0].SrcId     = R_DEV_CKS_SRC_PLL2;
0000009e 0b0a            593 	mov	11,r1

                                                                      Page 11
                                                              C:\Users\Frank\AppData\Local\Temp\gh_0000om41.si
000000a0 630f0500        594 	st.w	r1,4[sp]
                         595 --341:         ClkSelCfg[0].Div       = (uint16_t)divider;
000000a4 63ef0800        596 	st.h	r29,8[sp]
                         597 --342:         ClkSelCfg[0].StpReqMsk = 0;
000000a8 43070a00        598 	st.b	zero,10[sp]
                         599 --343:         
                         600 --344:         ClkSelCfg[1].Cks       = R_DEV_CKS_VDCE1CK;
000000ac 200e1900        601 	movea	25,zero,r1
000000b0 630f0d00        602 	st.w	r1,12[sp]
                         603 --345: #if USE_VDCE_RSDS    /* 0=LVTTL, 1=RSDS (divider by 4 for pixel clock, when RSDS is used) */
                         604 --346:         ClkSelCfg[1].SrcId     = R_DEV_CKS_SRC_DOTCK1_4;
                         605 --347: #else        
                         606 --348:         ClkSelCfg[1].SrcId     = R_DEV_CKS_SRC_DOTCK1;
000000b4 200e1d00        607 	movea	29,zero,r1
000000b8 630f1100        608 	st.w	r1,16[sp]
                         609 --349: #endif /* USE_VDCE_RSDS */
                         610 --350:         ClkSelCfg[1].Div       = 0;
000000bc 63071400        611 	st.h	zero,20[sp]
                         612 --351:         ClkSelCfg[1].StpReqMsk = 0;
000000c0 43071600        613 	st.b	zero,22[sp]
                         614 .L102:
                         615 --352:     }
                         616 --353:     (void)R_DEV_ClkIdSet(&ClkSelCfg[0]);
000000c4 23360000        617 	movea	0,sp,r6
                         618 	jarl	_R_DEV_ClkIdSet,lp
                         618 <EXPANSION BEGIN>
                         618 jarl22 _R_DEV_ClkIdSet , lp 
000000c8 80ff0000*       618 <EXPANSION END>
                         619 --354:     (void)R_DEV_ClkIdSet(&ClkSelCfg[1]);
                         620 --line354
                         621 ..lin.C.3A.5Cgit.5Crh850.5Csrc.5Capp.5Cgfx_apps.5Csimple_draw.5Ctarget.5Cd1mx_mango_ghs.5Cobj.5Cr_sys_vdce.9::
                         622 .LDWlin9:
000000cc 23360c00        623 	movea	12,sp,r6
                         624 	jarl	_R_DEV_ClkIdSet,lp
                         624 <EXPANSION BEGIN>
                         624 jarl22 _R_DEV_ClkIdSet , lp 
000000d0 80ff0000*       624 <EXPANSION END>
                         625 --355:     
                         626 --356:     /* If VDCE0 and VDCE1 signalling is cross-changed, also change to clock supply of the output macro */
                         627 --357:     if ( 0 == (R_DEV_READ_REG(32, VDCECTL) & VDCECTL_VOSL) )
                         628 --line357
                         629 ..lin.C.3A.5Cgit.5Crh850.5Csrc.5Capp.5Cgfx_apps.5Csimple_draw.5Ctarget.5Cd1mx_mango_ghs.5Cobj.5Cr_sys_vdce.10::
                         630 .LDWlin10:
000000d4 8007c909c080    631 	ld.w	4290797596[zero],r1
000000da 830a            632 	shr	3,r1
000000dc d11d*           633 	bl	.L103
                         634 --358:     {
                         635 --359:         /* Disable exchange of VDCE0_VO_CLK and VDCE1_VO_CLK */
                         636 --360:         R_DEV_WRITE_PROT_REG(LOC_PROTCMDD1, LOC_CKSC_IVOEXS_CTL_REG_ADDR, 0);
                         637 --	    .bs
                         638 .LDW41:
                         639 --line360
                         640 ..lin.C.3A.5Cgit.5Crh850.5Csrc.5Capp.5Cgfx_apps.5Csimple_draw.5Ctarget.5Cd1mx_mango_ghs.5Cobj.5Cr_sys_vdce.11::
                         641 .LDWlin11:
000000de 000a            642 	mov	0,r1
000000e0 0072            643 	mov	0,r14
                         644 .L107:
000000e2 206ea500        645 	movea	165,zero,r13
000000e6 80070f68e0f0    646 	st.w	r13,4294471680[zero]
000000ec 80070f00b2f0    647 	st.w	zero,4294465792[zero]
000000f2 1f6a            648 	mov	-1,r13

                                                                      Page 12
                                                              C:\Users\Frank\AppData\Local\Temp\gh_0000om41.si
000000f4 80070f68b2f0    649 	st.w	r13,4294465792[zero]
000000fa 80070f00b2f0    650 	st.w	zero,4294465792[zero]
00000100 80074908e0f0    651 	ld.w	4294471684[zero],r1
00000106 80070970b2f0    652 	ld.w	4294465792[zero],r14
0000010c e071            653 	cmp	zero,r14
0000010e 9225*           654 	be	.L109
00000110 e009            655 	cmp	zero,r1
00000112 8aed*           656 	bne	.L107
                         657 --	    .es
                         658 .LDW51:
                         659 --line360
                         660 ..lin.C.3A.5Cgit.5Crh850.5Csrc.5Capp.5Cgfx_apps.5Csimple_draw.5Ctarget.5Cd1mx_mango_ghs.5Cobj.5Cr_sys_vdce.12::
                         661 .LDWlin12:
00000114 e51d*           662 	br	.L109
                         663 .L103:
                         664 --361:     }
                         665 --362:     else
                         666 --363:     {
                         667 --364:         /* Enable exchange of VDCE0_VO_CLK and VDCE1_VO_CLK */
                         668 --365:         R_DEV_WRITE_PROT_REG(LOC_PROTCMDD1, LOC_CKSC_IVOEXS_CTL_REG_ADDR, 1);
                         669 --	    .bs
                         670 .LDW61:
                         671 --line365
                         672 ..lin.C.3A.5Cgit.5Crh850.5Csrc.5Capp.5Cgfx_apps.5Csimple_draw.5Ctarget.5Cd1mx_mango_ghs.5Cobj.5Cr_sys_vdce.13::
                         673 .LDWlin13:
00000116 000a            674 	mov	0,r1
00000118 0072            675 	mov	0,r14
                         676 .L112:
0000011a 206ea500        677 	movea	165,zero,r13
0000011e 80070f68e0f0    678 	st.w	r13,4294471680[zero]
00000124 016a            679 	mov	1,r13
00000126 80070f68b2f0    680 	st.w	r13,4294465792[zero]
0000012c 1e6a            681 	mov	-2,r13
0000012e 80070f68b2f0    682 	st.w	r13,4294465792[zero]
00000134 016a            683 	mov	1,r13
00000136 80070f68b2f0    684 	st.w	r13,4294465792[zero]
0000013c 80074908e0f0    685 	ld.w	4294471684[zero],r1
00000142 80070970b2f0    686 	ld.w	4294465792[zero],r14
00000148 6172            687 	cmp	1,r14
0000014a b205*           688 	be	.L109
0000014c e009            689 	cmp	zero,r1
0000014e eae5*           690 	bne	.L112
                         691 --	    .es
                         692 .LDW71:
                         693 .L109:
                         694 --366:     }
                         695 --367:     
                         696 --368:     return (divider != 0) ? (clkin / divider):0;
                         697 --line368
                         698 ..lin.C.3A.5Cgit.5Crh850.5Csrc.5Capp.5Cgfx_apps.5Csimple_draw.5Ctarget.5Cd1mx_mango_ghs.5Cobj.5Cr_sys_vdce.14::
                         699 .LDWlin14:
00000150 e0e9            700 	cmp	zero,r29
00000152 0052            701 	mov	0,r10
00000154 c205*           702 	be	.L91
00000156 1c50            703 	mov	r28,r10
00000158 fd57fe02        704 	divqu	r29,r10,zero
                         705 .L91:
                         706 --	    .ef
                         707 .LDW81:
                         708 --line371
                         709 ..lin.C.3A.5Cgit.5Crh850.5Csrc.5Capp.5Cgfx_apps.5Csimple_draw.5Ctarget.5Cd1mx_mango_ghs.5Cobj.5Cr_sys_vdce.15::

                                                                      Page 13
                                                              C:\Users\Frank\AppData\Local\Temp\gh_0000om41.si
                         710 .LDWlin15:
0000015c 4c06ff30        711 	dispose	6,{r26,r27,r28,r29,r31},[lp]
                         712 	.type	_loc_Vdce_Pixel_SetClockM2,@function
                         713 	.size	_loc_Vdce_Pixel_SetClockM2,.-_loc_Vdce_Pixel_SetClockM2
                         714 	.type	_loc_Vdce_Pixel_SetClockM2..C.3A.5Cgit.5Crh850.5Csrc.5Capp.5Cgfx_apps.5Csimple_draw.5Ctarget.5Cd1mx_mango_ghs.5Cobj.5Cr_sys_vdce.,@function
                         715 	.size	_loc_Vdce_Pixel_SetClockM2..C.3A.5Cgit.5Crh850.5Csrc.5Capp.5Cgfx_apps.5Csimple_draw.5Ctarget.5Cd1mx_mango_ghs.5Cobj.5Cr_sys_vdce.,.-_loc_Vdce_Pixel_SetClockM2..C.3A.5Cgit.5Crh850.5Csrc.5Capp.5Cgfx_apps.5Csimple_draw.5Ctarget.5Cd1mx_mango_ghs.5Cobj.5Cr_sys_vdce.
                         716 	.align	2
                         717 .LDW91:
                         718 --_divider	r29	local
                         719 --_clkin	r28	local
                         720 --_ClkSelCfg	0[sp]	local
                         721 --_prot_stat	r1	local
                         722 --_new_val	r14	local
                         723 --_prot_stat	r1	local
                         724 --_new_val	r14	local
                         725 
                         726 --_Unit	r26	param
                         727 --_Freq	r27	param
                         728 
                         729 	.section ".bss","awb"
                         730 .L366:
                         731 	.type	.L366,@object
                         732 	.size	.L366,0
                         733 	.data
                         734 	.text
                         735 
                         736 --371: }
                         737 
                         738 --373: /*******************************************************************************
                         739 --374:   Function: loc_Vdce_Pixel_SetClockM1A
                         740 --375: */
                         741 --377: static uint32_t loc_Vdce_Pixel_SetClockM1A(const uint32_t Unit, const uint32_t Freq, const uint32_t OtherUnitActive)
                         742 	.align	2
                         743 	.align	2
                         744 	.global	_loc_Vdce_Pixel_SetClockM1A..C.3A.5Cgit.5Crh850.5Csrc.5Capp.5Cgfx_apps.5Csimple_draw.5Ctarget.5Cd1mx_mango_ghs.5Cobj.5Cr_sys_vdce.
                         745 _loc_Vdce_Pixel_SetClockM1A..C.3A.5Cgit.5Crh850.5Csrc.5Capp.5Cgfx_apps.5Csimple_draw.5Ctarget.5Cd1mx_mango_ghs.5Cobj.5Cr_sys_vdce.:
                         746 _loc_Vdce_Pixel_SetClockM1A:
00000160 8c07e170        747 	prepare	{r25,r26,r27,r28,r29,r31},6
00000164 06d8            748 	mov	r6,r27
00000166 07d0            749 	mov	r7,r26
00000168 08c8            750 	mov	r8,r25
                         751 --	    .bf
                         752 .LDW02:
                         753 --378: {
                         754 --379:     uint32_t divider;
                         755 --380:     uint32_t clkin;
                         756 --381:     r_dev_ClkSelConfig_t ClkSelCfg[2];
                         757 --382: #if USE_VDCE_VODDR    /* 0=LVTTL, 1=VODDR */
                         758 --383:     uint32_t VoDdrClkdiv;
                         759 --384:     uint32_t divider0, divider1;
                         760 --385: #endif /* USE_VDCE_VODDR */
                         761 --386:     
                         762 --387:     /* get VDCE clock */
                         763 --388:     clkin = R_DEV_BusFrequencyHz(R_DEV_CLK_PLL1);
0000016a 0132            764 	mov	1,r6
                         765 	jarl	_R_DEV_BusFrequencyHz,lp
                         765 <EXPANSION BEGIN>
                         765 jarl22 _R_DEV_BusFrequencyHz , lp 
0000016c 80ff0000*       765 <EXPANSION END>
00000170 0ae8            766 	mov	r10,r29
                         767 --389: #if USE_VDCE_OPENLDI    /* 0=LVTTL, 1=OpenLDI (divider by 7 for pixel clock, when Open LDI is used) */

                                                                      Page 14
                                                              C:\Users\Frank\AppData\Local\Temp\gh_0000om41.si
                         768 --390:     if (Unit == 0)
                         769 --line390
                         770 ..lin.C.3A.5Cgit.5Crh850.5Csrc.5Capp.5Cgfx_apps.5Csimple_draw.5Ctarget.5Cd1mx_mango_ghs.5Cobj.5Cr_sys_vdce.16::
                         771 .LDWlin16:
00000172 e0d9            772 	cmp	zero,r27
00000174 da0d*           773 	bne	.L548
                         774 --391:     {
                         775 --392:         clkin /= 7;
                         776 --line392
                         777 ..lin.C.3A.5Cgit.5Crh850.5Csrc.5Capp.5Cgfx_apps.5Csimple_draw.5Ctarget.5Cd1mx_mango_ghs.5Cobj.5Cr_sys_vdce.17::
                         778 .LDWlin17:
00000176 2e0625499224    779 	mov	613566757,r14
0000017c 1d60            780 	mov	r29,r12
0000017e 1d08            781 	mov	r29,r1
00000180 ee67226a        782 	mulu	r14,r12,r13
00000184 0de8            783 	mov	r13,r29
00000186 bd09            784 	sub	r29,r1
00000188 810a            785 	shr	1,r1
0000018a c1e9            786 	add	r1,r29
0000018c 82ea            787 	shr	2,r29
                         788 .L548:
                         789 --393:     }
                         790 --395:     if (Unit == 1)
0000018e 61da            791 	cmp	1,r27
00000190 da0d*           792 	bne	.L550
                         793 --396:     {
                         794 --397:  #if USE_VDCE_SERIALRGB
                         795 --398:  #else  /* When USE_VDCE_SERIALRGB is used, than OpenLDI can only use VDCE0. 
                         796 --399:            Thus avoid OpenLDI dependend clock setting for VDCE1 here. */
                         797 --400:         clkin /= 7;
                         798 --line400
                         799 ..lin.C.3A.5Cgit.5Crh850.5Csrc.5Capp.5Cgfx_apps.5Csimple_draw.5Ctarget.5Cd1mx_mango_ghs.5Cobj.5Cr_sys_vdce.18::
                         800 .LDWlin18:
00000192 2e0625499224    801 	mov	613566757,r14
00000198 1d60            802 	mov	r29,r12
0000019a 1d08            803 	mov	r29,r1
0000019c ee67226a        804 	mulu	r14,r12,r13
000001a0 0de8            805 	mov	r13,r29
000001a2 bd09            806 	sub	r29,r1
000001a4 810a            807 	shr	1,r1
000001a6 c1e9            808 	add	r1,r29
000001a8 82ea            809 	shr	2,r29
                         810 .L550:
                         811 --401:  #endif /* USE_VDCE_SERIALRGB */
                         812 --402:     }
                         813 --403: #endif /* USE_VDCE_OPENLDI */
                         814 --405: #if USE_VDCE_SERIALRGB
                         815 --406:  #if USE_VDCE_OPENLDI
                         816 --407:  #else /* When USE_VDCE_OPENLDI is used, only use SerialRGB on VDCE1.
                         817 --408:           Thus avoid SerialRGB dependend clock setting for VDCE0 here. */
                         818 --409:     if (Unit == 0)
                         819 --410:     {
                         820 --411:       #if USE_VDCE_SERIALRGB_SPEED == 3
                         821 --412:         clkin /= 3;
                         822 --413:       #elif USE_VDCE_SERIALRGB_SPEED == 4
                         823 --414:         clkin /= 4;
                         824 --415:       #endif /* USE_VDCE_SERIALRGB_SPEED */
                         825 --416:     }
                         826 --417:  #endif /* USE_VDCE_OPENLDI */
                         827 --418:     if (Unit == 1)
                         828 --419:     {

                                                                      Page 15
                                                              C:\Users\Frank\AppData\Local\Temp\gh_0000om41.si
                         829 --420:       #if USE_VDCE_SERIALRGB_SPEED == 3
                         830 --421:         clkin /= 3;
                         831 --422:       #elif USE_VDCE_SERIALRGB_SPEED == 4
                         832 --423:         clkin /= 4;
                         833 --424:       #endif /* USE_VDCE_SERIALRGB_SPEED */
                         834 --425:     }
                         835 --426: #endif /* USE_VDCE_SERIALRGB */
                         836 --428:     /* dbg into: Set VDCE clock divider */
                         837 --429:     divider = (Freq != 0) ? loc_calcClockDiv(clkin, Freq) : 0;
000001aa e0d1            838 	cmp	zero,r26
000001ac 00e2            839 	mov	0,r28
000001ae e205*           840 	be	.L626
000001b0 1d30            841 	mov	r29,r6
000001b2 1a38            842 	mov	r26,r7
                         843 	jarl	_loc_calcClockDiv,lp
                         843 <EXPANSION BEGIN>
                         843 jarl22 _loc_calcClockDiv , lp 
000001b4 bfff4cfe*       843 <EXPANSION END>
000001b8 0ae0            844 	mov	r10,r28
                         845 .L626:
                         846 --430:     if (divider == 1)
                         847 --line430
                         848 ..lin.C.3A.5Cgit.5Crh850.5Csrc.5Capp.5Cgfx_apps.5Csimple_draw.5Ctarget.5Cd1mx_mango_ghs.5Cobj.5Cr_sys_vdce.19::
                         849 .LDWlin19:
000001ba 61e2            850 	cmp	1,r28
000001bc aa05*           851 	bne	.L555
                         852 --431:     {
                         853 --432:         divider = 2;
                         854 --line432
                         855 ..lin.C.3A.5Cgit.5Crh850.5Csrc.5Capp.5Cgfx_apps.5Csimple_draw.5Ctarget.5Cd1mx_mango_ghs.5Cobj.5Cr_sys_vdce.20::
                         856 .LDWlin20:
000001be 02e2            857 	mov	2,r28
                         858 .L555:
                         859 --433:     }
                         860 --434:     if (divider > 255)
000001c0 1c0600ff        861 	addi	-256,r28,zero
000001c4 b905*           862 	bnl	.L557
                         863 --435:     {
                         864 --436:         divider = 255;
                         865 --line436
                         866 ..lin.C.3A.5Cgit.5Crh850.5Csrc.5Capp.5Cgfx_apps.5Csimple_draw.5Ctarget.5Cd1mx_mango_ghs.5Cobj.5Cr_sys_vdce.21::
                         867 .LDWlin21:
000001c6 20e6ff00        868 	movea	255,zero,r28
                         869 .L557:
                         870 --437:     }
                         871 --439: #if USE_VDCE_VODDR    /* 0=LVTTL, 1=VODDR */
                         872 --441:     /* Test code added:
                         873 --442:          need to assign the first unit CLK_DIVn[7:0]
                         874 --443:     */
                         875 --444:     if ( (Freq != 0) && (OtherUnitActive == 0) )
                         876 --445:     {
                         877 --446:         VoDdrClkdiv = R_DEV_READ_REG(32, VODDR0_CLKDIV);
                         878 --447:         divider0 = VoDdrClkdiv & 0xFFu;
                         879 --448:         divider1 = (VoDdrClkdiv & 0xFF0000u) >> 16;
                         880 --450:         if (0 == Unit) {
                         881 --451:             divider0 = divider;
                         882 --452:         } else {
                         883 --453:             divider1 = divider;
                         884 --454:         }
                         885 --456:         R_DEV_WRITE_REG(32, VODDR0_CLKDIV, VODDR0_CLKDIV_CLKDIV0(divider0) | VODDR0_CLKDIV_CLKDIV1(divider1) );
                         886 --457:     }

                                                                      Page 16
                                                              C:\Users\Frank\AppData\Local\Temp\gh_0000om41.si
                         887 --458:     /* end of test code */
                         888 --463:     /* Other Unit is already running and we are configuring this Unit: Start VO-DDR */
                         889 --464:     if ( (Freq != 0) && (OtherUnitActive == 1) )
                         890 --465:     {
                         891 --466:         VoDdrClkdiv = R_DEV_READ_REG(32, VODDR0_CLKDIV);
                         892 --467:         divider0 = VoDdrClkdiv & 0xFFu;
                         893 --468:         divider1 = (VoDdrClkdiv & 0xFF0000u) >> 16;
                         894 --469:         
                         895 --470:         if (0 == Unit) {
                         896 --471:             divider0 = divider;
                         897 --472:         } else {
                         898 --473:             divider1 = divider;
                         899 --474:         }
                         900 --475:         
                         901 --476:         /* Check if divider for Unit0 and Unit1 have the correct proportion */
                         902 --477:         
                         903 --478:         if ( (divider0 < divider1) ||                           /* fVDCE0 <= fVDCE1 => div0 >= div1 */
                         904 --479:               (((divider1*divider0)/divider0) != divider1) ||   /* divider1 must be an integer multiple of divider0 */
                         905 --480:               ((divider0%2) == 1) || ((divider1%2) == 1) )      /* divider0 & divider1 must be even*/
                         906 --481:         {
                         907 --482:             /* Proportion mismatch! */
                         908 --483:             return 0;
                         909 --484:         }
                         910 --485:         else
                         911 --486:         {
                         912 --487:             R_DEV_WRITE_REG(32, VODDR0_CLKDIV, VODDR0_CLKDIV_CLKDIV0(divider0) | VODDR0_CLKDIV_CLKDIV1(divider1) );
                         913 --488:             R_DEV_WRITE_REG(32, VODDR0_SYSCNT, VODDR0_SYSCNT_CLK_START | VODDR0_SYSCNT_VO1_ENABLE );
                         914 --489:         }
                         915 --490:     }
                         916 --491:     /* Other Unit is not running or we are deinitializing this Unit: Stop VO-DDR */
                         917 --492:     else
                         918 --493:     {
                         919 --494:         R_DEV_WRITE_REG(32, VODDR0_SYSCNT, 0 );
                         920 --495:     }
                         921 --496: #endif /* USE_VDCE_VODDR */
                         922 --499:     if (Unit == 0)
000001ca e0d9            923 	cmp	zero,r27
000001cc 9a1d*           924 	bne	.L559
                         925 --500:     {
                         926 --501:         ClkSelCfg[0].Cks       = R_DEV_CKS_DOTCK0;
                         927 --line501
                         928 ..lin.C.3A.5Cgit.5Crh850.5Csrc.5Capp.5Cgfx_apps.5Csimple_draw.5Ctarget.5Cd1mx_mango_ghs.5Cobj.5Cr_sys_vdce.22::
                         929 .LDWlin22:
000001ce 200e1600        930 	movea	22,zero,r1
000001d2 630f0100        931 	st.w	r1,0[sp]
                         932 --502:         ClkSelCfg[0].SrcId     = R_DEV_CKS_SRC_PLL1;
000001d6 090a            933 	mov	9,r1
000001d8 630f0500        934 	st.w	r1,4[sp]
                         935 --503:         ClkSelCfg[0].Div       = (uint16_t)divider;
000001dc 63e70800        936 	st.h	r28,8[sp]
                         937 --504:         ClkSelCfg[0].StpReqMsk = 0;
000001e0 43070a00        938 	st.b	zero,10[sp]
                         939 --505:         
                         940 --506:         ClkSelCfg[1].Cks       = R_DEV_CKS_VDCE0CK;
000001e4 200e1800        941 	movea	24,zero,r1
000001e8 630f0d00        942 	st.w	r1,12[sp]
                         943 --507: #if USE_VDCE_OPENLDI    /* 0=LVTTL, 1=OpenLDI (divider by 7 for pixel clock, when Open LDI is used) */
                         944 --508:         ClkSelCfg[1].SrcId     = R_DEV_CKS_SRC_DOTCK0_7;
000001ec 200e1c00        945 	movea	28,zero,r1
000001f0 630f1100        946 	st.w	r1,16[sp]
                         947 --509: #else

                                                                      Page 17
                                                              C:\Users\Frank\AppData\Local\Temp\gh_0000om41.si
                         948 --510:         ClkSelCfg[1].SrcId     = R_DEV_CKS_SRC_DOTCK0;
                         949 --511: #endif /* USE_VDCE_RSDS */
                         950 --512:         ClkSelCfg[1].Div       = 0;
000001f4 63071400        951 	st.h	zero,20[sp]
                         952 --513:         ClkSelCfg[1].StpReqMsk = 0;
000001f8 43071600        953 	st.b	zero,22[sp]
000001fc 951d*           954 	br	.L561
                         955 .L559:
                         956 --514:     }
                         957 --515:     else
                         958 --516:     {
                         959 --517:         ClkSelCfg[0].Cks       = R_DEV_CKS_DOTCK1;
                         960 --line517
                         961 ..lin.C.3A.5Cgit.5Crh850.5Csrc.5Capp.5Cgfx_apps.5Csimple_draw.5Ctarget.5Cd1mx_mango_ghs.5Cobj.5Cr_sys_vdce.23::
                         962 .LDWlin23:
000001fe 200e1700        963 	movea	23,zero,r1
00000202 630f0100        964 	st.w	r1,0[sp]
                         965 --518:         ClkSelCfg[0].SrcId     = R_DEV_CKS_SRC_PLLFIX;  /* actually same as R_DEV_CKS_SRC_PLL1 */
00000206 200e1400        966 	movea	20,zero,r1
0000020a 630f0500        967 	st.w	r1,4[sp]
                         968 --519:         ClkSelCfg[0].Div       = (uint16_t)divider;
0000020e 63e70800        969 	st.h	r28,8[sp]
                         970 --520:         ClkSelCfg[0].StpReqMsk = 0;
00000212 43070a00        971 	st.b	zero,10[sp]
                         972 --521:         
                         973 --522:         ClkSelCfg[1].Cks       = R_DEV_CKS_VDCE1CK;
00000216 200e1900        974 	movea	25,zero,r1
0000021a 630f0d00        975 	st.w	r1,12[sp]
                         976 --523: #if USE_VDCE_OPENLDI    /* 0=LVTTL, 1=OpenLDI (divider by 7 for pixel clock, when Open LDI is used) */
                         977 --524:  #if USE_VDCE_SERIALRGB
                         978 --525:         /* When USE_VDCE_SERIALRGB is used, than OpenLDI can only use VDCE0. 
                         979 --526:            Thus avoid OpenLDI dependend clock setting for VDCE1 here. */
                         980 --527:         ClkSelCfg[1].SrcId     = R_DEV_CKS_SRC_DOTCK1;
                         981 --528:  #else  
                         982 --529:         ClkSelCfg[1].SrcId     = R_DEV_CKS_SRC_DOTCK1_7;
0000021e 200e1f00        983 	movea	31,zero,r1
00000222 630f1100        984 	st.w	r1,16[sp]
                         985 --530:  #endif /* USE_VDCE_SERIALRGB */
                         986 --531: #else
                         987 --532:         ClkSelCfg[1].SrcId     = R_DEV_CKS_SRC_DOTCK1;
                         988 --533: #endif /* USE_VDCE_RSDS */
                         989 --534:         ClkSelCfg[1].Div       = 0;
00000226 63071400        990 	st.h	zero,20[sp]
                         991 --535:         ClkSelCfg[1].StpReqMsk = 0;
0000022a 43071600        992 	st.b	zero,22[sp]
                         993 .L561:
                         994 --536:     }
                         995 --538: #if USE_VDCE_OPENLDI
                         996 --539:     /* D1M1A needs to stop the source clock of both OLDICLK and IVOEXS0_OUTCLK 
                         997 --540:        so both clocks stop at the same timing.
                         998 --541:     */
                         999 --542:     if(Freq == 0)
0000022e e0d1           1000 	cmp	zero,r26
00000230 ba05*          1001 	bne	.L564
                        1002 --543:     {
                        1003 --544:         /* disable DOTCK0 or DOTCLK1 when requesting a 0 frequency (i.e de-init)*/
                        1004 --545:         ClkSelCfg[0].SrcId     = R_DEV_CKS_SRC_DISABLED;
                        1005 --line545
                        1006 ..lin.C.3A.5Cgit.5Crh850.5Csrc.5Capp.5Cgfx_apps.5Csimple_draw.5Ctarget.5Cd1mx_mango_ghs.5Cobj.5Cr_sys_vdce.24::
                        1007 .LDWlin24:
00000232 63070500       1008 	st.w	zero,4[sp]

                                                                      Page 18
                                                              C:\Users\Frank\AppData\Local\Temp\gh_0000om41.si
                        1009 .L564:
                        1010 --546:     }
                        1011 --547:     else
                        1012 --548:     {
                        1013 --549:         /* nothing */
                        1014 --550:     }
                        1015 --551: #endif
                        1016 --553:     (void)R_DEV_ClkIdSet(&ClkSelCfg[0]);
00000236 23360000       1017 	movea	0,sp,r6
                        1018 	jarl	_R_DEV_ClkIdSet,lp
                        1018 <EXPANSION BEGIN>
                        1018 jarl22 _R_DEV_ClkIdSet , lp 
0000023a 80ff0000*      1018 <EXPANSION END>
                        1019 --554:     (void)R_DEV_ClkIdSet(&ClkSelCfg[1]);
                        1020 --line554
                        1021 ..lin.C.3A.5Cgit.5Crh850.5Csrc.5Capp.5Cgfx_apps.5Csimple_draw.5Ctarget.5Cd1mx_mango_ghs.5Cobj.5Cr_sys_vdce.25::
                        1022 .LDWlin25:
0000023e 23360c00       1023 	movea	12,sp,r6
                        1024 	jarl	_R_DEV_ClkIdSet,lp
                        1024 <EXPANSION BEGIN>
                        1024 jarl22 _R_DEV_ClkIdSet , lp 
00000242 80ff0000*      1024 <EXPANSION END>
                        1025 --556:     /* If VDCE0 and VDCE1 signalling is cross-changed, also change to clock supply of the output macro */
                        1026 --557:     if ( 0 == (R_DEV_READ_REG(32, VDCECTL) & VDCECTL_VOSL) )
                        1027 --line557
                        1028 ..lin.C.3A.5Cgit.5Crh850.5Csrc.5Capp.5Cgfx_apps.5Csimple_draw.5Ctarget.5Cd1mx_mango_ghs.5Cobj.5Cr_sys_vdce.26::
                        1029 .LDWlin26:
00000246 8007c909c080   1030 	ld.w	4290797596[zero],r1
0000024c 830a           1031 	shr	3,r1
0000024e d11d*          1032 	bl	.L565
                        1033 --558:     {
                        1034 --559:         /* Disable exchange of VDCE0_VO_CLK and VDCE1_VO_CLK */
                        1035 --560:         R_DEV_WRITE_PROT_REG(LOC_PROTCMDD1, LOC_CKSC_IVOEXS_CTL_REG_ADDR, 0);
                        1036 --	    .bs
                        1037 .LDW12:
                        1038 --line560
                        1039 ..lin.C.3A.5Cgit.5Crh850.5Csrc.5Capp.5Cgfx_apps.5Csimple_draw.5Ctarget.5Cd1mx_mango_ghs.5Cobj.5Cr_sys_vdce.27::
                        1040 .LDWlin27:
00000250 000a           1041 	mov	0,r1
00000252 0072           1042 	mov	0,r14
                        1043 .L569:
00000254 206ea500       1044 	movea	165,zero,r13
00000258 80070f68e0f0   1045 	st.w	r13,4294471680[zero]
0000025e 80070f00b2f0   1046 	st.w	zero,4294465792[zero]
00000264 1f6a           1047 	mov	-1,r13
00000266 80070f68b2f0   1048 	st.w	r13,4294465792[zero]
0000026c 80070f00b2f0   1049 	st.w	zero,4294465792[zero]
00000272 80074908e0f0   1050 	ld.w	4294471684[zero],r1
00000278 80070970b2f0   1051 	ld.w	4294465792[zero],r14
0000027e e071           1052 	cmp	zero,r14
00000280 9225*          1053 	be	.L571
00000282 e009           1054 	cmp	zero,r1
00000284 8aed*          1055 	bne	.L569
                        1056 --	    .es
                        1057 .LDW22:
                        1058 --line560
                        1059 ..lin.C.3A.5Cgit.5Crh850.5Csrc.5Capp.5Cgfx_apps.5Csimple_draw.5Ctarget.5Cd1mx_mango_ghs.5Cobj.5Cr_sys_vdce.28::
                        1060 .LDWlin28:
00000286 e51d*          1061 	br	.L571
                        1062 .L565:
                        1063 --561:     }

                                                                      Page 19
                                                              C:\Users\Frank\AppData\Local\Temp\gh_0000om41.si
                        1064 --562:     else
                        1065 --563:     {
                        1066 --564:         /* Enable exchange of VDCE0_VO_CLK and VDCE1_VO_CLK */
                        1067 --565:         R_DEV_WRITE_PROT_REG(LOC_PROTCMDD1, LOC_CKSC_IVOEXS_CTL_REG_ADDR, 1);
                        1068 --	    .bs
                        1069 .LDW32:
                        1070 --line565
                        1071 ..lin.C.3A.5Cgit.5Crh850.5Csrc.5Capp.5Cgfx_apps.5Csimple_draw.5Ctarget.5Cd1mx_mango_ghs.5Cobj.5Cr_sys_vdce.29::
                        1072 .LDWlin29:
00000288 000a           1073 	mov	0,r1
0000028a 0072           1074 	mov	0,r14
                        1075 .L574:
0000028c 206ea500       1076 	movea	165,zero,r13
00000290 80070f68e0f0   1077 	st.w	r13,4294471680[zero]
00000296 016a           1078 	mov	1,r13
00000298 80070f68b2f0   1079 	st.w	r13,4294465792[zero]
0000029e 1e6a           1080 	mov	-2,r13
000002a0 80070f68b2f0   1081 	st.w	r13,4294465792[zero]
000002a6 016a           1082 	mov	1,r13
000002a8 80070f68b2f0   1083 	st.w	r13,4294465792[zero]
000002ae 80074908e0f0   1084 	ld.w	4294471684[zero],r1
000002b4 80070970b2f0   1085 	ld.w	4294465792[zero],r14
000002ba 6172           1086 	cmp	1,r14
000002bc b205*          1087 	be	.L571
000002be e009           1088 	cmp	zero,r1
000002c0 eae5*          1089 	bne	.L574
                        1090 --	    .es
                        1091 .LDW42:
                        1092 .L571:
                        1093 --566:     }
                        1094 --567:     
                        1095 --568:     return (divider != 0) ? (clkin / divider):0;
                        1096 --line568
                        1097 ..lin.C.3A.5Cgit.5Crh850.5Csrc.5Capp.5Cgfx_apps.5Csimple_draw.5Ctarget.5Cd1mx_mango_ghs.5Cobj.5Cr_sys_vdce.30::
                        1098 .LDWlin30:
000002c2 e0e1           1099 	cmp	zero,r28
000002c4 0052           1100 	mov	0,r10
000002c6 c205*          1101 	be	.L546
000002c8 1d50           1102 	mov	r29,r10
000002ca fc57fe02       1103 	divqu	r28,r10,zero
                        1104 .L546:
                        1105 --	    .ef
                        1106 .LDW52:
                        1107 --line569
                        1108 ..lin.C.3A.5Cgit.5Crh850.5Csrc.5Capp.5Cgfx_apps.5Csimple_draw.5Ctarget.5Cd1mx_mango_ghs.5Cobj.5Cr_sys_vdce.31::
                        1109 .LDWlin31:
000002ce 4c06ff70       1110 	dispose	6,{r25,r26,r27,r28,r29,r31},[lp]
                        1111 	.type	_loc_Vdce_Pixel_SetClockM1A,@function
                        1112 	.size	_loc_Vdce_Pixel_SetClockM1A,.-_loc_Vdce_Pixel_SetClockM1A
                        1113 	.type	_loc_Vdce_Pixel_SetClockM1A..C.3A.5Cgit.5Crh850.5Csrc.5Capp.5Cgfx_apps.5Csimple_draw.5Ctarget.5Cd1mx_mango_ghs.5Cobj.5Cr_sys_vdce.,@function
                        1114 	.size	_loc_Vdce_Pixel_SetClockM1A..C.3A.5Cgit.5Crh850.5Csrc.5Capp.5Cgfx_apps.5Csimple_draw.5Ctarget.5Cd1mx_mango_ghs.5Cobj.5Cr_sys_vdce.,.-_loc_Vdce_Pixel_SetClockM1A..C.3A.5Cgit.5Crh850.5Csrc.5Capp.5Cgfx_apps.5Csimple_draw.5Ctarget.5Cd1mx_mango_ghs.5Cobj.5Cr_sys_vdce.
                        1115 	.align	2
                        1116 .LDW62:
                        1117 --_divider	r28	local
                        1118 --_clkin	r29	local
                        1119 --_ClkSelCfg	0[sp]	local
                        1120 --_prot_stat	r1	local
                        1121 --_new_val	r14	local
                        1122 --_prot_stat	r1	local
                        1123 --_new_val	r14	local
                        1124 

                                                                      Page 20
                                                              C:\Users\Frank\AppData\Local\Temp\gh_0000om41.si
                        1125 --_Unit	r27	param
                        1126 --_Freq	r26	param
                        1127 --_OtherUnitActive	r25	param
                        1128 
                        1129 	.section ".bss","awb"
                        1130 .L854:
                        1131 	.type	.L854,@object
                        1132 	.size	.L854,0
                        1133 	.data
                        1134 	.text
                        1135 
                        1136 --569: }
                        1137 
                        1138 --572: /*******************************************************************************
                        1139 --573:   Function: loc_Vdce_Pixel_SetClockL2M1
                        1140 --574:   
                        1141 --575:   set VDCE pixel clock (in MHz)
                        1142 --576: */
                        1143 --578: static uint32_t loc_Vdce_Pixel_SetClockL2M1(const uint32_t Unit, const uint32_t Freq)
                        1144 	.align	2
                        1145 	.align	2
                        1146 	.global	_loc_Vdce_Pixel_SetClockL2M1..C.3A.5Cgit.5Crh850.5Csrc.5Capp.5Cgfx_apps.5Csimple_draw.5Ctarget.5Cd1mx_mango_ghs.5Cobj.5Cr_sys_vdce.
                        1147 _loc_Vdce_Pixel_SetClockL2M1..C.3A.5Cgit.5Crh850.5Csrc.5Capp.5Cgfx_apps.5Csimple_draw.5Ctarget.5Cd1mx_mango_ghs.5Cobj.5Cr_sys_vdce.:
                        1148 _loc_Vdce_Pixel_SetClockL2M1:
000002d2 8c07e130       1149 	prepare	{r26,r27,r28,r29,r31},6
000002d6 06d0           1150 	mov	r6,r26
000002d8 07d8           1151 	mov	r7,r27
                        1152 --	    .bf
                        1153 .LDW72:
                        1154 --579: {
                        1155 --580:     uint32_t div, clkin;
                        1156 --581:     r_dev_ClkSelConfig_t ClkSelCfg[2];
                        1157 --582:     
                        1158 --583:     /* get VDCE clock */
                        1159 --584:     clkin = R_DEV_BusFrequencyHz(R_DEV_CLK_PLL0PIX);
000002da 0332           1160 	mov	3,r6
                        1161 	jarl	_R_DEV_BusFrequencyHz,lp
                        1161 <EXPANSION BEGIN>
                        1161 jarl22 _R_DEV_BusFrequencyHz , lp 
000002dc 80ff0000*      1161 <EXPANSION END>
000002e0 0ae0           1162 	mov	r10,r28
                        1163 --585:     R_DBG_PRINT(R_DBG_MSG_CODE,  "Set VDCE clock divider");
                        1164 --586:     div = (Freq != 0) ? loc_calcClockDiv(clkin, Freq) : 0;
                        1165 --line586
                        1166 ..lin.C.3A.5Cgit.5Crh850.5Csrc.5Capp.5Cgfx_apps.5Csimple_draw.5Ctarget.5Cd1mx_mango_ghs.5Cobj.5Cr_sys_vdce.32::
                        1167 .LDWlin32:
000002e2 e0d9           1168 	cmp	zero,r27
000002e4 00ea           1169 	mov	0,r29
000002e6 e205*          1170 	be	.L1088
000002e8 1c30           1171 	mov	r28,r6
000002ea 1b38           1172 	mov	r27,r7
                        1173 	jarl	_loc_calcClockDiv,lp
                        1173 <EXPANSION BEGIN>
                        1173 jarl22 _loc_calcClockDiv , lp 
000002ec bfff14fd*      1173 <EXPANSION END>
000002f0 0ae8           1174 	mov	r10,r29
                        1175 .L1088:
                        1176 --587:     if (div == 1)
                        1177 --line587
                        1178 ..lin.C.3A.5Cgit.5Crh850.5Csrc.5Capp.5Cgfx_apps.5Csimple_draw.5Ctarget.5Cd1mx_mango_ghs.5Cobj.5Cr_sys_vdce.33::
                        1179 .LDWlin33:

                                                                      Page 21
                                                              C:\Users\Frank\AppData\Local\Temp\gh_0000om41.si
000002f2 61ea           1180 	cmp	1,r29
000002f4 aa05*          1181 	bne	.L1057
                        1182 --588:     {
                        1183 --589:         div = 2;
                        1184 --line589
                        1185 ..lin.C.3A.5Cgit.5Crh850.5Csrc.5Capp.5Cgfx_apps.5Csimple_draw.5Ctarget.5Cd1mx_mango_ghs.5Cobj.5Cr_sys_vdce.34::
                        1186 .LDWlin34:
000002f6 02ea           1187 	mov	2,r29
                        1188 .L1057:
                        1189 --590:     }
                        1190 --591:     if (div > 255)
000002f8 1d0600ff       1191 	addi	-256,r29,zero
000002fc b905*          1192 	bnl	.L1059
                        1193 --592:     {
                        1194 --593:         div = 255;
                        1195 --line593
                        1196 ..lin.C.3A.5Cgit.5Crh850.5Csrc.5Capp.5Cgfx_apps.5Csimple_draw.5Ctarget.5Cd1mx_mango_ghs.5Cobj.5Cr_sys_vdce.35::
                        1197 .LDWlin35:
000002fe 20eeff00       1198 	movea	255,zero,r29
                        1199 .L1059:
                        1200 --594:     }
                        1201 --595:     
                        1202 --596:     ClkSelCfg[0].Cks       = R_DEV_CKS_DOTCK0;
00000302 200e1600       1203 	movea	22,zero,r1
00000306 630f0100       1204 	st.w	r1,0[sp]
                        1205 --597:     
                        1206 --598:     ClkSelCfg[0].SrcId     = R_DEV_CKS_SRC_PLL0PIX;
0000030a 200e1700       1207 	movea	23,zero,r1
0000030e 630f0500       1208 	st.w	r1,4[sp]
                        1209 --599:     ClkSelCfg[0].Div       = div;
00000312 63ef0800       1210 	st.h	r29,8[sp]
                        1211 --600:     ClkSelCfg[0].StpReqMsk = 0;
00000316 43070a00       1212 	st.b	zero,10[sp]
                        1213 --601:     
                        1214 --602:     ClkSelCfg[1].Cks       = R_DEV_CKS_VDCE0CK;
0000031a 200e1800       1215 	movea	24,zero,r1
0000031e 630f0d00       1216 	st.w	r1,12[sp]
                        1217 --603:     ClkSelCfg[1].SrcId     = R_DEV_CKS_SRC_DOTCK0;
00000322 200e1a00       1218 	movea	26,zero,r1
00000326 630f1100       1219 	st.w	r1,16[sp]
                        1220 --604:     ClkSelCfg[1].Div       = 0;
0000032a 63071400       1221 	st.h	zero,20[sp]
                        1222 --605:     ClkSelCfg[1].StpReqMsk = 0;
0000032e 43071600       1223 	st.b	zero,22[sp]
                        1224 --606:     
                        1225 --607:     R_DEV_ClkIdSet(&ClkSelCfg[0]);
00000332 23360000       1226 	movea	0,sp,r6
                        1227 	jarl	_R_DEV_ClkIdSet,lp
                        1227 <EXPANSION BEGIN>
                        1227 jarl22 _R_DEV_ClkIdSet , lp 
00000336 80ff0000*      1227 <EXPANSION END>
                        1228 --608:     R_DEV_ClkIdSet(&ClkSelCfg[1]);
                        1229 --line608
                        1230 ..lin.C.3A.5Cgit.5Crh850.5Csrc.5Capp.5Cgfx_apps.5Csimple_draw.5Ctarget.5Cd1mx_mango_ghs.5Cobj.5Cr_sys_vdce.36::
                        1231 .LDWlin36:
0000033a 23360c00       1232 	movea	12,sp,r6
                        1233 	jarl	_R_DEV_ClkIdSet,lp
                        1233 <EXPANSION BEGIN>
                        1233 jarl22 _R_DEV_ClkIdSet , lp 
0000033e 80ff0000*      1233 <EXPANSION END>
                        1234 --609:     

                                                                      Page 22
                                                              C:\Users\Frank\AppData\Local\Temp\gh_0000om41.si
                        1235 --610:     return (div != 0) ? (clkin / div):0;
                        1236 --line610
                        1237 ..lin.C.3A.5Cgit.5Crh850.5Csrc.5Capp.5Cgfx_apps.5Csimple_draw.5Ctarget.5Cd1mx_mango_ghs.5Cobj.5Cr_sys_vdce.37::
                        1238 .LDWlin37:
00000342 e0e9           1239 	cmp	zero,r29
00000344 0052           1240 	mov	0,r10
00000346 c205*          1241 	be	.L1052
00000348 1c50           1242 	mov	r28,r10
0000034a fd57fe02       1243 	divqu	r29,r10,zero
                        1244 .L1052:
                        1245 --	    .ef
                        1246 .LDW82:
                        1247 --line611
                        1248 ..lin.C.3A.5Cgit.5Crh850.5Csrc.5Capp.5Cgfx_apps.5Csimple_draw.5Ctarget.5Cd1mx_mango_ghs.5Cobj.5Cr_sys_vdce.38::
                        1249 .LDWlin38:
0000034e 4c06ff30       1250 	dispose	6,{r26,r27,r28,r29,r31},[lp]
                        1251 	.type	_loc_Vdce_Pixel_SetClockL2M1,@function
                        1252 	.size	_loc_Vdce_Pixel_SetClockL2M1,.-_loc_Vdce_Pixel_SetClockL2M1
                        1253 	.type	_loc_Vdce_Pixel_SetClockL2M1..C.3A.5Cgit.5Crh850.5Csrc.5Capp.5Cgfx_apps.5Csimple_draw.5Ctarget.5Cd1mx_mango_ghs.5Cobj.5Cr_sys_vdce.,@function
                        1254 	.size	_loc_Vdce_Pixel_SetClockL2M1..C.3A.5Cgit.5Crh850.5Csrc.5Capp.5Cgfx_apps.5Csimple_draw.5Ctarget.5Cd1mx_mango_ghs.5Cobj.5Cr_sys_vdce.,.-_loc_Vdce_Pixel_SetClockL2M1..C.3A.5Cgit.5Crh850.5Csrc.5Capp.5Cgfx_apps.5Csimple_draw.5Ctarget.5Cd1mx_mango_ghs.5Cobj.5Cr_sys_vdce.
                        1255 	.align	2
                        1256 .LDW92:
                        1257 --_div	r29	local
                        1258 --_clkin	r28	local
                        1259 --_ClkSelCfg	0[sp]	local
                        1260 
                        1261 --_Unit	r26	param
                        1262 --_Freq	r27	param
                        1263 
                        1264 	.section ".bss","awb"
                        1265 .L1174:
                        1266 	.type	.L1174,@object
                        1267 	.size	.L1174,0
                        1268 	.data
                        1269 	.text
                        1270 
                        1271 --611: }
                        1272 
                        1273 --613: /*******************************************************************************
                        1274 --614:   Function: loc_IntcCtrlAll
                        1275 --615: */
                        1276 --616: static r_vdce_Error_t loc_IntcCtrlAll(const uint32_t Unit, const uint8_t Enable)
                        1277 	.align	2
                        1278 	.align	2
                        1279 	.global	_loc_IntcCtrlAll..C.3A.5Cgit.5Crh850.5Csrc.5Capp.5Cgfx_apps.5Csimple_draw.5Ctarget.5Cd1mx_mango_ghs.5Cobj.5Cr_sys_vdce.
                        1280 _loc_IntcCtrlAll..C.3A.5Cgit.5Crh850.5Csrc.5Capp.5Cgfx_apps.5Csimple_draw.5Ctarget.5Cd1mx_mango_ghs.5Cobj.5Cr_sys_vdce.:
                        1281 _loc_IntcCtrlAll:
00000352 9e07e130       1282 	prepare	{r26,r27,r28,r29,r31},15
00000356 06d0           1283 	mov	r6,r26
00000358 c7e6ff00       1284 	andi	255,r7,r28
                        1285 --	    .bf
                        1286 .LDW03:
                        1287 --617: {
                        1288 --618:     r_vdce_Error_t ret;
                        1289 --619:     uint32_t	   i;
                        1290 --620:     r_dev_IntSel_t unit0_int_sel[] = { R_DEV_INT_VDCE0ERR       ,
0000035c 200ec700       1291 	movea	199,zero,r1
00000360 630f1900       1292 	st.w	r1,24[sp]
00000364 200ec900       1293 	movea	201,zero,r1
00000368 630f1d00       1294 	st.w	r1,28[sp]
0000036c 200eca00       1295 	movea	202,zero,r1

                                                                      Page 23
                                                              C:\Users\Frank\AppData\Local\Temp\gh_0000om41.si
00000370 630f2100       1296 	st.w	r1,32[sp]
00000374 200ecb00       1297 	movea	203,zero,r1
00000378 630f2500       1298 	st.w	r1,36[sp]
0000037c 200ecc00       1299 	movea	204,zero,r1
00000380 630f2900       1300 	st.w	r1,40[sp]
00000384 200ece00       1301 	movea	206,zero,r1
00000388 630f2d00       1302 	st.w	r1,44[sp]
0000038c 200ed000       1303 	movea	208,zero,r1
00000390 630f3100       1304 	st.w	r1,48[sp]
00000394 200ed100       1305 	movea	209,zero,r1
00000398 630f3500       1306 	st.w	r1,52[sp]
0000039c 200ed200       1307 	movea	210,zero,r1
000003a0 630f3900       1308 	st.w	r1,56[sp]
                        1309 --621: 									   R_DEV_INT_VDCE0S0VIVSYNC ,
                        1310 --622: 									   R_DEV_INT_VDCE0S0LOVSYNC ,
                        1311 --623: 									   R_DEV_INT_VDCE0GR3VLINE  ,
                        1312 --624: 									   R_DEV_INT_VDCE0S0VFIELD  ,
                        1313 --625: 									   R_DEV_INT_VDCE0S1LOVSYNC ,
                        1314 --626: 									   R_DEV_INT_VDCE0OIRVIVSYNC,
                        1315 --627: 									   R_DEV_INT_VDCE0OIRLOVSYNC,
                        1316 --628: 									   R_DEV_INT_VDCE0IRVLINE   };
                        1317 --629:     r_dev_IntSel_t unit1_int_sel[] = { R_DEV_INT_VDCE1ERR       ,
000003a4 200edd00       1318 	movea	221,zero,r1
000003a8 630f0100       1319 	st.w	r1,0[sp]
000003ac 200edf00       1320 	movea	223,zero,r1
000003b0 630f0500       1321 	st.w	r1,4[sp]
000003b4 200ee000       1322 	movea	224,zero,r1
000003b8 630f0900       1323 	st.w	r1,8[sp]
000003bc 200ee100       1324 	movea	225,zero,r1
000003c0 630f0d00       1325 	st.w	r1,12[sp]
000003c4 200ee200       1326 	movea	226,zero,r1
000003c8 630f1100       1327 	st.w	r1,16[sp]
000003cc 200ee400       1328 	movea	228,zero,r1
000003d0 630f1500       1329 	st.w	r1,20[sp]
                        1330 --630: 									   R_DEV_INT_VDCE1S0VIVSYNC ,
                        1331 --631: 									   R_DEV_INT_VDCE1S0LOVSYNC ,
                        1332 --632: 									   R_DEV_INT_VDCE1GR3VLINE  ,
                        1333 --633: 									   R_DEV_INT_VDCE1S0VFIELD  ,
                        1334 --634: 									   R_DEV_INT_VDCE1S1LOVSYNC };
                        1335 --636:     ret = R_VDCE_ERR_OK;
000003d4 00da           1336 	mov	0,r27
                        1337 --638:     if (Unit < R_VDCE_MACRO_NUM)
000003d6 62d2           1338 	cmp	2,r26
000003d8 f945*          1339 	bnl	.L1254
                        1340 --639:     {
                        1341 --640:         if (Unit == R_VDCE_UNIT0)
                        1342 --line640
                        1343 ..lin.C.3A.5Cgit.5Crh850.5Csrc.5Capp.5Cgfx_apps.5Csimple_draw.5Ctarget.5Cd1mx_mango_ghs.5Cobj.5Cr_sys_vdce.39::
                        1344 .LDWlin39:
000003da e0d1           1345 	cmp	zero,r26
000003dc ba25*          1346 	bne	.L1256
                        1347 --641:         {
                        1348 --642:             /* Configure all interrupts on the device level */
                        1349 --643:             for (i = 0; i < (sizeof(unit0_int_sel) / sizeof(r_dev_IntSel_t)); i++)
                        1350 --line643
                        1351 ..lin.C.3A.5Cgit.5Crh850.5Csrc.5Capp.5Cgfx_apps.5Csimple_draw.5Ctarget.5Cd1mx_mango_ghs.5Cobj.5Cr_sys_vdce.40::
                        1352 .LDWlin40:
000003de 00ea           1353 	mov	0,r29
000003e0 0000           1354 	nop
                        1355 .L1260:
                        1356 --644:             {

                                                                      Page 24
                                                              C:\Users\Frank\AppData\Local\Temp\gh_0000om41.si
                        1357 --645:                 R_DEV_IntClearFlag(unit0_int_sel[i]);
000003e2 1df0           1358 	mov	r29,ep
000003e4 c2f2           1359 	shl	2,ep
000003e6 23761800       1360 	movea	24,sp,r14
000003ea cef1           1361 	add	r14,ep
000003ec 0035           1362 	sld.w	0[ep],r6
                        1363 	jarl	_R_DEV_IntClearFlag,lp
                        1363 <EXPANSION BEGIN>
                        1363 jarl22 _R_DEV_IntClearFlag , lp 
000003ee 80ff0000*      1363 <EXPANSION END>
                        1364 --646:                 R_DEV_IntEnable(unit0_int_sel[i], Enable);
                        1365 --line646
                        1366 ..lin.C.3A.5Cgit.5Crh850.5Csrc.5Capp.5Cgfx_apps.5Csimple_draw.5Ctarget.5Cd1mx_mango_ghs.5Cobj.5Cr_sys_vdce.41::
                        1367 .LDWlin41:
000003f2 1df0           1368 	mov	r29,ep
000003f4 c2f2           1369 	shl	2,ep
000003f6 23761800       1370 	movea	24,sp,r14
000003fa 1c38           1371 	mov	r28,r7
000003fc cef1           1372 	add	r14,ep
000003fe 0035           1373 	sld.w	0[ep],r6
                        1374 	jarl	_R_DEV_IntEnable,lp
                        1374 <EXPANSION BEGIN>
                        1374 jarl22 _R_DEV_IntEnable , lp 
00000400 80ff0000*      1374 <EXPANSION END>
                        1375 --line643
                        1376 ..lin.C.3A.5Cgit.5Crh850.5Csrc.5Capp.5Cgfx_apps.5Csimple_draw.5Ctarget.5Cd1mx_mango_ghs.5Cobj.5Cr_sys_vdce.42::
                        1377 .LDWlin42:
00000404 41ea           1378 	add	1,r29
00000406 69ea           1379 	cmp	9,r29
00000408 d1ed*          1380 	bl	.L1260
                        1381 --647:             }
                        1382 --648:             /* GR3VBLANK is enabled independently, only disable is executed here. */
                        1383 --649:             if (Enable == 0)
                        1384 --line649
                        1385 ..lin.C.3A.5Cgit.5Crh850.5Csrc.5Capp.5Cgfx_apps.5Csimple_draw.5Ctarget.5Cd1mx_mango_ghs.5Cobj.5Cr_sys_vdce.43::
                        1386 .LDWlin43:
0000040a e0e1           1387 	cmp	zero,r28
0000040c ea2d*          1388 	bne	.L1269
                        1389 --650:             {
                        1390 --651:                 R_DEV_IntClearFlag(R_DEV_INT_VDCE0GR3VBLANK);
                        1391 --line651
                        1392 ..lin.C.3A.5Cgit.5Crh850.5Csrc.5Capp.5Cgfx_apps.5Csimple_draw.5Ctarget.5Cd1mx_mango_ghs.5Cobj.5Cr_sys_vdce.44::
                        1393 .LDWlin44:
0000040e 2036c800       1394 	movea	200,zero,r6
                        1395 	jarl	_R_DEV_IntClearFlag,lp
                        1395 <EXPANSION BEGIN>
                        1395 jarl22 _R_DEV_IntClearFlag , lp 
00000412 80ff0000*      1395 <EXPANSION END>
                        1396 --652:                 R_DEV_IntEnable(R_DEV_INT_VDCE0GR3VBLANK, Enable);
                        1397 --line652
                        1398 ..lin.C.3A.5Cgit.5Crh850.5Csrc.5Capp.5Cgfx_apps.5Csimple_draw.5Ctarget.5Cd1mx_mango_ghs.5Cobj.5Cr_sys_vdce.45::
                        1399 .LDWlin45:
00000416 1c38           1400 	mov	r28,r7
00000418 2036c800       1401 	movea	200,zero,r6
                        1402 	jarl	_R_DEV_IntEnable,lp
                        1402 <EXPANSION BEGIN>
                        1402 jarl22 _R_DEV_IntEnable , lp 
0000041c 80ff0000*      1402 <EXPANSION END>
00000420 c525*          1403 	br	.L1269
                        1404 .L1256:
                        1405 --653:             }

                                                                      Page 25
                                                              C:\Users\Frank\AppData\Local\Temp\gh_0000om41.si
                        1406 --654:         }
                        1407 --655:         else /* Unit == R_VDCE_UNIT1 */
                        1408 --656:         {
                        1409 --657:             /* Configure all interrupts on the device level */
                        1410 --658:             for (i = 0; i < (sizeof(unit1_int_sel) / sizeof(r_dev_IntSel_t)); i++)
                        1411 --line658
                        1412 ..lin.C.3A.5Cgit.5Crh850.5Csrc.5Capp.5Cgfx_apps.5Csimple_draw.5Ctarget.5Cd1mx_mango_ghs.5Cobj.5Cr_sys_vdce.46::
                        1413 .LDWlin46:
00000422 00ea           1414 	mov	0,r29
00000424 0000           1415 	nop
                        1416 .L1266:
                        1417 --659:             {
                        1418 --660:                 R_DEV_IntClearFlag(unit1_int_sel[i]);
00000426 1df0           1419 	mov	r29,ep
00000428 c2f2           1420 	shl	2,ep
0000042a 23760000       1421 	movea	0,sp,r14
0000042e cef1           1422 	add	r14,ep
00000430 0035           1423 	sld.w	0[ep],r6
                        1424 	jarl	_R_DEV_IntClearFlag,lp
                        1424 <EXPANSION BEGIN>
                        1424 jarl22 _R_DEV_IntClearFlag , lp 
00000432 80ff0000*      1424 <EXPANSION END>
                        1425 --661:                 R_DEV_IntEnable(unit1_int_sel[i], Enable);
                        1426 --line661
                        1427 ..lin.C.3A.5Cgit.5Crh850.5Csrc.5Capp.5Cgfx_apps.5Csimple_draw.5Ctarget.5Cd1mx_mango_ghs.5Cobj.5Cr_sys_vdce.47::
                        1428 .LDWlin47:
00000436 1df0           1429 	mov	r29,ep
00000438 c2f2           1430 	shl	2,ep
0000043a 23760000       1431 	movea	0,sp,r14
0000043e 1c38           1432 	mov	r28,r7
00000440 cef1           1433 	add	r14,ep
00000442 0035           1434 	sld.w	0[ep],r6
                        1435 	jarl	_R_DEV_IntEnable,lp
                        1435 <EXPANSION BEGIN>
                        1435 jarl22 _R_DEV_IntEnable , lp 
00000444 80ff0000*      1435 <EXPANSION END>
                        1436 --line658
                        1437 ..lin.C.3A.5Cgit.5Crh850.5Csrc.5Capp.5Cgfx_apps.5Csimple_draw.5Ctarget.5Cd1mx_mango_ghs.5Cobj.5Cr_sys_vdce.48::
                        1438 .LDWlin48:
00000448 41ea           1439 	add	1,r29
0000044a 66ea           1440 	cmp	6,r29
0000044c d1ed*          1441 	bl	.L1266
                        1442 --662:             }
                        1443 --663:             /* GR3VBLANK is enabled independently, only disable is executed here. */
                        1444 --664:             if (Enable == 0)
                        1445 --line664
                        1446 ..lin.C.3A.5Cgit.5Crh850.5Csrc.5Capp.5Cgfx_apps.5Csimple_draw.5Ctarget.5Cd1mx_mango_ghs.5Cobj.5Cr_sys_vdce.49::
                        1447 .LDWlin49:
0000044e e0e1           1448 	cmp	zero,r28
00000450 ca0d*          1449 	bne	.L1269
                        1450 --665:             {
                        1451 --666:                 R_DEV_IntClearFlag(R_DEV_INT_VDCE1GR3VBLANK);
                        1452 --line666
                        1453 ..lin.C.3A.5Cgit.5Crh850.5Csrc.5Capp.5Cgfx_apps.5Csimple_draw.5Ctarget.5Cd1mx_mango_ghs.5Cobj.5Cr_sys_vdce.50::
                        1454 .LDWlin50:
00000452 2036de00       1455 	movea	222,zero,r6
                        1456 	jarl	_R_DEV_IntClearFlag,lp
                        1456 <EXPANSION BEGIN>
                        1456 jarl22 _R_DEV_IntClearFlag , lp 
00000456 80ff0000*      1456 <EXPANSION END>
                        1457 --667:                 R_DEV_IntEnable(R_DEV_INT_VDCE1GR3VBLANK, Enable);

                                                                      Page 26
                                                              C:\Users\Frank\AppData\Local\Temp\gh_0000om41.si
                        1458 --line667
                        1459 ..lin.C.3A.5Cgit.5Crh850.5Csrc.5Capp.5Cgfx_apps.5Csimple_draw.5Ctarget.5Cd1mx_mango_ghs.5Cobj.5Cr_sys_vdce.51::
                        1460 .LDWlin51:
0000045a 1c38           1461 	mov	r28,r7
0000045c 2036de00       1462 	movea	222,zero,r6
                        1463 	jarl	_R_DEV_IntEnable,lp
                        1463 <EXPANSION BEGIN>
                        1463 jarl22 _R_DEV_IntEnable , lp 
00000460 80ff0000*      1463 <EXPANSION END>
00000464 a505*          1464 	br	.L1269
                        1465 .L1254:
                        1466 --668: 			}
                        1467 --669:         }
                        1468 --670:     }
                        1469 --671:     else
                        1470 --672:     {
                        1471 --673:         ret = R_VDCE_ERR_RANGE_UNIT;
                        1472 --line673
                        1473 ..lin.C.3A.5Cgit.5Crh850.5Csrc.5Capp.5Cgfx_apps.5Csimple_draw.5Ctarget.5Cd1mx_mango_ghs.5Cobj.5Cr_sys_vdce.52::
                        1474 .LDWlin52:
00000466 03da           1475 	mov	3,r27
                        1476 .L1269:
                        1477 --674:     }
                        1478 --675:     
                        1479 --676:     return ret;
00000468 1b50           1480 	mov	r27,r10
                        1481 --	    .ef
                        1482 .LDW13:
0000046a 5e06ff30       1483 	dispose	15,{r26,r27,r28,r29,r31},[lp]
                        1484 	.type	_loc_IntcCtrlAll,@function
                        1485 	.size	_loc_IntcCtrlAll,.-_loc_IntcCtrlAll
                        1486 	.type	_loc_IntcCtrlAll..C.3A.5Cgit.5Crh850.5Csrc.5Capp.5Cgfx_apps.5Csimple_draw.5Ctarget.5Cd1mx_mango_ghs.5Cobj.5Cr_sys_vdce.,@function
                        1487 	.size	_loc_IntcCtrlAll..C.3A.5Cgit.5Crh850.5Csrc.5Capp.5Cgfx_apps.5Csimple_draw.5Ctarget.5Cd1mx_mango_ghs.5Cobj.5Cr_sys_vdce.,.-_loc_IntcCtrlAll..C.3A.5Cgit.5Crh850.5Csrc.5Capp.5Cgfx_apps.5Csimple_draw.5Ctarget.5Cd1mx_mango_ghs.5Cobj.5Cr_sys_vdce.
                        1488 	.align	2
                        1489 .LDW23:
                        1490 --_ret	r27	local
                        1491 --_i	r29	local
                        1492 --_unit0_int_sel	24[sp]	local
                        1493 --_unit1_int_sel	0[sp]	local
                        1494 
                        1495 --_Unit	r26	param
                        1496 --_Enable	r28	param
                        1497 
                        1498 	.section ".bss","awb"
                        1499 .L1390:
                        1500 	.type	.L1390,@object
                        1501 	.size	.L1390,0
                        1502 	.data
                        1503 	.text
                        1504 
                        1505 --677: }
                        1506 
                        1507 --679: /*******************************************************************************
                        1508 --680:   Function: loc_IntcCtrl
                        1509 --681: */
                        1510 --682: static r_vdce_Error_t loc_IntcCtrl(const uint32_t Unit, const r_dev_IntSel_t IntSel, const uint8_t Enable)
                        1511 	.align	2
                        1512 	.align	2
                        1513 	.global	_loc_IntcCtrl..C.3A.5Cgit.5Crh850.5Csrc.5Capp.5Cgfx_apps.5Csimple_draw.5Ctarget.5Cd1mx_mango_ghs.5Cobj.5Cr_sys_vdce.
                        1514 _loc_IntcCtrl..C.3A.5Cgit.5Crh850.5Csrc.5Capp.5Cgfx_apps.5Csimple_draw.5Ctarget.5Cd1mx_mango_ghs.5Cobj.5Cr_sys_vdce.:
                        1515 _loc_IntcCtrl:

                                                                      Page 27
                                                              C:\Users\Frank\AppData\Local\Temp\gh_0000om41.si
0000046e 8007e170       1516 	prepare	{r25,r26,r27,r28,r29,r31},0
00000472 06d0           1517 	mov	r6,r26
00000474 07d8           1518 	mov	r7,r27
00000476 c8ceff00       1519 	andi	255,r8,r25
                        1520 --	    .bf
                        1521 .LDW33:
                        1522 --683: {
                        1523 --684:     r_vdce_Error_t ret;
                        1524 --685:     r_dev_IntSel_t int_sel;
                        1525 --687:     ret = R_VDCE_ERR_OK;
0000047a 00e2           1526 	mov	0,r28
                        1527 --689:     if (Unit < R_VDCE_MACRO_NUM)
0000047c 62d2           1528 	cmp	2,r26
0000047e e925*          1529 	bnl	.L1478
                        1530 --690:     {
                        1531 --691:         if (Unit == R_VDCE_UNIT0)
                        1532 --line691
                        1533 ..lin.C.3A.5Cgit.5Crh850.5Csrc.5Capp.5Cgfx_apps.5Csimple_draw.5Ctarget.5Cd1mx_mango_ghs.5Cobj.5Cr_sys_vdce.53::
                        1534 .LDWlin53:
00000480 e0d1           1535 	cmp	zero,r26
00000482 aa15*          1536 	bne	.L1480
                        1537 --692:         {
                        1538 --693:             int_sel = IntSel;
                        1539 --line693
                        1540 ..lin.C.3A.5Cgit.5Crh850.5Csrc.5Capp.5Cgfx_apps.5Csimple_draw.5Ctarget.5Cd1mx_mango_ghs.5Cobj.5Cr_sys_vdce.54::
                        1541 .LDWlin54:
00000484 1be8           1542 	mov	r27,r29
                        1543 --694:             if ((int_sel >= LOC_INTC_UNIT0_START) && (int_sel <= LOC_INTC_UNIT0_END))
00000486 1d0639ff       1544 	addi	-199,r29,zero
0000048a c90d*          1545 	bnl	.L1482
0000048c 1d062dff       1546 	addi	-211,r29,zero
00000490 910d*          1547 	bl	.L1482
                        1548 --695:             {
                        1549 --696:                 R_DEV_IntClearFlag(int_sel);
                        1550 --line696
                        1551 ..lin.C.3A.5Cgit.5Crh850.5Csrc.5Capp.5Cgfx_apps.5Csimple_draw.5Ctarget.5Cd1mx_mango_ghs.5Cobj.5Cr_sys_vdce.55::
                        1552 .LDWlin55:
00000492 1d30           1553 	mov	r29,r6
                        1554 	jarl	_R_DEV_IntClearFlag,lp
                        1554 <EXPANSION BEGIN>
                        1554 jarl22 _R_DEV_IntClearFlag , lp 
00000494 80ff0000*      1554 <EXPANSION END>
                        1555 --697:                 R_DEV_IntEnable(int_sel, Enable);
                        1556 --line697
                        1557 ..lin.C.3A.5Cgit.5Crh850.5Csrc.5Capp.5Cgfx_apps.5Csimple_draw.5Ctarget.5Cd1mx_mango_ghs.5Cobj.5Cr_sys_vdce.56::
                        1558 .LDWlin56:
00000498 1d30           1559 	mov	r29,r6
0000049a 1938           1560 	mov	r25,r7
                        1561 	jarl	_R_DEV_IntEnable,lp
                        1561 <EXPANSION BEGIN>
                        1561 jarl22 _R_DEV_IntEnable , lp 
0000049c 80ff0000*      1561 <EXPANSION END>
000004a0 e515*          1562 	br	.L1491
                        1563 .L1482:
                        1564 --698:             }
                        1565 --699:             else
                        1566 --700:             {
                        1567 --701:                 ret = R_VDCE_ERR_RANGE_PARAM;
                        1568 --line701
                        1569 ..lin.C.3A.5Cgit.5Crh850.5Csrc.5Capp.5Cgfx_apps.5Csimple_draw.5Ctarget.5Cd1mx_mango_ghs.5Cobj.5Cr_sys_vdce.57::
                        1570 .LDWlin57:

                                                                      Page 28
                                                              C:\Users\Frank\AppData\Local\Temp\gh_0000om41.si
000004a2 04e2           1571 	mov	4,r28
000004a4 c515*          1572 	br	.L1491
                        1573 .L1480:
                        1574 --702:             }
                        1575 --703:         }
                        1576 --704:         else /* Unit == R_VDCE_UNIT1 */
                        1577 --705:         {
                        1578 --706:             int_sel = (r_dev_IntSel_t)(IntSel + LOC_INTC_UNIT1_OFFSET);
                        1579 --line706
                        1580 ..lin.C.3A.5Cgit.5Crh850.5Csrc.5Capp.5Cgfx_apps.5Csimple_draw.5Ctarget.5Cd1mx_mango_ghs.5Cobj.5Cr_sys_vdce.58::
                        1581 .LDWlin58:
000004a6 1bee1600       1582 	addi	22,r27,r29
                        1583 --707:             if ((int_sel >= LOC_INTC_UNIT1_START) && (int_sel <= LOC_INTC_UNIT1_END))
000004aa 1d0623ff       1584 	addi	-221,r29,zero
000004ae c90d*          1585 	bnl	.L1487
000004b0 1d061bff       1586 	addi	-229,r29,zero
000004b4 910d*          1587 	bl	.L1487
                        1588 --708:             {
                        1589 --709:                 R_DEV_IntClearFlag(int_sel);
                        1590 --line709
                        1591 ..lin.C.3A.5Cgit.5Crh850.5Csrc.5Capp.5Cgfx_apps.5Csimple_draw.5Ctarget.5Cd1mx_mango_ghs.5Cobj.5Cr_sys_vdce.59::
                        1592 .LDWlin59:
000004b6 1d30           1593 	mov	r29,r6
                        1594 	jarl	_R_DEV_IntClearFlag,lp
                        1594 <EXPANSION BEGIN>
                        1594 jarl22 _R_DEV_IntClearFlag , lp 
000004b8 80ff0000*      1594 <EXPANSION END>
                        1595 --710:                 R_DEV_IntEnable(int_sel, Enable);
                        1596 --line710
                        1597 ..lin.C.3A.5Cgit.5Crh850.5Csrc.5Capp.5Cgfx_apps.5Csimple_draw.5Ctarget.5Cd1mx_mango_ghs.5Cobj.5Cr_sys_vdce.60::
                        1598 .LDWlin60:
000004bc 1d30           1599 	mov	r29,r6
000004be 1938           1600 	mov	r25,r7
                        1601 	jarl	_R_DEV_IntEnable,lp
                        1601 <EXPANSION BEGIN>
                        1601 jarl22 _R_DEV_IntEnable , lp 
000004c0 80ff0000*      1601 <EXPANSION END>
000004c4 c505*          1602 	br	.L1491
                        1603 .L1487:
                        1604 --711:             }
                        1605 --712:             else
                        1606 --713:             {
                        1607 --714:                 ret = R_VDCE_ERR_RANGE_PARAM;
                        1608 --line714
                        1609 ..lin.C.3A.5Cgit.5Crh850.5Csrc.5Capp.5Cgfx_apps.5Csimple_draw.5Ctarget.5Cd1mx_mango_ghs.5Cobj.5Cr_sys_vdce.61::
                        1610 .LDWlin61:
000004c6 04e2           1611 	mov	4,r28
000004c8 a505*          1612 	br	.L1491
                        1613 .L1478:
                        1614 --715:             }
                        1615 --716:         }
                        1616 --717:     }
                        1617 --718:     else
                        1618 --719:     {
                        1619 --720:         ret = R_VDCE_ERR_RANGE_UNIT;
                        1620 --line720
                        1621 ..lin.C.3A.5Cgit.5Crh850.5Csrc.5Capp.5Cgfx_apps.5Csimple_draw.5Ctarget.5Cd1mx_mango_ghs.5Cobj.5Cr_sys_vdce.62::
                        1622 .LDWlin62:
000004ca 03e2           1623 	mov	3,r28
                        1624 .L1491:
                        1625 --721:     }

                                                                      Page 29
                                                              C:\Users\Frank\AppData\Local\Temp\gh_0000om41.si
                        1626 --722:     
                        1627 --723:     return ret;
000004cc 1c50           1628 	mov	r28,r10
                        1629 --	    .ef
                        1630 .LDW43:
000004ce 4006ff70       1631 	dispose	0,{r25,r26,r27,r28,r29,r31},[lp]
                        1632 	.type	_loc_IntcCtrl,@function
                        1633 	.size	_loc_IntcCtrl,.-_loc_IntcCtrl
                        1634 	.type	_loc_IntcCtrl..C.3A.5Cgit.5Crh850.5Csrc.5Capp.5Cgfx_apps.5Csimple_draw.5Ctarget.5Cd1mx_mango_ghs.5Cobj.5Cr_sys_vdce.,@function
                        1635 	.size	_loc_IntcCtrl..C.3A.5Cgit.5Crh850.5Csrc.5Capp.5Cgfx_apps.5Csimple_draw.5Ctarget.5Cd1mx_mango_ghs.5Cobj.5Cr_sys_vdce.,.-_loc_IntcCtrl..C.3A.5Cgit.5Crh850.5Csrc.5Capp.5Cgfx_apps.5Csimple_draw.5Ctarget.5Cd1mx_mango_ghs.5Cobj.5Cr_sys_vdce.
                        1636 	.align	2
                        1637 .LDW53:
                        1638 --_ret	r28	local
                        1639 --_int_sel	r29	local
                        1640 
                        1641 --_Unit	r26	param
                        1642 --_IntSel	r27	param
                        1643 --_Enable	r25	param
                        1644 
                        1645 	.section ".bss","awb"
                        1646 .L1582:
                        1647 	.type	.L1582,@object
                        1648 	.size	.L1582,0
                        1649 	.data
                        1650 	.text
                        1651 
                        1652 --724: }
                        1653 
                        1654 --726: /*******************************************************************************
                        1655 --727:   Function: loc_GetDev
                        1656 --728: */
                        1657 --729: static r_dev_Device_t loc_GetDev(void)
                        1658 	.align	2
                        1659 	.align	2
                        1660 	.global	_loc_GetDev..C.3A.5Cgit.5Crh850.5Csrc.5Capp.5Cgfx_apps.5Csimple_draw.5Ctarget.5Cd1mx_mango_ghs.5Cobj.5Cr_sys_vdce.
                        1661 _loc_GetDev..C.3A.5Cgit.5Crh850.5Csrc.5Capp.5Cgfx_apps.5Csimple_draw.5Ctarget.5Cd1mx_mango_ghs.5Cobj.5Cr_sys_vdce.:
                        1662 _loc_GetDev:
000004d2 80076100       1663 	prepare	{r29,r31},0
                        1664 --	    .bf
                        1665 .LDW63:
                        1666 --730: {
                        1667 --731:     r_dev_Device_t  device;
                        1668 --732:     
                        1669 --733:     /* Modify device number if debug. */
                        1670 --734: #ifdef LOC_VDCE_FORCE_DEV_NUM
                        1671 --735:     device = LOC_VDCE_FORCE_DEV_NUM;
                        1672 --736: #else
                        1673 --737:     device = R_DEV_GetDev();
                        1674 	jarl	_R_DEV_GetDev,lp
                        1674 <EXPANSION BEGIN>
                        1674 jarl22 _R_DEV_GetDev , lp 
000004d6 80ff0000*      1674 <EXPANSION END>
000004da 0ae8           1675 	mov	r10,r29
                        1676 --738: #endif
                        1677 --739:     return device;
                        1678 --line739
                        1679 ..lin.C.3A.5Cgit.5Crh850.5Csrc.5Capp.5Cgfx_apps.5Csimple_draw.5Ctarget.5Cd1mx_mango_ghs.5Cobj.5Cr_sys_vdce.63::
                        1680 .LDWlin63:
000004dc 1d50           1681 	mov	r29,r10
                        1682 --	    .ef
                        1683 .LDW73:

                                                                      Page 30
                                                              C:\Users\Frank\AppData\Local\Temp\gh_0000om41.si
000004de 40067f00       1684 	dispose	0,{r29,r31},[lp]
                        1685 	.type	_loc_GetDev,@function
                        1686 	.size	_loc_GetDev,.-_loc_GetDev
                        1687 	.type	_loc_GetDev..C.3A.5Cgit.5Crh850.5Csrc.5Capp.5Cgfx_apps.5Csimple_draw.5Ctarget.5Cd1mx_mango_ghs.5Cobj.5Cr_sys_vdce.,@function
                        1688 	.size	_loc_GetDev..C.3A.5Cgit.5Crh850.5Csrc.5Capp.5Cgfx_apps.5Csimple_draw.5Ctarget.5Cd1mx_mango_ghs.5Cobj.5Cr_sys_vdce.,.-_loc_GetDev..C.3A.5Cgit.5Crh850.5Csrc.5Capp.5Cgfx_apps.5Csimple_draw.5Ctarget.5Cd1mx_mango_ghs.5Cobj.5Cr_sys_vdce.
                        1689 	.align	2
                        1690 .LDW83:
                        1691 --_device	r29	local
                        1692 
                        1693 	.section ".bss","awb"
                        1694 .L1666:
                        1695 	.type	.L1666,@object
                        1696 	.size	.L1666,0
                        1697 	.data
                        1698 	.text
                        1699 
                        1700 --740: }
                        1701 
                        1702 --742: /*******************************************************************************
                        1703 --743:   Function: loc_ConvertToIntSel
                        1704 --744: */
                        1705 --745: static r_dev_IntSel_t loc_ConvertToIntSel(const uint32_t         Unit,
                        1706 	.align	2
                        1707 	.align	2
                        1708 	.global	_loc_ConvertToIntSel..C.3A.5Cgit.5Crh850.5Csrc.5Capp.5Cgfx_apps.5Csimple_draw.5Ctarget.5Cd1mx_mango_ghs.5Cobj.5Cr_sys_vdce.
                        1709 _loc_ConvertToIntSel..C.3A.5Cgit.5Crh850.5Csrc.5Capp.5Cgfx_apps.5Csimple_draw.5Ctarget.5Cd1mx_mango_ghs.5Cobj.5Cr_sys_vdce.:
                        1710 _loc_ConvertToIntSel:
000004e2 0670           1711 	mov	r6,r14
000004e4 0760           1712 	mov	r7,r12
                        1713 --	    .bf
                        1714 .LDW93:
                        1715 --746:                                           const r_vdce_IntType_t IntType)
                        1716 --747: {
                        1717 --748:     r_dev_IntSel_t  int_sel;
                        1718 --749:     
                        1719 --750:     switch (IntType)
000004e6 0c08           1720 	mov	r12,r1
000004e8 0106eeff       1721 	addi	-18,r1,zero
000004ec c145*          1722 	bl	.L1694
000004ee c20a           1723 	shl	2,r1
000004f0 e10600000000*  1724 	jmp	.L1824[r1]
                        1725 .L1824:
000004f6 80077e00*      1726 	jr	.L1694
000004fa 80074400*      1727 	jr	.L1685
000004fe 80074600*      1728 	jr	.L1686
00000502 80074800*      1729 	jr	.L1687
00000506 80074a00*      1730 	jr	.L1688
0000050a 80074c00*      1731 	jr	.L1689
0000050e 80074e00*      1732 	jr	.L1690
00000512 80075000*      1733 	jr	.L1691
00000516 80075e00*      1734 	jr	.L1694
0000051a 80075a00*      1735 	jr	.L1694
0000051e 80075600*      1736 	jr	.L1694
00000522 80075200*      1737 	jr	.L1694
00000526 80074e00*      1738 	jr	.L1694
0000052a 80074a00*      1739 	jr	.L1694
0000052e 80074600*      1740 	jr	.L1694
00000532 80074200*      1741 	jr	.L1694
00000536 80073200*      1742 	jr	.L1692
0000053a 80073400*      1743 	jr	.L1693
                        1744 .L1685:

                                                                      Page 31
                                                              C:\Users\Frank\AppData\Local\Temp\gh_0000om41.si
                        1745 --751:     {
                        1746 --752:         case R_VDCE_INTC_VBLANK:
                        1747 --753:             int_sel = R_DEV_INT_VDCE0S0LOVSYNC;
                        1748 --line753
                        1749 ..lin.C.3A.5Cgit.5Crh850.5Csrc.5Capp.5Cgfx_apps.5Csimple_draw.5Ctarget.5Cd1mx_mango_ghs.5Cobj.5Cr_sys_vdce.64::
                        1750 .LDWlin64:
0000053e 200eca00       1751 	movea	202,zero,r1
00000542 b51d*          1752 	br	.L1683
                        1753 .L1686:
                        1754 --754:             break;
                        1755 --755:         case R_VDCE_INTC_VBLANK_1:
                        1756 --756:             int_sel = R_DEV_INT_VDCE0S1LOVSYNC;
                        1757 --line756
                        1758 ..lin.C.3A.5Cgit.5Crh850.5Csrc.5Capp.5Cgfx_apps.5Csimple_draw.5Ctarget.5Cd1mx_mango_ghs.5Cobj.5Cr_sys_vdce.65::
                        1759 .LDWlin65:
00000544 200ece00       1760 	movea	206,zero,r1
00000548 851d*          1761 	br	.L1683
                        1762 .L1687:
                        1763 --757:             break;
                        1764 --758:         case R_VDCE_INTC_VBLANK_DELAY:
                        1765 --759:             int_sel = R_DEV_INT_VDCE0GR3VBLANK;
                        1766 --line759
                        1767 ..lin.C.3A.5Cgit.5Crh850.5Csrc.5Capp.5Cgfx_apps.5Csimple_draw.5Ctarget.5Cd1mx_mango_ghs.5Cobj.5Cr_sys_vdce.66::
                        1768 .LDWlin66:
0000054a 200ec800       1769 	movea	200,zero,r1
0000054e d515*          1770 	br	.L1683
                        1771 .L1688:
                        1772 --760:             break;
                        1773 --761:         case R_VDCE_INTC_SCANLINE:
                        1774 --762:             int_sel = R_DEV_INT_VDCE0GR3VLINE;
                        1775 --line762
                        1776 ..lin.C.3A.5Cgit.5Crh850.5Csrc.5Capp.5Cgfx_apps.5Csimple_draw.5Ctarget.5Cd1mx_mango_ghs.5Cobj.5Cr_sys_vdce.67::
                        1777 .LDWlin67:
00000550 200ecb00       1778 	movea	203,zero,r1
00000554 a515*          1779 	br	.L1683
                        1780 .L1689:
                        1781 --763:             break;
                        1782 --764:         case R_VDCE_INTC_OIR_SCANLINE:
                        1783 --765:             int_sel = R_DEV_INT_VDCE0IRVLINE;
                        1784 --line765
                        1785 ..lin.C.3A.5Cgit.5Crh850.5Csrc.5Capp.5Cgfx_apps.5Csimple_draw.5Ctarget.5Cd1mx_mango_ghs.5Cobj.5Cr_sys_vdce.68::
                        1786 .LDWlin68:
00000556 200ed200       1787 	movea	210,zero,r1
0000055a f50d*          1788 	br	.L1683
                        1789 .L1690:
                        1790 --766:             break;
                        1791 --767:         case R_VDCE_INTC_OIR_VBLANK:
                        1792 --768:             int_sel = R_DEV_INT_VDCE0OIRLOVSYNC;
                        1793 --line768
                        1794 ..lin.C.3A.5Cgit.5Crh850.5Csrc.5Capp.5Cgfx_apps.5Csimple_draw.5Ctarget.5Cd1mx_mango_ghs.5Cobj.5Cr_sys_vdce.69::
                        1795 .LDWlin69:
0000055c 200ed100       1796 	movea	209,zero,r1
00000560 c50d*          1797 	br	.L1683
                        1798 .L1691:
                        1799 --769:             break;
                        1800 --770:         case R_VDCE_INTC_OIR_VSCYNC_WRITE:
                        1801 --771:             int_sel = R_DEV_INT_VDCE0OIRVIVSYNC;
                        1802 --line771
                        1803 ..lin.C.3A.5Cgit.5Crh850.5Csrc.5Capp.5Cgfx_apps.5Csimple_draw.5Ctarget.5Cd1mx_mango_ghs.5Cobj.5Cr_sys_vdce.70::
                        1804 .LDWlin70:
00000562 200ed000       1805 	movea	208,zero,r1

                                                                      Page 32
                                                              C:\Users\Frank\AppData\Local\Temp\gh_0000om41.si
00000566 950d*          1806 	br	.L1683
                        1807 .L1692:
                        1808 --772:             break;
                        1809 --773:         case R_VDCE_INTC_CAP_VBLANK:
                        1810 --774:             int_sel = R_DEV_INT_VDCE0S0VIVSYNC;
                        1811 --line774
                        1812 ..lin.C.3A.5Cgit.5Crh850.5Csrc.5Capp.5Cgfx_apps.5Csimple_draw.5Ctarget.5Cd1mx_mango_ghs.5Cobj.5Cr_sys_vdce.71::
                        1813 .LDWlin71:
00000568 200ec900       1814 	movea	201,zero,r1
0000056c e505*          1815 	br	.L1683
                        1816 .L1693:
                        1817 --775:             break;
                        1818 --776:         case R_VDCE_INTC_CAP_END_OF_FIELD:
                        1819 --777:             int_sel = R_DEV_INT_VDCE0S0VFIELD;
                        1820 --line777
                        1821 ..lin.C.3A.5Cgit.5Crh850.5Csrc.5Capp.5Cgfx_apps.5Csimple_draw.5Ctarget.5Cd1mx_mango_ghs.5Cobj.5Cr_sys_vdce.72::
                        1822 .LDWlin72:
0000056e 200ecc00       1823 	movea	204,zero,r1
00000572 b505*          1824 	br	.L1683
                        1825 .L1694:
                        1826 --778:             break;
                        1827 --779:         case R_VDCE_INTC_ERROR:
                        1828 --780:         case R_VDCE_INTC_NO_VI_VSYNC_SIGNAL:
                        1829 --781:         case R_VDCE_INTC_NO_VI_VSYNC_SIGNAL_1:
                        1830 --782:         case R_VDCE_INTC_ERR_OIR_UNDERFLOW:
                        1831 --783:         case R_VDCE_INTC_ERR_LAYER0_UNDERFLOW:
                        1832 --784:         case R_VDCE_INTC_ERR_LAYER1_UNDERFLOW:
                        1833 --785:         case R_VDCE_INTC_ERR_LAYER2_UNDERFLOW:
                        1834 --786:         case R_VDCE_INTC_ERR_LAYER3_UNDERFLOW:
                        1835 --787:         case R_VDCE_INTC_ERR_CAP_WRITE_OVERFLOW:
                        1836 --788:         default: 
                        1837 --789:             int_sel = LOC_UNKOWN_INT_SEL;
                        1838 --line789
                        1839 ..lin.C.3A.5Cgit.5Crh850.5Csrc.5Capp.5Cgfx_apps.5Csimple_draw.5Ctarget.5Cd1mx_mango_ghs.5Cobj.5Cr_sys_vdce.73::
                        1840 .LDWlin73:
00000574 1f0a           1841 	mov	-1,r1
00000576 0000           1842 	nop
                        1843 .L1683:
                        1844 --790:             break;
                        1845 --791:     }
                        1846 --792:     if ((int_sel != LOC_UNKOWN_INT_SEL) && (Unit == 1))
00000578 7f0a           1847 	cmp	-1,r1
0000057a d205*          1848 	be	.L1695
0000057c 6172           1849 	cmp	1,r14
0000057e ba05*          1850 	bne	.L1695
                        1851 --793:     {
                        1852 --794:         int_sel = (r_dev_IntSel_t)(int_sel + LOC_INTC_UNIT1_OFFSET);
                        1853 --line794
                        1854 ..lin.C.3A.5Cgit.5Crh850.5Csrc.5Capp.5Cgfx_apps.5Csimple_draw.5Ctarget.5Cd1mx_mango_ghs.5Cobj.5Cr_sys_vdce.74::
                        1855 .LDWlin74:
00000580 010e1600       1856 	addi	22,r1,r1
                        1857 .L1695:
                        1858 --795:     }
                        1859 --797:     return int_sel;
00000584 0150           1860 	mov	r1,r10
                        1861 --	    .ef
                        1862 .LDW04:
00000586 7f00           1863 	jmp	[lp]
                        1864 	.type	_loc_ConvertToIntSel,@function
                        1865 	.size	_loc_ConvertToIntSel,.-_loc_ConvertToIntSel
                        1866 	.type	_loc_ConvertToIntSel..C.3A.5Cgit.5Crh850.5Csrc.5Capp.5Cgfx_apps.5Csimple_draw.5Ctarget.5Cd1mx_mango_ghs.5Cobj.5Cr_sys_vdce.,@function

                                                                      Page 33
                                                              C:\Users\Frank\AppData\Local\Temp\gh_0000om41.si
                        1867 	.size	_loc_ConvertToIntSel..C.3A.5Cgit.5Crh850.5Csrc.5Capp.5Cgfx_apps.5Csimple_draw.5Ctarget.5Cd1mx_mango_ghs.5Cobj.5Cr_sys_vdce.,.-_loc_ConvertToIntSel..C.3A.5Cgit.5Crh850.5Csrc.5Capp.5Cgfx_apps.5Csimple_draw.5Ctarget.5Cd1mx_mango_ghs.5Cobj.5Cr_sys_vdce.
                        1868 	.align	2
                        1869 .LDW14:
                        1870 --_int_sel	r1	local
                        1871 
                        1872 --_Unit	r14	param
                        1873 --_IntType	r12	param
                        1874 
                        1875 	.section ".bss","awb"
                        1876 .L1822:
                        1877 	.type	.L1822,@object
                        1878 	.size	.L1822,0
                        1879 	.data
                        1880 	.ghsnote jtable,2097156,.L1824,.L1824,.L1824,18
                        1881 	.text
                        1882 
                        1883 --798: }
                        1884 
                        1885 --800: /*******************************************************************************
                        1886 --801:   Section: VDCE Macro Driver Support Functions
                        1887 --803:   Comments see: <r_vdce_sys.h>
                        1888 --804: */
                        1889 --806: /*******************************************************************************
                        1890 --807:   Function: R_VDCE_Sys_Init
                        1891 --808: */
                        1892 --810: r_vdce_Error_t R_VDCE_Sys_Init(const uint32_t Unit)
                        1893 	.align	2
                        1894 	.align	2
                        1895 	.global	_R_VDCE_Sys_Init
                        1896 _R_VDCE_Sys_Init:
00000588 0608           1897 	mov	r6,r1
                        1898 --	    .bf
                        1899 .LDW24:
                        1900 --811: {
                        1901 --812:     return R_VDCE_ERR_OK;
0000058a 0052           1902 	mov	0,r10
                        1903 --	    .ef
                        1904 .LDW34:
0000058c 7f00           1905 	jmp	[lp]
                        1906 	.type	_R_VDCE_Sys_Init,@function
                        1907 	.size	_R_VDCE_Sys_Init,.-_R_VDCE_Sys_Init
                        1908 	.align	2
                        1909 .LDW44:
                        1910 
                        1911 --_Unit	r1	param
                        1912 
                        1913 	.section ".bss","awb"
                        1914 .L1934:
                        1915 	.type	.L1934,@object
                        1916 	.size	.L1934,0
                        1917 	.data
                        1918 	.text
                        1919 
                        1920 --813: }
                        1921 
                        1922 --815: /*******************************************************************************
                        1923 --816:   Function: R_VDCE_Sys_DeInit
                        1924 --817: */
                        1925 --819: r_vdce_Error_t R_VDCE_Sys_DeInit(const uint32_t Unit)
                        1926 	.align	2
                        1927 	.align	2

                                                                      Page 34
                                                              C:\Users\Frank\AppData\Local\Temp\gh_0000om41.si
                        1928 	.global	_R_VDCE_Sys_DeInit
                        1929 _R_VDCE_Sys_DeInit:
0000058e 0608           1930 	mov	r6,r1
                        1931 --	    .bf
                        1932 .LDW54:
                        1933 --820: {
                        1934 --821:     return R_VDCE_ERR_OK;
00000590 0052           1935 	mov	0,r10
                        1936 --	    .ef
                        1937 .LDW64:
00000592 7f00           1938 	jmp	[lp]
                        1939 	.type	_R_VDCE_Sys_DeInit,@function
                        1940 	.size	_R_VDCE_Sys_DeInit,.-_R_VDCE_Sys_DeInit
                        1941 	.align	2
                        1942 .LDW74:
                        1943 
                        1944 --_Unit	r1	param
                        1945 
                        1946 	.section ".bss","awb"
                        1947 .L1966:
                        1948 	.type	.L1966,@object
                        1949 	.size	.L1966,0
                        1950 	.data
                        1951 	.text
                        1952 
                        1953 --822: }
                        1954 
                        1955 --824: /*******************************************************************************
                        1956 --825:   Function: R_VDCE_Sys_BaseAddrGet
                        1957 --826: */
                        1958 --828: uint32_t R_VDCE_Sys_BaseAddrGet(const uint32_t Unit)
                        1959 	.align	2
                        1960 	.align	2
                        1961 	.global	_R_VDCE_Sys_BaseAddrGet
                        1962 _R_VDCE_Sys_BaseAddrGet:
00000594 8007e110       1963 	prepare	{r27,r28,r29,r31},0
00000598 06d8           1964 	mov	r6,r27
0000059a 3c06004000f2   1965 	mov	-234864640,r28
                        1966 --	    .bf
                        1967 .LDW84:
                        1968 --829: {
                        1969 --830:     uint32_t ret;
                        1970 --831:     r_dev_Device_t  device  =  R_DEV_GetDev(); 
                        1971 	jarl	_R_DEV_GetDev,lp
                        1971 <EXPANSION BEGIN>
                        1971 jarl22 _R_DEV_GetDev , lp 
000005a0 80ff0000*      1971 <EXPANSION END>
000005a4 0ae8           1972 	mov	r10,r29
                        1973 --833:     if (Unit == R_VDCE_UNIT0)
                        1974 --line833
                        1975 ..lin.C.3A.5Cgit.5Crh850.5Csrc.5Capp.5Cgfx_apps.5Csimple_draw.5Ctarget.5Cd1mx_mango_ghs.5Cobj.5Cr_sys_vdce.75::
                        1976 .LDWlin75:
000005a6 e0d9           1977 	cmp	zero,r27
000005a8 da05*          1978 	bne	.L1980
                        1979 --834:     {
                        1980 --835:         ret = R_VDCE_BASE_ADDR0;
                        1981 --line835
                        1982 ..lin.C.3A.5Cgit.5Crh850.5Csrc.5Capp.5Cgfx_apps.5Csimple_draw.5Ctarget.5Cd1mx_mango_ghs.5Cobj.5Cr_sys_vdce.76::
                        1983 .LDWlin76:
000005aa 2106004000f2   1984 	mov	-234864640,r1
000005b0 a515*          1985 	br	.L1982

                                                                      Page 35
                                                              C:\Users\Frank\AppData\Local\Temp\gh_0000om41.si
                        1986 .L1980:
                        1987 --836:     }
                        1988 --837:     else if (Unit == R_VDCE_UNIT1)
                        1989 --line837
                        1990 ..lin.C.3A.5Cgit.5Crh850.5Csrc.5Capp.5Cgfx_apps.5Csimple_draw.5Ctarget.5Cd1mx_mango_ghs.5Cobj.5Cr_sys_vdce.77::
                        1991 .LDWlin77:
000005b2 61da           1992 	cmp	1,r27
000005b4 fa0d*          1993 	bne	.L1983
                        1994 --838:     {
                        1995 --839:         if (((device >= R_DEV_R7F701408) && (device <= R_DEV_R7F701412)) || /* RH850/D1M2x */
                        1996 --line839
                        1997 ..lin.C.3A.5Cgit.5Crh850.5Csrc.5Capp.5Cgfx_apps.5Csimple_draw.5Ctarget.5Cd1mx_mango_ghs.5Cobj.5Cr_sys_vdce.78::
                        1998 .LDWlin78:
000005b6 1d0680fa       1999 	addi	-1408,r29,zero
000005ba c905*          2000 	bnl	.L1987
000005bc 1d067bfa       2001 	addi	-1413,r29,zero
000005c0 c905*          2002 	bnl	.L1986
                        2003 .L1987:
000005c2 1d065ffa       2004 	addi	-1441,r29,zero
000005c6 ca05*          2005 	bne	.L1985
                        2006 .L1986:
                        2007 --840:             (device == R_DEV_R7F701441))    /* RH850/D1M1A */
                        2008 --841:         {
                        2009 --842:             ret = R_VDCE_BASE_ADDR1;
                        2010 --line842
                        2011 ..lin.C.3A.5Cgit.5Crh850.5Csrc.5Capp.5Cgfx_apps.5Csimple_draw.5Ctarget.5Cd1mx_mango_ghs.5Cobj.5Cr_sys_vdce.79::
                        2012 .LDWlin79:
000005c8 1c0e0020       2013 	addi	8192,r28,r1
000005cc c505*          2014 	br	.L1982
                        2015 .L1985:
                        2016 --843:         }
                        2017 --844:         else
                        2018 --845:         {
                        2019 --846:             ret = 0;
                        2020 --line846
                        2021 ..lin.C.3A.5Cgit.5Crh850.5Csrc.5Capp.5Cgfx_apps.5Csimple_draw.5Ctarget.5Cd1mx_mango_ghs.5Cobj.5Cr_sys_vdce.80::
                        2022 .LDWlin80:
000005ce 000a           2023 	mov	0,r1
000005d0 a505*          2024 	br	.L1982
                        2025 .L1983:
                        2026 --847:         }
                        2027 --848:     }
                        2028 --849:     else
                        2029 --850:     {
                        2030 --851:         ret = 0;
                        2031 --line851
                        2032 ..lin.C.3A.5Cgit.5Crh850.5Csrc.5Capp.5Cgfx_apps.5Csimple_draw.5Ctarget.5Cd1mx_mango_ghs.5Cobj.5Cr_sys_vdce.81::
                        2033 .LDWlin81:
000005d2 000a           2034 	mov	0,r1
                        2035 .L1982:
                        2036 --852:     }
                        2037 --854:     return ret;
000005d4 0150           2038 	mov	r1,r10
                        2039 --	    .ef
                        2040 .LDW94:
000005d6 4006ff10       2041 	dispose	0,{r27,r28,r29,r31},[lp]
                        2042 	.type	_R_VDCE_Sys_BaseAddrGet,@function
                        2043 	.size	_R_VDCE_Sys_BaseAddrGet,.-_R_VDCE_Sys_BaseAddrGet
                        2044 	.align	2
                        2045 .LDW05:
                        2046 --_ret	r1	local

                                                                      Page 36
                                                              C:\Users\Frank\AppData\Local\Temp\gh_0000om41.si
                        2047 --_device	r29	local
                        2048 
                        2049 --_Unit	r27	param
                        2050 
                        2051 	.section ".bss","awb"
                        2052 .L2054:
                        2053 	.type	.L2054,@object
                        2054 	.size	.L2054,0
                        2055 	.data
                        2056 	.text
                        2057 
                        2058 --855: }
                        2059 
                        2060 --857: /*******************************************************************************
                        2061 --858:   Function: R_VDCE_Sys_PixelClockSet
                        2062 --859: */
                        2063 --861: uint32_t R_VDCE_Sys_PixelClockSet(const uint32_t Unit,
                        2064 	.align	2
                        2065 	.align	2
                        2066 	.global	_R_VDCE_Sys_PixelClockSet
                        2067 _R_VDCE_Sys_PixelClockSet:
000005da 8007e170       2068 	prepare	{r25,r26,r27,r28,r29,r31},0
000005de 06d8           2069 	mov	r6,r27
000005e0 07d0           2070 	mov	r7,r26
000005e2 08c8           2071 	mov	r8,r25
                        2072 --	    .bf
                        2073 .LDW15:
                        2074 --862:                                   const uint32_t Clock,
                        2075 --863:                                   const uint32_t OtherUnitActive)
                        2076 --864: {
                        2077 --865:     uint32_t ret;
                        2078 --866:     r_dev_Device_t device;
                        2079 --868:     if (Unit >= R_VDCE_MACRO_NUM)
000005e4 62da           2080 	cmp	2,r27
000005e6 b105*          2081 	bl	.L2098
                        2082 --869:     {
                        2083 --870:         ret = 0;
                        2084 --line870
                        2085 ..lin.C.3A.5Cgit.5Crh850.5Csrc.5Capp.5Cgfx_apps.5Csimple_draw.5Ctarget.5Cd1mx_mango_ghs.5Cobj.5Cr_sys_vdce.82::
                        2086 .LDWlin82:
000005e8 00e2           2087 	mov	0,r28
000005ea d525*          2088 	br	.L2100
                        2089 .L2098:
                        2090 --871:     }
                        2091 --872:     else
                        2092 --873:     {
                        2093 --874:         /* activate VDCE pixel clock */
                        2094 --875:         /*  - pixel clock generator depends on the current device */
                        2095 --876:         device = R_DEV_GetDev();
                        2096 --line876
                        2097 ..lin.C.3A.5Cgit.5Crh850.5Csrc.5Capp.5Cgfx_apps.5Csimple_draw.5Ctarget.5Cd1mx_mango_ghs.5Cobj.5Cr_sys_vdce.83::
                        2098 .LDWlin83:
                        2099 	jarl	_R_DEV_GetDev,lp
                        2099 <EXPANSION BEGIN>
                        2099 jarl22 _R_DEV_GetDev , lp 
000005ec 80ff0000*      2099 <EXPANSION END>
000005f0 0ae8           2100 	mov	r10,r29
                        2101 --877:         if (  ((device >= R_DEV_R7F701401) && (device <= R_DEV_R7F701407))
                        2102 --line877
                        2103 ..lin.C.3A.5Cgit.5Crh850.5Csrc.5Capp.5Cgfx_apps.5Csimple_draw.5Ctarget.5Cd1mx_mango_ghs.5Cobj.5Cr_sys_vdce.84::
                        2104 .LDWlin84:

                                                                      Page 37
                                                              C:\Users\Frank\AppData\Local\Temp\gh_0000om41.si
000005f2 1d0687fa       2105 	addi	-1401,r29,zero
000005f6 c905*          2106 	bnl	.L2104
000005f8 1d0680fa       2107 	addi	-1408,r29,zero
000005fc f905*          2108 	bnl	.L2102
                        2109 .L2104:
000005fe 1d065efa       2110 	addi	-1442,r29,zero
00000602 c205*          2111 	be	.L2102
00000604 1d0676fa       2112 	addi	-1418,r29,zero
00000608 fa05*          2113 	bne	.L2101
                        2114 .L2102:
                        2115 --878:             || (device == R_DEV_R7F701442)
                        2116 --879:             || (device == R_DEV_R7F701418) )
                        2117 --880:         {
                        2118 --881:             ret = loc_Vdce_Pixel_SetClockL2M1(Unit, Clock);
                        2119 --line881
                        2120 ..lin.C.3A.5Cgit.5Crh850.5Csrc.5Capp.5Cgfx_apps.5Csimple_draw.5Ctarget.5Cd1mx_mango_ghs.5Cobj.5Cr_sys_vdce.85::
                        2121 .LDWlin85:
0000060a 1b30           2122 	mov	r27,r6
0000060c 1a38           2123 	mov	r26,r7
                        2124 	jarl	_loc_Vdce_Pixel_SetClockL2M1,lp
                        2124 <EXPANSION BEGIN>
                        2124 jarl22 _loc_Vdce_Pixel_SetClockL2M1 , lp 
0000060e bfffc4fc*      2124 <EXPANSION END>
00000612 0ae0           2125 	mov	r10,r28
00000614 8515*          2126 	br	.L2100
                        2127 .L2101:
                        2128 --882:         } else if (device == R_DEV_R7F701441) {
                        2129 --line882
                        2130 ..lin.C.3A.5Cgit.5Crh850.5Csrc.5Capp.5Cgfx_apps.5Csimple_draw.5Ctarget.5Cd1mx_mango_ghs.5Cobj.5Cr_sys_vdce.86::
                        2131 .LDWlin86:
00000616 1d065ffa       2132 	addi	-1441,r29,zero
0000061a 8a0d*          2133 	bne	.L2107
                        2134 --883:             ret = loc_Vdce_Pixel_SetClockM1A(Unit, Clock, OtherUnitActive);
                        2135 --line883
                        2136 ..lin.C.3A.5Cgit.5Crh850.5Csrc.5Capp.5Cgfx_apps.5Csimple_draw.5Ctarget.5Cd1mx_mango_ghs.5Cobj.5Cr_sys_vdce.87::
                        2137 .LDWlin87:
0000061c 1b30           2138 	mov	r27,r6
0000061e 1a38           2139 	mov	r26,r7
00000620 1940           2140 	mov	r25,r8
                        2141 	jarl	_loc_Vdce_Pixel_SetClockM1A,lp
                        2141 <EXPANSION BEGIN>
                        2141 jarl22 _loc_Vdce_Pixel_SetClockM1A , lp 
00000622 bfff3efb*      2141 <EXPANSION END>
00000626 0ae0           2142 	mov	r10,r28
00000628 e505*          2143 	br	.L2100
                        2144 .L2107:
                        2145 --884:         } else {
                        2146 --885:             ret = loc_Vdce_Pixel_SetClockM2(Unit, Clock);
                        2147 --line885
                        2148 ..lin.C.3A.5Cgit.5Crh850.5Csrc.5Capp.5Cgfx_apps.5Csimple_draw.5Ctarget.5Cd1mx_mango_ghs.5Cobj.5Cr_sys_vdce.88::
                        2149 .LDWlin88:
0000062a 1b30           2150 	mov	r27,r6
0000062c 1a38           2151 	mov	r26,r7
                        2152 	jarl	_loc_Vdce_Pixel_SetClockM2,lp
                        2152 <EXPANSION BEGIN>
                        2152 jarl22 _loc_Vdce_Pixel_SetClockM2 , lp 
0000062e bfff04fa*      2152 <EXPANSION END>
00000632 0ae0           2153 	mov	r10,r28
                        2154 .L2100:
                        2155 --886:         }
                        2156 --887:     }

                                                                      Page 38
                                                              C:\Users\Frank\AppData\Local\Temp\gh_0000om41.si
                        2157 --888:     
                        2158 --889:     return ret;
                        2159 --line889
                        2160 ..lin.C.3A.5Cgit.5Crh850.5Csrc.5Capp.5Cgfx_apps.5Csimple_draw.5Ctarget.5Cd1mx_mango_ghs.5Cobj.5Cr_sys_vdce.89::
                        2161 .LDWlin89:
00000634 1c50           2162 	mov	r28,r10
                        2163 --	    .ef
                        2164 .LDW25:
00000636 4006ff70       2165 	dispose	0,{r25,r26,r27,r28,r29,r31},[lp]
                        2166 	.type	_R_VDCE_Sys_PixelClockSet,@function
                        2167 	.size	_R_VDCE_Sys_PixelClockSet,.-_R_VDCE_Sys_PixelClockSet
                        2168 	.align	2
                        2169 .LDW35:
                        2170 --_ret	r28	local
                        2171 --_device	r29	local
                        2172 
                        2173 --_Unit	r27	param
                        2174 --_Clock	r26	param
                        2175 --_OtherUnitActive	r25	param
                        2176 
                        2177 	.section ".bss","awb"
                        2178 .L2170:
                        2179 	.type	.L2170,@object
                        2180 	.size	.L2170,0
                        2181 	.data
                        2182 	.text
                        2183 
                        2184 --890: }
                        2185 
                        2186 --892: /*******************************************************************************
                        2187 --893:   Function: R_VDCE_Sys_VdceVersionGet
                        2188 --894: */
                        2189 --896: uint32_t R_VDCE_Sys_VdceVersionGet(void)
                        2190 	.align	2
                        2191 	.align	2
                        2192 	.global	_R_VDCE_Sys_VdceVersionGet
                        2193 _R_VDCE_Sys_VdceVersionGet:
                        2194 --	    .bf
                        2195 .LDW45:
                        2196 --897: {
                        2197 --898:     uint16_t hw_revision;
                        2198 --899:     uint32_t vdce_revision;
                        2199 --901:     hw_revision = (uint16_t)READ_16L(PRDNAME_ADDR);
0000063a 407647ff       2200 	movhi	65351,zero,r14
0000063e 2e772900       2201 	ld.w	40[r14],r14
00000642 ce0effff       2202 	andi	65535,r14,r1
00000646 c100           2203 	zxh	r1
                        2204 --903:     if((uint32_t)hw_revision < LOC_PRDNAME_THRESHOLD)
00000648 0106d4fe       2205 	addi	-300,r1,zero
0000064c b105*          2206 	bl	.L2217
                        2207 --904:     {
                        2208 --905:         vdce_revision = LOC_VDCE_REVISION_1;
                        2209 --line905
                        2210 ..lin.C.3A.5Cgit.5Crh850.5Csrc.5Capp.5Cgfx_apps.5Csimple_draw.5Ctarget.5Cd1mx_mango_ghs.5Cobj.5Cr_sys_vdce.90::
                        2211 .LDWlin90:
0000064e 0172           2212 	mov	1,r14
00000650 a505*          2213 	br	.L2219
                        2214 .L2217:
                        2215 --906:     }
                        2216 --907:     else
                        2217 --908:     {

                                                                      Page 39
                                                              C:\Users\Frank\AppData\Local\Temp\gh_0000om41.si
                        2218 --909:         vdce_revision = LOC_VDCE_REVISION_2;
                        2219 --line909
                        2220 ..lin.C.3A.5Cgit.5Crh850.5Csrc.5Capp.5Cgfx_apps.5Csimple_draw.5Ctarget.5Cd1mx_mango_ghs.5Cobj.5Cr_sys_vdce.91::
                        2221 .LDWlin91:
00000652 0272           2222 	mov	2,r14
                        2223 .L2219:
                        2224 --910:     }
                        2225 --912:     return vdce_revision;
00000654 0e50           2226 	mov	r14,r10
                        2227 --	    .ef
                        2228 .LDW55:
00000656 7f00           2229 	jmp	[lp]
                        2230 	.type	_R_VDCE_Sys_VdceVersionGet,@function
                        2231 	.size	_R_VDCE_Sys_VdceVersionGet,.-_R_VDCE_Sys_VdceVersionGet
                        2232 	.align	2
                        2233 .LDW65:
                        2234 --_hw_revision	r1	local
                        2235 --_vdce_revision	r14	local
                        2236 
                        2237 	.section ".bss","awb"
                        2238 .L2254:
                        2239 	.type	.L2254,@object
                        2240 	.size	.L2254,0
                        2241 	.data
                        2242 	.text
                        2243 
                        2244 --913: }
                        2245 
                        2246 --915: /*******************************************************************************
                        2247 --916:   Function: R_VDCE_Sys_IntcInit
                        2248 --917: */
                        2249 --919: r_vdce_Error_t R_VDCE_Sys_IntcInit(const uint32_t Unit)
                        2250 	.align	2
                        2251 	.align	2
                        2252 	.global	_R_VDCE_Sys_IntcInit
                        2253 _R_VDCE_Sys_IntcInit:
00000658 80076100       2254 	prepare	{r29,r31},0
0000065c 06e8           2255 	mov	r6,r29
                        2256 --	    .bf
                        2257 .LDW75:
                        2258 --920: {
                        2259 --921:     return loc_IntcCtrlAll(Unit, 1);
0000065e 1d30           2260 	mov	r29,r6
00000660 013a           2261 	mov	1,r7
                        2262 	jarl	_loc_IntcCtrlAll,lp
                        2262 <EXPANSION BEGIN>
                        2262 jarl22 _loc_IntcCtrlAll , lp 
00000662 bffff0fc*      2262 <EXPANSION END>
                        2263 --	    .ef
                        2264 .LDW85:
                        2265 --line922
                        2266 ..lin.C.3A.5Cgit.5Crh850.5Csrc.5Capp.5Cgfx_apps.5Csimple_draw.5Ctarget.5Cd1mx_mango_ghs.5Cobj.5Cr_sys_vdce.92::
                        2267 .LDWlin92:
00000666 40067f00       2268 	dispose	0,{r29,r31},[lp]
                        2269 	.type	_R_VDCE_Sys_IntcInit,@function
                        2270 	.size	_R_VDCE_Sys_IntcInit,.-_R_VDCE_Sys_IntcInit
                        2271 	.align	2
                        2272 .LDW95:
                        2273 
                        2274 --_Unit	r29	param
                        2275 

                                                                      Page 40
                                                              C:\Users\Frank\AppData\Local\Temp\gh_0000om41.si
                        2276 	.section ".bss","awb"
                        2277 .L2302:
                        2278 	.type	.L2302,@object
                        2279 	.size	.L2302,0
                        2280 	.data
                        2281 	.text
                        2282 
                        2283 --922: }
                        2284 
                        2285 --924: /*******************************************************************************
                        2286 --925:   Function: R_VDCE_Sys_IntcDeinit
                        2287 --926: */
                        2288 --928: r_vdce_Error_t R_VDCE_Sys_IntcDeinit(const uint32_t Unit)
                        2289 	.align	2
                        2290 	.align	2
                        2291 	.global	_R_VDCE_Sys_IntcDeinit
                        2292 _R_VDCE_Sys_IntcDeinit:
0000066a 80076100       2293 	prepare	{r29,r31},0
0000066e 06e8           2294 	mov	r6,r29
                        2295 --	    .bf
                        2296 .LDW06:
                        2297 --929: {
                        2298 --930:     return loc_IntcCtrlAll(Unit, 0);
00000670 1d30           2299 	mov	r29,r6
00000672 003a           2300 	mov	0,r7
                        2301 	jarl	_loc_IntcCtrlAll,lp
                        2301 <EXPANSION BEGIN>
                        2301 jarl22 _loc_IntcCtrlAll , lp 
00000674 bfffdefc*      2301 <EXPANSION END>
                        2302 --	    .ef
                        2303 .LDW16:
                        2304 --line931
                        2305 ..lin.C.3A.5Cgit.5Crh850.5Csrc.5Capp.5Cgfx_apps.5Csimple_draw.5Ctarget.5Cd1mx_mango_ghs.5Cobj.5Cr_sys_vdce.93::
                        2306 .LDWlin93:
00000678 40067f00       2307 	dispose	0,{r29,r31},[lp]
                        2308 	.type	_R_VDCE_Sys_IntcDeinit,@function
                        2309 	.size	_R_VDCE_Sys_IntcDeinit,.-_R_VDCE_Sys_IntcDeinit
                        2310 	.align	2
                        2311 .LDW26:
                        2312 
                        2313 --_Unit	r29	param
                        2314 
                        2315 	.section ".bss","awb"
                        2316 .L2334:
                        2317 	.type	.L2334,@object
                        2318 	.size	.L2334,0
                        2319 	.data
                        2320 	.text
                        2321 
                        2322 --931: }
                        2323 
                        2324 --933: /***************************************************************************
                        2325 --934:   Function: R_VDCE_Sys_IntcEnable
                        2326 --935: */
                        2327 --936: r_vdce_Error_t R_VDCE_Sys_IntcEnable(const uint32_t       Unit,
                        2328 	.align	2
                        2329 	.align	2
                        2330 	.global	_R_VDCE_Sys_IntcEnable
                        2331 _R_VDCE_Sys_IntcEnable:
0000067c 8007e100       2332 	prepare	{r28,r29,r31},0
00000680 06e8           2333 	mov	r6,r29

                                                                      Page 41
                                                              C:\Users\Frank\AppData\Local\Temp\gh_0000om41.si
00000682 07e0           2334 	mov	r7,r28
                        2335 --	    .bf
                        2336 .LDW36:
                        2337 --937:                                      const r_dev_IntSel_t IntSel)
                        2338 --938: {
                        2339 --939:     return loc_IntcCtrl(Unit, IntSel, 1);
00000684 1d30           2340 	mov	r29,r6
00000686 1c38           2341 	mov	r28,r7
00000688 0142           2342 	mov	1,r8
                        2343 	jarl	_loc_IntcCtrl,lp
                        2343 <EXPANSION BEGIN>
                        2343 jarl22 _loc_IntcCtrl , lp 
0000068a bfffe4fd*      2343 <EXPANSION END>
                        2344 --	    .ef
                        2345 .LDW46:
                        2346 --line940
                        2347 ..lin.C.3A.5Cgit.5Crh850.5Csrc.5Capp.5Cgfx_apps.5Csimple_draw.5Ctarget.5Cd1mx_mango_ghs.5Cobj.5Cr_sys_vdce.94::
                        2348 .LDWlin94:
0000068e 4006ff00       2349 	dispose	0,{r28,r29,r31},[lp]
                        2350 	.type	_R_VDCE_Sys_IntcEnable,@function
                        2351 	.size	_R_VDCE_Sys_IntcEnable,.-_R_VDCE_Sys_IntcEnable
                        2352 	.align	2
                        2353 .LDW56:
                        2354 
                        2355 --_Unit	r29	param
                        2356 --_IntSel	r28	param
                        2357 
                        2358 	.section ".bss","awb"
                        2359 .L2366:
                        2360 	.type	.L2366,@object
                        2361 	.size	.L2366,0
                        2362 	.data
                        2363 	.text
                        2364 
                        2365 --940: }
                        2366 
                        2367 --942: /***************************************************************************
                        2368 --943:   Function: R_VDCE_Sys_IntcDisable
                        2369 --944: */
                        2370 --945: r_vdce_Error_t R_VDCE_Sys_IntcDisable(const uint32_t       Unit,
                        2371 	.align	2
                        2372 	.align	2
                        2373 	.global	_R_VDCE_Sys_IntcDisable
                        2374 _R_VDCE_Sys_IntcDisable:
00000692 8007e100       2375 	prepare	{r28,r29,r31},0
00000696 06e8           2376 	mov	r6,r29
00000698 07e0           2377 	mov	r7,r28
                        2378 --	    .bf
                        2379 .LDW66:
                        2380 --946:                                       const r_dev_IntSel_t IntSel)
                        2381 --947: {
                        2382 --948:     return loc_IntcCtrl(Unit, IntSel, 0);
0000069a 1d30           2383 	mov	r29,r6
0000069c 1c38           2384 	mov	r28,r7
0000069e 0042           2385 	mov	0,r8
                        2386 	jarl	_loc_IntcCtrl,lp
                        2386 <EXPANSION BEGIN>
                        2386 jarl22 _loc_IntcCtrl , lp 
000006a0 bfffcefd*      2386 <EXPANSION END>
                        2387 --	    .ef
                        2388 .LDW76:

                                                                      Page 42
                                                              C:\Users\Frank\AppData\Local\Temp\gh_0000om41.si
                        2389 --line949
                        2390 ..lin.C.3A.5Cgit.5Crh850.5Csrc.5Capp.5Cgfx_apps.5Csimple_draw.5Ctarget.5Cd1mx_mango_ghs.5Cobj.5Cr_sys_vdce.95::
                        2391 .LDWlin95:
000006a4 4006ff00       2392 	dispose	0,{r28,r29,r31},[lp]
                        2393 	.type	_R_VDCE_Sys_IntcDisable,@function
                        2394 	.size	_R_VDCE_Sys_IntcDisable,.-_R_VDCE_Sys_IntcDisable
                        2395 	.align	2
                        2396 .LDW86:
                        2397 
                        2398 --_Unit	r29	param
                        2399 --_IntSel	r28	param
                        2400 
                        2401 	.section ".bss","awb"
                        2402 .L2398:
                        2403 	.type	.L2398,@object
                        2404 	.size	.L2398,0
                        2405 	.data
                        2406 	.text
                        2407 
                        2408 --949: }
                        2409 
                        2410 --951: /*******************************************************************************
                        2411 --952:   Function: R_VDCE_Sys_IntcPrepareClearCheck
                        2412 --953: */
                        2413 --955: uint32_t R_VDCE_Sys_IntcPrepareClearCheck(const uint32_t SyncFreq)
                        2414 	.align	2
                        2415 	.align	2
                        2416 	.global	_R_VDCE_Sys_IntcPrepareClearCheck
                        2417 _R_VDCE_Sys_IntcPrepareClearCheck:
000006a8 8007e170       2418 	prepare	{r25,r26,r27,r28,r29,r31},0
000006ac 06c8           2419 	mov	r6,r25
                        2420 --	    .bf
                        2421 .LDW96:
                        2422 --956: {
                        2423 --957:     uint32_t   rate;
                        2424 --958:     uint32_t   sync_freq;
                        2425 --959:     uint32_t   cpu_cycle = 0;
000006ae 00ea           2426 	mov	0,r29
                        2427 --960:     uint32_t   i;
                        2428 --961:     
                        2429 --962:     /* Use default value if SyncFreq = 0. */
                        2430 --963:     sync_freq = SyncFreq;
000006b0 19d8           2431 	mov	r25,r27
                        2432 --964:     if (sync_freq == 0)
000006b2 e0d9           2433 	cmp	zero,r27
000006b4 ca05*          2434 	bne	.L2412
                        2435 --965:     {
                        2436 --966:         sync_freq = LOC_SYNC_FREQ_MIN;
                        2437 --line966
                        2438 ..lin.C.3A.5Cgit.5Crh850.5Csrc.5Capp.5Cgfx_apps.5Csimple_draw.5Ctarget.5Cd1mx_mango_ghs.5Cobj.5Cr_sys_vdce.96::
                        2439 .LDWlin96:
000006b6 3b0640420f00   2440 	mov	1000000,r27
                        2441 .L2412:
                        2442 --967:     }
                        2443 --968:     
                        2444 --969:     /* Calculate rate to convert from Syncronization clock to CPU clock */
                        2445 --970:     rate = (LOC_CPU_FREQ_MAX + (sync_freq - 1)) / sync_freq;
000006bc 2106ff1b4e0e   2446 	mov	239999999,r1
000006c2 db09           2447 	add	r27,r1
000006c4 01e0           2448 	mov	r1,r28
000006c6 fbe7fe02       2449 	divqu	r27,r28,zero

                                                                      Page 43
                                                              C:\Users\Frank\AppData\Local\Temp\gh_0000om41.si
                        2450 --971:     
                        2451 --972:     /* 1st : Wait for INT_STAx to change 0->1 by NOP instruction. */
                        2452 --973:     /*       This change will not be caught by software. */
                        2453 --974:     cpu_cycle = rate * LOC_1ST_WAIT_CYCLE;
000006ca 1c08           2454 	mov	r28,r1
000006cc c20a           2455 	shl	2,r1
000006ce 01e8           2456 	mov	r1,r29
                        2457 --975:     for (i = 0; i < cpu_cycle; i++)
000006d0 00d2           2458 	mov	0,r26
000006d2 c505*          2459 	br	.L2417
                        2460 .L2416:
                        2461 --976:     {
                        2462 --977:         R_DEV_Nop();
                        2463 --line977
                        2464 ..lin.C.3A.5Cgit.5Crh850.5Csrc.5Capp.5Cgfx_apps.5Csimple_draw.5Ctarget.5Cd1mx_mango_ghs.5Cobj.5Cr_sys_vdce.97::
                        2465 .LDWlin97:
                        2466 	jarl	_R_DEV_Nop,lp
                        2466 <EXPANSION BEGIN>
                        2466 jarl22 _R_DEV_Nop , lp 
000006d4 80ff0000*      2466 <EXPANSION END>
                        2467 --line975
                        2468 ..lin.C.3A.5Cgit.5Crh850.5Csrc.5Capp.5Cgfx_apps.5Csimple_draw.5Ctarget.5Cd1mx_mango_ghs.5Cobj.5Cr_sys_vdce.98::
                        2469 .LDWlin98:
000006d8 41d2           2470 	add	1,r26
                        2471 .L2417:
000006da fdd1           2472 	cmp	r29,r26
000006dc c1fd*          2473 	bl	.L2416
                        2474 --978:     }
                        2475 --979:     
                        2476 --980:     /* 2nd : Wait for INT_STAx to change 1->0 by Register Polling */
                        2477 --981:     /*       This function returns time-out count of register polling. */
                        2478 --982:     cpu_cycle = rate * LOC_2ND_WAIT_CYCLE;
                        2479 --line982
                        2480 ..lin.C.3A.5Cgit.5Crh850.5Csrc.5Capp.5Cgfx_apps.5Csimple_draw.5Ctarget.5Cd1mx_mango_ghs.5Cobj.5Cr_sys_vdce.99::
                        2481 .LDWlin99:
000006de 1c08           2482 	mov	r28,r1
000006e0 c30a           2483 	shl	3,r1
000006e2 01e8           2484 	mov	r1,r29
                        2485 --983:     
                        2486 --984:     return cpu_cycle;
000006e4 1d50           2487 	mov	r29,r10
                        2488 --	    .ef
                        2489 .LDW07:
000006e6 4006ff70       2490 	dispose	0,{r25,r26,r27,r28,r29,r31},[lp]
                        2491 	.type	_R_VDCE_Sys_IntcPrepareClearCheck,@function
                        2492 	.size	_R_VDCE_Sys_IntcPrepareClearCheck,.-_R_VDCE_Sys_IntcPrepareClearCheck
                        2493 	.align	2
                        2494 .LDW17:
                        2495 --_rate	r28	local
                        2496 --_sync_freq	r27	local
                        2497 --_cpu_cycle	r29	local
                        2498 --_i	r26	local
                        2499 
                        2500 --_SyncFreq	r25	param
                        2501 
                        2502 	.section ".bss","awb"
                        2503 .L2494:
                        2504 	.type	.L2494,@object
                        2505 	.size	.L2494,0
                        2506 	.data
                        2507 	.text

                                                                      Page 44
                                                              C:\Users\Frank\AppData\Local\Temp\gh_0000om41.si
                        2508 
                        2509 --985: }
                        2510 
                        2511 --987: /***************************************************************************
                        2512 --988:   Function: R_VDCE_Sys_IntcClearCheck
                        2513 --989: */
                        2514 --991: r_vdce_Error_t R_VDCE_Sys_IntcClearCheck(const uint32_t         Unit,
                        2515 	.align	2
                        2516 	.align	2
                        2517 	.global	_R_VDCE_Sys_IntcClearCheck
                        2518 _R_VDCE_Sys_IntcClearCheck:
000006ea 8007e170       2519 	prepare	{r25,r26,r27,r28,r29,r31},0
000006ee 06d0           2520 	mov	r6,r26
000006f0 07c8           2521 	mov	r7,r25
                        2522 --	    .bf
                        2523 .LDW27:
                        2524 --992:                                          const r_vdce_IntType_t IntType)
                        2525 --993: {
                        2526 --994:     r_vdce_Error_t ret = R_VDCE_ERR_FATAL_HW;
000006f2 07ea           2527 	mov	7,r29
                        2528 --995:     r_dev_IntSel_t int_sel;
                        2529 --996:     uint32_t       i;
                        2530 --997:     
                        2531 --998:     int_sel = loc_ConvertToIntSel(Unit, IntType);
000006f4 1a30           2532 	mov	r26,r6
000006f6 1938           2533 	mov	r25,r7
                        2534 	jarl	_loc_ConvertToIntSel,lp
                        2534 <EXPANSION BEGIN>
                        2534 jarl22 _loc_ConvertToIntSel , lp 
000006f8 bfffeafd*      2534 <EXPANSION END>
000006fc 0ad8           2535 	mov	r10,r27
                        2536 --999:     if (int_sel == LOC_UNKOWN_INT_SEL)
                        2537 --line999
                        2538 ..lin.C.3A.5Cgit.5Crh850.5Csrc.5Capp.5Cgfx_apps.5Csimple_draw.5Ctarget.5Cd1mx_mango_ghs.5Cobj.5Cr_sys_vdce.100::
                        2539 .LDWlin100:
000006fe 7fda           2540 	cmp	-1,r27
00000700 ba05*          2541 	bne	.L2544
                        2542 --1000:     {
                        2543 --1001:         ret = R_VDCE_ERR_RANGE_PARAM;
                        2544 --line1001
                        2545 ..lin.C.3A.5Cgit.5Crh850.5Csrc.5Capp.5Cgfx_apps.5Csimple_draw.5Ctarget.5Cd1mx_mango_ghs.5Cobj.5Cr_sys_vdce.101::
                        2546 .LDWlin101:
00000702 04ea           2547 	mov	4,r29
00000704 e50d*          2548 	br	.L2546
                        2549 .L2544:
                        2550 --1002:     }
                        2551 --1003:     else
                        2552 --1004:     {
                        2553 --1005:         for (i = 0; i < LOC_WAIT_CLEAR_COUNT; i++)
                        2554 --line1005
                        2555 ..lin.C.3A.5Cgit.5Crh850.5Csrc.5Capp.5Cgfx_apps.5Csimple_draw.5Ctarget.5Cd1mx_mango_ghs.5Cobj.5Cr_sys_vdce.102::
                        2556 .LDWlin102:
00000706 00e2           2557 	mov	0,r28
00000708 0000           2558 	nop
                        2559 .L2549:
                        2560 --1006:         {
                        2561 --1007:             if (R_DEV_IntGetFlag(int_sel) == 0)
0000070a 1b30           2562 	mov	r27,r6
                        2563 	jarl	_R_DEV_IntGetFlag,lp
                        2563 <EXPANSION BEGIN>
                        2563 jarl22 _R_DEV_IntGetFlag , lp 

                                                                      Page 45
                                                              C:\Users\Frank\AppData\Local\Temp\gh_0000om41.si
0000070c 80ff0000*      2563 <EXPANSION END>
00000710 e051           2564 	cmp	zero,r10
00000712 ba05*          2565 	bne	.L2550
                        2566 --1008:             {
                        2567 --1009:                 ret = R_VDCE_ERR_OK;
                        2568 --line1009
                        2569 ..lin.C.3A.5Cgit.5Crh850.5Csrc.5Capp.5Cgfx_apps.5Csimple_draw.5Ctarget.5Cd1mx_mango_ghs.5Cobj.5Cr_sys_vdce.103::
                        2570 .LDWlin103:
00000714 00ea           2571 	mov	0,r29
                        2572 --1010:                 break;
00000716 d505*          2573 	br	.L2546
                        2574 .L2550:
                        2575 --line1005
                        2576 ..lin.C.3A.5Cgit.5Crh850.5Csrc.5Capp.5Cgfx_apps.5Csimple_draw.5Ctarget.5Cd1mx_mango_ghs.5Cobj.5Cr_sys_vdce.104::
                        2577 .LDWlin104:
00000718 41e2           2578 	add	1,r28
0000071a 1c06f0ff       2579 	addi	-16,r28,zero
0000071e e9f5*          2580 	bnl	.L2549
                        2581 .L2546:
                        2582 --1011:             }
                        2583 --1012:         }
                        2584 --1013:     }
                        2585 --1014:     return ret;
                        2586 --line1014
                        2587 ..lin.C.3A.5Cgit.5Crh850.5Csrc.5Capp.5Cgfx_apps.5Csimple_draw.5Ctarget.5Cd1mx_mango_ghs.5Cobj.5Cr_sys_vdce.105::
                        2588 .LDWlin105:
00000720 1d50           2589 	mov	r29,r10
                        2590 --	    .ef
                        2591 .LDW37:
00000722 4006ff70       2592 	dispose	0,{r25,r26,r27,r28,r29,r31},[lp]
                        2593 	.type	_R_VDCE_Sys_IntcClearCheck,@function
                        2594 	.size	_R_VDCE_Sys_IntcClearCheck,.-_R_VDCE_Sys_IntcClearCheck
                        2595 	.align	2
                        2596 .LDW47:
                        2597 --_ret	r29	local
                        2598 --_int_sel	r27	local
                        2599 --_i	r28	local
                        2600 
                        2601 --_Unit	r26	param
                        2602 --_IntType	r25	param
                        2603 
                        2604 	.section ".bss","awb"
                        2605 .L2632:
                        2606 	.type	.L2632,@object
                        2607 	.size	.L2632,0
                        2608 	.data
                        2609 	.text
                        2610 
                        2611 --1015: }
                        2612 
                        2613 --1017: /*******************************************************************************
                        2614 --1018:   Function: R_VDCE_Sys_PortInit
                        2615 --1019: */
                        2616 --1021: r_vdce_Error_t R_VDCE_Sys_PortInit(const uint32_t Unit)
                        2617 	.align	2
                        2618 	.align	2
                        2619 	.global	_R_VDCE_Sys_PortInit
                        2620 _R_VDCE_Sys_PortInit:
00000726 0608           2621 	mov	r6,r1
                        2622 --	    .bf
                        2623 .LDW57:

                                                                      Page 46
                                                              C:\Users\Frank\AppData\Local\Temp\gh_0000om41.si
                        2624 --1022: {
                        2625 --1023:     return R_VDCE_ERR_OK;
00000728 0052           2626 	mov	0,r10
                        2627 --	    .ef
                        2628 .LDW67:
0000072a 7f00           2629 	jmp	[lp]
                        2630 	.type	_R_VDCE_Sys_PortInit,@function
                        2631 	.size	_R_VDCE_Sys_PortInit,.-_R_VDCE_Sys_PortInit
                        2632 	.align	2
                        2633 .LDW77:
                        2634 
                        2635 --_Unit	r1	param
                        2636 
                        2637 	.section ".bss","awb"
                        2638 .L2702:
                        2639 	.type	.L2702,@object
                        2640 	.size	.L2702,0
                        2641 	.data
                        2642 	.text
                        2643 
                        2644 --1024: }
                        2645 
                        2646 --1026: /*******************************************************************************
                        2647 --1027:   Function: R_VDCE_Sys_PortDeInit
                        2648 --1028: */
                        2649 --1030: r_vdce_Error_t R_VDCE_Sys_PortDeInit(const uint32_t Unit)
                        2650 	.align	2
                        2651 	.align	2
                        2652 	.global	_R_VDCE_Sys_PortDeInit
                        2653 _R_VDCE_Sys_PortDeInit:
0000072c 0608           2654 	mov	r6,r1
                        2655 --	    .bf
                        2656 .LDW87:
                        2657 --1031: {
                        2658 --1032:     return R_VDCE_ERR_OK;
0000072e 0052           2659 	mov	0,r10
                        2660 --	    .ef
                        2661 .LDW97:
00000730 7f00           2662 	jmp	[lp]
                        2663 	.type	_R_VDCE_Sys_PortDeInit,@function
                        2664 	.size	_R_VDCE_Sys_PortDeInit,.-_R_VDCE_Sys_PortDeInit
                        2665 	.align	2
                        2666 .LDW08:
                        2667 
                        2668 --_Unit	r1	param
                        2669 
                        2670 	.section ".bss","awb"
                        2671 .L2734:
                        2672 	.type	.L2734,@object
                        2673 	.size	.L2734,0
                        2674 	.data
                        2675 	.text
                        2676 
                        2677 --1033: }
                        2678 
                        2679 --1035: /*******************************************************************************
                        2680 --1036:   Function: R_VDCE_Sys_HsyncActLevelSet
                        2681 --1037: */
                        2682 --1038: uint32_t R_VDCE_Sys_HsyncActLevelSet(const uint32_t Unit, const int32_t Level)
                        2683 	.align	2
                        2684 	.align	2

                                                                      Page 47
                                                              C:\Users\Frank\AppData\Local\Temp\gh_0000om41.si
                        2685 	.global	_R_VDCE_Sys_HsyncActLevelSet
                        2686 _R_VDCE_Sys_HsyncActLevelSet:
00000732 0608           2687 	mov	r6,r1
00000734 0770           2688 	mov	r7,r14
                        2689 --	    .bf
                        2690 .LDW18:
                        2691 --1039: {
                        2692 --1041:     /* HS Sync inversion is handled inside VDCE macro */
                        2693 --1042:     return 0;
00000736 0052           2694 	mov	0,r10
                        2695 --	    .ef
                        2696 .LDW28:
00000738 7f00           2697 	jmp	[lp]
                        2698 	.type	_R_VDCE_Sys_HsyncActLevelSet,@function
                        2699 	.size	_R_VDCE_Sys_HsyncActLevelSet,.-_R_VDCE_Sys_HsyncActLevelSet
                        2700 	.align	2
                        2701 .LDW38:
                        2702 
                        2703 --_Unit	r1	param
                        2704 --_Level	r14	param
                        2705 
                        2706 	.section ".bss","awb"
                        2707 .L2766:
                        2708 	.type	.L2766,@object
                        2709 	.size	.L2766,0
                        2710 	.data
                        2711 	.text
                        2712 
                        2713 --1043: }
                        2714 
                        2715 --1045: /*******************************************************************************
                        2716 --1046:   Function: R_VDCE_Sys_VsyncActLevelSet
                        2717 --1048: */
                        2718 --1049: uint32_t R_VDCE_Sys_VsyncActLevelSet(const uint32_t Unit, const int32_t Level)
                        2719 	.align	2
                        2720 	.align	2
                        2721 	.global	_R_VDCE_Sys_VsyncActLevelSet
                        2722 _R_VDCE_Sys_VsyncActLevelSet:
0000073a 0608           2723 	mov	r6,r1
0000073c 0770           2724 	mov	r7,r14
                        2725 --	    .bf
                        2726 .LDW48:
                        2727 --1050: {
                        2728 --1052:     /* VS Sync inversion is handled inside VDCE macro */
                        2729 --1053:     return 0;
0000073e 0052           2730 	mov	0,r10
                        2731 --	    .ef
                        2732 .LDW58:
00000740 7f00           2733 	jmp	[lp]
                        2734 	.type	_R_VDCE_Sys_VsyncActLevelSet,@function
                        2735 	.size	_R_VDCE_Sys_VsyncActLevelSet,.-_R_VDCE_Sys_VsyncActLevelSet
                        2736 	.align	2
                        2737 .LDW68:
                        2738 
                        2739 --_Unit	r1	param
                        2740 --_Level	r14	param
                        2741 
                        2742 	.section ".bss","awb"
                        2743 .L2798:
                        2744 	.type	.L2798,@object
                        2745 	.size	.L2798,0

                                                                      Page 48
                                                              C:\Users\Frank\AppData\Local\Temp\gh_0000om41.si
                        2746 	.data
                        2747 	.text
                        2748 
                        2749 --1054: }
                        2750 
                        2751 --1056: /*******************************************************************************
                        2752 --1057:   Function: R_VDCE_Sys_ClockActEdgeSet
                        2753 --1058: */
                        2754 --1059: uint32_t R_VDCE_Sys_ClockActEdgeSet(const uint32_t Unit, const int32_t Edge) 
                        2755 	.align	2
                        2756 	.align	2
                        2757 	.global	_R_VDCE_Sys_ClockActEdgeSet
                        2758 _R_VDCE_Sys_ClockActEdgeSet:
00000742 0660           2759 	mov	r6,r12
00000744 0758           2760 	mov	r7,r11
00000746 3e06700b61ff   2761 	mov	-10417296,ep
                        2762 --	    .bf
                        2763 .LDW78:
                        2764 --1060: {
                        2765 --1061:     uint32_t val;
                        2766 --1063:     if (Unit < R_VDCE_MACRO_NUM)
0000074c 6262           2767 	cmp	2,r12
0000074e f93d*          2768 	bnl	.L2812
                        2769 --1064:     {
                        2770 --1065:         if (Unit == 0u)
                        2771 --line1065
                        2772 ..lin.C.3A.5Cgit.5Crh850.5Csrc.5Capp.5Cgfx_apps.5Csimple_draw.5Ctarget.5Cd1mx_mango_ghs.5Cobj.5Cr_sys_vdce.106::
                        2773 .LDWlin106:
00000750 e061           2774 	cmp	zero,r12
00000752 ea15*          2775 	bne	.L2814
                        2776 --1066:         {
                        2777 --1067: #if USE_VDCE_RSDS
                        2778 --1068:             if(0u != (uint32_t)Edge)
                        2779 --1069:             {
                        2780 --1070:                 /* Clock inversion is handled by phase shift in case of RSDS. */
                        2781 --1071:                 /* This is not implemented yet. */
                        2782 --1072:                 while (1) 
                        2783 --1073:                 {
                        2784 --1074:                     /* T.B.D */
                        2785 --1075:                     /* error: loop forever */
                        2786 --1076:                 }
                        2787 --1077:             }
                        2788 --1078: #else
                        2789 --1079:             /* Use port logic (PINV) to invert polarity of VDCE0_VO_CLKP signal on P45_0 */
                        2790 --1080:             val = R_DEV_READ_REG(16, LOC_PINV45);
                        2791 --line1080
                        2792 ..lin.C.3A.5Cgit.5Crh850.5Csrc.5Capp.5Cgfx_apps.5Csimple_draw.5Ctarget.5Cd1mx_mango_ghs.5Cobj.5Cr_sys_vdce.107::
                        2793 .LDWlin107:
00000754 7008           2794 	sld.hu	0[ep],r1
                        2795 --1081:             if(0u == (uint32_t)Edge)
00000756 e059           2796 	cmp	zero,r11
00000758 ca05*          2797 	bne	.L2816
                        2798 --1082:             {
                        2799 --1083:                 val &= ~(uint32_t)LOC_MASK_0X00000001;
                        2800 --line1083
                        2801 ..lin.C.3A.5Cgit.5Crh850.5Csrc.5Capp.5Cgfx_apps.5Csimple_draw.5Ctarget.5Cd1mx_mango_ghs.5Cobj.5Cr_sys_vdce.108::
                        2802 .LDWlin108:
0000075a 1e72           2803 	mov	-2,r14
0000075c 4e09           2804 	and	r14,r1
0000075e b505*          2805 	br	.L2818
                        2806 .L2816:

                                                                      Page 49
                                                              C:\Users\Frank\AppData\Local\Temp\gh_0000om41.si
                        2807 --1084:             }
                        2808 --1085:             else
                        2809 --1086:             {
                        2810 --1087:                 val |= LOC_MASK_0X00000001;
                        2811 --line1087
                        2812 ..lin.C.3A.5Cgit.5Crh850.5Csrc.5Capp.5Cgfx_apps.5Csimple_draw.5Ctarget.5Cd1mx_mango_ghs.5Cobj.5Cr_sys_vdce.109::
                        2813 .LDWlin109:
00000760 810e0100       2814 	ori	1,r1,r1
                        2815 .L2818:
                        2816 --1088:             }
                        2817 --1089:             R_DEV_WRITE_PORT_PROT_REG(LOC_PPCMD45, LOC_PINV45, val);
                        2818 --	    .bs
                        2819 .LDW88:
00000764 0072           2820 	mov	0,r14
                        2821 .L2821:
00000766 206ea500       2822 	movea	165,zero,r13
0000076a 8007cf6e9682   2823 	st.w	r13,4290857836[zero]
00000770 010d           2824 	sst.w	r1,0[ep]
00000772 2168           2825 	not	r1,r13
00000774 016d           2826 	sst.w	r13,0[ep]
00000776 010d           2827 	sst.w	r1,0[ep]
00000778 0075           2828 	sld.w	0[ep],r14
0000077a e171           2829 	cmp	r1,r14
0000077c daf5*          2830 	bne	.L2821
                        2831 --	    .es
                        2832 .LDW98:
                        2833 .L2814:
                        2834 --1090: #endif
                        2835 --1091:         }
                        2836 --1092:         if (Unit == 1u)
                        2837 --line1092
                        2838 ..lin.C.3A.5Cgit.5Crh850.5Csrc.5Capp.5Cgfx_apps.5Csimple_draw.5Ctarget.5Cd1mx_mango_ghs.5Cobj.5Cr_sys_vdce.110::
                        2839 .LDWlin110:
0000077e 6162           2840 	cmp	1,r12
00000780 ea25*          2841 	bne	.L2812
                        2842 --1093:         {
                        2843 --1094:             /* Use port logic (PINV) to invert polarity of VDCE1_VO_CLK signal on P47_8 */
                        2844 --1095:             val = R_DEV_READ_REG(16, LOC_PINV47);
                        2845 --line1095
                        2846 ..lin.C.3A.5Cgit.5Crh850.5Csrc.5Capp.5Cgfx_apps.5Csimple_draw.5Ctarget.5Cd1mx_mango_ghs.5Cobj.5Cr_sys_vdce.111::
                        2847 .LDWlin111:
00000782 1e6e8000       2848 	addi	128,ep,r13
00000786 ed0f0100       2849 	ld.hu	0[r13],r1
                        2850 --1096:             if(0u == (uint32_t)Edge)
0000078a e059           2851 	cmp	zero,r11
0000078c da05*          2852 	bne	.L2824
                        2853 --1097:             {
                        2854 --1098:                 val &= ~(uint32_t)LOC_MASK_0X00000100;
                        2855 --line1098
                        2856 ..lin.C.3A.5Cgit.5Crh850.5Csrc.5Capp.5Cgfx_apps.5Csimple_draw.5Ctarget.5Cd1mx_mango_ghs.5Cobj.5Cr_sys_vdce.112::
                        2857 .LDWlin112:
0000078e 206efffe       2858 	movea	-257,zero,r13
00000792 4d09           2859 	and	r13,r1
00000794 b505*          2860 	br	.L2826
                        2861 .L2824:
                        2862 --1099:             }
                        2863 --1100:             else
                        2864 --1101:             {
                        2865 --1102:                 val |= LOC_MASK_0X00000100;
                        2866 --line1102
                        2867 ..lin.C.3A.5Cgit.5Crh850.5Csrc.5Capp.5Cgfx_apps.5Csimple_draw.5Ctarget.5Cd1mx_mango_ghs.5Cobj.5Cr_sys_vdce.113::

                                                                      Page 50
                                                              C:\Users\Frank\AppData\Local\Temp\gh_0000om41.si
                        2868 .LDWlin113:
00000796 810e0001       2869 	ori	256,r1,r1
                        2870 .L2826:
                        2871 --1103:             }
                        2872 --1104:             R_DEV_WRITE_PORT_PROT_REG(LOC_PPCMD47, LOC_PINV47, val);
                        2873 --	    .bs
                        2874 .LDW09:
0000079a 006a           2875 	mov	0,r13
                        2876 .L2829:
0000079c 2056a500       2877 	movea	165,zero,r10
000007a0 8007cf569782   2878 	st.w	r10,4290857964[zero]
000007a6 1e568000       2879 	addi	128,ep,r10
000007aa 6a0f0100       2880 	st.w	r1,0[r10]
000007ae 1e568000       2881 	addi	128,ep,r10
000007b2 2148           2882 	not	r1,r9
000007b4 6a4f0100       2883 	st.w	r9,0[r10]
000007b8 1e568000       2884 	addi	128,ep,r10
000007bc 6a0f0100       2885 	st.w	r1,0[r10]
000007c0 1e568000       2886 	addi	128,ep,r10
000007c4 2a6f0100       2887 	ld.w	0[r10],r13
000007c8 e169           2888 	cmp	r1,r13
000007ca 9aed*          2889 	bne	.L2829
                        2890 --	    .es
                        2891 .LDW19:
                        2892 .L2812:
                        2893 --1105:         }
                        2894 --1106:     }
                        2895 --1108:     /* Clock inversion is NOT handled inside VDCE macro */
                        2896 --1109:     return 1;
                        2897 --line1109
                        2898 ..lin.C.3A.5Cgit.5Crh850.5Csrc.5Capp.5Cgfx_apps.5Csimple_draw.5Ctarget.5Cd1mx_mango_ghs.5Cobj.5Cr_sys_vdce.114::
                        2899 .LDWlin114:
000007cc 0152           2900 	mov	1,r10
                        2901 --	    .ef
                        2902 .LDW29:
000007ce 7f00           2903 	jmp	[lp]
                        2904 	.type	_R_VDCE_Sys_ClockActEdgeSet,@function
                        2905 	.size	_R_VDCE_Sys_ClockActEdgeSet,.-_R_VDCE_Sys_ClockActEdgeSet
                        2906 	.align	2
                        2907 .LDW39:
                        2908 --_val	r1	local
                        2909 --_new_val	r14	local
                        2910 --_new_val	r13	local
                        2911 
                        2912 --_Unit	r12	param
                        2913 --_Edge	r11	param
                        2914 
                        2915 	.section ".bss","awb"
                        2916 .L2962:
                        2917 	.type	.L2962,@object
                        2918 	.size	.L2962,0
                        2919 	.data
                        2920 	.text
                        2921 
                        2922 --1110: }
                        2923 
                        2924 --1112: /*******************************************************************************
                        2925 --1113:   Function: R_VDCE_Sys_DesyncActLevelSet
                        2926 --1114: */
                        2927 --1115: uint32_t R_VDCE_Sys_DesyncActLevelSet(const uint32_t Unit, const int32_t Level) 
                        2928 	.align	2

                                                                      Page 51
                                                              C:\Users\Frank\AppData\Local\Temp\gh_0000om41.si
                        2929 	.align	2
                        2930 	.global	_R_VDCE_Sys_DesyncActLevelSet
                        2931 _R_VDCE_Sys_DesyncActLevelSet:
000007d0 0608           2932 	mov	r6,r1
000007d2 0770           2933 	mov	r7,r14
                        2934 --	    .bf
                        2935 .LDW49:
                        2936 --1116: {
                        2937 --1117:     /* DE Sync inversion is handled inside VDCE macro */
                        2938 --1118:     return 0;
000007d4 0052           2939 	mov	0,r10
                        2940 --	    .ef
                        2941 .LDW59:
000007d6 7f00           2942 	jmp	[lp]
                        2943 	.type	_R_VDCE_Sys_DesyncActLevelSet,@function
                        2944 	.size	_R_VDCE_Sys_DesyncActLevelSet,.-_R_VDCE_Sys_DesyncActLevelSet
                        2945 	.align	2
                        2946 .LDW69:
                        2947 
                        2948 --_Unit	r1	param
                        2949 --_Level	r14	param
                        2950 
                        2951 	.section ".bss","awb"
                        2952 .L3086:
                        2953 	.type	.L3086,@object
                        2954 	.size	.L3086,0
                        2955 	.data
                        2956 	.text
                        2957 
                        2958 --1119: }
                        2959 
                        2960 --1122: /*******************************************************************************
                        2961 --1123:   Section: VDCE Macro Driver OS interface
                        2962 --1125:   Comments see: <vdce_sys.h>
                        2963 --1126: */
                        2964 --1128: /*******************************************************************************
                        2965 --1129:   Function: R_VDCE_Sys_Lock
                        2966 --1130: */
                        2967 --1132: r_vdce_Error_t R_VDCE_Sys_Lock(const uint32_t Unit)
                        2968 	.align	2
                        2969 	.align	2
                        2970 	.global	_R_VDCE_Sys_Lock
                        2971 _R_VDCE_Sys_Lock:
000007d8 0608           2972 	mov	r6,r1
                        2973 --	    .bf
                        2974 .LDW79:
                        2975 --1133: {
                        2976 --1134:     return R_VDCE_ERR_OK;
000007da 0052           2977 	mov	0,r10
                        2978 --	    .ef
                        2979 .LDW89:
000007dc 7f00           2980 	jmp	[lp]
                        2981 	.type	_R_VDCE_Sys_Lock,@function
                        2982 	.size	_R_VDCE_Sys_Lock,.-_R_VDCE_Sys_Lock
                        2983 	.align	2
                        2984 .LDW99:
                        2985 
                        2986 --_Unit	r1	param
                        2987 
                        2988 	.section ".bss","awb"
                        2989 .L3118:

                                                                      Page 52
                                                              C:\Users\Frank\AppData\Local\Temp\gh_0000om41.si
                        2990 	.type	.L3118,@object
                        2991 	.size	.L3118,0
                        2992 	.data
                        2993 	.text
                        2994 
                        2995 --1135: }
                        2996 
                        2997 --1137: /*******************************************************************************
                        2998 --1138:   Function: R_VDCE_Sys_Unlock
                        2999 --1139: */
                        3000 --1141: r_vdce_Error_t R_VDCE_Sys_Unlock(const uint32_t Unit)
                        3001 	.align	2
                        3002 	.align	2
                        3003 	.global	_R_VDCE_Sys_Unlock
                        3004 _R_VDCE_Sys_Unlock:
000007de 0608           3005 	mov	r6,r1
                        3006 --	    .bf
                        3007 .LDW001:
                        3008 --1142: {
                        3009 --1143:     return R_VDCE_ERR_OK;
000007e0 0052           3010 	mov	0,r10
                        3011 --	    .ef
                        3012 .LDW101:
000007e2 7f00           3013 	jmp	[lp]
                        3014 	.type	_R_VDCE_Sys_Unlock,@function
                        3015 	.size	_R_VDCE_Sys_Unlock,.-_R_VDCE_Sys_Unlock
                        3016 	.align	2
                        3017 .LDW201:
                        3018 
                        3019 --_Unit	r1	param
                        3020 
                        3021 	.section ".bss","awb"
                        3022 .L3150:
                        3023 	.type	.L3150,@object
                        3024 	.size	.L3150,0
                        3025 	.data
                        3026 	.text
                        3027 
                        3028 --1144: }
                        3029 
                        3030 --1146: /*******************************************************************************
                        3031 --1147:   Function: R_VDCE_Sys_AllLock
                        3032 --1148: */
                        3033 --1150: r_vdce_Error_t R_VDCE_Sys_AllLock(void)
                        3034 	.align	2
                        3035 	.align	2
                        3036 	.global	_R_VDCE_Sys_AllLock
                        3037 _R_VDCE_Sys_AllLock:
                        3038 --	    .bf
                        3039 .LDW301:
                        3040 --1151: {
                        3041 --1152:     return R_VDCE_ERR_OK;
000007e4 0052           3042 	mov	0,r10
                        3043 --	    .ef
                        3044 .LDW401:
000007e6 7f00           3045 	jmp	[lp]
                        3046 	.type	_R_VDCE_Sys_AllLock,@function
                        3047 	.size	_R_VDCE_Sys_AllLock,.-_R_VDCE_Sys_AllLock
                        3048 	.align	2
                        3049 .LDW501:
                        3050 

                                                                      Page 53
                                                              C:\Users\Frank\AppData\Local\Temp\gh_0000om41.si
                        3051 	.section ".bss","awb"
                        3052 .L3182:
                        3053 	.type	.L3182,@object
                        3054 	.size	.L3182,0
                        3055 	.data
                        3056 	.text
                        3057 
                        3058 --1153: }
                        3059 
                        3060 --1155: /*******************************************************************************
                        3061 --1156:   Function: R_VDCE_Sys_AllUnlock
                        3062 --1157: */
                        3063 --1159: r_vdce_Error_t R_VDCE_Sys_AllUnlock(void)
                        3064 	.align	2
                        3065 	.align	2
                        3066 	.global	_R_VDCE_Sys_AllUnlock
                        3067 _R_VDCE_Sys_AllUnlock:
                        3068 --	    .bf
                        3069 .LDW601:
                        3070 --1160: {
                        3071 --1161:     return R_VDCE_ERR_OK;
000007e8 0052           3072 	mov	0,r10
                        3073 --	    .ef
                        3074 .LDW701:
000007ea 7f00           3075 	jmp	[lp]
                        3076 	.type	_R_VDCE_Sys_AllUnlock,@function
                        3077 	.size	_R_VDCE_Sys_AllUnlock,.-_R_VDCE_Sys_AllUnlock
                        3078 	.align	2
                        3079 .LDW801:
                        3080 
                        3081 	.section ".bss","awb"
                        3082 .L3214:
                        3083 	.type	.L3214,@object
                        3084 	.size	.L3214,0
                        3085 	.data
                        3086 	.text
                        3087 
                        3088 --1162: }
                        3089 
                        3090 --1164: /*******************************************************************************
                        3091 --1165:   Function: R_VDCE_Sys_VIChannelCheck
                        3092 --1166: */
                        3093 --1167: r_vdce_Error_t R_VDCE_Sys_VIChannelCheck(const uint32_t Unit)
                        3094 	.align	2
                        3095 	.align	2
                        3096 	.global	_R_VDCE_Sys_VIChannelCheck
                        3097 _R_VDCE_Sys_VIChannelCheck:
000007ec 8007e110       3098 	prepare	{r27,r28,r29,r31},0
000007f0 06d8           3099 	mov	r6,r27
                        3100 --	    .bf
                        3101 .LDW901:
                        3102 --1168: {
                        3103 --1169:     r_vdce_Error_t  ret    = R_VDCE_ERR_OK;
000007f2 00e2           3104 	mov	0,r28
                        3105 --1170:     r_dev_Device_t  device = loc_GetDev();
                        3106 	jarl	_loc_GetDev,lp
                        3106 <EXPANSION BEGIN>
                        3106 jarl22 _loc_GetDev , lp 
000007f4 bfffdefc*      3106 <EXPANSION END>
000007f8 0ae8           3107 	mov	r10,r29
                        3108 --1172:     if (device <= R_DEV_R7F701403)       /* RH850/D1Lx */

                                                                      Page 54
                                                              C:\Users\Frank\AppData\Local\Temp\gh_0000om41.si
                        3109 --line1172
                        3110 ..lin.C.3A.5Cgit.5Crh850.5Csrc.5Capp.5Cgfx_apps.5Csimple_draw.5Ctarget.5Cd1mx_mango_ghs.5Cobj.5Cr_sys_vdce.115::
                        3111 .LDWlin115:
000007fa 1d0684fa       3112 	addi	-1404,r29,zero
000007fe b105*          3113 	bl	.L3228
                        3114 --1173:     {
                        3115 --1174:         ret = R_VDCE_ERR_NOT_ACCEPTABLE;
                        3116 --line1174
                        3117 ..lin.C.3A.5Cgit.5Crh850.5Csrc.5Capp.5Cgfx_apps.5Csimple_draw.5Ctarget.5Cd1mx_mango_ghs.5Cobj.5Cr_sys_vdce.116::
                        3118 .LDWlin116:
00000800 05e2           3119 	mov	5,r28
00000802 c51d*          3120 	br	.L3230
                        3121 .L3228:
                        3122 --1175:     }
                        3123 --1176:     else if ((device <= R_DEV_R7F701407)        /* RH850/D1M1(H)  */
                        3124 --line1176
                        3125 ..lin.C.3A.5Cgit.5Crh850.5Csrc.5Capp.5Cgfx_apps.5Csimple_draw.5Ctarget.5Cd1mx_mango_ghs.5Cobj.5Cr_sys_vdce.117::
                        3126 .LDWlin117:
00000804 1d0680fa       3127 	addi	-1408,r29,zero
00000808 991d*          3128 	bnl	.L3230
0000080a 1d0676fa       3129 	addi	-1418,r29,zero
0000080e e215*          3130 	be	.L3230
00000810 1d065efa       3131 	addi	-1442,r29,zero
00000814 b215*          3132 	be	.L3230
                        3133 --1177:                 || (device == R_DEV_R7F701418)
                        3134 --1178:                 || (device == R_DEV_R7F701442)) /* RH850/D1M1-V2 */
                        3135 --1179:     {
                        3136 --1180:         /* All units are available */
                        3137 --1181:     }
                        3138 --1182:     else if (device <= R_DEV_R7F701410)  /* RH850/D1M2 */
                        3139 --line1182
                        3140 ..lin.C.3A.5Cgit.5Crh850.5Csrc.5Capp.5Cgfx_apps.5Csimple_draw.5Ctarget.5Cd1mx_mango_ghs.5Cobj.5Cr_sys_vdce.118::
                        3141 .LDWlin118:
00000816 1d067dfa       3142 	addi	-1411,r29,zero
0000081a d105*          3143 	bl	.L3236
                        3144 --1183:     {
                        3145 --1184:         if (Unit == R_VDCE_UNIT0)
                        3146 --line1184
                        3147 ..lin.C.3A.5Cgit.5Crh850.5Csrc.5Capp.5Cgfx_apps.5Csimple_draw.5Ctarget.5Cd1mx_mango_ghs.5Cobj.5Cr_sys_vdce.119::
                        3148 .LDWlin119:
0000081c e0d9           3149 	cmp	zero,r27
0000081e ea0d*          3150 	bne	.L3230
                        3151 --1185:         {
                        3152 --1186:             ret = R_VDCE_ERR_RANGE_UNIT;
                        3153 --line1186
                        3154 ..lin.C.3A.5Cgit.5Crh850.5Csrc.5Capp.5Cgfx_apps.5Csimple_draw.5Ctarget.5Cd1mx_mango_ghs.5Cobj.5Cr_sys_vdce.120::
                        3155 .LDWlin120:
00000820 03e2           3156 	mov	3,r28
00000822 c50d*          3157 	br	.L3230
                        3158 .L3236:
                        3159 --1187:         }
                        3160 --1188:     }
                        3161 --1189:     else if (device <= R_DEV_R7F701412)  /* RH850/D1M2H */
                        3162 --line1189
                        3163 ..lin.C.3A.5Cgit.5Crh850.5Csrc.5Capp.5Cgfx_apps.5Csimple_draw.5Ctarget.5Cd1mx_mango_ghs.5Cobj.5Cr_sys_vdce.121::
                        3164 .LDWlin121:
00000824 1d067bfa       3165 	addi	-1413,r29,zero
00000828 990d*          3166 	bnl	.L3230
                        3167 --1190:     {
                        3168 --1191:         /* All units are available */
                        3169 --1192:     }

                                                                      Page 55
                                                              C:\Users\Frank\AppData\Local\Temp\gh_0000om41.si
                        3170 --1193:     else if (device == R_DEV_R7F701441) /* RH850/D1M1A */
                        3171 --line1193
                        3172 ..lin.C.3A.5Cgit.5Crh850.5Csrc.5Capp.5Cgfx_apps.5Csimple_draw.5Ctarget.5Cd1mx_mango_ghs.5Cobj.5Cr_sys_vdce.122::
                        3173 .LDWlin122:
0000082a 1d065ffa       3174 	addi	-1441,r29,zero
0000082e da05*          3175 	bne	.L3244
                        3176 --1194:     {
                        3177 --1195:         if (Unit == R_VDCE_UNIT1)
                        3178 --line1195
                        3179 ..lin.C.3A.5Cgit.5Crh850.5Csrc.5Capp.5Cgfx_apps.5Csimple_draw.5Ctarget.5Cd1mx_mango_ghs.5Cobj.5Cr_sys_vdce.123::
                        3180 .LDWlin123:
00000830 61da           3181 	cmp	1,r27
00000832 ca05*          3182 	bne	.L3230
                        3183 --1196:         {
                        3184 --1197:             ret = R_VDCE_ERR_RANGE_UNIT;
                        3185 --line1197
                        3186 ..lin.C.3A.5Cgit.5Crh850.5Csrc.5Capp.5Cgfx_apps.5Csimple_draw.5Ctarget.5Cd1mx_mango_ghs.5Cobj.5Cr_sys_vdce.124::
                        3187 .LDWlin124:
00000834 03e2           3188 	mov	3,r28
00000836 a505*          3189 	br	.L3230
                        3190 .L3244:
                        3191 --1198:         }
                        3192 --1199:     }
                        3193 --1200:     else                                 /* Unknown device */
                        3194 --1201:     {
                        3195 --1202:         ret = R_VDCE_ERR_NOT_ACCEPTABLE;
                        3196 --line1202
                        3197 ..lin.C.3A.5Cgit.5Crh850.5Csrc.5Capp.5Cgfx_apps.5Csimple_draw.5Ctarget.5Cd1mx_mango_ghs.5Cobj.5Cr_sys_vdce.125::
                        3198 .LDWlin125:
00000838 05e2           3199 	mov	5,r28
                        3200 .L3230:
                        3201 --1203:     }
                        3202 --1204:     return ret;
0000083a 1c50           3203 	mov	r28,r10
                        3204 --	    .ef
                        3205 .LDW011:
0000083c 4006ff10       3206 	dispose	0,{r27,r28,r29,r31},[lp]
                        3207 	.type	_R_VDCE_Sys_VIChannelCheck,@function
                        3208 	.size	_R_VDCE_Sys_VIChannelCheck,.-_R_VDCE_Sys_VIChannelCheck
                        3209 	.align	2
                        3210 .LDW111:
                        3211 --_ret	r28	local
                        3212 --_device	r29	local
                        3213 
                        3214 --_Unit	r27	param
                        3215 
                        3216 	.section ".bss","awb"
                        3217 .L3322:
                        3218 	.type	.L3322,@object
                        3219 	.size	.L3322,0
                        3220 	.data
                        3221 	.text
                        3222 
                        3223 --1205: }
                        3224 
                        3225 --1207: /***********************************************************
                        3226 --1208:   Function: R_VDCE_Sys_MaxResolutionGet
                        3227 --1209: */
                        3228 --1211: r_vdce_Error_t R_VDCE_Sys_MaxResolutionGet ( uint32_t* ResolutionHmax,
                        3229 	.align	2
                        3230 	.align	2

                                                                      Page 56
                                                              C:\Users\Frank\AppData\Local\Temp\gh_0000om41.si
                        3231 	.global	_R_VDCE_Sys_MaxResolutionGet
                        3232 _R_VDCE_Sys_MaxResolutionGet:
00000840 8007e130       3233 	prepare	{r26,r27,r28,r29,r31},0
00000844 06e0           3234 	mov	r6,r28
00000846 07d8           3235 	mov	r7,r27
                        3236 --	    .bf
                        3237 .LDW211:
                        3238 --1212:                                              uint32_t* ResolutionVmax )
                        3239 --1213: {
                        3240 --1214:     r_vdce_Error_t ret = R_VDCE_ERR_OK;
00000848 00d2           3241 	mov	0,r26
                        3242 --1215:     r_dev_Device_t  device  =  loc_GetDev(); 
                        3243 	jarl	_loc_GetDev,lp
                        3243 <EXPANSION BEGIN>
                        3243 jarl22 _loc_GetDev , lp 
0000084a bfff88fc*      3243 <EXPANSION END>
0000084e 0ae8           3244 	mov	r10,r29
                        3245 --1217:     if ((R_NULL != ResolutionHmax) && (R_NULL != ResolutionVmax))
                        3246 --line1217
                        3247 ..lin.C.3A.5Cgit.5Crh850.5Csrc.5Capp.5Cgfx_apps.5Csimple_draw.5Ctarget.5Cd1mx_mango_ghs.5Cobj.5Cr_sys_vdce.126::
                        3248 .LDWlin126:
00000850 e0e1           3249 	cmp	zero,r28
00000852 c235*          3250 	be	.L3381
00000854 e0d9           3251 	cmp	zero,r27
00000856 a235*          3252 	be	.L3381
                        3253 --1218:     {
                        3254 --1219:         *ResolutionHmax = 0;
                        3255 --line1219
                        3256 ..lin.C.3A.5Cgit.5Crh850.5Csrc.5Capp.5Cgfx_apps.5Csimple_draw.5Ctarget.5Cd1mx_mango_ghs.5Cobj.5Cr_sys_vdce.127::
                        3257 .LDWlin127:
00000858 7c070100       3258 	st.w	zero,0[r28]
                        3259 --1220:         *ResolutionVmax = 0;
0000085c 7b070100       3260 	st.w	zero,0[r27]
                        3261 --1221:         if (device <= R_DEV_R7F701403)       /* RH850/D1Lx */
00000860 1d0684fa       3262 	addi	-1404,r29,zero
00000864 a10d*          3263 	bl	.L3384
                        3264 --1222:         {
                        3265 --1223:             *ResolutionHmax = 480;
                        3266 --line1223
                        3267 ..lin.C.3A.5Cgit.5Crh850.5Csrc.5Capp.5Cgfx_apps.5Csimple_draw.5Ctarget.5Cd1mx_mango_ghs.5Cobj.5Cr_sys_vdce.128::
                        3268 .LDWlin128:
00000866 200ee001       3269 	movea	480,zero,r1
0000086a 7c0f0100       3270 	st.w	r1,0[r28]
                        3271 --1224:             *ResolutionVmax = 320;
0000086e 200e4001       3272 	movea	320,zero,r1
00000872 7b0f0100       3273 	st.w	r1,0[r27]
00000876 b525*          3274 	br	.L3396
                        3275 .L3384:
                        3276 --1225:         }
                        3277 --1226:         else if ((device <= R_DEV_R7F701407)        /* RH850/D1M1(H) */
                        3278 --line1226
                        3279 ..lin.C.3A.5Cgit.5Crh850.5Csrc.5Capp.5Cgfx_apps.5Csimple_draw.5Ctarget.5Cd1mx_mango_ghs.5Cobj.5Cr_sys_vdce.129::
                        3280 .LDWlin129:
00000878 1d0680fa       3281 	addi	-1408,r29,zero
0000087c f905*          3282 	bnl	.L3388
0000087e 1d0676fa       3283 	addi	-1418,r29,zero
00000882 c205*          3284 	be	.L3388
00000884 1d065efa       3285 	addi	-1442,r29,zero
00000888 aa0d*          3286 	bne	.L3387
                        3287 .L3388:
                        3288 --1227:                     || (device == R_DEV_R7F701418)

                                                                      Page 57
                                                              C:\Users\Frank\AppData\Local\Temp\gh_0000om41.si
                        3289 --1228:                     || (device == R_DEV_R7F701442)) /* RH850/D1M1-V2 */
                        3290 --1229:         {
                        3291 --1230:             *ResolutionHmax = 1024;
                        3292 --line1230
                        3293 ..lin.C.3A.5Cgit.5Crh850.5Csrc.5Capp.5Cgfx_apps.5Csimple_draw.5Ctarget.5Cd1mx_mango_ghs.5Cobj.5Cr_sys_vdce.130::
                        3294 .LDWlin130:
0000088a 200e0004       3295 	movea	1024,zero,r1
0000088e 7c0f0100       3296 	st.w	r1,0[r28]
                        3297 --1231:             *ResolutionVmax = 1024;
00000892 200e0004       3298 	movea	1024,zero,r1
00000896 7b0f0100       3299 	st.w	r1,0[r27]
0000089a 9515*          3300 	br	.L3396
                        3301 .L3387:
                        3302 --1232:         }
                        3303 --1233:         else if ((device <= R_DEV_R7F701412) || /* RH850/D1M2(H) */
                        3304 --line1233
                        3305 ..lin.C.3A.5Cgit.5Crh850.5Csrc.5Capp.5Cgfx_apps.5Csimple_draw.5Ctarget.5Cd1mx_mango_ghs.5Cobj.5Cr_sys_vdce.131::
                        3306 .LDWlin131:
0000089c 1d067bfa       3307 	addi	-1413,r29,zero
000008a0 c905*          3308 	bnl	.L3393
000008a2 1d065ffa       3309 	addi	-1441,r29,zero
000008a6 ba0d*          3310 	bne	.L3396
                        3311 .L3393:
                        3312 --1234:                  (device == R_DEV_R7F701441))   /* RH850/D1M1A   */
                        3313 --1235:         {
                        3314 --1236:             *ResolutionHmax = 1280;
                        3315 --line1236
                        3316 ..lin.C.3A.5Cgit.5Crh850.5Csrc.5Capp.5Cgfx_apps.5Csimple_draw.5Ctarget.5Cd1mx_mango_ghs.5Cobj.5Cr_sys_vdce.132::
                        3317 .LDWlin132:
000008a8 200e0005       3318 	movea	1280,zero,r1
000008ac 7c0f0100       3319 	st.w	r1,0[r28]
                        3320 --1237:             *ResolutionVmax = 1024;
000008b0 200e0004       3321 	movea	1024,zero,r1
000008b4 7b0f0100       3322 	st.w	r1,0[r27]
000008b8 a505*          3323 	br	.L3396
                        3324 .L3381:
                        3325 --1238:         }
                        3326 --1239:         else                                 /* Unknown device */
                        3327 --1240:         {
                        3328 --1241:             /* Do nothing */
                        3329 --1242:         }
                        3330 --1243:     }
                        3331 --1244:     else
                        3332 --1245:     {
                        3333 --1246:         ret = R_VDCE_ERR_PARAM_INCORRECT;
                        3334 --line1246
                        3335 ..lin.C.3A.5Cgit.5Crh850.5Csrc.5Capp.5Cgfx_apps.5Csimple_draw.5Ctarget.5Cd1mx_mango_ghs.5Cobj.5Cr_sys_vdce.133::
                        3336 .LDWlin133:
000008ba 02d2           3337 	mov	2,r26
                        3338 .L3396:
                        3339 --1247:     }
                        3340 --1249:     return ret;
000008bc 1a50           3341 	mov	r26,r10
                        3342 --	    .ef
                        3343 .LDW311:
000008be 4006ff30       3344 	dispose	0,{r26,r27,r28,r29,r31},[lp]
                        3345 	.type	_R_VDCE_Sys_MaxResolutionGet,@function
                        3346 	.size	_R_VDCE_Sys_MaxResolutionGet,.-_R_VDCE_Sys_MaxResolutionGet
                        3347 	.align	2
                        3348 .LDW411:
                        3349 --_ret	r26	local

                                                                      Page 58
                                                              C:\Users\Frank\AppData\Local\Temp\gh_0000om41.si
                        3350 --_device	r29	local
                        3351 
                        3352 --_ResolutionHmax	r28	param
                        3353 --_ResolutionVmax	r27	param
                        3354 
                        3355 	.section ".bss","awb"
                        3356 .L3498:
                        3357 	.type	.L3498,@object
                        3358 	.size	.L3498,0
                        3359 	.data
                        3360 	.text
                        3361 
                        3362 --1250: }
                        3363 
                        3364 --1252: /***********************************************************
                        3365 --1253:   Function: R_VDCE_Sys_DeviceInfoGet
                        3366 --1254: */
                        3367 --1256: r_vdce_Error_t R_VDCE_Sys_DeviceInfoGet(r_vdce_DeviceInfo_t* DevInfo)
                        3368 	.align	2
                        3369 	.align	2
                        3370 	.global	_R_VDCE_Sys_DeviceInfoGet
                        3371 _R_VDCE_Sys_DeviceInfoGet:
000008c2 8007e110       3372 	prepare	{r27,r28,r29,r31},0
000008c6 06e0           3373 	mov	r6,r28
                        3374 --	    .bf
                        3375 .LDW511:
                        3376 --1257: {
                        3377 --1258:     r_vdce_Error_t ret = R_VDCE_ERR_OK;
000008c8 00da           3378 	mov	0,r27
                        3379 --1259:     r_dev_Device_t device = loc_GetDev(); 
                        3380 	jarl	_loc_GetDev,lp
                        3380 <EXPANSION BEGIN>
                        3380 jarl22 _loc_GetDev , lp 
000008ca bfff08fc*      3380 <EXPANSION END>
000008ce 0ae8           3381 	mov	r10,r29
                        3382 --1261:     if (R_NULL != DevInfo)
                        3383 --line1261
                        3384 ..lin.C.3A.5Cgit.5Crh850.5Csrc.5Capp.5Cgfx_apps.5Csimple_draw.5Ctarget.5Cd1mx_mango_ghs.5Cobj.5Cr_sys_vdce.134::
                        3385 .LDWlin134:
000008d0 e0e1           3386 	cmp	zero,r28
000008d2 f22d*          3387 	be	.L3569
                        3388 --1262:     {
                        3389 --1263:         /* Set default */
                        3390 --1264:         DevInfo->Device         = device;
                        3391 --line1264
                        3392 ..lin.C.3A.5Cgit.5Crh850.5Csrc.5Capp.5Cgfx_apps.5Csimple_draw.5Ctarget.5Cd1mx_mango_ghs.5Cobj.5Cr_sys_vdce.135::
                        3393 .LDWlin135:
000008d4 7cef0100       3394 	st.w	r29,0[r28]
                        3395 --1265:         DevInfo->VIWithDataEn   = R_FALSE;
000008d8 5c070400       3396 	st.b	zero,4[r28]
                        3397 --1266:         DevInfo->SerialRGBEn    = R_FALSE;
000008dc 5c070500       3398 	st.b	zero,5[r28]
                        3399 --1267:         DevInfo->GammaCorrectEn = R_TRUE;
000008e0 010a           3400 	mov	1,r1
000008e2 5c0f0600       3401 	st.b	r1,6[r28]
                        3402 --1268:         DevInfo->EnlargementEn  = R_TRUE;
000008e6 010a           3403 	mov	1,r1
000008e8 5c0f0700       3404 	st.b	r1,7[r28]
                        3405 --1269:         
                        3406 --1270:         if (device <= R_DEV_R7F701403)       /* RH850/D1Lx */
000008ec 1d0684fa       3407 	addi	-1404,r29,zero

                                                                      Page 59
                                                              C:\Users\Frank\AppData\Local\Temp\gh_0000om41.si
000008f0 e105*          3408 	bl	.L3571
                        3409 --1271:         {
                        3410 --1272:             DevInfo->GammaCorrectEn = R_FALSE;
                        3411 --line1272
                        3412 ..lin.C.3A.5Cgit.5Crh850.5Csrc.5Capp.5Cgfx_apps.5Csimple_draw.5Ctarget.5Cd1mx_mango_ghs.5Cobj.5Cr_sys_vdce.136::
                        3413 .LDWlin136:
000008f2 5c070600       3414 	st.b	zero,6[r28]
                        3415 --1273:             DevInfo->EnlargementEn  = R_FALSE;
000008f6 5c070700       3416 	st.b	zero,7[r28]
000008fa c51d*          3417 	br	.L3585
                        3418 .L3571:
                        3419 --1274:         }
                        3420 --1275:         else if (device <= R_DEV_R7F701407)        /* RH850/D1M1(H) */
                        3421 --line1275
                        3422 ..lin.C.3A.5Cgit.5Crh850.5Csrc.5Capp.5Cgfx_apps.5Csimple_draw.5Ctarget.5Cd1mx_mango_ghs.5Cobj.5Cr_sys_vdce.137::
                        3423 .LDWlin137:
000008fc 1d0680fa       3424 	addi	-1408,r29,zero
00000900 991d*          3425 	bnl	.L3585
                        3426 --1276:         {
                        3427 --1277:         }
                        3428 --1278:         else if ((device <= R_DEV_R7F701412)  /* RH850/D1M2x */
                        3429 --line1278
                        3430 ..lin.C.3A.5Cgit.5Crh850.5Csrc.5Capp.5Cgfx_apps.5Csimple_draw.5Ctarget.5Cd1mx_mango_ghs.5Cobj.5Cr_sys_vdce.138::
                        3431 .LDWlin138:
00000902 1d067bfa       3432 	addi	-1413,r29,zero
00000906 c905*          3433 	bnl	.L3578
00000908 1d0676fa       3434 	addi	-1418,r29,zero
0000090c da05*          3435 	bne	.L3577
                        3436 .L3578:
                        3437 --1279:               || (device == R_DEV_R7F701418))
                        3438 --1280:         {
                        3439 --1281:             DevInfo->VIWithDataEn   = R_TRUE;
                        3440 --line1281
                        3441 ..lin.C.3A.5Cgit.5Crh850.5Csrc.5Capp.5Cgfx_apps.5Csimple_draw.5Ctarget.5Cd1mx_mango_ghs.5Cobj.5Cr_sys_vdce.139::
                        3442 .LDWlin139:
0000090e 010a           3443 	mov	1,r1
00000910 5c0f0400       3444 	st.b	r1,4[r28]
00000914 f50d*          3445 	br	.L3585
                        3446 .L3577:
                        3447 --1282:         }
                        3448 --1283:         else if ((device == R_DEV_R7F701441)  /* RH850/D1M1A */
                        3449 --line1283
                        3450 ..lin.C.3A.5Cgit.5Crh850.5Csrc.5Capp.5Cgfx_apps.5Csimple_draw.5Ctarget.5Cd1mx_mango_ghs.5Cobj.5Cr_sys_vdce.140::
                        3451 .LDWlin140:
00000916 1d065ffa       3452 	addi	-1441,r29,zero
0000091a c205*          3453 	be	.L3582
0000091c 1d065efa       3454 	addi	-1442,r29,zero
00000920 9a0d*          3455 	bne	.L3585
                        3456 .L3582:
                        3457 --1284:               || (device == R_DEV_R7F701442)) /* RH850/D1M1-V2 */
                        3458 --1285:         {
                        3459 --1286:             DevInfo->VIWithDataEn   = R_TRUE;
                        3460 --line1286
                        3461 ..lin.C.3A.5Cgit.5Crh850.5Csrc.5Capp.5Cgfx_apps.5Csimple_draw.5Ctarget.5Cd1mx_mango_ghs.5Cobj.5Cr_sys_vdce.141::
                        3462 .LDWlin141:
00000922 010a           3463 	mov	1,r1
00000924 5c0f0400       3464 	st.b	r1,4[r28]
                        3465 --1287:             DevInfo->SerialRGBEn    = R_TRUE;
00000928 010a           3466 	mov	1,r1
0000092a 5c0f0500       3467 	st.b	r1,5[r28]
0000092e a505*          3468 	br	.L3585

                                                                      Page 60
                                                              C:\Users\Frank\AppData\Local\Temp\gh_0000om41.si
                        3469 .L3569:
                        3470 --1288:         }
                        3471 --1289:         else 
                        3472 --1290:         {
                        3473 --1291:             /* Do nothing */
                        3474 --1292:         }
                        3475 --1293:     }
                        3476 --1294:     else
                        3477 --1295:     {
                        3478 --1296:         ret = R_VDCE_ERR_PARAM_INCORRECT;
                        3479 --line1296
                        3480 ..lin.C.3A.5Cgit.5Crh850.5Csrc.5Capp.5Cgfx_apps.5Csimple_draw.5Ctarget.5Cd1mx_mango_ghs.5Cobj.5Cr_sys_vdce.142::
                        3481 .LDWlin142:
00000930 02da           3482 	mov	2,r27
                        3483 .L3585:
                        3484 --1297:     }
                        3485 --1299:     return ret;
00000932 1b50           3486 	mov	r27,r10
                        3487 --	    .ef
                        3488 .LDW611:
00000934 4006ff10       3489 	dispose	0,{r27,r28,r29,r31},[lp]
                        3490 	.type	_R_VDCE_Sys_DeviceInfoGet,@function
                        3491 	.size	_R_VDCE_Sys_DeviceInfoGet,.-_R_VDCE_Sys_DeviceInfoGet
                        3492 	.align	2
                        3493 .LDW711:
                        3494 --_ret	r27	local
                        3495 --_device	r29	local
                        3496 
                        3497 --_DevInfo	r28	param
                        3498 
                        3499 	.section ".bss","awb"
                        3500 .L3694:
                        3501 	.type	.L3694,@object
                        3502 	.size	.L3694,0
                        3503 	.data
                        3504 	.text
                        3505 
                        3506 --1300: }
                        3507 	.align	2
                        3508 
                        3509 	.data
                        3510 	.ghsnote version,15
                        3511 	.ghsnote tools,3
                        3512 	.ghsnote options,144
                        3513 	.text
                        3514 	.align	2
                        3515 ..eof.C.3A.5Cgit.5Crh850.5Csrc.5Capp.5Cgfx_apps.5Csimple_draw.5Ctarget.5Cd1mx_mango_ghs.5Cobj.5Cr_sys_vdce...43.3A.5Cgit.5Crh850.5Csrc.5Capp.5Cgfx_apps.5Csimple_draw.5Ctarget.5Cd1mx_mango_ghs..5BC5D028..0::
                        3516 .rh850_flags REGMODE22,DATA_ALIGN8,GP_FIX,EP_NONFIX,TP_FIX,REG2_RESERVE,G3M
