                                                                      Page 1
                                                              C:\Users\Frank\AppData\Local\Temp\gh_0000p6g1.si
Command Line: C:\GHS\V800.V2014.1.7\comp_201417\ease850.exe -w -elf -b0 -I../../../../../app/common/dhd -I../../../../../app/gfx_apps/simple_draw/src -I../../../../../app/gfx_apps/simple_draw/lib -I../../../../../bsp/board//config -I../../../../../bsp/board//src/gfx -I../../../../../bsp/board//src/hmi -I../../../../../bsp/board//src/stdio -I../../../../../bsp/board/d1mx_mango/config -I../../../../../bsp/board/d1mx_mango/src -I../../../../../bsp/board/d1mx_mango/src/gfx -I../../../../../bsp/board/d1mx_mango/src/hmi -I../../../../../bsp/board/d1mx_mango/src/stdio -I../../../../../bsp/gfx/lib -I../../../../../bsp/gfx/src -I../../../../../bsp/hmi/lib -I../../../../../bsp/hmi/src -I../../../../../bsp/lib -I../../../../../bsp/stdio/lib -I../../../../../bsp/stdio/src -I../../../../../cdi/lib -I../../../../../cdi/src -I../../../../../compiler/rh850_ghs/inc -I../../../../../device/d1mx/lib -I../../../../../device/d1mx/macro_cfg -I../../../../../device/d1mx/macro_cfg/csisw -I../../../../../device/d1mx/macro_cfg/davehd -I../../../../../device/d1mx/macro_cfg/ddb -I../../../../../device/d1mx/macro_cfg/drw2d -I../../../../../device/d1mx/macro_cfg/gfxbus -I../../../../../device/d1mx/macro_cfg/gpio -I../../../../../device/d1mx/macro_cfg/hypb -I../../../../../device/d1mx/macro_cfg/hypdb -I../../../../../device/d1mx/macro_cfg/jcua -I../../../../../device/d1mx/macro_cfg/nfmabare -I../../../../../device/d1mx/macro_cfg/octa -I../../../../../device/d1mx/macro_cfg/octacdb -I../../../../../device/d1mx/macro_cfg/ostm -I../../../../../device/d1mx/macro_cfg/pbg -I../../../../../device/d1mx/macro_cfg/riic -I../../../../../device/d1mx/macro_cfg/sfcdb -I../../../../../device/d1mx/macro_cfg/sfma -I../../../../../device/d1mx/macro_cfg/spea -I../../../../../device/d1mx/macro_cfg/tauj -I../../../../../device/d1mx/macro_cfg/tick -I../../../../../device/d1mx/macro_cfg/vdce -I../../../../../device/d1mx/macro_cfg/vowe -I../../../../../device/d1mx/macro_cfg/wm -I../../../../../device/d1mx/macro_cfg/xbus -I../../../../../device/d1mx/src/dev -I../../../../../device/d1mx/src/dhd -I../../../../../device/d1mx/src/hypb -I../../../../../device/d1mx/src/jcua -I../../../../../device/d1mx/src/nfmabare -I../../../../../device/d1mx/src/octa -I../../../../../device/d1mx/src/rh850_ghs -I../../../../../device/d1mx/src/vowe -I../../../../../device/d1x_common/macro_cfg -I../../../../../device/d1x_common/macro_cfg/csisw -I../../../../../device/d1x_common/macro_cfg/davehd -I../../../../../device/d1x_common/macro_cfg/ddb -I../../../../../device/d1x_common/macro_cfg/drw2d -I../../../../../device/d1x_common/macro_cfg/gfxbus -I../../../../../device/d1x_common/macro_cfg/gpio -I../../../../../device/d1x_common/macro_cfg/hypb -I../../../../../device/d1x_common/macro_cfg/hypdb -I../../../../../device/d1x_common/macro_cfg/jcua -I../../../../../device/d1x_common/macro_cfg/nfmabare -I../../../../../device/d1x_common/macro_cfg/octa -I../../../../../device/d1x_common/macro_cfg/octacdb -I../../../../../device/d1x_common/macro_cfg/ostm -I../../../../../device/d1x_common/macro_cfg/pbg -I../../../../../device/d1x_common/macro_cfg/riic -I../../../../../device/d1x_common/macro_cfg/sfcdb -I../../../../../device/d1x_common/macro_cfg/sfma -I../../../../../device/d1x_common/macro_cfg/spea -I../../../../../device/d1x_common/macro_cfg/tauj -I../../../../../device/d1x_common/macro_cfg/tick -I../../../../../device/d1x_common/macro_cfg/vdce -I../../../../../device/d1x_common/macro_cfg/vowe -I../../../../../device/d1x_common/macro_cfg/wm -I../../../../../device/d1x_common/macro_cfg/xbus -I../../../../../device/d1x_common/src/csisw -I../../../../../device/d1x_common/src/ddb -I../../../../../device/d1x_common/src/dev -I../../../../../device/d1x_common/src/gfxbus -I../../../../../device/d1x_common/src/gpio -I../../../../../device/d1x_common/src/ostm -I../../../../../device/d1x_common/src/pbg -I../../../../../device/d1x_common/src/riic -I../../../../../device/d1x_common/src/sfma -I../../../../../device/d1x_common/src/spea -I../../../../../device/d1x_common/src/tauj -I../../../../../device/d1x_common/src/tick -I../../../../../device/d1x_common/src/vdce -I../../../../../device/d1x_common/src/wm -I../../../../../device/d1x_common/src/xbus -I../../../../../device/lib -I../../../../../macro/bus/pbg/lib -I../../../../../macro/bus/pbg/src -I../../../../../macro/csi/csisw/lib -I../../../../../macro/csi/csisw/src -I../../../../../macro/drw2d/lib -I../../../../../macro/drw2d/platform/davehd -I../../../../../macro/drw2d/platform/os/no_os -I../../../../../macro/drw2d/src -I../../../../../macro/flashc/hypb/lib -I../../../../../macro/flashc/hypb/src -I../../../../../macro/flashc/hypdb/lib -I../../../../../macro/flashc/hypdb/src -I../../../../../macro/flashc/nfmabare/lib -I../../../../../macro/flashc/nfmabare/src -I../../../../../macro/flashc/octa/lib -I../../../../../macro/flashc/octa/src -I../../../../../macro/flashc/octacdb/lib -I../../../../../macro/flashc/octacdb/src -I../../../../../macro/flashc/sfcdb/lib -I../../../../../macro/flashc/sfcdb/src -I../../../../../macro/flashc/sfma/lib -I../../../../../macro/flashc/sfma/src -I../../../../../macro/gfxbus/lib -I../../../../../macro/gfxbus/src -I../../../../../macro/gfxbus/xbus/lib -I../../../../../macro/gfxbus/xbus/src -I../../../../../macro/gpio/lib -I../../../../../macro/gpio/src -I../../../../../macro/gpu/davehd/common/inc -I../../../../../macro/gpu/davehd/common/inc/platform -I../../../../../macro/gpu/davehd/common/inc/platform/d1mx -I../../../../../macro/gpu/davehd/docs -I../../../../../macro/gpu/davehd/kernel/inc -I../../../../../macro/gpu/davehd/kernel/platform/d1mx -I../../../../../macro/gpu/davehd/kernel/platform/d1mx/bridge -I../../../../../macro/gpu/davehd/kernel/platform/d1mx/non_threaded -I../../../../../macro/gpu/davehd/kernel/platform/ree -I../../../../../macro/gpu/davehd/kernel/src -I../../../../../macro/gpu/davehd/user/inc -I../../../../../macro/gpu/davehd/user/platform/d1mx/no_os -I../../../../../macro/gpu/davehd/user/src -I../../../../../macro/gpu/jcua/lib -I../../../../../macro/gpu/jcua/src -I../../../../../macro/i2c/riic/lib -I../../../../../macro/i2c/riic/src -I../../../../../macro/tick/lib -I../../../../../macro/tick/src -I../../../../../macro/timer/ostm/lib -I../../../../../macro/timer/ostm/src -I../../../../../macro/timer/tauj/lib -I../../../../../macro/timer/tauj/src -I../../../../../macro/vdce/lib -I../../../../../macro/vdce/src -I../../../../../macro/vo/ddb/lib -I../../../../../macro/vo/ddb/src -I../../../../../macro/vo/spea/lib -I../../../../../macro/vo/spea/src -I../../../../../macro/vo/vowe/lib -I../../../../../macro/vo/vowe/src -I../../../../../macro/wm/lib -I../../../../../macro/wm/src -I../../../../../macro/pwm/lib -I../../../../../macro/reset/lib -I../../../../../macro/rscan/lib -I../../../../../macro/uart/rlin3/lib -I../../../../../macro/uart/rlin3/src -I../../../../../device/d1x_common/macro_cfg/rlin3 -I../../../../../macro/stbc/lib -I../../../../../macro/adc/lib -I../../../../../device/d1x_common/macro_cfg/adc7010 -IC:\GHS\V800.V2014.1.7\comp_201417\lib\rh850_22 -cg_underscore -cpu=rh850g3m -no_v850_simd -rh850_fpsimd=none -nomacro -patch_dbo=C:\git\rh850\src\app\gfx_apps\simple_draw\target\d1mx_mango_ghs\obj\r_sys_jcua.dbo -source=r_sys_jcua.c -o .\obj\gh_0000p6g1.o -list=.\obj\r_sys_jcua.lst C:\Users\Frank\AppData\Local\Temp\gh_0000p6g1.si 
Original File: C:\Users\Frank\AppData\Local\Temp\gh_0000p6g1.si
Source File: r_sys_jcua.c
Directory: C:\git\rh850\src\app\gfx_apps\simple_draw\target\d1mx_mango_ghs
Host OS: Windows
EASE: Copyright (C) 1983-2014 Green Hills Software.  All Rights Reversed.
Release: Compiler v2014.1.7
Build Directory: [Directory] BTOWINBOX:c:/build_2014_1_bto/2014-09-04.2200-2014_1_bto/win32-comp-ecom
Revision: [VCInfo] http://toolsvc/branches/release-branch-2014-1-bto/src@515859 (built by build)
Revision Date: Fri Sep 05 14:05:06 2014

Release Date: Fri Sep 05 14:43:29 2014

                           1 --Driver Command: ccv850 -c -MD -I../../../../../app/common/dhd
                           2 --		-I../../../../../app/gfx_apps/simple_draw/src
                           3 --		-I../../../../../app/gfx_apps/simple_draw/lib
                           4 --		-I../../../../../bsp/board//config
                           5 --		-I../../../../../bsp/board//src/gfx
                           6 --		-I../../../../../bsp/board//src/hmi
                           7 --		-I../../../../../bsp/board//src/stdio
                           8 --		-I../../../../../bsp/board/d1mx_mango/config
                           9 --		-I../../../../../bsp/board/d1mx_mango/src
                          10 --		-I../../../../../bsp/board/d1mx_mango/src/gfx
                          11 --		-I../../../../../bsp/board/d1mx_mango/src/hmi
                          12 --		-I../../../../../bsp/board/d1mx_mango/src/stdio
                          13 --		-I../../../../../bsp/gfx/lib -I../../../../../bsp/gfx/src
                          14 --		-I../../../../../bsp/hmi/lib -I../../../../../bsp/hmi/src
                          15 --		-I../../../../../bsp/lib -I../../../../../bsp/stdio/lib
                          16 --		-I../../../../../bsp/stdio/src -I../../../../../cdi/lib
                          17 --		-I../../../../../cdi/src -I../../../../../compiler/rh850_ghs/inc
                          18 --		-I../../../../../device/d1mx/lib
                          19 --		-I../../../../../device/d1mx/macro_cfg
                          20 --		-I../../../../../device/d1mx/macro_cfg/csisw
                          21 --		-I../../../../../device/d1mx/macro_cfg/davehd
                          22 --		-I../../../../../device/d1mx/macro_cfg/ddb
                          23 --		-I../../../../../device/d1mx/macro_cfg/drw2d
                          24 --		-I../../../../../device/d1mx/macro_cfg/gfxbus
                          25 --		-I../../../../../device/d1mx/macro_cfg/gpio
                          26 --		-I../../../../../device/d1mx/macro_cfg/hypb
                          27 --		-I../../../../../device/d1mx/macro_cfg/hypdb
                          28 --		-I../../../../../device/d1mx/macro_cfg/jcua
                          29 --		-I../../../../../device/d1mx/macro_cfg/nfmabare
                          30 --		-I../../../../../device/d1mx/macro_cfg/octa
                          31 --		-I../../../../../device/d1mx/macro_cfg/octacdb
                          32 --		-I../../../../../device/d1mx/macro_cfg/ostm
                          33 --		-I../../../../../device/d1mx/macro_cfg/pbg
                          34 --		-I../../../../../device/d1mx/macro_cfg/riic
                          35 --		-I../../../../../device/d1mx/macro_cfg/sfcdb
                          36 --		-I../../../../../device/d1mx/macro_cfg/sfma
                          37 --		-I../../../../../device/d1mx/macro_cfg/spea
                          38 --		-I../../../../../device/d1mx/macro_cfg/tauj
                          39 --		-I../../../../../device/d1mx/macro_cfg/tick
                          40 --		-I../../../../../device/d1mx/macro_cfg/vdce
                          41 --		-I../../../../../device/d1mx/macro_cfg/vowe
                          42 --		-I../../../../../device/d1mx/macro_cfg/wm
                          43 --		-I../../../../../device/d1mx/macro_cfg/xbus
                          44 --		-I../../../../../device/d1mx/src/dev
                          45 --		-I../../../../../device/d1mx/src/dhd
                          46 --		-I../../../../../device/d1mx/src/hypb
                          47 --		-I../../../../../device/d1mx/src/jcua
                          48 --		-I../../../../../device/d1mx/src/nfmabare
                          49 --		-I../../../../../device/d1mx/src/octa
                          50 --		-I../../../../../device/d1mx/src/rh850_ghs

                                                                      Page 2
                                                              C:\Users\Frank\AppData\Local\Temp\gh_0000p6g1.si
                          51 --		-I../../../../../device/d1mx/src/vowe
                          52 --		-I../../../../../device/d1x_common/macro_cfg
                          53 --		-I../../../../../device/d1x_common/macro_cfg/csisw
                          54 --		-I../../../../../device/d1x_common/macro_cfg/davehd
                          55 --		-I../../../../../device/d1x_common/macro_cfg/ddb
                          56 --		-I../../../../../device/d1x_common/macro_cfg/drw2d
                          57 --		-I../../../../../device/d1x_common/macro_cfg/gfxbus
                          58 --		-I../../../../../device/d1x_common/macro_cfg/gpio
                          59 --		-I../../../../../device/d1x_common/macro_cfg/hypb
                          60 --		-I../../../../../device/d1x_common/macro_cfg/hypdb
                          61 --		-I../../../../../device/d1x_common/macro_cfg/jcua
                          62 --		-I../../../../../device/d1x_common/macro_cfg/nfmabare
                          63 --		-I../../../../../device/d1x_common/macro_cfg/octa
                          64 --		-I../../../../../device/d1x_common/macro_cfg/octacdb
                          65 --		-I../../../../../device/d1x_common/macro_cfg/ostm
                          66 --		-I../../../../../device/d1x_common/macro_cfg/pbg
                          67 --		-I../../../../../device/d1x_common/macro_cfg/riic
                          68 --		-I../../../../../device/d1x_common/macro_cfg/sfcdb
                          69 --		-I../../../../../device/d1x_common/macro_cfg/sfma
                          70 --		-I../../../../../device/d1x_common/macro_cfg/spea
                          71 --		-I../../../../../device/d1x_common/macro_cfg/tauj
                          72 --		-I../../../../../device/d1x_common/macro_cfg/tick
                          73 --		-I../../../../../device/d1x_common/macro_cfg/vdce
                          74 --		-I../../../../../device/d1x_common/macro_cfg/vowe
                          75 --		-I../../../../../device/d1x_common/macro_cfg/wm
                          76 --		-I../../../../../device/d1x_common/macro_cfg/xbus
                          77 --		-I../../../../../device/d1x_common/src/csisw
                          78 --		-I../../../../../device/d1x_common/src/ddb
                          79 --		-I../../../../../device/d1x_common/src/dev
                          80 --		-I../../../../../device/d1x_common/src/gfxbus
                          81 --		-I../../../../../device/d1x_common/src/gpio
                          82 --		-I../../../../../device/d1x_common/src/ostm
                          83 --		-I../../../../../device/d1x_common/src/pbg
                          84 --		-I../../../../../device/d1x_common/src/riic
                          85 --		-I../../../../../device/d1x_common/src/sfma
                          86 --		-I../../../../../device/d1x_common/src/spea
                          87 --		-I../../../../../device/d1x_common/src/tauj
                          88 --		-I../../../../../device/d1x_common/src/tick
                          89 --		-I../../../../../device/d1x_common/src/vdce
                          90 --		-I../../../../../device/d1x_common/src/wm
                          91 --		-I../../../../../device/d1x_common/src/xbus
                          92 --		-I../../../../../device/lib -I../../../../../macro/bus/pbg/lib
                          93 --		-I../../../../../macro/bus/pbg/src
                          94 --		-I../../../../../macro/csi/csisw/lib
                          95 --		-I../../../../../macro/csi/csisw/src
                          96 --		-I../../../../../macro/drw2d/lib
                          97 --		-I../../../../../macro/drw2d/platform/davehd
                          98 --		-I../../../../../macro/drw2d/platform/os/no_os
                          99 --		-I../../../../../macro/drw2d/src
                         100 --		-I../../../../../macro/flashc/hypb/lib
                         101 --		-I../../../../../macro/flashc/hypb/src
                         102 --		-I../../../../../macro/flashc/hypdb/lib
                         103 --		-I../../../../../macro/flashc/hypdb/src
                         104 --		-I../../../../../macro/flashc/nfmabare/lib
                         105 --		-I../../../../../macro/flashc/nfmabare/src
                         106 --		-I../../../../../macro/flashc/octa/lib
                         107 --		-I../../../../../macro/flashc/octa/src
                         108 --		-I../../../../../macro/flashc/octacdb/lib
                         109 --		-I../../../../../macro/flashc/octacdb/src
                         110 --		-I../../../../../macro/flashc/sfcdb/lib
                         111 --		-I../../../../../macro/flashc/sfcdb/src

                                                                      Page 3
                                                              C:\Users\Frank\AppData\Local\Temp\gh_0000p6g1.si
                         112 --		-I../../../../../macro/flashc/sfma/lib
                         113 --		-I../../../../../macro/flashc/sfma/src
                         114 --		-I../../../../../macro/gfxbus/lib
                         115 --		-I../../../../../macro/gfxbus/src
                         116 --		-I../../../../../macro/gfxbus/xbus/lib
                         117 --		-I../../../../../macro/gfxbus/xbus/src
                         118 --		-I../../../../../macro/gpio/lib -I../../../../../macro/gpio/src
                         119 --		-I../../../../../macro/gpu/davehd/common/inc
                         120 --		-I../../../../../macro/gpu/davehd/common/inc/platform
                         121 --		-I../../../../../macro/gpu/davehd/common/inc/platform/d1mx
                         122 --		-I../../../../../macro/gpu/davehd/docs
                         123 --		-I../../../../../macro/gpu/davehd/kernel/inc
                         124 --		-I../../../../../macro/gpu/davehd/kernel/platform/d1mx
                         125 --		-I../../../../../macro/gpu/davehd/kernel/platform/d1mx/bridge
                         126 --		-I../../../../../macro/gpu/davehd/kernel/platform/d1mx/non_threaded
                         127 --		-I../../../../../macro/gpu/davehd/kernel/platform/ree
                         128 --		-I../../../../../macro/gpu/davehd/kernel/src
                         129 --		-I../../../../../macro/gpu/davehd/user/inc
                         130 --		-I../../../../../macro/gpu/davehd/user/platform/d1mx/no_os
                         131 --		-I../../../../../macro/gpu/davehd/user/src
                         132 --		-I../../../../../macro/gpu/jcua/lib
                         133 --		-I../../../../../macro/gpu/jcua/src
                         134 --		-I../../../../../macro/i2c/riic/lib
                         135 --		-I../../../../../macro/i2c/riic/src
                         136 --		-I../../../../../macro/tick/lib -I../../../../../macro/tick/src
                         137 --		-I../../../../../macro/timer/ostm/lib
                         138 --		-I../../../../../macro/timer/ostm/src
                         139 --		-I../../../../../macro/timer/tauj/lib
                         140 --		-I../../../../../macro/timer/tauj/src
                         141 --		-I../../../../../macro/vdce/lib -I../../../../../macro/vdce/src
                         142 --		-I../../../../../macro/vo/ddb/lib
                         143 --		-I../../../../../macro/vo/ddb/src
                         144 --		-I../../../../../macro/vo/spea/lib
                         145 --		-I../../../../../macro/vo/spea/src
                         146 --		-I../../../../../macro/vo/vowe/lib
                         147 --		-I../../../../../macro/vo/vowe/src -I../../../../../macro/wm/lib
                         148 --		-I../../../../../macro/wm/src -I../../../../../macro/pwm/lib
                         149 --		-I../../../../../macro/i2c/riic/lib
                         150 --		-I../../../../../macro/reset/lib -I../../../../../macro/rscan/lib
                         151 --		-I../../../../../macro/uart/rlin3/lib
                         152 --		-I../../../../../macro/uart/rlin3/src
                         153 --		-I../../../../../device/d1x_common/macro_cfg/rlin3
                         154 --		-I../../../../../macro/stbc/lib
                         155 --		-I../../../../../app/gfx_apps/simple_draw/lib
                         156 --		-I../../../../../macro/adc/lib
                         157 --		-I../../../../../device/d1x_common/macro_cfg/adc7010 -G
                         158 --		--no_commons --no_implicit_include --prototype_errors
                         159 --		-DRENESAS_D1X -DR_DRW2D_OS_NO_OS -DR_DRW2D_SYS_DHD
                         160 --		-DUSED_CPU=RH850G3M -DUSE_BSP_GFX -DUSE_BSP_HMI -DUSE_BSP_STDIO
                         161 --		-DUSE_CDI -DUSE_CSISW -DUSE_DAVEHD -DUSE_DDB -DUSE_DRW2D
                         162 --		-DUSE_GFXBUS -DUSE_GPIO -DUSE_HYPB -DUSE_HYPDB -DUSE_JCUA
                         163 --		-DUSE_NFMABARE -DUSE_OCTA -DUSE_OCTACDB -DUSE_OSTM -DUSE_PBG
                         164 --		-DUSE_RIIC -DUSE_SFCDB -DUSE_SFMA -DUSE_SPEA -DUSE_TAUJ
                         165 --		-DUSE_TICK -DUSE_VDCE -DUSE_WM -DUSE_XBUS -DMAG -MD -Zuse1bit
                         166 --		-allocate_ep -cpu=rh850g3m -large_sda -list -no_callt -notda
                         167 --		-passsource -preprocess_assembly_files -registermode=22
                         168 --		-reserve_r2 --diag_warning 1 -object_dir=./obj -DUSE_VDCE_OPENLDI
                         169 --		-gnu99 -filetype.c
                         170 --		..\..\..\..\..\device\d1mx\src\jcua\r_sys_jcua.c -o
                         171 --		.\obj\r_sys_jcua.o
                         172 --Source File:   ..\..\..\..\..\device\d1mx\src\jcua\r_sys_jcua.c

                                                                      Page 4
                                                              C:\Users\Frank\AppData\Local\Temp\gh_0000p6g1.si
                         173 --Directory:     
                         174 --		C:\git\rh850\src\app\gfx_apps\simple_draw\target\d1mx_mango_ghs
                         175 --Compile Date:  Tue Oct 16 19:48:56 2018
                         176 --Host OS:       Win32
                         177 --Version:       C-RH850 2014.1.7 RELEASE VERSION
                         178 --Release:       Compiler v2014.1.7
                         179 --Revision Date: Fri Sep 05 14:10:46 2014
                         180 --Release Date:  Fri Sep 05 14:44:23 2014
                         181 -- ecom  -g -w
                         182 
                         183 --1: /*
                         184 --2: ****************************************************************************
                         185 --3: PROJECT : JCUA driver
                         186 --4: FILE    : $Id: r_sys_jcua.c 13592 2017-05-31 08:57:47Z shinya.tomari $
                         187 --5: ============================================================================
                         188 --7: DESCRIPTION
                         189 --8: JCUA support functions for d1x
                         190 --9: ============================================================================
                         191 --10:                             C O P Y R I G H T
                         192 --11: ============================================================================
                         193 --12:                            Copyright (c) 2013 - 2015
                         194 --13:                                   by
                         195 --14:                        Renesas Electronics (Europe) GmbH.
                         196 --15:                            Arcadiastrasse 10
                         197 --16:                           D-40472 Duesseldorf
                         198 --17:                                Germany
                         199 --18:                           All rights reserved.
                         200 --19: ============================================================================
                         201 --20: Purpose: only for testing, not for mass production
                         202 --22: DISCLAIMER
                         203 --24: LICENSEE has read, understood and accepted the terms and conditions defined in
                         204 --25: the license agreement, especially the usage rights. In any case, it is
                         205 --26: LICENSEE's responsibility to make sure that any user of the software complies
                         206 --27: with the terms and conditions of the signed license agreement.
                         207 --29: SAMPLE CODE is not part of the licensed software, as such it must not be used in
                         208 --30: mass-production applications. It can only be used for evaluation and
                         209 --31: demonstration purposes at customers premises listed in the signed license
                         210 --32: agreement.
                         211 --34: ****************************************************************************
                         212 --35: */
                         213 --37: /***************************************************************************
                         214 --38:   Title: JCUA Driver support functions
                         215 --40:   Implementation of the JCUA driver support functions for the D1x device.
                         216 --41: */
                         217 --44: /***************************************************************************
                         218 --45:   Section: Includes
                         219 --46: */
                         220 --47: #include    "r_typedefs.h"
                         221 --48: #include    "r_jcua_api.h"
                         222 --49: #include    "r_jcua_sys.h"
                         223 --50: #include    "r_config_jcua.h"
                         224 --51: #include    "r_dev_api.h"
                         225 --52: #include    "r_tick_api.h"
                         226 --53: #include    "r_ostm_api.h"
                         227 --55: /***************************************************************************
                         228 --56:   Section: Local Defines
                         229 --57: */
                         230 --58: /***************************************************************************
                         231 --59:   Constant: LOC_DEV_INT_ENABLE
                         232 --61:   The offset value of the interrupt enable value.
                         233 --62: */

                                                                      Page 5
                                                              C:\Users\Frank\AppData\Local\Temp\gh_0000p6g1.si
                         234 --63: #define LOC_DEV_INT_ENABLE       (0x01u)
                         235 --65: /***************************************************************************
                         236 --66:   Constant: LOC_DEV_INT_DISABLE
                         237 --68:   The offset value of the interrupt disable value.
                         238 --69: */
                         239 --70: #define LOC_DEV_INT_DISABLE      (0x00u)
                         240 --73: /***************************************************************************
                         241 --74:   Constant: LOC_JCSWRST
                         242 --76:   The address of the JCSWRST register (JCUA Software reset register)
                         243 --77: */
                         244 --78: #define LOC_JCSWRST     (0xFFC06010u)
                         245 --80: /***************************************************************************
                         246 --81:   Constant: LOC_JCUA_JCUA0RES
                         247 --83:   A constant for bit mask value and offset value of JCUA0RES(JCSWRST.JCUA0RES)
                         248 --85:   LOC_JCUA_JCUA0RES_MASK  - Mask value.
                         249 --86:   LOC_JCUA_JCUA0RES_SHIFT - Offset value.
                         250 --87: */
                         251 --88: #define LOC_JCUA_JCUA0RES_MASK           (0x00000100u)
                         252 --89: #define LOC_JCUA_JCUA0RES_SHIFT          (8)
                         253 --91: /***************************************************************************
                         254 --92:   Constant: LOC_JCUA_RESET_WAIT_TIME_US
                         255 --94:   Wait time before JCSWRST.
                         256 --95: */
                         257 --96: #define LOC_JCUA_RESET_WAIT_TIME_US       30u
                         258 --99: /***************************************************************************
                         259 --100:   Constant: LOC_JCUA_BUS_RESET_TIMEOUT_MS
                         260 --102:   The timeout [in milliseconds] for JCUA bus reset.
                         261 --103:   (JCUA Software reset via JCSWRST register)
                         262 --104: */
                         263 --105: #define LOC_JCUA_BUS_RESET_TIMEOUT_MS     2u
                         264 --108: /***************************************************************************
                         265 --109:   Constant: 
                         266 --111:   LOC_USE_OSTM               - Timer select. (0: use TICK0(OSTM0)  1: use OSTM1)
                         267 --112:   LOC_OSTM_UNIT              - Use OSTM unit number.
                         268 --113:   LOC_JCUA_HEADER_TIMEOUT_US - Timeout value of Header part. (in usec)
                         269 --114:                                If timeout is not needed, please define as 0.
                         270 --115:   LOC_JCUA_DATA_TIMEOUT_US   - Timeout value of Image Data part. (in usec)
                         271 --116:                                If timeout is not needed, please define as 0.
                         272 --117: */
                         273 --119: #define LOC_USE_OSTM                     (1)
                         274 --120: #define LOC_OSTM_UNIT                    (1)
                         275 --121: #define LOC_JCUA_HEADER_TIMEOUT_US       (4000u)      /* 4 msec */
                         276 --122: #define LOC_JCUA_DATA_TIMEOUT_US         (0)          /* disable */
                         277 --124: /***************************************************************************
                         278 --125:   Section: Local Values
                         279 --126: */
                         280 --129: #if (LOC_USE_OSTM == 1)
                         281 --130: static uint32_t loc_TimerReached    = R_FALSE;
                         282 --131: static uint32_t loc_PauseCouter     = 0;
                         283 --132: static uint32_t loc_TiemOutCallback = R_FALSE;
                         284 --133: #endif
                         285 --135: /***************************************************************************
                         286 --136:   Section: local Functions
                         287 --137: */
                         288 --139: #if (LOC_USE_OSTM == 1)
                         289 --140: /***************************************************************************
                         290 --141:   Function: loc_OstmStop
                         291 --143:   Description:
                         292 --144:   This function stops OSTM driver.
                         293 --146:   Parameter:
                         294 --147:   Counter - Pointer to store the remain counter to reach timeout. 

                                                                      Page 6
                                                              C:\Users\Frank\AppData\Local\Temp\gh_0000p6g1.si
                         295 --149:   Return value:
                         296 --150:   See <r_jcua_Error_t>.
                         297 --151: */
                         298 --152: static r_jcua_Error_t loc_OstmStop(uint32_t* const Counter);
                         299 --153: static r_jcua_Error_t loc_OstmStop(uint32_t* const Counter)
                         300 	.text
                         301 ..bof.C.3A.5Cgit.5Crh850.5Csrc.5Capp.5Cgfx_apps.5Csimple_draw.5Ctarget.5Cd1mx_mango_ghs.5Cobj.5Cr_sys_jcua...43.3A.5Cgit.5Crh850.5Csrc.5Capp.5Cgfx_apps.5Csimple_draw.5Ctarget.5Cd1mx_mango_ghs..5BC5D028..0::
                         302 	.align	2
                         303 	.global	_loc_OstmStop..C.3A.5Cgit.5Crh850.5Csrc.5Capp.5Cgfx_apps.5Csimple_draw.5Ctarget.5Cd1mx_mango_ghs.5Cobj.5Cr_sys_jcua.
                         304 _loc_OstmStop..C.3A.5Cgit.5Crh850.5Csrc.5Capp.5Cgfx_apps.5Csimple_draw.5Ctarget.5Cd1mx_mango_ghs.5Cobj.5Cr_sys_jcua.:
                         305 _loc_OstmStop:
00000000 8007e110        306 	prepare	{r27,r28,r29,r31},0
00000004 06e0            307 	mov	r6,r28
                         308 --	    .bf
                         309 .LDW01:
                         310 --154: {
                         311 --155:     r_jcua_Error_t     error = R_JCUA_ERR_OK;
00000006 00ea            312 	mov	0,r29
                         313 --156:     r_ostm_Error_t     ostm_err;
                         314 --157:     
                         315 --158:     ostm_err = R_OSTM_Stop(LOC_OSTM_UNIT);
00000008 0132            316 	mov	1,r6
                         317 	jarl	_R_OSTM_Stop,lp
                         317 <EXPANSION BEGIN>
                         317 jarl22 _R_OSTM_Stop , lp 
0000000a 80ff0000*       317 <EXPANSION END>
0000000e 0ad8            318 	mov	r10,r27
                         319 --159:     if (ostm_err == R_OSTM_ERR_OK)
                         320 --line159
                         321 ..lin.C.3A.5Cgit.5Crh850.5Csrc.5Capp.5Cgfx_apps.5Csimple_draw.5Ctarget.5Cd1mx_mango_ghs.5Cobj.5Cr_sys_jcua.1::
                         322 .LDWlin1:
00000010 e0d9            323 	cmp	zero,r27
00000012 9a0d*           324 	bne	.L4
                         325 --160:     {
                         326 --161:         if (Counter != R_NULL)
                         327 --line161
                         328 ..lin.C.3A.5Cgit.5Crh850.5Csrc.5Capp.5Cgfx_apps.5Csimple_draw.5Ctarget.5Cd1mx_mango_ghs.5Cobj.5Cr_sys_jcua.2::
                         329 .LDWlin2:
00000014 e0e1            330 	cmp	zero,r28
00000016 820d*           331 	be	.L8
                         332 --162:         {
                         333 --163:             *Counter = R_OSTM_GetCounterValue(LOC_OSTM_UNIT);
                         334 --line163
                         335 ..lin.C.3A.5Cgit.5Crh850.5Csrc.5Capp.5Cgfx_apps.5Csimple_draw.5Ctarget.5Cd1mx_mango_ghs.5Cobj.5Cr_sys_jcua.3::
                         336 .LDWlin3:
00000018 0132            337 	mov	1,r6
                         338 	jarl	_R_OSTM_GetCounterValue,lp
                         338 <EXPANSION BEGIN>
                         338 jarl22 _R_OSTM_GetCounterValue , lp 
0000001a 80ff0000*       338 <EXPANSION END>
0000001e 7c570100        339 	st.w	r10,0[r28]
00000022 a505*           340 	br	.L8
                         341 .L4:
                         342 --164:         }
                         343 --165:     }
                         344 --166:     else
                         345 --167:     {
                         346 --168:         error = R_JCUA_ERR_TIMER_CTRL;
                         347 --line168
                         348 ..lin.C.3A.5Cgit.5Crh850.5Csrc.5Capp.5Cgfx_apps.5Csimple_draw.5Ctarget.5Cd1mx_mango_ghs.5Cobj.5Cr_sys_jcua.4::
                         349 .LDWlin4:

                                                                      Page 7
                                                              C:\Users\Frank\AppData\Local\Temp\gh_0000p6g1.si
00000024 09ea            350 	mov	9,r29
                         351 .L8:
                         352 --169:     }
                         353 --170:     return error;
00000026 1d50            354 	mov	r29,r10
                         355 --	    .ef
                         356 .LDW11:
00000028 4006ff10        357 	dispose	0,{r27,r28,r29,r31},[lp]
                         358 	.type	_loc_OstmStop,@function
                         359 	.size	_loc_OstmStop,.-_loc_OstmStop
                         360 	.type	_loc_OstmStop..C.3A.5Cgit.5Crh850.5Csrc.5Capp.5Cgfx_apps.5Csimple_draw.5Ctarget.5Cd1mx_mango_ghs.5Cobj.5Cr_sys_jcua.,@function
                         361 	.size	_loc_OstmStop..C.3A.5Cgit.5Crh850.5Csrc.5Capp.5Cgfx_apps.5Csimple_draw.5Ctarget.5Cd1mx_mango_ghs.5Cobj.5Cr_sys_jcua.,.-_loc_OstmStop..C.3A.5Cgit.5Crh850.5Csrc.5Capp.5Cgfx_apps.5Csimple_draw.5Ctarget.5Cd1mx_mango_ghs.5Cobj.5Cr_sys_jcua.
                         362 	.align	2
                         363 .LDW21:
                         364 --_error	r29	local
                         365 --_ostm_err	r27	local
                         366 
                         367 --_Counter	r28	param
                         368 
                         369 	.section ".bss","awb"
                         370 .L54:
                         371 	.type	.L54,@object
                         372 	.size	.L54,0
                         373 	.data
                         374 	.text
                         375 
                         376 --171: }
                         377 
                         378 --173: /***************************************************************************
                         379 --174:   Function: loc_OstmCallback
                         380 --176:   Description:
                         381 --177:   This function is called when the setting time has arrived.
                         382 --178:   It will be called from ISR.
                         383 --180:   Parameter:
                         384 --181:   None.
                         385 --183:   Return value:
                         386 --184:   None.
                         387 --185: */
                         388 --186: static void loc_OstmCallback(void);
                         389 --187: static void loc_OstmCallback(void)
                         390 	.align	2
                         391 	.align	2
                         392 	.align	2
                         393 	.global	_loc_OstmCallback..C.3A.5Cgit.5Crh850.5Csrc.5Capp.5Cgfx_apps.5Csimple_draw.5Ctarget.5Cd1mx_mango_ghs.5Cobj.5Cr_sys_jcua.
                         394 _loc_OstmCallback..C.3A.5Cgit.5Crh850.5Csrc.5Capp.5Cgfx_apps.5Csimple_draw.5Ctarget.5Cd1mx_mango_ghs.5Cobj.5Cr_sys_jcua.:
                         395 _loc_OstmCallback:
0000002c 8007e100        396 	prepare	{r28,r29,r31},0
00000030 3d0600000000*   397 	mov	.L134,r29
00000036 3de60800        398 	movea	8,r29,r28
                         399 --	    .bf
                         400 .LDW31:
                         401 --188: {
                         402 --189:     loc_TimerReached = R_TRUE;
0000003a 010a            403 	mov	1,r1
0000003c 7d0f0100        404 	st.w	r1,0[r29]
                         405 --190:     loc_OstmStop(R_NULL);
00000040 0032            406 	mov	0,r6
                         407 	jarl	_loc_OstmStop,lp
                         407 <EXPANSION BEGIN>
                         407 jarl22 _loc_OstmStop , lp 
00000042 bfffbeff*       407 <EXPANSION END>

                                                                      Page 8
                                                              C:\Users\Frank\AppData\Local\Temp\gh_0000p6g1.si
                         408 --191:     
                         409 --192:     if (loc_TiemOutCallback == R_TRUE)
                         410 --line192
                         411 ..lin.C.3A.5Cgit.5Crh850.5Csrc.5Capp.5Cgfx_apps.5Csimple_draw.5Ctarget.5Cd1mx_mango_ghs.5Cobj.5Cr_sys_jcua.5::
                         412 .LDWlin5:
00000046 3d0f0900        413 	ld.w	8[r29],r1
0000004a 610a            414 	cmp	1,r1
0000004c ba0d*           415 	bne	.L86
                         416 --193:     {
                         417 --194:         /* Emergency Stop */
                         418 --195:         R_JCUA_WRITE32(LOC_JCSWRST, LOC_JCUA_JCUA0RES_MASK);
                         419 --line195
                         420 ..lin.C.3A.5Cgit.5Crh850.5Csrc.5Capp.5Cgfx_apps.5Csimple_draw.5Ctarget.5Cd1mx_mango_ghs.5Cobj.5Cr_sys_jcua.6::
                         421 .LDWlin6:
0000004e 200e0001        422 	movea	256,zero,r1
00000052 80070f09c080    423 	st.w	r1,4290797584[zero]
                         424 --196:         
                         425 --197:         R_JCUA_IsrTimeOut(0);
00000058 0032            426 	mov	0,r6
                         427 	jarl	_R_JCUA_IsrTimeOut,lp
                         427 <EXPANSION BEGIN>
                         427 jarl22 _R_JCUA_IsrTimeOut , lp 
0000005a 80ff0000*       427 <EXPANSION END>
                         428 --198:         
                         429 --199:         loc_TiemOutCallback = R_FALSE;
                         430 --line199
                         431 ..lin.C.3A.5Cgit.5Crh850.5Csrc.5Capp.5Cgfx_apps.5Csimple_draw.5Ctarget.5Cd1mx_mango_ghs.5Cobj.5Cr_sys_jcua.7::
                         432 .LDWlin7:
0000005e 7d070900        433 	st.w	zero,8[r29]
                         434 .L86:
                         435 --200:     }
                         436 --201: }
                         437 --	    .ef
                         438 .LDW41:
00000062 4006ff00        439 	dispose	0,{r28,r29,r31},[lp]
                         440 	.type	_loc_OstmCallback,@function
                         441 	.size	_loc_OstmCallback,.-_loc_OstmCallback
                         442 	.type	_loc_OstmCallback..C.3A.5Cgit.5Crh850.5Csrc.5Capp.5Cgfx_apps.5Csimple_draw.5Ctarget.5Cd1mx_mango_ghs.5Cobj.5Cr_sys_jcua.,@function
                         443 	.size	_loc_OstmCallback..C.3A.5Cgit.5Crh850.5Csrc.5Capp.5Cgfx_apps.5Csimple_draw.5Ctarget.5Cd1mx_mango_ghs.5Cobj.5Cr_sys_jcua.,.-_loc_OstmCallback..C.3A.5Cgit.5Crh850.5Csrc.5Capp.5Cgfx_apps.5Csimple_draw.5Ctarget.5Cd1mx_mango_ghs.5Cobj.5Cr_sys_jcua.
                         444 	.align	2
                         445 .LDW51:
                         446 
                         447 	.data
                         448 	.align	4
                         449 .L134:
                         450 	.type	.L134,@object
                         451 	.size	.L134,0
                         452 	.global	_loc_TimerReached..C.3A.5Cgit.5Crh850.5Csrc.5Capp.5Cgfx_apps.5Csimple_draw.5Ctarget.5Cd1mx_mango_ghs.5Cobj.5Cr_sys_jcua.
                         453 _loc_TimerReached..C.3A.5Cgit.5Crh850.5Csrc.5Capp.5Cgfx_apps.5Csimple_draw.5Ctarget.5Cd1mx_mango_ghs.5Cobj.5Cr_sys_jcua.:
00000000 00000000        454 _loc_TimerReached:	.byte	0,0,0,0
                         455 	.type	_loc_TimerReached..C.3A.5Cgit.5Crh850.5Csrc.5Capp.5Cgfx_apps.5Csimple_draw.5Ctarget.5Cd1mx_mango_ghs.5Cobj.5Cr_sys_jcua.,@object
                         456 	.size	_loc_TimerReached..C.3A.5Cgit.5Crh850.5Csrc.5Capp.5Cgfx_apps.5Csimple_draw.5Ctarget.5Cd1mx_mango_ghs.5Cobj.5Cr_sys_jcua.,4
                         457 	.type	_loc_TimerReached,@object
                         458 	.size	_loc_TimerReached,4
                         459 	.global	_loc_PauseCouter..C.3A.5Cgit.5Crh850.5Csrc.5Capp.5Cgfx_apps.5Csimple_draw.5Ctarget.5Cd1mx_mango_ghs.5Cobj.5Cr_sys_jcua.
                         460 _loc_PauseCouter..C.3A.5Cgit.5Crh850.5Csrc.5Capp.5Cgfx_apps.5Csimple_draw.5Ctarget.5Cd1mx_mango_ghs.5Cobj.5Cr_sys_jcua.:
00000004 00000000        461 _loc_PauseCouter:	.byte	0,0,0,0
                         462 	.type	_loc_PauseCouter..C.3A.5Cgit.5Crh850.5Csrc.5Capp.5Cgfx_apps.5Csimple_draw.5Ctarget.5Cd1mx_mango_ghs.5Cobj.5Cr_sys_jcua.,@object
                         463 	.size	_loc_PauseCouter..C.3A.5Cgit.5Crh850.5Csrc.5Capp.5Cgfx_apps.5Csimple_draw.5Ctarget.5Cd1mx_mango_ghs.5Cobj.5Cr_sys_jcua.,4
                         464 	.type	_loc_PauseCouter,@object
                         465 	.size	_loc_PauseCouter,4

                                                                      Page 9
                                                              C:\Users\Frank\AppData\Local\Temp\gh_0000p6g1.si
                         466 	.global	_loc_TiemOutCallback..C.3A.5Cgit.5Crh850.5Csrc.5Capp.5Cgfx_apps.5Csimple_draw.5Ctarget.5Cd1mx_mango_ghs.5Cobj.5Cr_sys_jcua.
                         467 _loc_TiemOutCallback..C.3A.5Cgit.5Crh850.5Csrc.5Capp.5Cgfx_apps.5Csimple_draw.5Ctarget.5Cd1mx_mango_ghs.5Cobj.5Cr_sys_jcua.:
00000008 00000000        468 _loc_TiemOutCallback:	.byte	0,0,0,0
                         469 	.type	_loc_TiemOutCallback..C.3A.5Cgit.5Crh850.5Csrc.5Capp.5Cgfx_apps.5Csimple_draw.5Ctarget.5Cd1mx_mango_ghs.5Cobj.5Cr_sys_jcua.,@object
                         470 	.size	_loc_TiemOutCallback..C.3A.5Cgit.5Crh850.5Csrc.5Capp.5Cgfx_apps.5Csimple_draw.5Ctarget.5Cd1mx_mango_ghs.5Cobj.5Cr_sys_jcua.,4
                         471 	.type	_loc_TiemOutCallback,@object
                         472 	.size	_loc_TiemOutCallback,4
                         473 	.text
                         474 
                         475 
                         476 --203: /***************************************************************************
                         477 --204:   Function: loc_OstmInit
                         478 --206:   Description:
                         479 --207:   This function initializes OSTM driver.
                         480 --209:   Parameter:
                         481 --210:   None.
                         482 --212:   Return value:
                         483 --213:   See <r_jcua_Error_t>.
                         484 --214: */
                         485 --215: static r_jcua_Error_t loc_OstmInit(void);
                         486 --216: static r_jcua_Error_t loc_OstmInit(void)
                         487 	.align	2
                         488 	.align	2
                         489 	.global	_loc_OstmInit..C.3A.5Cgit.5Crh850.5Csrc.5Capp.5Cgfx_apps.5Csimple_draw.5Ctarget.5Cd1mx_mango_ghs.5Cobj.5Cr_sys_jcua.
                         490 _loc_OstmInit..C.3A.5Cgit.5Crh850.5Csrc.5Capp.5Cgfx_apps.5Csimple_draw.5Ctarget.5Cd1mx_mango_ghs.5Cobj.5Cr_sys_jcua.:
                         491 _loc_OstmInit:
00000066 8607e100        492 	prepare	{r28,r29,r31},3
                         493 --	    .bf
                         494 .LDW61:
                         495 --217: {
                         496 --218:     r_jcua_Error_t     error = R_JCUA_ERR_OK;
0000006a 00e2            497 	mov	0,r28
                         498 --219:     r_ostm_Error_t     ostm_err;
                         499 --220:     r_ostm_Parameter_t ostm_prm;
                         500 --221:     
                         501 --222:     /* Init OS timer */
                         502 --223:     ostm_prm.Mode   = R_OSTM_INTERVAL; 
0000006c 63070100        503 	st.w	zero,0[sp]
                         504 --224:     ostm_prm.CmpVal = 0;
00000070 63070500        505 	st.w	zero,4[sp]
                         506 --225:     ostm_prm.IntCtl = R_OSTM_START_INT_DISABLE;
00000074 63070900        507 	st.w	zero,8[sp]
                         508 --226:     
                         509 --227:     ostm_err = R_OSTM_Init(LOC_OSTM_UNIT, &ostm_prm);
00000078 0132            510 	mov	1,r6
0000007a 233e0000        511 	movea	0,sp,r7
                         512 	jarl	_R_OSTM_Init,lp
                         512 <EXPANSION BEGIN>
                         512 jarl22 _R_OSTM_Init , lp 
0000007e 80ff0000*       512 <EXPANSION END>
00000082 0ae8            513 	mov	r10,r29
                         514 --228:     if (ostm_err == R_OSTM_ERR_OK)
                         515 --line228
                         516 ..lin.C.3A.5Cgit.5Crh850.5Csrc.5Capp.5Cgfx_apps.5Csimple_draw.5Ctarget.5Cd1mx_mango_ghs.5Cobj.5Cr_sys_jcua.8::
                         517 .LDWlin8:
00000084 e0e9            518 	cmp	zero,r29
00000086 8a15*           519 	bne	.L166
                         520 --229:     {
                         521 --230:         /* Set callback */
                         522 --231:         ostm_err = R_OSTM_SetIsrCallback(LOC_OSTM_UNIT, R_OSTM_INT_TINT, &loc_OstmCallback);
                         523 --line231

                                                                      Page 10
                                                              C:\Users\Frank\AppData\Local\Temp\gh_0000p6g1.si
                         524 ..lin.C.3A.5Cgit.5Crh850.5Csrc.5Capp.5Cgfx_apps.5Csimple_draw.5Ctarget.5Cd1mx_mango_ghs.5Cobj.5Cr_sys_jcua.9::
                         525 .LDWlin9:
00000088 280600000000*   526 	mov	_loc_OstmCallback,r8
0000008e 0132            527 	mov	1,r6
00000090 003a            528 	mov	0,r7
                         529 	jarl	_R_OSTM_SetIsrCallback,lp
                         529 <EXPANSION BEGIN>
                         529 jarl22 _R_OSTM_SetIsrCallback , lp 
00000092 80ff0000*       529 <EXPANSION END>
00000096 0ae8            530 	mov	r10,r29
                         531 --232:         if (ostm_err == R_OSTM_ERR_OK)
                         532 --line232
                         533 ..lin.C.3A.5Cgit.5Crh850.5Csrc.5Capp.5Cgfx_apps.5Csimple_draw.5Ctarget.5Cd1mx_mango_ghs.5Cobj.5Cr_sys_jcua.10::
                         534 .LDWlin10:
00000098 e0e9            535 	cmp	zero,r29
0000009a ea05*           536 	bne	.L166
                         537 --233:         {
                         538 --234:             ostm_err = R_OSTM_EnableInt(LOC_OSTM_UNIT, R_OSTM_INT_TINT);
                         539 --line234
                         540 ..lin.C.3A.5Cgit.5Crh850.5Csrc.5Capp.5Cgfx_apps.5Csimple_draw.5Ctarget.5Cd1mx_mango_ghs.5Cobj.5Cr_sys_jcua.11::
                         541 .LDWlin11:
0000009c 0132            542 	mov	1,r6
0000009e 003a            543 	mov	0,r7
                         544 	jarl	_R_OSTM_EnableInt,lp
                         544 <EXPANSION BEGIN>
                         544 jarl22 _R_OSTM_EnableInt , lp 
000000a0 80ff0000*       544 <EXPANSION END>
000000a4 0ae8            545 	mov	r10,r29
                         546 .L166:
                         547 --235:         }
                         548 --236:     }
                         549 --237:     if (ostm_err != R_OSTM_ERR_OK)
                         550 --line237
                         551 ..lin.C.3A.5Cgit.5Crh850.5Csrc.5Capp.5Cgfx_apps.5Csimple_draw.5Ctarget.5Cd1mx_mango_ghs.5Cobj.5Cr_sys_jcua.12::
                         552 .LDWlin12:
000000a6 e0e9            553 	cmp	zero,r29
000000a8 a205*           554 	be	.L170
                         555 --238:     {
                         556 --239:         error = R_JCUA_ERR_TIMER_CTRL;
                         557 --line239
                         558 ..lin.C.3A.5Cgit.5Crh850.5Csrc.5Capp.5Cgfx_apps.5Csimple_draw.5Ctarget.5Cd1mx_mango_ghs.5Cobj.5Cr_sys_jcua.13::
                         559 .LDWlin13:
000000aa 09e2            560 	mov	9,r28
                         561 .L170:
                         562 --240:     }
                         563 --241:     return error;
000000ac 1c50            564 	mov	r28,r10
                         565 --	    .ef
                         566 .LDW71:
000000ae 4606ff00        567 	dispose	3,{r28,r29,r31},[lp]
                         568 	.type	_loc_OstmInit,@function
                         569 	.size	_loc_OstmInit,.-_loc_OstmInit
                         570 	.type	_loc_OstmInit..C.3A.5Cgit.5Crh850.5Csrc.5Capp.5Cgfx_apps.5Csimple_draw.5Ctarget.5Cd1mx_mango_ghs.5Cobj.5Cr_sys_jcua.,@function
                         571 	.size	_loc_OstmInit..C.3A.5Cgit.5Crh850.5Csrc.5Capp.5Cgfx_apps.5Csimple_draw.5Ctarget.5Cd1mx_mango_ghs.5Cobj.5Cr_sys_jcua.,.-_loc_OstmInit..C.3A.5Cgit.5Crh850.5Csrc.5Capp.5Cgfx_apps.5Csimple_draw.5Ctarget.5Cd1mx_mango_ghs.5Cobj.5Cr_sys_jcua.
                         572 	.align	2
                         573 .LDW81:
                         574 --_error	r28	local
                         575 --_ostm_err	r29	local
                         576 --_ostm_prm	0[sp]	local
                         577 
                         578 	.section ".bss","awb"

                                                                      Page 11
                                                              C:\Users\Frank\AppData\Local\Temp\gh_0000p6g1.si
                         579 .L234:
                         580 	.type	.L234,@object
                         581 	.size	.L234,0
                         582 	.data
                         583 	.text
                         584 
                         585 --242: }
                         586 
                         587 --244: /***************************************************************************
                         588 --245:   Function: loc_OstmDeInit
                         589 --247:   Description:
                         590 --248:   This function deinitializes OSTM driver.
                         591 --250:   Parameter:
                         592 --251:   None.
                         593 --253:   Return value:
                         594 --254:   See <r_jcua_Error_t>.
                         595 --255: */
                         596 --256: static r_jcua_Error_t loc_OstmDeInit(void);
                         597 --257: static r_jcua_Error_t loc_OstmDeInit(void)
                         598 	.align	2
                         599 	.align	2
                         600 	.global	_loc_OstmDeInit..C.3A.5Cgit.5Crh850.5Csrc.5Capp.5Cgfx_apps.5Csimple_draw.5Ctarget.5Cd1mx_mango_ghs.5Cobj.5Cr_sys_jcua.
                         601 _loc_OstmDeInit..C.3A.5Cgit.5Crh850.5Csrc.5Capp.5Cgfx_apps.5Csimple_draw.5Ctarget.5Cd1mx_mango_ghs.5Cobj.5Cr_sys_jcua.:
                         602 _loc_OstmDeInit:
000000b2 8007e100        603 	prepare	{r28,r29,r31},0
                         604 --	    .bf
                         605 .LDW91:
                         606 --258: {
                         607 --259:     r_jcua_Error_t     error = R_JCUA_ERR_OK;
000000b6 00e2            608 	mov	0,r28
                         609 --260:     r_ostm_Error_t     ostm_err;
                         610 --261:     
                         611 --262:     ostm_err = R_OSTM_DisableInt(LOC_OSTM_UNIT, R_OSTM_INT_TINT);
000000b8 0132            612 	mov	1,r6
000000ba 003a            613 	mov	0,r7
                         614 	jarl	_R_OSTM_DisableInt,lp
                         614 <EXPANSION BEGIN>
                         614 jarl22 _R_OSTM_DisableInt , lp 
000000bc 80ff0000*       614 <EXPANSION END>
000000c0 0ae8            615 	mov	r10,r29
                         616 --263:     if (ostm_err == R_OSTM_ERR_OK)
                         617 --line263
                         618 ..lin.C.3A.5Cgit.5Crh850.5Csrc.5Capp.5Cgfx_apps.5Csimple_draw.5Ctarget.5Cd1mx_mango_ghs.5Cobj.5Cr_sys_jcua.14::
                         619 .LDWlin14:
000000c2 e0e9            620 	cmp	zero,r29
000000c4 da05*           621 	bne	.L281
                         622 --264:     {
                         623 --265:         /* Deinit OS timer */
                         624 --266:         ostm_err = R_OSTM_DeInit(LOC_OSTM_UNIT);
                         625 --line266
                         626 ..lin.C.3A.5Cgit.5Crh850.5Csrc.5Capp.5Cgfx_apps.5Csimple_draw.5Ctarget.5Cd1mx_mango_ghs.5Cobj.5Cr_sys_jcua.15::
                         627 .LDWlin15:
000000c6 0132            628 	mov	1,r6
                         629 	jarl	_R_OSTM_DeInit,lp
                         629 <EXPANSION BEGIN>
                         629 jarl22 _R_OSTM_DeInit , lp 
000000c8 80ff0000*       629 <EXPANSION END>
000000cc 0ae8            630 	mov	r10,r29
                         631 .L281:
                         632 --267:     }
                         633 --268:     if (ostm_err != R_OSTM_ERR_OK)

                                                                      Page 12
                                                              C:\Users\Frank\AppData\Local\Temp\gh_0000p6g1.si
                         634 --line268
                         635 ..lin.C.3A.5Cgit.5Crh850.5Csrc.5Capp.5Cgfx_apps.5Csimple_draw.5Ctarget.5Cd1mx_mango_ghs.5Cobj.5Cr_sys_jcua.16::
                         636 .LDWlin16:
000000ce e0e9            637 	cmp	zero,r29
000000d0 a205*           638 	be	.L283
                         639 --269:     {
                         640 --270:         error = R_JCUA_ERR_TIMER_CTRL;
                         641 --line270
                         642 ..lin.C.3A.5Cgit.5Crh850.5Csrc.5Capp.5Cgfx_apps.5Csimple_draw.5Ctarget.5Cd1mx_mango_ghs.5Cobj.5Cr_sys_jcua.17::
                         643 .LDWlin17:
000000d2 09e2            644 	mov	9,r28
                         645 .L283:
                         646 --271:     }
                         647 --272:     return error;
000000d4 1c50            648 	mov	r28,r10
                         649 --	    .ef
                         650 .LDW02:
000000d6 4006ff00        651 	dispose	0,{r28,r29,r31},[lp]
                         652 	.type	_loc_OstmDeInit,@function
                         653 	.size	_loc_OstmDeInit,.-_loc_OstmDeInit
                         654 	.type	_loc_OstmDeInit..C.3A.5Cgit.5Crh850.5Csrc.5Capp.5Cgfx_apps.5Csimple_draw.5Ctarget.5Cd1mx_mango_ghs.5Cobj.5Cr_sys_jcua.,@function
                         655 	.size	_loc_OstmDeInit..C.3A.5Cgit.5Crh850.5Csrc.5Capp.5Cgfx_apps.5Csimple_draw.5Ctarget.5Cd1mx_mango_ghs.5Cobj.5Cr_sys_jcua.,.-_loc_OstmDeInit..C.3A.5Cgit.5Crh850.5Csrc.5Capp.5Cgfx_apps.5Csimple_draw.5Ctarget.5Cd1mx_mango_ghs.5Cobj.5Cr_sys_jcua.
                         656 	.align	2
                         657 .LDW12:
                         658 --_error	r28	local
                         659 --_ostm_err	r29	local
                         660 
                         661 	.section ".bss","awb"
                         662 .L326:
                         663 	.type	.L326,@object
                         664 	.size	.L326,0
                         665 	.data
                         666 	.text
                         667 
                         668 --273: }
                         669 
                         670 --275: /***************************************************************************
                         671 --276:   Function: loc_OstmStart
                         672 --278:   Description:
                         673 --279:   This function starts OSTM driver.
                         674 --280:   If specified time or specified count is passed, <loc_OstmCallback> will called.
                         675 --282:   Parameter:
                         676 --283:   Usec  - Micro second time. If Usec != 0, Usec is used.
                         677 --284:   Count - Count by OSTM clock frequency. If Usec == 0, Count is used.
                         678 --286:   Return value:
                         679 --287:   See <r_jcua_Error_t>.
                         680 --288: */
                         681 --289: static r_jcua_Error_t loc_OstmStart(const uint32_t Usec, const uint32_t Count);
                         682 --290: static r_jcua_Error_t loc_OstmStart(const uint32_t Usec, const uint32_t Count)
                         683 	.align	2
                         684 	.align	2
                         685 	.global	_loc_OstmStart..C.3A.5Cgit.5Crh850.5Csrc.5Capp.5Cgfx_apps.5Csimple_draw.5Ctarget.5Cd1mx_mango_ghs.5Cobj.5Cr_sys_jcua.
                         686 _loc_OstmStart..C.3A.5Cgit.5Crh850.5Csrc.5Capp.5Cgfx_apps.5Csimple_draw.5Ctarget.5Cd1mx_mango_ghs.5Cobj.5Cr_sys_jcua.:
                         687 _loc_OstmStart:
000000da 8407e170        688 	prepare	{r25,r26,r27,r28,r29,r31},2
000000de 633f0500        689 	st.w	r7,4[sp]
000000e2 06c8            690 	mov	r6,r25
                         691 --	    .bf
                         692 .LDW22:
                         693 --291: {
                         694 --292:     r_jcua_Error_t     error = R_JCUA_ERR_OK;

                                                                      Page 13
                                                              C:\Users\Frank\AppData\Local\Temp\gh_0000p6g1.si
000000e4 00ea            695 	mov	0,r29
                         696 --293:     r_ostm_Error_t     ostm_err;
                         697 --294:     uint32_t           cmp_val;
                         698 --295:     uint32_t           ostm_clk;
                         699 --296:     uint32_t           ostm_mhz;
                         700 --297:     
                         701 --298:     /* Get clock */
                         702 --299:     ostm_clk = R_OSTM_GetClock(LOC_OSTM_UNIT);
000000e6 0132            703 	mov	1,r6
                         704 	jarl	_R_OSTM_GetClock,lp
                         704 <EXPANSION BEGIN>
                         704 jarl22 _R_OSTM_GetClock , lp 
000000e8 80ff0000*       704 <EXPANSION END>
000000ec 63570100        705 	st.w	r10,0[sp]
                         706 --300:     ostm_mhz = ostm_clk / 1000 / 1000; /* Hz->MHz */
                         707 --line300
                         708 ..lin.C.3A.5Cgit.5Crh850.5Csrc.5Capp.5Cgfx_apps.5Csimple_draw.5Ctarget.5Cd1mx_mango_ghs.5Cobj.5Cr_sys_jcua.18::
                         709 .LDWlin18:
000000f0 235f0100        710 	ld.w	0[sp],r11
000000f4 2c06d34d6210    711 	mov	274877907,r12
000000fa eb67226a        712 	mulu	r11,r12,r13
000000fe 2c06d34d6210    713 	mov	274877907,r12
00000104 0d08            714 	mov	r13,r1
00000106 860a            715 	shr	6,r1
00000108 e167226a        716 	mulu	r1,r12,r13
0000010c 0dd8            717 	mov	r13,r27
0000010e 86da            718 	shr	6,r27
                         719 --301:     if (ostm_mhz != 0)
00000110 e0d9            720 	cmp	zero,r27
00000112 c225*           721 	be	.L358
                         722 --302:     {
                         723 --303:         /* Set Compare value */
                         724 --304:         if (Usec != 0)
                         725 --line304
                         726 ..lin.C.3A.5Cgit.5Crh850.5Csrc.5Capp.5Cgfx_apps.5Csimple_draw.5Ctarget.5Cd1mx_mango_ghs.5Cobj.5Cr_sys_jcua.19::
                         727 .LDWlin19:
00000114 e0c9            728 	cmp	zero,r25
00000116 e205*           729 	be	.L360
                         730 --305:         {
                         731 --306:             cmp_val = ostm_mhz * Usec;
                         732 --line306
                         733 ..lin.C.3A.5Cgit.5Crh850.5Csrc.5Capp.5Cgfx_apps.5Csimple_draw.5Ctarget.5Cd1mx_mango_ghs.5Cobj.5Cr_sys_jcua.20::
                         734 .LDWlin20:
00000118 1b08            735 	mov	r27,r1
0000011a f90f2202        736 	mulu	r25,r1,zero
0000011e 01e0            737 	mov	r1,r28
00000120 950d*           738 	br	.L362
                         739 .L360:
                         740 --307:         }
                         741 --308:         else if (Count != 0)
                         742 --line308
                         743 ..lin.C.3A.5Cgit.5Crh850.5Csrc.5Capp.5Cgfx_apps.5Csimple_draw.5Ctarget.5Cd1mx_mango_ghs.5Cobj.5Cr_sys_jcua.21::
                         744 .LDWlin21:
00000122 235f0500        745 	ld.w	4[sp],r11
00000126 e059            746 	cmp	zero,r11
00000128 c205*           747 	be	.L363
                         748 --309:         {
                         749 --310:             cmp_val = Count;
                         750 --line310
                         751 ..lin.C.3A.5Cgit.5Crh850.5Csrc.5Capp.5Cgfx_apps.5Csimple_draw.5Ctarget.5Cd1mx_mango_ghs.5Cobj.5Cr_sys_jcua.22::
                         752 .LDWlin22:

                                                                      Page 14
                                                              C:\Users\Frank\AppData\Local\Temp\gh_0000p6g1.si
0000012a 23e70500        753 	ld.w	4[sp],r28
0000012e a505*           754 	br	.L362
                         755 .L363:
                         756 --311:         }
                         757 --312:         else
                         758 --313:         {
                         759 --314:             cmp_val = 1;
                         760 --line314
                         761 ..lin.C.3A.5Cgit.5Crh850.5Csrc.5Capp.5Cgfx_apps.5Csimple_draw.5Ctarget.5Cd1mx_mango_ghs.5Cobj.5Cr_sys_jcua.23::
                         762 .LDWlin23:
00000130 01e2            763 	mov	1,r28
                         764 .L362:
                         765 --315:         }
                         766 --316:         ostm_err = R_OSTM_SetCmp(LOC_OSTM_UNIT, cmp_val);
00000132 1c38            767 	mov	r28,r7
00000134 0132            768 	mov	1,r6
                         769 	jarl	_R_OSTM_SetCmp,lp
                         769 <EXPANSION BEGIN>
                         769 jarl22 _R_OSTM_SetCmp , lp 
00000136 80ff0000*       769 <EXPANSION END>
0000013a 0ad0            770 	mov	r10,r26
                         771 --317:         if (ostm_err == R_OSTM_ERR_OK)
                         772 --line317
                         773 ..lin.C.3A.5Cgit.5Crh850.5Csrc.5Capp.5Cgfx_apps.5Csimple_draw.5Ctarget.5Cd1mx_mango_ghs.5Cobj.5Cr_sys_jcua.24::
                         774 .LDWlin24:
0000013c e0d1            775 	cmp	zero,r26
0000013e aa0d*           776 	bne	.L366
                         777 --318:         {
                         778 --319:             /* Timer start */
                         779 --320:             loc_TimerReached = R_FALSE;
                         780 --line320
                         781 ..lin.C.3A.5Cgit.5Crh850.5Csrc.5Capp.5Cgfx_apps.5Csimple_draw.5Ctarget.5Cd1mx_mango_ghs.5Cobj.5Cr_sys_jcua.25::
                         782 .LDWlin25:
00000140 2b0600000000*   783 	mov	_loc_TimerReached,r11
00000146 6b070100        784 	st.w	zero,0[r11]
                         785 --321:             ostm_err = R_OSTM_Start(LOC_OSTM_UNIT);
0000014a 0132            786 	mov	1,r6
                         787 	jarl	_R_OSTM_Start,lp
                         787 <EXPANSION BEGIN>
                         787 jarl22 _R_OSTM_Start , lp 
0000014c 80ff0000*       787 <EXPANSION END>
00000150 0ad0            788 	mov	r10,r26
                         789 .L366:
                         790 --322:         }
                         791 --323:         if (ostm_err != R_OSTM_ERR_OK)
                         792 --line323
                         793 ..lin.C.3A.5Cgit.5Crh850.5Csrc.5Capp.5Cgfx_apps.5Csimple_draw.5Ctarget.5Cd1mx_mango_ghs.5Cobj.5Cr_sys_jcua.26::
                         794 .LDWlin26:
00000152 e0d1            795 	cmp	zero,r26
00000154 c205*           796 	be	.L370
                         797 --324:         {
                         798 --325:             error = R_JCUA_ERR_TIMER_CTRL;
                         799 --line325
                         800 ..lin.C.3A.5Cgit.5Crh850.5Csrc.5Capp.5Cgfx_apps.5Csimple_draw.5Ctarget.5Cd1mx_mango_ghs.5Cobj.5Cr_sys_jcua.27::
                         801 .LDWlin27:
00000156 09ea            802 	mov	9,r29
00000158 a505*           803 	br	.L370
                         804 .L358:
                         805 --326:         }
                         806 --327:     }
                         807 --328:     else

                                                                      Page 15
                                                              C:\Users\Frank\AppData\Local\Temp\gh_0000p6g1.si
                         808 --329:     {
                         809 --330:         error = R_JCUA_ERR_TIMER_CTRL;
                         810 --line330
                         811 ..lin.C.3A.5Cgit.5Crh850.5Csrc.5Capp.5Cgfx_apps.5Csimple_draw.5Ctarget.5Cd1mx_mango_ghs.5Cobj.5Cr_sys_jcua.28::
                         812 .LDWlin28:
0000015a 09ea            813 	mov	9,r29
                         814 .L370:
                         815 --331:     }
                         816 --332:     return error;
0000015c 1d50            817 	mov	r29,r10
                         818 --	    .ef
                         819 .LDW32:
0000015e 4406ff70        820 	dispose	2,{r25,r26,r27,r28,r29,r31},[lp]
                         821 	.type	_loc_OstmStart,@function
                         822 	.size	_loc_OstmStart,.-_loc_OstmStart
                         823 	.type	_loc_OstmStart..C.3A.5Cgit.5Crh850.5Csrc.5Capp.5Cgfx_apps.5Csimple_draw.5Ctarget.5Cd1mx_mango_ghs.5Cobj.5Cr_sys_jcua.,@function
                         824 	.size	_loc_OstmStart..C.3A.5Cgit.5Crh850.5Csrc.5Capp.5Cgfx_apps.5Csimple_draw.5Ctarget.5Cd1mx_mango_ghs.5Cobj.5Cr_sys_jcua.,.-_loc_OstmStart..C.3A.5Cgit.5Crh850.5Csrc.5Capp.5Cgfx_apps.5Csimple_draw.5Ctarget.5Cd1mx_mango_ghs.5Cobj.5Cr_sys_jcua.
                         825 	.align	2
                         826 .LDW42:
                         827 --_error	r29	local
                         828 --_ostm_err	r26	local
                         829 --_cmp_val	r28	local
                         830 --_ostm_clk	0[sp]	local
                         831 --_ostm_mhz	r27	local
                         832 
                         833 --_Usec	r25	param
                         834 --_Count	4[sp]	param
                         835 
                         836 	.section ".bss","awb"
                         837 .L462:
                         838 	.type	.L462,@object
                         839 	.size	.L462,0
                         840 	.data
                         841 	.text
                         842 
                         843 --333: }
                         844 
                         845 --334: #endif /* LOC_USE_OSTM */
                         846 --337: /***************************************************************************
                         847 --338:   Section: JCUA Driver Support Functions
                         848 --339: */
                         849 --342: /***************************************************************************
                         850 --343:   Group: JCUA Basic interface functions
                         851 --344: */
                         852 --346: /***************************************************************************
                         853 --347:   Function: R_JCUA_Sys_Init
                         854 --349:   see: <r_jcua_sys.h>
                         855 --350: */
                         856 --352: r_jcua_Error_t R_JCUA_Sys_Init(const uint32_t Unit)
                         857 	.align	2
                         858 	.align	2
                         859 	.global	_R_JCUA_Sys_Init
                         860 _R_JCUA_Sys_Init:
00000162 8007e170        861 	prepare	{r25,r26,r27,r28,r29,r31},0
00000166 3d0600000000*   862 	mov	_loc_TimerReached,r29
0000016c 06d0            863 	mov	r6,r26
0000016e 1dc8            864 	mov	r29,r25
                         865 --	    .bf
                         866 .LDW52:
                         867 --353: {
                         868 --354:     r_jcua_Error_t error = R_JCUA_ERR_OK;

                                                                      Page 16
                                                              C:\Users\Frank\AppData\Local\Temp\gh_0000p6g1.si
00000170 00e2            869 	mov	0,r28
                         870 --355:     uint32_t       val;
                         871 --357:     if (Unit == 0)
00000172 e0d1            872 	cmp	zero,r26
00000174 fa3d*           873 	bne	.L524
                         874 --358:     {
                         875 --359:         /* Initialize Unit 0 of JCUA macro. */
                         876 --361:         /* Bus Reset for JCUA (with timeout) */
                         877 --362:         /* D1x OPC Rev5.01 item #12 "JCUA reset operation"
                         878 --363:            -> JCCMD.BRST must not be used. (JCU macro internal reset not sufficent)
                         879 --364:            -> JCSWRST.JCUA0RES must be used instead. (JCU macro external reset)
                         880 --365:               Refer to D1x UM section 44.6 "Software Reset Processing".
                         881 --366:                 Use the following software reset procedure to reset the JCUA unit:
                         882 --367:                 0. Wait for 30us.
                         883 --368:                 1. Set JCSWRST.JCUA0RES bit to 1, to generate the software reset condition.
                         884 --369:                 2. Read JCSWRST.JCUA0RES bit until bit is set to 1, to wait for software reset is active.
                         885 --370:                 3. Set JCSWRST.JCUA0RES bit to 0, to release software reset condition.
                         886 --371:                 By this sequennce all JCUA registers with exception
                         887 --372:                 of the JCSWRST register are initialized by a software reset.
                         888 --373:         */
                         889 --374: #if (LOC_USE_OSTM == 0)
                         890 --375:         uint32_t Timeout;
                         891 --376:         Timeout = (R_TICK_GetTimeUS(0) + LOC_JCUA_RESET_WAIT_TIME_US);
                         892 --377:         do {
                         893 --378:             ;
                         894 --379:         } while (Timeout > R_TICK_GetTimeUS(0));
                         895 --381:         R_JCUA_WRITE32(LOC_JCSWRST, LOC_JCUA_JCUA0RES_MASK);
                         896 --382:         val = 0;
                         897 --383:         Timeout = (R_TICK_GetTimeMS(0) + LOC_JCUA_BUS_RESET_TIMEOUT_MS);
                         898 --384:         while (0 == (val & LOC_JCUA_JCUA0RES_MASK)) {
                         899 --385:             if (Timeout <= R_TICK_GetTimeMS(0))
                         900 --386:             {
                         901 --387:                 /* timeout occured */
                         902 --388:                 return R_JCUA_ERR_BUS_TIMEOUT;
                         903 --389:             }
                         904 --391:             val = R_JCUA_READ32(LOC_JCSWRST);
                         905 --392:         }
                         906 --393:         R_JCUA_WRITE32(LOC_JCSWRST, 0u);
                         907 --394:         
                         908 --395:         /* Enable interrupt. */
                         909 --396:         R_JCUA_Sys_InterruptEnable(0);
                         910 --398: #else
                         911 --399:         /* Initialize OS timer unit */
                         912 --400:         error = loc_OstmInit();
                         913 --line400
                         914 ..lin.C.3A.5Cgit.5Crh850.5Csrc.5Capp.5Cgfx_apps.5Csimple_draw.5Ctarget.5Cd1mx_mango_ghs.5Cobj.5Cr_sys_jcua.29::
                         915 .LDWlin29:
                         916 	jarl	_loc_OstmInit,lp
                         916 <EXPANSION BEGIN>
                         916 jarl22 _loc_OstmInit , lp 
00000176 bffff0fe*       916 <EXPANSION END>
0000017a 0ae0            917 	mov	r10,r28
                         918 --401:         if (error == R_JCUA_ERR_OK)
                         919 --line401
                         920 ..lin.C.3A.5Cgit.5Crh850.5Csrc.5Capp.5Cgfx_apps.5Csimple_draw.5Ctarget.5Cd1mx_mango_ghs.5Cobj.5Cr_sys_jcua.30::
                         921 .LDWlin30:
0000017c e0e1            922 	cmp	zero,r28
0000017e ba3d*           923 	bne	.L543
                         924 --402:         {
                         925 --403:             loc_TiemOutCallback = R_FALSE;
                         926 --line403

                                                                      Page 17
                                                              C:\Users\Frank\AppData\Local\Temp\gh_0000p6g1.si
                         927 ..lin.C.3A.5Cgit.5Crh850.5Csrc.5Capp.5Cgfx_apps.5Csimple_draw.5Ctarget.5Cd1mx_mango_ghs.5Cobj.5Cr_sys_jcua.31::
                         928 .LDWlin31:
00000180 7d070900        929 	st.w	zero,8[r29]
                         930 --404:             error = loc_OstmStart(LOC_JCUA_RESET_WAIT_TIME_US, 0);
00000184 20361e00        931 	movea	30,zero,r6
00000188 003a            932 	mov	0,r7
                         933 	jarl	_loc_OstmStart,lp
                         933 <EXPANSION BEGIN>
                         933 jarl22 _loc_OstmStart , lp 
0000018a bfff50ff*       933 <EXPANSION END>
0000018e 0ae0            934 	mov	r10,r28
                         935 --405:             if (error == R_JCUA_ERR_OK)
                         936 --line405
                         937 ..lin.C.3A.5Cgit.5Crh850.5Csrc.5Capp.5Cgfx_apps.5Csimple_draw.5Ctarget.5Cd1mx_mango_ghs.5Cobj.5Cr_sys_jcua.32::
                         938 .LDWlin32:
00000190 e0e1            939 	cmp	zero,r28
00000192 9a35*           940 	bne	.L543
                         941 --406:             {
                         942 --407:                 /* 0. Wait for 30us. */
                         943 --408:                 while (loc_TimerReached == R_FALSE){};
                         944 .L530:
                         945 --line408
                         946 ..lin.C.3A.5Cgit.5Crh850.5Csrc.5Capp.5Cgfx_apps.5Csimple_draw.5Ctarget.5Cd1mx_mango_ghs.5Cobj.5Cr_sys_jcua.33::
                         947 .LDWlin33:
00000194 3d0f0100        948 	ld.w	0[r29],r1
00000198 e009            949 	cmp	zero,r1
0000019a d2fd*           950 	be	.L530
                         951 --409:                 
                         952 --410:                 /* 1. Set JCSWRST.JCUA0RES bit to 1 */
                         953 --411:                 R_JCUA_WRITE32(LOC_JCSWRST, LOC_JCUA_JCUA0RES_MASK);
                         954 --line411
                         955 ..lin.C.3A.5Cgit.5Crh850.5Csrc.5Capp.5Cgfx_apps.5Csimple_draw.5Ctarget.5Cd1mx_mango_ghs.5Cobj.5Cr_sys_jcua.34::
                         956 .LDWlin34:
0000019c 200e0001        957 	movea	256,zero,r1
000001a0 80070f09c080    958 	st.w	r1,4290797584[zero]
                         959 --412:                 
                         960 --413:                 error = loc_OstmStart(LOC_JCUA_BUS_RESET_TIMEOUT_MS * 1000, 0);
000001a6 2036d007        961 	movea	2000,zero,r6
000001aa 003a            962 	mov	0,r7
                         963 	jarl	_loc_OstmStart,lp
                         963 <EXPANSION BEGIN>
                         963 jarl22 _loc_OstmStart , lp 
000001ac bfff2eff*       963 <EXPANSION END>
000001b0 0ae0            964 	mov	r10,r28
                         965 --414:                 if (error == R_JCUA_ERR_OK)
                         966 --line414
                         967 ..lin.C.3A.5Cgit.5Crh850.5Csrc.5Capp.5Cgfx_apps.5Csimple_draw.5Ctarget.5Cd1mx_mango_ghs.5Cobj.5Cr_sys_jcua.35::
                         968 .LDWlin35:
000001b2 e0e1            969 	cmp	zero,r28
000001b4 8a25*           970 	bne	.L543
                         971 --415:                 {
                         972 --416:                     /* 2. Read JCSWRST.JCUA0RES bit until bit is set to 1 */
                         973 --417:                     val = 0;
                         974 --line417
                         975 ..lin.C.3A.5Cgit.5Crh850.5Csrc.5Capp.5Cgfx_apps.5Csimple_draw.5Ctarget.5Cd1mx_mango_ghs.5Cobj.5Cr_sys_jcua.36::
                         976 .LDWlin36:
000001b6 00da            977 	mov	0,r27
                         978 --418:                     while (0 == (val & LOC_JCUA_JCUA0RES_MASK)) {
000001b8 d50d*           979 	br	.L535
                         980 .L537:
                         981 --419:                         if (loc_TimerReached == R_TRUE)

                                                                      Page 18
                                                              C:\Users\Frank\AppData\Local\Temp\gh_0000p6g1.si
                         982 --line419
                         983 ..lin.C.3A.5Cgit.5Crh850.5Csrc.5Capp.5Cgfx_apps.5Csimple_draw.5Ctarget.5Cd1mx_mango_ghs.5Cobj.5Cr_sys_jcua.37::
                         984 .LDWlin37:
000001ba 3d0f0100        985 	ld.w	0[r29],r1
000001be 610a            986 	cmp	1,r1
000001c0 ea05*           987 	bne	.L538
                         988 --420:                         {
                         989 --421:                             /* timeout occured */
                         990 --422:                             loc_OstmStop(R_NULL);
                         991 --line422
                         992 ..lin.C.3A.5Cgit.5Crh850.5Csrc.5Capp.5Cgfx_apps.5Csimple_draw.5Ctarget.5Cd1mx_mango_ghs.5Cobj.5Cr_sys_jcua.38::
                         993 .LDWlin38:
000001c2 0032            994 	mov	0,r6
                         995 	jarl	_loc_OstmStop,lp
                         995 <EXPANSION BEGIN>
                         995 jarl22 _loc_OstmStop , lp 
000001c4 bfff3cfe*       995 <EXPANSION END>
                         996 --423:                             return R_JCUA_ERR_BUS_TIMEOUT;
                         997 --line423
                         998 ..lin.C.3A.5Cgit.5Crh850.5Csrc.5Capp.5Cgfx_apps.5Csimple_draw.5Ctarget.5Cd1mx_mango_ghs.5Cobj.5Cr_sys_jcua.39::
                         999 .LDWlin39:
000001c8 0852           1000 	mov	8,r10
000001ca e515*          1001 	br	.L522
                        1002 .L538:
                        1003 --424:                         }
                        1004 --426:                         val = R_JCUA_READ32(LOC_JCSWRST);
                        1005 --line426
                        1006 ..lin.C.3A.5Cgit.5Crh850.5Csrc.5Capp.5Cgfx_apps.5Csimple_draw.5Ctarget.5Cd1mx_mango_ghs.5Cobj.5Cr_sys_jcua.40::
                        1007 .LDWlin40:
000001cc 800709d9c080   1008 	ld.w	4290797584[zero],r27
                        1009 .L535:
000001d2 db060001       1010 	andi	256,r27,zero
000001d6 a2f5*          1011 	be	.L537
                        1012 --427:                     }
                        1013 --428:                     error = loc_OstmStop(R_NULL);
                        1014 --line428
                        1015 ..lin.C.3A.5Cgit.5Crh850.5Csrc.5Capp.5Cgfx_apps.5Csimple_draw.5Ctarget.5Cd1mx_mango_ghs.5Cobj.5Cr_sys_jcua.41::
                        1016 .LDWlin41:
000001d8 0032           1017 	mov	0,r6
                        1018 	jarl	_loc_OstmStop,lp
                        1018 <EXPANSION BEGIN>
                        1018 jarl22 _loc_OstmStop , lp 
000001da bfff26fe*      1018 <EXPANSION END>
000001de 0ae0           1019 	mov	r10,r28
                        1020 --429:                     if (error == R_JCUA_ERR_OK)
                        1021 --line429
                        1022 ..lin.C.3A.5Cgit.5Crh850.5Csrc.5Capp.5Cgfx_apps.5Csimple_draw.5Ctarget.5Cd1mx_mango_ghs.5Cobj.5Cr_sys_jcua.42::
                        1023 .LDWlin42:
000001e0 e0e1           1024 	cmp	zero,r28
000001e2 9a0d*          1025 	bne	.L543
                        1026 --430:                     {
                        1027 --431:                         /* 3. Set JCSWRST.JCUA0RES bit to 0 */
                        1028 --432:                         R_JCUA_WRITE32(LOC_JCSWRST, 0u);
                        1029 --line432
                        1030 ..lin.C.3A.5Cgit.5Crh850.5Csrc.5Capp.5Cgfx_apps.5Csimple_draw.5Ctarget.5Cd1mx_mango_ghs.5Cobj.5Cr_sys_jcua.43::
                        1031 .LDWlin43:
000001e4 80070f01c080   1032 	st.w	zero,4290797584[zero]
                        1033 --433:                         
                        1034 --434:                         /* Enable interrupt. */
                        1035 --435:                         R_JCUA_Sys_InterruptEnable(0);
000001ea 0032           1036 	mov	0,r6

                                                                      Page 19
                                                              C:\Users\Frank\AppData\Local\Temp\gh_0000p6g1.si
                        1037 	jarl	_R_JCUA_Sys_InterruptEnable,lp
                        1037 <EXPANSION BEGIN>
                        1037 jarl22 _R_JCUA_Sys_InterruptEnable , lp 
000001ec 80ff3000*      1037 <EXPANSION END>
000001f0 a505*          1038 	br	.L543
                        1039 .L524:
                        1040 --436:                     }
                        1041 --437:                 }
                        1042 --438:             }
                        1043 --439:         }
                        1044 --440: #endif
                        1045 --441:     }
                        1046 --442:     else
                        1047 --443:     {
                        1048 --444:         error = R_JCUA_ERR_RANGE_UNIT;
                        1049 --line444
                        1050 ..lin.C.3A.5Cgit.5Crh850.5Csrc.5Capp.5Cgfx_apps.5Csimple_draw.5Ctarget.5Cd1mx_mango_ghs.5Cobj.5Cr_sys_jcua.44::
                        1051 .LDWlin44:
000001f2 03e2           1052 	mov	3,r28
                        1053 .L543:
                        1054 --445:     }
                        1055 --446:     return error;
000001f4 1c50           1056 	mov	r28,r10
                        1057 .L522:
                        1058 --	    .ef
                        1059 .LDW62:
000001f6 4006ff70       1060 	dispose	0,{r25,r26,r27,r28,r29,r31},[lp]
                        1061 	.type	_R_JCUA_Sys_Init,@function
                        1062 	.size	_R_JCUA_Sys_Init,.-_R_JCUA_Sys_Init
                        1063 	.align	2
                        1064 .LDW72:
                        1065 --_error	r28	local
                        1066 --_val	r27	local
                        1067 
                        1068 --_Unit	r26	param
                        1069 
                        1070 	.data
                        1071 	.text
                        1072 
                        1073 --447: }
                        1074 
                        1075 --450: /***************************************************************************
                        1076 --451:   Function: R_JCUA_Sys_DeInit
                        1077 --453:   see: <r_jcua_sys.h>
                        1078 --454: */
                        1079 --456: r_jcua_Error_t R_JCUA_Sys_DeInit(const uint32_t Unit)
                        1080 	.align	2
                        1081 	.align	2
                        1082 	.global	_R_JCUA_Sys_DeInit
                        1083 _R_JCUA_Sys_DeInit:
000001fa 8007e100       1084 	prepare	{r28,r29,r31},0
000001fe 06e0           1085 	mov	r6,r28
                        1086 --	    .bf
                        1087 .LDW82:
                        1088 --457: {
                        1089 --458:     r_jcua_Error_t error = R_JCUA_ERR_OK;
00000200 00ea           1090 	mov	0,r29
                        1091 --460:     if (Unit == 0)
00000202 e0e1           1092 	cmp	zero,r28
00000204 8a0d*          1093 	bne	.L746
                        1094 --461:     {

                                                                      Page 20
                                                              C:\Users\Frank\AppData\Local\Temp\gh_0000p6g1.si
                        1095 --462:         /* De-Initialize Unit 0 of JCUA macro. */
                        1096 --463:         /* Disable interrupt. */
                        1097 --464:         R_JCUA_Sys_InterruptDisable(0);
                        1098 --line464
                        1099 ..lin.C.3A.5Cgit.5Crh850.5Csrc.5Capp.5Cgfx_apps.5Csimple_draw.5Ctarget.5Cd1mx_mango_ghs.5Cobj.5Cr_sys_jcua.45::
                        1100 .LDWlin45:
00000206 0032           1101 	mov	0,r6
                        1102 	jarl	_R_JCUA_Sys_InterruptDisable,lp
                        1102 <EXPANSION BEGIN>
                        1102 jarl22 _R_JCUA_Sys_InterruptDisable , lp 
00000208 80ff3600*      1102 <EXPANSION END>
                        1103 --465: #if (LOC_USE_OSTM == 1)
                        1104 --466:         error = loc_OstmDeInit();
                        1105 --line466
                        1106 ..lin.C.3A.5Cgit.5Crh850.5Csrc.5Capp.5Cgfx_apps.5Csimple_draw.5Ctarget.5Cd1mx_mango_ghs.5Cobj.5Cr_sys_jcua.46::
                        1107 .LDWlin46:
                        1108 	jarl	_loc_OstmDeInit,lp
                        1108 <EXPANSION BEGIN>
                        1108 jarl22 _loc_OstmDeInit , lp 
0000020c bfffa6fe*      1108 <EXPANSION END>
00000210 0ae8           1109 	mov	r10,r29
00000212 a505*          1110 	br	.L748
                        1111 .L746:
                        1112 --467: #endif
                        1113 --468:     }
                        1114 --469:     else
                        1115 --470:     {
                        1116 --471:         error = R_JCUA_ERR_RANGE_UNIT;
                        1117 --line471
                        1118 ..lin.C.3A.5Cgit.5Crh850.5Csrc.5Capp.5Cgfx_apps.5Csimple_draw.5Ctarget.5Cd1mx_mango_ghs.5Cobj.5Cr_sys_jcua.47::
                        1119 .LDWlin47:
00000214 03ea           1120 	mov	3,r29
                        1121 .L748:
                        1122 --472:     }
                        1123 --473:     return error;
00000216 1d50           1124 	mov	r29,r10
                        1125 --	    .ef
                        1126 .LDW92:
00000218 4006ff00       1127 	dispose	0,{r28,r29,r31},[lp]
                        1128 	.type	_R_JCUA_Sys_DeInit,@function
                        1129 	.size	_R_JCUA_Sys_DeInit,.-_R_JCUA_Sys_DeInit
                        1130 	.align	2
                        1131 .LDW03:
                        1132 --_error	r29	local
                        1133 
                        1134 --_Unit	r28	param
                        1135 
                        1136 	.section ".bss","awb"
                        1137 .L786:
                        1138 	.type	.L786,@object
                        1139 	.size	.L786,0
                        1140 	.data
                        1141 	.text
                        1142 
                        1143 --474: }
                        1144 
                        1145 --477: /***************************************************************************
                        1146 --478:   Function: R_JCUA_Sys_InterruptEnable
                        1147 --480:   see: <r_jcua_sys.h>
                        1148 --481: */
                        1149 --483: void R_JCUA_Sys_InterruptEnable(const uint32_t Unit)

                                                                      Page 21
                                                              C:\Users\Frank\AppData\Local\Temp\gh_0000p6g1.si
                        1150 	.align	2
                        1151 	.align	2
                        1152 	.global	_R_JCUA_Sys_InterruptEnable
                        1153 _R_JCUA_Sys_InterruptEnable:
0000021c 80076100       1154 	prepare	{r29,r31},0
00000220 06e8           1155 	mov	r6,r29
                        1156 --	    .bf
                        1157 .LDW13:
                        1158 --484: {
                        1159 --485:     if (Unit == 0)
00000222 e0e9           1160 	cmp	zero,r29
00000224 ba0d*          1161 	bne	.L815
                        1162 --486:     {
                        1163 --487:         R_DEV_IntEnable(R_DEV_INT_JCU0EDI, LOC_DEV_INT_ENABLE);
                        1164 --line487
                        1165 ..lin.C.3A.5Cgit.5Crh850.5Csrc.5Capp.5Cgfx_apps.5Csimple_draw.5Ctarget.5Cd1mx_mango_ghs.5Cobj.5Cr_sys_jcua.48::
                        1166 .LDWlin48:
00000226 2036f200       1167 	movea	242,zero,r6
0000022a 013a           1168 	mov	1,r7
                        1169 	jarl	_R_DEV_IntEnable,lp
                        1169 <EXPANSION BEGIN>
                        1169 jarl22 _R_DEV_IntEnable , lp 
0000022c 80ff0000*      1169 <EXPANSION END>
                        1170 --488:         R_DEV_IntEnable(R_DEV_INT_JCU0DTI, LOC_DEV_INT_ENABLE);
                        1171 --line488
                        1172 ..lin.C.3A.5Cgit.5Crh850.5Csrc.5Capp.5Cgfx_apps.5Csimple_draw.5Ctarget.5Cd1mx_mango_ghs.5Cobj.5Cr_sys_jcua.49::
                        1173 .LDWlin49:
00000230 2036f300       1174 	movea	243,zero,r6
00000234 013a           1175 	mov	1,r7
                        1176 	jarl	_R_DEV_IntEnable,lp
                        1176 <EXPANSION BEGIN>
                        1176 jarl22 _R_DEV_IntEnable , lp 
00000236 80ff0000*      1176 <EXPANSION END>
                        1177 .L815:
                        1178 --489:     } /* end if */
                        1179 --490: }
                        1180 --	    .ef
                        1181 .LDW23:
                        1182 --line490
                        1183 ..lin.C.3A.5Cgit.5Crh850.5Csrc.5Capp.5Cgfx_apps.5Csimple_draw.5Ctarget.5Cd1mx_mango_ghs.5Cobj.5Cr_sys_jcua.50::
                        1184 .LDWlin50:
0000023a 40067f00       1185 	dispose	0,{r29,r31},[lp]
                        1186 	.type	_R_JCUA_Sys_InterruptEnable,@function
                        1187 	.size	_R_JCUA_Sys_InterruptEnable,.-_R_JCUA_Sys_InterruptEnable
                        1188 	.align	2
                        1189 .LDW33:
                        1190 
                        1191 --_Unit	r29	param
                        1192 
                        1193 	.section ".bss","awb"
                        1194 .L842:
                        1195 	.type	.L842,@object
                        1196 	.size	.L842,0
                        1197 	.data
                        1198 	.text
                        1199 
                        1200 
                        1201 --493: /***************************************************************************
                        1202 --494:   Function: R_JCUA_Sys_InterruptDisable
                        1203 --496:   see: <r_jcua_sys.h>
                        1204 --497: */

                                                                      Page 22
                                                              C:\Users\Frank\AppData\Local\Temp\gh_0000p6g1.si
                        1205 --499: void R_JCUA_Sys_InterruptDisable(const uint32_t Unit)
                        1206 	.align	2
                        1207 	.align	2
                        1208 	.global	_R_JCUA_Sys_InterruptDisable
                        1209 _R_JCUA_Sys_InterruptDisable:
0000023e 80076100       1210 	prepare	{r29,r31},0
00000242 06e8           1211 	mov	r6,r29
                        1212 --	    .bf
                        1213 .LDW43:
                        1214 --500: {
                        1215 --501:     if (Unit == 0)
00000244 e0e9           1216 	cmp	zero,r29
00000246 ba0d*          1217 	bne	.L865
                        1218 --502:     {
                        1219 --503:         R_DEV_IntEnable(R_DEV_INT_JCU0DTI, LOC_DEV_INT_DISABLE);
                        1220 --line503
                        1221 ..lin.C.3A.5Cgit.5Crh850.5Csrc.5Capp.5Cgfx_apps.5Csimple_draw.5Ctarget.5Cd1mx_mango_ghs.5Cobj.5Cr_sys_jcua.51::
                        1222 .LDWlin51:
00000248 2036f300       1223 	movea	243,zero,r6
0000024c 003a           1224 	mov	0,r7
                        1225 	jarl	_R_DEV_IntEnable,lp
                        1225 <EXPANSION BEGIN>
                        1225 jarl22 _R_DEV_IntEnable , lp 
0000024e 80ff0000*      1225 <EXPANSION END>
                        1226 --504:         R_DEV_IntEnable(R_DEV_INT_JCU0EDI, LOC_DEV_INT_DISABLE);
                        1227 --line504
                        1228 ..lin.C.3A.5Cgit.5Crh850.5Csrc.5Capp.5Cgfx_apps.5Csimple_draw.5Ctarget.5Cd1mx_mango_ghs.5Cobj.5Cr_sys_jcua.52::
                        1229 .LDWlin52:
00000252 2036f200       1230 	movea	242,zero,r6
00000256 003a           1231 	mov	0,r7
                        1232 	jarl	_R_DEV_IntEnable,lp
                        1232 <EXPANSION BEGIN>
                        1232 jarl22 _R_DEV_IntEnable , lp 
00000258 80ff0000*      1232 <EXPANSION END>
                        1233 .L865:
                        1234 --505:     } /* end if */
                        1235 --506: }
                        1236 --	    .ef
                        1237 .LDW53:
                        1238 --line506
                        1239 ..lin.C.3A.5Cgit.5Crh850.5Csrc.5Capp.5Cgfx_apps.5Csimple_draw.5Ctarget.5Cd1mx_mango_ghs.5Cobj.5Cr_sys_jcua.53::
                        1240 .LDWlin53:
0000025c 40067f00       1241 	dispose	0,{r29,r31},[lp]
                        1242 	.type	_R_JCUA_Sys_InterruptDisable,@function
                        1243 	.size	_R_JCUA_Sys_InterruptDisable,.-_R_JCUA_Sys_InterruptDisable
                        1244 	.align	2
                        1245 .LDW63:
                        1246 
                        1247 --_Unit	r29	param
                        1248 
                        1249 	.section ".bss","awb"
                        1250 .L906:
                        1251 	.type	.L906,@object
                        1252 	.size	.L906,0
                        1253 	.data
                        1254 	.text
                        1255 
                        1256 
                        1257 --508: /***************************************************************************
                        1258 --509:   Function: R_JCUA_Sys_BaseAddrGet
                        1259 --511:   see: <r_jcua_sys.h>

                                                                      Page 23
                                                              C:\Users\Frank\AppData\Local\Temp\gh_0000p6g1.si
                        1260 --512: */
                        1261 --513: uint32_t R_JCUA_Sys_BaseAddrGet(const uint32_t Unit)
                        1262 	.align	2
                        1263 	.align	2
                        1264 	.global	_R_JCUA_Sys_BaseAddrGet
                        1265 _R_JCUA_Sys_BaseAddrGet:
00000260 0670           1266 	mov	r6,r14
                        1267 --	    .bf
                        1268 .LDW73:
                        1269 --514: {
                        1270 --515:     uint32_t base_addr = 0;
00000262 000a           1271 	mov	0,r1
                        1272 --517:     if (Unit == 0)
00000264 e071           1273 	cmp	zero,r14
00000266 ca05*          1274 	bne	.L929
                        1275 --518:     {
                        1276 --519:         base_addr = R_JCUA_BASE_ADD;
                        1277 --line519
                        1278 ..lin.C.3A.5Cgit.5Crh850.5Csrc.5Capp.5Cgfx_apps.5Csimple_draw.5Ctarget.5Cd1mx_mango_ghs.5Cobj.5Cr_sys_jcua.54::
                        1279 .LDWlin54:
00000268 210600c000f2   1280 	mov	-234831872,r1
                        1281 .L929:
                        1282 --520:     }
                        1283 --521:     return base_addr;
0000026e 0150           1284 	mov	r1,r10
                        1285 --	    .ef
                        1286 .LDW83:
00000270 7f00           1287 	jmp	[lp]
                        1288 	.type	_R_JCUA_Sys_BaseAddrGet,@function
                        1289 	.size	_R_JCUA_Sys_BaseAddrGet,.-_R_JCUA_Sys_BaseAddrGet
                        1290 	.align	2
                        1291 .LDW93:
                        1292 --_base_addr	r1	local
                        1293 
                        1294 --_Unit	r14	param
                        1295 
                        1296 	.section ".bss","awb"
                        1297 .L970:
                        1298 	.type	.L970,@object
                        1299 	.size	.L970,0
                        1300 	.data
                        1301 	.text
                        1302 
                        1303 --522: }
                        1304 
                        1305 --524: /***************************************************************************
                        1306 --525:   Function: R_JCUA_Sys_TimerStart
                        1307 --527:   see: <r_jcua_sys.h>
                        1308 --528: */
                        1309 --530: r_jcua_Error_t R_JCUA_Sys_TimerStart(const uint32_t Unit, const uint32_t IsHeader)
                        1310 	.align	2
                        1311 	.align	2
                        1312 	.global	_R_JCUA_Sys_TimerStart
                        1313 _R_JCUA_Sys_TimerStart:
00000272 8007e110       1314 	prepare	{r27,r28,r29,r31},0
00000276 06e0           1315 	mov	r6,r28
00000278 07d8           1316 	mov	r7,r27
0000027a 210600000000*  1317 	mov	_loc_TiemOutCallback,r1
                        1318 --	    .bf
                        1319 .LDW04:
                        1320 --531: {

                                                                      Page 24
                                                              C:\Users\Frank\AppData\Local\Temp\gh_0000p6g1.si
                        1321 --532:     r_jcua_Error_t error = R_JCUA_ERR_OK;
00000280 00ea           1322 	mov	0,r29
                        1323 --533:     
                        1324 --534:     if (Unit == 0)
00000282 e0e1           1325 	cmp	zero,r28
00000284 8a15*          1326 	bne	.L993
                        1327 --535:     {
                        1328 --536: #if (LOC_USE_OSTM == 1)
                        1329 --537:         if (IsHeader == R_TRUE)
                        1330 --line537
                        1331 ..lin.C.3A.5Cgit.5Crh850.5Csrc.5Capp.5Cgfx_apps.5Csimple_draw.5Ctarget.5Cd1mx_mango_ghs.5Cobj.5Cr_sys_jcua.55::
                        1332 .LDWlin55:
00000286 61da           1333 	cmp	1,r27
00000288 fa0d*          1334 	bne	.L998
                        1335 --538:         {
                        1336 --539: #if (LOC_JCUA_HEADER_TIMEOUT_US != 0)
                        1337 --540:             loc_TiemOutCallback = R_TRUE;
                        1338 --line540
                        1339 ..lin.C.3A.5Cgit.5Crh850.5Csrc.5Capp.5Cgfx_apps.5Csimple_draw.5Ctarget.5Cd1mx_mango_ghs.5Cobj.5Cr_sys_jcua.56::
                        1340 .LDWlin56:
0000028a 2b0600000000*  1341 	mov	_loc_TiemOutCallback,r11
00000290 0172           1342 	mov	1,r14
00000292 6b770100       1343 	st.w	r14,0[r11]
                        1344 --541:             error = loc_OstmStart(LOC_JCUA_HEADER_TIMEOUT_US, 0);
00000296 2036a00f       1345 	movea	4000,zero,r6
0000029a 003a           1346 	mov	0,r7
                        1347 	jarl	_loc_OstmStart,lp
                        1347 <EXPANSION BEGIN>
                        1347 jarl22 _loc_OstmStart , lp 
0000029c bfff3efe*      1347 <EXPANSION END>
000002a0 0ae8           1348 	mov	r10,r29
000002a2 a505*          1349 	br	.L998
                        1350 .L993:
                        1351 --542: #endif
                        1352 --543:         }
                        1353 --544:         else
                        1354 --545:         {
                        1355 --546: #if (LOC_JCUA_DATA_TIMEOUT_US != 0)
                        1356 --547:             loc_TiemOutCallback = R_TRUE;
                        1357 --548:             error = loc_OstmStart(LOC_JCUA_DATA_TIMEOUT_US, 0);
                        1358 --549: #endif
                        1359 --550:         }
                        1360 --551: #endif /* LOC_USE_OSTM */
                        1361 --552:     }
                        1362 --553:     else
                        1363 --554:     {
                        1364 --555:         error = R_JCUA_ERR_RANGE_UNIT;
                        1365 --line555
                        1366 ..lin.C.3A.5Cgit.5Crh850.5Csrc.5Capp.5Cgfx_apps.5Csimple_draw.5Ctarget.5Cd1mx_mango_ghs.5Cobj.5Cr_sys_jcua.57::
                        1367 .LDWlin57:
000002a4 03ea           1368 	mov	3,r29
                        1369 .L998:
                        1370 --556:     }
                        1371 --557:     
                        1372 --558:     return error;
000002a6 1d50           1373 	mov	r29,r10
                        1374 --	    .ef
                        1375 .LDW14:
000002a8 4006ff10       1376 	dispose	0,{r27,r28,r29,r31},[lp]
                        1377 	.type	_R_JCUA_Sys_TimerStart,@function
                        1378 	.size	_R_JCUA_Sys_TimerStart,.-_R_JCUA_Sys_TimerStart

                                                                      Page 25
                                                              C:\Users\Frank\AppData\Local\Temp\gh_0000p6g1.si
                        1379 	.align	2
                        1380 .LDW24:
                        1381 --_error	r29	local
                        1382 
                        1383 --_Unit	r28	param
                        1384 --_IsHeader	r27	param
                        1385 
                        1386 	.data
                        1387 	.text
                        1388 
                        1389 --559: }
                        1390 
                        1391 --561: /***************************************************************************
                        1392 --562:   Function: R_JCUA_Sys_TimerPause
                        1393 --564:   see: <r_jcua_sys.h>
                        1394 --565: */
                        1395 --566: r_jcua_Error_t R_JCUA_Sys_TimerPause(const uint32_t Unit)
                        1396 	.align	2
                        1397 	.align	2
                        1398 	.global	_R_JCUA_Sys_TimerPause
                        1399 _R_JCUA_Sys_TimerPause:
000002ac 8007e100       1400 	prepare	{r28,r29,r31},0
000002b0 06e0           1401 	mov	r6,r28
000002b2 210600000000*  1402 	mov	_loc_PauseCouter,r1
                        1403 --	    .bf
                        1404 .LDW34:
                        1405 --567: {
                        1406 --568:     r_jcua_Error_t error = R_JCUA_ERR_OK;
000002b8 00ea           1407 	mov	0,r29
                        1408 --569:     
                        1409 --570:     if (Unit == 0)
000002ba e0e1           1410 	cmp	zero,r28
000002bc 8a0d*          1411 	bne	.L1077
                        1412 --571:     {
                        1413 --572: #if (LOC_USE_OSTM == 1)
                        1414 --573:         error = loc_OstmStop(&loc_PauseCouter);
                        1415 --line573
                        1416 ..lin.C.3A.5Cgit.5Crh850.5Csrc.5Capp.5Cgfx_apps.5Csimple_draw.5Ctarget.5Cd1mx_mango_ghs.5Cobj.5Cr_sys_jcua.58::
                        1417 .LDWlin58:
000002be 260600000000*  1418 	mov	_loc_PauseCouter,r6
                        1419 	jarl	_loc_OstmStop,lp
                        1419 <EXPANSION BEGIN>
                        1419 jarl22 _loc_OstmStop , lp 
000002c4 bfff3cfd*      1419 <EXPANSION END>
000002c8 0ae8           1420 	mov	r10,r29
000002ca a505*          1421 	br	.L1079
                        1422 .L1077:
                        1423 --574: #endif
                        1424 --575:     }
                        1425 --576:     else
                        1426 --577:     {
                        1427 --578:         error = R_JCUA_ERR_RANGE_UNIT;
                        1428 --line578
                        1429 ..lin.C.3A.5Cgit.5Crh850.5Csrc.5Capp.5Cgfx_apps.5Csimple_draw.5Ctarget.5Cd1mx_mango_ghs.5Cobj.5Cr_sys_jcua.59::
                        1430 .LDWlin59:
000002cc 03ea           1431 	mov	3,r29
                        1432 .L1079:
                        1433 --579:     }
                        1434 --580:     
                        1435 --581:     return error;
000002ce 1d50           1436 	mov	r29,r10

                                                                      Page 26
                                                              C:\Users\Frank\AppData\Local\Temp\gh_0000p6g1.si
                        1437 --	    .ef
                        1438 .LDW44:
000002d0 4006ff00       1439 	dispose	0,{r28,r29,r31},[lp]
                        1440 	.type	_R_JCUA_Sys_TimerPause,@function
                        1441 	.size	_R_JCUA_Sys_TimerPause,.-_R_JCUA_Sys_TimerPause
                        1442 	.align	2
                        1443 .LDW54:
                        1444 --_error	r29	local
                        1445 
                        1446 --_Unit	r28	param
                        1447 
                        1448 	.data
                        1449 	.text
                        1450 
                        1451 --582: }
                        1452 
                        1453 --584: /***************************************************************************
                        1454 --585:   Function: R_JCUA_Sys_TimerResume
                        1455 --587:   see: <r_jcua_sys.h>
                        1456 --588: */
                        1457 --589: r_jcua_Error_t R_JCUA_Sys_TimerResume(const uint32_t Unit)
                        1458 	.align	2
                        1459 	.align	2
                        1460 	.global	_R_JCUA_Sys_TimerResume
                        1461 _R_JCUA_Sys_TimerResume:
000002d4 8007e100       1462 	prepare	{r28,r29,r31},0
000002d8 06e0           1463 	mov	r6,r28
000002da 210600000000*  1464 	mov	_loc_PauseCouter,r1
                        1465 --	    .bf
                        1466 .LDW64:
                        1467 --590: {
                        1468 --591:     r_jcua_Error_t error = R_JCUA_ERR_OK;
000002e0 00ea           1469 	mov	0,r29
                        1470 --592:     
                        1471 --593:     if (Unit == 0)
000002e2 e0e1           1472 	cmp	zero,r28
000002e4 fa0d*          1473 	bne	.L1143
                        1474 --594:     {
                        1475 --595: #if (LOC_USE_OSTM == 1)
                        1476 --596:         if (loc_TiemOutCallback == R_TRUE)
                        1477 --line596
                        1478 ..lin.C.3A.5Cgit.5Crh850.5Csrc.5Capp.5Cgfx_apps.5Csimple_draw.5Ctarget.5Cd1mx_mango_ghs.5Cobj.5Cr_sys_jcua.60::
                        1479 .LDWlin60:
000002e6 21770500       1480 	ld.w	4[r1],r14
000002ea 6172           1481 	cmp	1,r14
000002ec ca0d*          1482 	bne	.L1147
                        1483 --597:         {
                        1484 --598:             error = loc_OstmStart(0, loc_PauseCouter);
                        1485 --line598
                        1486 ..lin.C.3A.5Cgit.5Crh850.5Csrc.5Capp.5Cgfx_apps.5Csimple_draw.5Ctarget.5Cd1mx_mango_ghs.5Cobj.5Cr_sys_jcua.61::
                        1487 .LDWlin61:
000002ee 270600000000*  1488 	mov	_loc_PauseCouter,r7
000002f4 273f0100       1489 	ld.w	0[r7],r7
000002f8 0032           1490 	mov	0,r6
                        1491 	jarl	_loc_OstmStart,lp
                        1491 <EXPANSION BEGIN>
                        1491 jarl22 _loc_OstmStart , lp 
000002fa bfffe0fd*      1491 <EXPANSION END>
000002fe 0ae8           1492 	mov	r10,r29
00000300 a505*          1493 	br	.L1147
                        1494 .L1143:

                                                                      Page 27
                                                              C:\Users\Frank\AppData\Local\Temp\gh_0000p6g1.si
                        1495 --599:         }
                        1496 --600: #endif
                        1497 --601:     }
                        1498 --602:     else
                        1499 --603:     {
                        1500 --604:         error = R_JCUA_ERR_RANGE_UNIT;
                        1501 --line604
                        1502 ..lin.C.3A.5Cgit.5Crh850.5Csrc.5Capp.5Cgfx_apps.5Csimple_draw.5Ctarget.5Cd1mx_mango_ghs.5Cobj.5Cr_sys_jcua.62::
                        1503 .LDWlin62:
00000302 03ea           1504 	mov	3,r29
                        1505 .L1147:
                        1506 --605:     }
                        1507 --606:     
                        1508 --607:     return error;
00000304 1d50           1509 	mov	r29,r10
                        1510 --	    .ef
                        1511 .LDW74:
00000306 4006ff00       1512 	dispose	0,{r28,r29,r31},[lp]
                        1513 	.type	_R_JCUA_Sys_TimerResume,@function
                        1514 	.size	_R_JCUA_Sys_TimerResume,.-_R_JCUA_Sys_TimerResume
                        1515 	.align	2
                        1516 .LDW84:
                        1517 --_error	r29	local
                        1518 
                        1519 --_Unit	r28	param
                        1520 
                        1521 	.data
                        1522 	.text
                        1523 
                        1524 --608: }
                        1525 
                        1526 --610: /***************************************************************************
                        1527 --611:   Function: R_JCUA_Sys_TimerStop
                        1528 --613:   see: <r_jcua_sys.h>
                        1529 --614: */
                        1530 --615: r_jcua_Error_t R_JCUA_Sys_TimerStop(const uint32_t Unit)
                        1531 	.align	2
                        1532 	.align	2
                        1533 	.global	_R_JCUA_Sys_TimerStop
                        1534 _R_JCUA_Sys_TimerStop:
0000030a 8007e100       1535 	prepare	{r28,r29,r31},0
0000030e 06e0           1536 	mov	r6,r28
00000310 210600000000*  1537 	mov	_loc_TiemOutCallback,r1
                        1538 --	    .bf
                        1539 .LDW94:
                        1540 --616: {
                        1541 --617:     r_jcua_Error_t error = R_JCUA_ERR_OK;
00000316 00ea           1542 	mov	0,r29
                        1543 --618:     
                        1544 --619:     if (Unit == 0)
00000318 e0e1           1545 	cmp	zero,r28
0000031a ba0d*          1546 	bne	.L1214
                        1547 --620:     {
                        1548 --621: #if (LOC_USE_OSTM == 1)
                        1549 --622:         loc_TiemOutCallback = R_FALSE;
                        1550 --line622
                        1551 ..lin.C.3A.5Cgit.5Crh850.5Csrc.5Capp.5Cgfx_apps.5Csimple_draw.5Ctarget.5Cd1mx_mango_ghs.5Cobj.5Cr_sys_jcua.63::
                        1552 .LDWlin63:
0000031c 2b0600000000*  1553 	mov	_loc_TiemOutCallback,r11
00000322 6b070100       1554 	st.w	zero,0[r11]
                        1555 --623:         error = loc_OstmStop(R_NULL);

                                                                      Page 28
                                                              C:\Users\Frank\AppData\Local\Temp\gh_0000p6g1.si
00000326 0032           1556 	mov	0,r6
                        1557 	jarl	_loc_OstmStop,lp
                        1557 <EXPANSION BEGIN>
                        1557 jarl22 _loc_OstmStop , lp 
00000328 bfffd8fc*      1557 <EXPANSION END>
0000032c 0ae8           1558 	mov	r10,r29
0000032e a505*          1559 	br	.L1216
                        1560 .L1214:
                        1561 --624: #endif
                        1562 --625:     }
                        1563 --626:     else
                        1564 --627:     {
                        1565 --628:         error = R_JCUA_ERR_RANGE_UNIT;
                        1566 --line628
                        1567 ..lin.C.3A.5Cgit.5Crh850.5Csrc.5Capp.5Cgfx_apps.5Csimple_draw.5Ctarget.5Cd1mx_mango_ghs.5Cobj.5Cr_sys_jcua.64::
                        1568 .LDWlin64:
00000330 03ea           1569 	mov	3,r29
                        1570 .L1216:
                        1571 --629:     }
                        1572 --630:     
                        1573 --631:     return error;
00000332 1d50           1574 	mov	r29,r10
                        1575 --	    .ef
                        1576 .LDW05:
00000334 4006ff00       1577 	dispose	0,{r28,r29,r31},[lp]
                        1578 	.type	_R_JCUA_Sys_TimerStop,@function
                        1579 	.size	_R_JCUA_Sys_TimerStop,.-_R_JCUA_Sys_TimerStop
                        1580 	.align	2
                        1581 .LDW15:
                        1582 --_error	r29	local
                        1583 
                        1584 --_Unit	r28	param
                        1585 
                        1586 	.data
                        1587 	.text
                        1588 
                        1589 --632: }
                        1590 
                        1591 --634: /***************************************************************************
                        1592 --635:   Group: JCUA OS interface
                        1593 --636: */
                        1594 --639: /***************************************************************************
                        1595 --640:   Function: R_JCUA_Sys_Lock
                        1596 --642:   see: <r_jcua_sys.h>
                        1597 --643: */
                        1598 --645: r_jcua_Error_t R_JCUA_Sys_Lock(const uint32_t Unit)
                        1599 	.align	2
                        1600 	.align	2
                        1601 	.global	_R_JCUA_Sys_Lock
                        1602 _R_JCUA_Sys_Lock:
00000338 0670           1603 	mov	r6,r14
                        1604 --	    .bf
                        1605 .LDW25:
                        1606 --646: {
                        1607 --647:     r_jcua_Error_t error = R_JCUA_ERR_OK;
0000033a 000a           1608 	mov	0,r1
                        1609 --649:     /* Check parameters. */
                        1610 --650:     if (Unit >= R_JCUA_MACRO_NUM)
0000033c 6172           1611 	cmp	1,r14
0000033e a105*          1612 	bl	.L1278
                        1613 --651:     {

                                                                      Page 29
                                                              C:\Users\Frank\AppData\Local\Temp\gh_0000p6g1.si
                        1614 --652:         error = R_JCUA_ERR_RANGE_UNIT;
                        1615 --line652
                        1616 ..lin.C.3A.5Cgit.5Crh850.5Csrc.5Capp.5Cgfx_apps.5Csimple_draw.5Ctarget.5Cd1mx_mango_ghs.5Cobj.5Cr_sys_jcua.65::
                        1617 .LDWlin65:
00000340 030a           1618 	mov	3,r1
                        1619 .L1278:
                        1620 --653:     } /* end if */
                        1621 --655:     return error;
00000342 0150           1622 	mov	r1,r10
                        1623 --	    .ef
                        1624 .LDW35:
00000344 7f00           1625 	jmp	[lp]
                        1626 	.type	_R_JCUA_Sys_Lock,@function
                        1627 	.size	_R_JCUA_Sys_Lock,.-_R_JCUA_Sys_Lock
                        1628 	.align	2
                        1629 .LDW45:
                        1630 --_error	r1	local
                        1631 
                        1632 --_Unit	r14	param
                        1633 
                        1634 	.section ".bss","awb"
                        1635 .L1306:
                        1636 	.type	.L1306,@object
                        1637 	.size	.L1306,0
                        1638 	.data
                        1639 	.text
                        1640 
                        1641 --656: }
                        1642 
                        1643 --659: /***************************************************************************
                        1644 --660:   Function: R_JCUA_Sys_Unlock
                        1645 --662:   see: <r_jcua_sys.h>
                        1646 --663: */
                        1647 --665: r_jcua_Error_t R_JCUA_Sys_Unlock(const uint32_t Unit)
                        1648 	.align	2
                        1649 	.align	2
                        1650 	.global	_R_JCUA_Sys_Unlock
                        1651 _R_JCUA_Sys_Unlock:
00000346 0670           1652 	mov	r6,r14
                        1653 --	    .bf
                        1654 .LDW55:
                        1655 --666: {
                        1656 --667:     r_jcua_Error_t error = R_JCUA_ERR_OK;
00000348 000a           1657 	mov	0,r1
                        1658 --669:     /* Check parameters. */
                        1659 --670:     if (Unit >= R_JCUA_MACRO_NUM)
0000034a 6172           1660 	cmp	1,r14
0000034c a105*          1661 	bl	.L1329
                        1662 --671:     {
                        1663 --672:         error = R_JCUA_ERR_RANGE_UNIT;
                        1664 --line672
                        1665 ..lin.C.3A.5Cgit.5Crh850.5Csrc.5Capp.5Cgfx_apps.5Csimple_draw.5Ctarget.5Cd1mx_mango_ghs.5Cobj.5Cr_sys_jcua.66::
                        1666 .LDWlin66:
0000034e 030a           1667 	mov	3,r1
                        1668 .L1329:
                        1669 --673:     } /* end if */
                        1670 --674:     return error;
00000350 0150           1671 	mov	r1,r10
                        1672 --	    .ef
                        1673 .LDW65:
00000352 7f00           1674 	jmp	[lp]

                                                                      Page 30
                                                              C:\Users\Frank\AppData\Local\Temp\gh_0000p6g1.si
                        1675 	.type	_R_JCUA_Sys_Unlock,@function
                        1676 	.size	_R_JCUA_Sys_Unlock,.-_R_JCUA_Sys_Unlock
                        1677 	.align	2
                        1678 .LDW75:
                        1679 --_error	r1	local
                        1680 
                        1681 --_Unit	r14	param
                        1682 
                        1683 	.section ".bss","awb"
                        1684 .L1370:
                        1685 	.type	.L1370,@object
                        1686 	.size	.L1370,0
                        1687 	.data
                        1688 	.text
                        1689 
                        1690 --675: }
                        1691 	.align	2
                        1692 --_loc_TimerReached	_loc_TimerReached	static
                        1693 --_loc_PauseCouter	_loc_PauseCouter	static
                        1694 --_loc_TiemOutCallback	_loc_TiemOutCallback	static
                        1695 
                        1696 	.data
                        1697 	.ghsnote version,15
                        1698 	.ghsnote tools,3
                        1699 	.ghsnote options,144
                        1700 	.text
                        1701 	.align	2
                        1702 ..eof.C.3A.5Cgit.5Crh850.5Csrc.5Capp.5Cgfx_apps.5Csimple_draw.5Ctarget.5Cd1mx_mango_ghs.5Cobj.5Cr_sys_jcua...43.3A.5Cgit.5Crh850.5Csrc.5Capp.5Cgfx_apps.5Csimple_draw.5Ctarget.5Cd1mx_mango_ghs..5BC5D028..0::
                        1703 .rh850_flags REGMODE22,DATA_ALIGN8,GP_FIX,EP_NONFIX,TP_FIX,REG2_RESERVE,G3M
