                                                                      Page 1
                                                              C:\Users\Frank\AppData\Local\Temp\gh_0000pnc1.si
Command Line: C:\GHS\V800.V2014.1.7\comp_201417\ease850.exe -w -elf -b0 -I../../../../../app/common/dhd -I../../../../../app/gfx_apps/simple_draw/src -I../../../../../app/gfx_apps/simple_draw/lib -I../../../../../bsp/board//config -I../../../../../bsp/board//src/gfx -I../../../../../bsp/board//src/hmi -I../../../../../bsp/board//src/stdio -I../../../../../bsp/board/d1mx_mango/config -I../../../../../bsp/board/d1mx_mango/src -I../../../../../bsp/board/d1mx_mango/src/gfx -I../../../../../bsp/board/d1mx_mango/src/hmi -I../../../../../bsp/board/d1mx_mango/src/stdio -I../../../../../bsp/gfx/lib -I../../../../../bsp/gfx/src -I../../../../../bsp/hmi/lib -I../../../../../bsp/hmi/src -I../../../../../bsp/lib -I../../../../../bsp/stdio/lib -I../../../../../bsp/stdio/src -I../../../../../cdi/lib -I../../../../../cdi/src -I../../../../../compiler/rh850_ghs/inc -I../../../../../device/d1mx/lib -I../../../../../device/d1mx/macro_cfg -I../../../../../device/d1mx/macro_cfg/csisw -I../../../../../device/d1mx/macro_cfg/davehd -I../../../../../device/d1mx/macro_cfg/ddb -I../../../../../device/d1mx/macro_cfg/drw2d -I../../../../../device/d1mx/macro_cfg/gfxbus -I../../../../../device/d1mx/macro_cfg/gpio -I../../../../../device/d1mx/macro_cfg/hypb -I../../../../../device/d1mx/macro_cfg/hypdb -I../../../../../device/d1mx/macro_cfg/jcua -I../../../../../device/d1mx/macro_cfg/nfmabare -I../../../../../device/d1mx/macro_cfg/octa -I../../../../../device/d1mx/macro_cfg/octacdb -I../../../../../device/d1mx/macro_cfg/ostm -I../../../../../device/d1mx/macro_cfg/pbg -I../../../../../device/d1mx/macro_cfg/riic -I../../../../../device/d1mx/macro_cfg/sfcdb -I../../../../../device/d1mx/macro_cfg/sfma -I../../../../../device/d1mx/macro_cfg/spea -I../../../../../device/d1mx/macro_cfg/tauj -I../../../../../device/d1mx/macro_cfg/tick -I../../../../../device/d1mx/macro_cfg/vdce -I../../../../../device/d1mx/macro_cfg/vowe -I../../../../../device/d1mx/macro_cfg/wm -I../../../../../device/d1mx/macro_cfg/xbus -I../../../../../device/d1mx/src/dev -I../../../../../device/d1mx/src/dhd -I../../../../../device/d1mx/src/hypb -I../../../../../device/d1mx/src/jcua -I../../../../../device/d1mx/src/nfmabare -I../../../../../device/d1mx/src/octa -I../../../../../device/d1mx/src/rh850_ghs -I../../../../../device/d1mx/src/vowe -I../../../../../device/d1x_common/macro_cfg -I../../../../../device/d1x_common/macro_cfg/csisw -I../../../../../device/d1x_common/macro_cfg/davehd -I../../../../../device/d1x_common/macro_cfg/ddb -I../../../../../device/d1x_common/macro_cfg/drw2d -I../../../../../device/d1x_common/macro_cfg/gfxbus -I../../../../../device/d1x_common/macro_cfg/gpio -I../../../../../device/d1x_common/macro_cfg/hypb -I../../../../../device/d1x_common/macro_cfg/hypdb -I../../../../../device/d1x_common/macro_cfg/jcua -I../../../../../device/d1x_common/macro_cfg/nfmabare -I../../../../../device/d1x_common/macro_cfg/octa -I../../../../../device/d1x_common/macro_cfg/octacdb -I../../../../../device/d1x_common/macro_cfg/ostm -I../../../../../device/d1x_common/macro_cfg/pbg -I../../../../../device/d1x_common/macro_cfg/riic -I../../../../../device/d1x_common/macro_cfg/sfcdb -I../../../../../device/d1x_common/macro_cfg/sfma -I../../../../../device/d1x_common/macro_cfg/spea -I../../../../../device/d1x_common/macro_cfg/tauj -I../../../../../device/d1x_common/macro_cfg/tick -I../../../../../device/d1x_common/macro_cfg/vdce -I../../../../../device/d1x_common/macro_cfg/vowe -I../../../../../device/d1x_common/macro_cfg/wm -I../../../../../device/d1x_common/macro_cfg/xbus -I../../../../../device/d1x_common/src/csisw -I../../../../../device/d1x_common/src/ddb -I../../../../../device/d1x_common/src/dev -I../../../../../device/d1x_common/src/gfxbus -I../../../../../device/d1x_common/src/gpio -I../../../../../device/d1x_common/src/ostm -I../../../../../device/d1x_common/src/pbg -I../../../../../device/d1x_common/src/riic -I../../../../../device/d1x_common/src/sfma -I../../../../../device/d1x_common/src/spea -I../../../../../device/d1x_common/src/tauj -I../../../../../device/d1x_common/src/tick -I../../../../../device/d1x_common/src/vdce -I../../../../../device/d1x_common/src/wm -I../../../../../device/d1x_common/src/xbus -I../../../../../device/lib -I../../../../../macro/bus/pbg/lib -I../../../../../macro/bus/pbg/src -I../../../../../macro/csi/csisw/lib -I../../../../../macro/csi/csisw/src -I../../../../../macro/drw2d/lib -I../../../../../macro/drw2d/platform/davehd -I../../../../../macro/drw2d/platform/os/no_os -I../../../../../macro/drw2d/src -I../../../../../macro/flashc/hypb/lib -I../../../../../macro/flashc/hypb/src -I../../../../../macro/flashc/hypdb/lib -I../../../../../macro/flashc/hypdb/src -I../../../../../macro/flashc/nfmabare/lib -I../../../../../macro/flashc/nfmabare/src -I../../../../../macro/flashc/octa/lib -I../../../../../macro/flashc/octa/src -I../../../../../macro/flashc/octacdb/lib -I../../../../../macro/flashc/octacdb/src -I../../../../../macro/flashc/sfcdb/lib -I../../../../../macro/flashc/sfcdb/src -I../../../../../macro/flashc/sfma/lib -I../../../../../macro/flashc/sfma/src -I../../../../../macro/gfxbus/lib -I../../../../../macro/gfxbus/src -I../../../../../macro/gfxbus/xbus/lib -I../../../../../macro/gfxbus/xbus/src -I../../../../../macro/gpio/lib -I../../../../../macro/gpio/src -I../../../../../macro/gpu/davehd/common/inc -I../../../../../macro/gpu/davehd/common/inc/platform -I../../../../../macro/gpu/davehd/common/inc/platform/d1mx -I../../../../../macro/gpu/davehd/docs -I../../../../../macro/gpu/davehd/kernel/inc -I../../../../../macro/gpu/davehd/kernel/platform/d1mx -I../../../../../macro/gpu/davehd/kernel/platform/d1mx/bridge -I../../../../../macro/gpu/davehd/kernel/platform/d1mx/non_threaded -I../../../../../macro/gpu/davehd/kernel/platform/ree -I../../../../../macro/gpu/davehd/kernel/src -I../../../../../macro/gpu/davehd/user/inc -I../../../../../macro/gpu/davehd/user/platform/d1mx/no_os -I../../../../../macro/gpu/davehd/user/src -I../../../../../macro/gpu/jcua/lib -I../../../../../macro/gpu/jcua/src -I../../../../../macro/i2c/riic/lib -I../../../../../macro/i2c/riic/src -I../../../../../macro/tick/lib -I../../../../../macro/tick/src -I../../../../../macro/timer/ostm/lib -I../../../../../macro/timer/ostm/src -I../../../../../macro/timer/tauj/lib -I../../../../../macro/timer/tauj/src -I../../../../../macro/vdce/lib -I../../../../../macro/vdce/src -I../../../../../macro/vo/ddb/lib -I../../../../../macro/vo/ddb/src -I../../../../../macro/vo/spea/lib -I../../../../../macro/vo/spea/src -I../../../../../macro/vo/vowe/lib -I../../../../../macro/vo/vowe/src -I../../../../../macro/wm/lib -I../../../../../macro/wm/src -I../../../../../macro/pwm/lib -I../../../../../macro/reset/lib -I../../../../../macro/rscan/lib -I../../../../../macro/uart/rlin3/lib -I../../../../../macro/uart/rlin3/src -I../../../../../device/d1x_common/macro_cfg/rlin3 -I../../../../../macro/stbc/lib -I../../../../../macro/adc/lib -I../../../../../device/d1x_common/macro_cfg/adc7010 -IC:\GHS\V800.V2014.1.7\comp_201417\lib\rh850_22 -cg_underscore -cpu=rh850g3m -no_v850_simd -rh850_fpsimd=none -nomacro -patch_dbo=C:\git\rh850\src\app\gfx_apps\simple_draw\target\d1mx_mango_ghs\obj\r_sys_gpio.dbo -source=r_sys_gpio.c -o .\obj\gh_0000pnc1.o -list=.\obj\r_sys_gpio.lst C:\Users\Frank\AppData\Local\Temp\gh_0000pnc1.si 
Original File: C:\Users\Frank\AppData\Local\Temp\gh_0000pnc1.si
Source File: r_sys_gpio.c
Directory: C:\git\rh850\src\app\gfx_apps\simple_draw\target\d1mx_mango_ghs
Host OS: Windows
EASE: Copyright (C) 1983-2014 Green Hills Software.  All Rights Reversed.
Release: Compiler v2014.1.7
Build Directory: [Directory] BTOWINBOX:c:/build_2014_1_bto/2014-09-04.2200-2014_1_bto/win32-comp-ecom
Revision: [VCInfo] http://toolsvc/branches/release-branch-2014-1-bto/src@515859 (built by build)
Revision Date: Fri Sep 05 14:05:06 2014

Release Date: Fri Sep 05 14:43:29 2014

                           1 --Driver Command: ccv850 -c -MD -I../../../../../app/common/dhd
                           2 --		-I../../../../../app/gfx_apps/simple_draw/src
                           3 --		-I../../../../../app/gfx_apps/simple_draw/lib
                           4 --		-I../../../../../bsp/board//config
                           5 --		-I../../../../../bsp/board//src/gfx
                           6 --		-I../../../../../bsp/board//src/hmi
                           7 --		-I../../../../../bsp/board//src/stdio
                           8 --		-I../../../../../bsp/board/d1mx_mango/config
                           9 --		-I../../../../../bsp/board/d1mx_mango/src
                          10 --		-I../../../../../bsp/board/d1mx_mango/src/gfx
                          11 --		-I../../../../../bsp/board/d1mx_mango/src/hmi
                          12 --		-I../../../../../bsp/board/d1mx_mango/src/stdio
                          13 --		-I../../../../../bsp/gfx/lib -I../../../../../bsp/gfx/src
                          14 --		-I../../../../../bsp/hmi/lib -I../../../../../bsp/hmi/src
                          15 --		-I../../../../../bsp/lib -I../../../../../bsp/stdio/lib
                          16 --		-I../../../../../bsp/stdio/src -I../../../../../cdi/lib
                          17 --		-I../../../../../cdi/src -I../../../../../compiler/rh850_ghs/inc
                          18 --		-I../../../../../device/d1mx/lib
                          19 --		-I../../../../../device/d1mx/macro_cfg
                          20 --		-I../../../../../device/d1mx/macro_cfg/csisw
                          21 --		-I../../../../../device/d1mx/macro_cfg/davehd
                          22 --		-I../../../../../device/d1mx/macro_cfg/ddb
                          23 --		-I../../../../../device/d1mx/macro_cfg/drw2d
                          24 --		-I../../../../../device/d1mx/macro_cfg/gfxbus
                          25 --		-I../../../../../device/d1mx/macro_cfg/gpio
                          26 --		-I../../../../../device/d1mx/macro_cfg/hypb
                          27 --		-I../../../../../device/d1mx/macro_cfg/hypdb
                          28 --		-I../../../../../device/d1mx/macro_cfg/jcua
                          29 --		-I../../../../../device/d1mx/macro_cfg/nfmabare
                          30 --		-I../../../../../device/d1mx/macro_cfg/octa
                          31 --		-I../../../../../device/d1mx/macro_cfg/octacdb
                          32 --		-I../../../../../device/d1mx/macro_cfg/ostm
                          33 --		-I../../../../../device/d1mx/macro_cfg/pbg
                          34 --		-I../../../../../device/d1mx/macro_cfg/riic
                          35 --		-I../../../../../device/d1mx/macro_cfg/sfcdb
                          36 --		-I../../../../../device/d1mx/macro_cfg/sfma
                          37 --		-I../../../../../device/d1mx/macro_cfg/spea
                          38 --		-I../../../../../device/d1mx/macro_cfg/tauj
                          39 --		-I../../../../../device/d1mx/macro_cfg/tick
                          40 --		-I../../../../../device/d1mx/macro_cfg/vdce
                          41 --		-I../../../../../device/d1mx/macro_cfg/vowe
                          42 --		-I../../../../../device/d1mx/macro_cfg/wm
                          43 --		-I../../../../../device/d1mx/macro_cfg/xbus
                          44 --		-I../../../../../device/d1mx/src/dev
                          45 --		-I../../../../../device/d1mx/src/dhd
                          46 --		-I../../../../../device/d1mx/src/hypb
                          47 --		-I../../../../../device/d1mx/src/jcua
                          48 --		-I../../../../../device/d1mx/src/nfmabare
                          49 --		-I../../../../../device/d1mx/src/octa
                          50 --		-I../../../../../device/d1mx/src/rh850_ghs

                                                                      Page 2
                                                              C:\Users\Frank\AppData\Local\Temp\gh_0000pnc1.si
                          51 --		-I../../../../../device/d1mx/src/vowe
                          52 --		-I../../../../../device/d1x_common/macro_cfg
                          53 --		-I../../../../../device/d1x_common/macro_cfg/csisw
                          54 --		-I../../../../../device/d1x_common/macro_cfg/davehd
                          55 --		-I../../../../../device/d1x_common/macro_cfg/ddb
                          56 --		-I../../../../../device/d1x_common/macro_cfg/drw2d
                          57 --		-I../../../../../device/d1x_common/macro_cfg/gfxbus
                          58 --		-I../../../../../device/d1x_common/macro_cfg/gpio
                          59 --		-I../../../../../device/d1x_common/macro_cfg/hypb
                          60 --		-I../../../../../device/d1x_common/macro_cfg/hypdb
                          61 --		-I../../../../../device/d1x_common/macro_cfg/jcua
                          62 --		-I../../../../../device/d1x_common/macro_cfg/nfmabare
                          63 --		-I../../../../../device/d1x_common/macro_cfg/octa
                          64 --		-I../../../../../device/d1x_common/macro_cfg/octacdb
                          65 --		-I../../../../../device/d1x_common/macro_cfg/ostm
                          66 --		-I../../../../../device/d1x_common/macro_cfg/pbg
                          67 --		-I../../../../../device/d1x_common/macro_cfg/riic
                          68 --		-I../../../../../device/d1x_common/macro_cfg/sfcdb
                          69 --		-I../../../../../device/d1x_common/macro_cfg/sfma
                          70 --		-I../../../../../device/d1x_common/macro_cfg/spea
                          71 --		-I../../../../../device/d1x_common/macro_cfg/tauj
                          72 --		-I../../../../../device/d1x_common/macro_cfg/tick
                          73 --		-I../../../../../device/d1x_common/macro_cfg/vdce
                          74 --		-I../../../../../device/d1x_common/macro_cfg/vowe
                          75 --		-I../../../../../device/d1x_common/macro_cfg/wm
                          76 --		-I../../../../../device/d1x_common/macro_cfg/xbus
                          77 --		-I../../../../../device/d1x_common/src/csisw
                          78 --		-I../../../../../device/d1x_common/src/ddb
                          79 --		-I../../../../../device/d1x_common/src/dev
                          80 --		-I../../../../../device/d1x_common/src/gfxbus
                          81 --		-I../../../../../device/d1x_common/src/gpio
                          82 --		-I../../../../../device/d1x_common/src/ostm
                          83 --		-I../../../../../device/d1x_common/src/pbg
                          84 --		-I../../../../../device/d1x_common/src/riic
                          85 --		-I../../../../../device/d1x_common/src/sfma
                          86 --		-I../../../../../device/d1x_common/src/spea
                          87 --		-I../../../../../device/d1x_common/src/tauj
                          88 --		-I../../../../../device/d1x_common/src/tick
                          89 --		-I../../../../../device/d1x_common/src/vdce
                          90 --		-I../../../../../device/d1x_common/src/wm
                          91 --		-I../../../../../device/d1x_common/src/xbus
                          92 --		-I../../../../../device/lib -I../../../../../macro/bus/pbg/lib
                          93 --		-I../../../../../macro/bus/pbg/src
                          94 --		-I../../../../../macro/csi/csisw/lib
                          95 --		-I../../../../../macro/csi/csisw/src
                          96 --		-I../../../../../macro/drw2d/lib
                          97 --		-I../../../../../macro/drw2d/platform/davehd
                          98 --		-I../../../../../macro/drw2d/platform/os/no_os
                          99 --		-I../../../../../macro/drw2d/src
                         100 --		-I../../../../../macro/flashc/hypb/lib
                         101 --		-I../../../../../macro/flashc/hypb/src
                         102 --		-I../../../../../macro/flashc/hypdb/lib
                         103 --		-I../../../../../macro/flashc/hypdb/src
                         104 --		-I../../../../../macro/flashc/nfmabare/lib
                         105 --		-I../../../../../macro/flashc/nfmabare/src
                         106 --		-I../../../../../macro/flashc/octa/lib
                         107 --		-I../../../../../macro/flashc/octa/src
                         108 --		-I../../../../../macro/flashc/octacdb/lib
                         109 --		-I../../../../../macro/flashc/octacdb/src
                         110 --		-I../../../../../macro/flashc/sfcdb/lib
                         111 --		-I../../../../../macro/flashc/sfcdb/src

                                                                      Page 3
                                                              C:\Users\Frank\AppData\Local\Temp\gh_0000pnc1.si
                         112 --		-I../../../../../macro/flashc/sfma/lib
                         113 --		-I../../../../../macro/flashc/sfma/src
                         114 --		-I../../../../../macro/gfxbus/lib
                         115 --		-I../../../../../macro/gfxbus/src
                         116 --		-I../../../../../macro/gfxbus/xbus/lib
                         117 --		-I../../../../../macro/gfxbus/xbus/src
                         118 --		-I../../../../../macro/gpio/lib -I../../../../../macro/gpio/src
                         119 --		-I../../../../../macro/gpu/davehd/common/inc
                         120 --		-I../../../../../macro/gpu/davehd/common/inc/platform
                         121 --		-I../../../../../macro/gpu/davehd/common/inc/platform/d1mx
                         122 --		-I../../../../../macro/gpu/davehd/docs
                         123 --		-I../../../../../macro/gpu/davehd/kernel/inc
                         124 --		-I../../../../../macro/gpu/davehd/kernel/platform/d1mx
                         125 --		-I../../../../../macro/gpu/davehd/kernel/platform/d1mx/bridge
                         126 --		-I../../../../../macro/gpu/davehd/kernel/platform/d1mx/non_threaded
                         127 --		-I../../../../../macro/gpu/davehd/kernel/platform/ree
                         128 --		-I../../../../../macro/gpu/davehd/kernel/src
                         129 --		-I../../../../../macro/gpu/davehd/user/inc
                         130 --		-I../../../../../macro/gpu/davehd/user/platform/d1mx/no_os
                         131 --		-I../../../../../macro/gpu/davehd/user/src
                         132 --		-I../../../../../macro/gpu/jcua/lib
                         133 --		-I../../../../../macro/gpu/jcua/src
                         134 --		-I../../../../../macro/i2c/riic/lib
                         135 --		-I../../../../../macro/i2c/riic/src
                         136 --		-I../../../../../macro/tick/lib -I../../../../../macro/tick/src
                         137 --		-I../../../../../macro/timer/ostm/lib
                         138 --		-I../../../../../macro/timer/ostm/src
                         139 --		-I../../../../../macro/timer/tauj/lib
                         140 --		-I../../../../../macro/timer/tauj/src
                         141 --		-I../../../../../macro/vdce/lib -I../../../../../macro/vdce/src
                         142 --		-I../../../../../macro/vo/ddb/lib
                         143 --		-I../../../../../macro/vo/ddb/src
                         144 --		-I../../../../../macro/vo/spea/lib
                         145 --		-I../../../../../macro/vo/spea/src
                         146 --		-I../../../../../macro/vo/vowe/lib
                         147 --		-I../../../../../macro/vo/vowe/src -I../../../../../macro/wm/lib
                         148 --		-I../../../../../macro/wm/src -I../../../../../macro/pwm/lib
                         149 --		-I../../../../../macro/i2c/riic/lib
                         150 --		-I../../../../../macro/reset/lib -I../../../../../macro/rscan/lib
                         151 --		-I../../../../../macro/uart/rlin3/lib
                         152 --		-I../../../../../macro/uart/rlin3/src
                         153 --		-I../../../../../device/d1x_common/macro_cfg/rlin3
                         154 --		-I../../../../../macro/stbc/lib
                         155 --		-I../../../../../app/gfx_apps/simple_draw/lib
                         156 --		-I../../../../../macro/adc/lib
                         157 --		-I../../../../../device/d1x_common/macro_cfg/adc7010 -G
                         158 --		--no_commons --no_implicit_include --prototype_errors
                         159 --		-DRENESAS_D1X -DR_DRW2D_OS_NO_OS -DR_DRW2D_SYS_DHD
                         160 --		-DUSED_CPU=RH850G3M -DUSE_BSP_GFX -DUSE_BSP_HMI -DUSE_BSP_STDIO
                         161 --		-DUSE_CDI -DUSE_CSISW -DUSE_DAVEHD -DUSE_DDB -DUSE_DRW2D
                         162 --		-DUSE_GFXBUS -DUSE_GPIO -DUSE_HYPB -DUSE_HYPDB -DUSE_JCUA
                         163 --		-DUSE_NFMABARE -DUSE_OCTA -DUSE_OCTACDB -DUSE_OSTM -DUSE_PBG
                         164 --		-DUSE_RIIC -DUSE_SFCDB -DUSE_SFMA -DUSE_SPEA -DUSE_TAUJ
                         165 --		-DUSE_TICK -DUSE_VDCE -DUSE_WM -DUSE_XBUS -DMAG -MD -Zuse1bit
                         166 --		-allocate_ep -cpu=rh850g3m -large_sda -list -no_callt -notda
                         167 --		-passsource -preprocess_assembly_files -registermode=22
                         168 --		-reserve_r2 --diag_warning 1 -object_dir=./obj -DUSE_VDCE_OPENLDI
                         169 --		-gnu99 -filetype.c
                         170 --		..\..\..\..\..\device\d1x_common\src\gpio\r_sys_gpio.c -o
                         171 --		.\obj\r_sys_gpio.o
                         172 --Source File:   ..\..\..\..\..\device\d1x_common\src\gpio\r_sys_gpio.c

                                                                      Page 4
                                                              C:\Users\Frank\AppData\Local\Temp\gh_0000pnc1.si
                         173 --Directory:     
                         174 --		C:\git\rh850\src\app\gfx_apps\simple_draw\target\d1mx_mango_ghs
                         175 --Compile Date:  Tue Oct 16 19:48:54 2018
                         176 --Host OS:       Win32
                         177 --Version:       C-RH850 2014.1.7 RELEASE VERSION
                         178 --Release:       Compiler v2014.1.7
                         179 --Revision Date: Fri Sep 05 14:10:46 2014
                         180 --Release Date:  Fri Sep 05 14:44:23 2014
                         181 -- ecom  -g -w
                         182 
                         183 --1: /*
                         184 --2: ****************************************************************************
                         185 --3: PROJECT : r7f701412
                         186 --4: FILE    : $Id: r_sys_gpio.c 7402 2016-01-27 15:43:39Z florian.zimmermann $
                         187 --5: ============================================================================ 
                         188 --6: DESCRIPTION
                         189 --7: PORTC system functions for r7f701412
                         190 --8: ============================================================================
                         191 --9:                             C O P Y R I G H T
                         192 --10: ============================================================================
                         193 --11:                        Copyright (c) 2013 - 2014
                         194 --12:                                   by 
                         195 --13:                        Renesas Electronics (Europe) GmbH. 
                         196 --14:                            Arcadiastrasse 10
                         197 --15:                           D-40472 Duesseldorf
                         198 --16:                                Germany
                         199 --17:                           All rights reserved.
                         200 --18: ============================================================================
                         201 --19: Purpose: only for testing, not for mass production
                         202 --21: DISCLAIMER
                         203 --23: LICENSEE has read, understood and accepted the terms and conditions defined in
                         204 --24: the license agreement, especially the usage rights. In any case, it is
                         205 --25: LICENSEE's responsibility to make sure that any user of the software complies
                         206 --26: with the terms and conditions of the signed license agreement.
                         207 --28: SAMPLE CODE is not part of the licensed software, as such it must not be used in
                         208 --29: mass-production applications. It can only be used for evaluation and
                         209 --30: demonstration purposes at customer's premises listed in the signed license
                         210 --31: agreement.
                         211 --33: ****************************************************************************
                         212 --34: */
                         213 --37: /*******************************************************************************
                         214 --38:   Title: r7f701412 GPIO Support Functions
                         215 --40:   Implementation of the GPIO support functions for the 
                         216 --41:   device r7f701412.
                         217 --42: */
                         218 --44: /*******************************************************************************
                         219 --45:   Section: Includes
                         220 --46: */
                         221 --48: #include "r_typedefs.h"
                         222 --49: #include "r_gpio_api.h"
                         223 --50: #include "r_gpio_sys.h"
                         224 --51: #include "r_config_pin.h"
                         225 --52: #include "r_config_gpio.h"
                         226 --54: /* The debug output for register accesses here shall be only active 
                         227 --55: on special request, otherwise the output might get "overloaded"  
                         228 --56: If you want to see all register accesses, activate R_DBG_SHOW_PIN_REGS
                         229 --57: in your application's Makefile */
                         230 --58: #ifndef R_DBG_SHOW_PIN_REGS
                         231 --59:   #undef  R_DBG_PRINT_DEV_REGS
                         232 --60: #endif   
                         233 --61: #include "r_dev_api.h"

                                                                      Page 5
                                                              C:\Users\Frank\AppData\Local\Temp\gh_0000pnc1.si
                         234 --65: /*******************************************************************************
                         235 --66:   Section: Local Constants
                         236 --67: */
                         237 --69: /*******************************************************************************
                         238 --70:   Constant: LOC_FCLA0CTL_BASE
                         239 --71:     
                         240 --72:     Base register address for filter configuration 
                         241 --73: */
                         242 --74: #define LOC_FCLA0CTL_BASE       0xffc34000u
                         243 --75: #define LOC_FCLA1CTL_BASE       0xffc34100u
                         244 --77: /*******************************************************************************
                         245 --78: Array : loc_FclaCtrlRegOffset
                         246 --80: The loc_FclaCtrlRegOffset array specifies FCLAnCTLm Register offsets
                         247 --81: */
                         248 --83: static const uint32_t loc_FclaCtrlRegOffset[12] = {
                         249 --84:     /* 0: INTP0  */             (LOC_FCLA0CTL_BASE + 0x0004u),
                         250 --85:     /* 1: INTP1  */             (LOC_FCLA0CTL_BASE + 0x0008u),
                         251 --86:     /* 2: INTP2  */             (LOC_FCLA0CTL_BASE + 0x000Cu),
                         252 --87:     /* 3: INTP3  */             (LOC_FCLA0CTL_BASE + 0x0010u),
                         253 --88:     /* 4: INTP4  */             (LOC_FCLA0CTL_BASE + 0x0014u),
                         254 --89:     /* 5: INTP5  */             (LOC_FCLA0CTL_BASE + 0x0018u),
                         255 --90:     /* 6: INTP6  */             (LOC_FCLA0CTL_BASE + 0x001Cu),
                         256 --91:     /* 7: INTP7  */             (LOC_FCLA1CTL_BASE + 0x0000u),
                         257 --92:     /* 8: INTP8  */             (LOC_FCLA1CTL_BASE + 0x0004u),
                         258 --93:     /* 9: INTP9  */             (LOC_FCLA1CTL_BASE + 0x0008u),
                         259 --94:     /*10: INTP10 */             (LOC_FCLA1CTL_BASE + 0x000Cu),
                         260 --95:     /*11: NMI    */             (LOC_FCLA0CTL_BASE + 0x0000u),
                         261 --96: };
                         262 --98: /*******************************************************************************
                         263 --99:   Constant: LOC_DNFA0CTL
                         264 --100:     
                         265 --101:     Base register address for filter control 
                         266 --102: */
                         267 --103: #define LOC_DNFA0CTL            0xffc30000u
                         268 --105: /*******************************************************************************
                         269 --106:   Constant: LOC_DNFA0EN
                         270 --107:     
                         271 --108:     Base register address for filter enable 
                         272 --109: */
                         273 --110: #define LOC_DNFA0EN             0xffc30004u
                         274 --112: /*******************************************************************************
                         275 --113:   Constant: loc_FilterSetting
                         276 --114:     Stores required register values for the filter configuration 
                         277 --115: */
                         278 --116: static const uint8_t loc_FilterSetting[R_GPIO_INT_TRIGGER_NUM] = 
                         279 --117: {
                         280 --118: /* R_GPIO_INT_TRIGGER_OFF         */ 0u, 
                         281 --119: /* R_GPIO_INT_RISING_EDGE         */ 0x1u,
                         282 --120: /* R_GPIO_INT_FALLING_EDGE        */ 0x2u, 
                         283 --121: /* R_GPIO_INT_BOTH_EDGES          */ 0x3u,
                         284 --122: /* R_GPIO_INT_LEVEL_HIGH          */ 0x5u,
                         285 --123: /* R_GPIO_INT_LEVEL_LOW           */ 0x4u
                         286 --124: };     
                         287 --126: /*******************************************************************************
                         288 --127:   Section: Global Functions
                         289 --129: */
                         290 --131: /*******************************************************************************
                         291 --132:   Function: R_SYS_GPIO_GetPin
                         292 --134:   See: r_gpio_sys.h for details
                         293 --135:  */
                         294 --136:  uint8_t R_SYS_GPIO_GetPin(int32_t Port, uint8_t Pin)

                                                                      Page 6
                                                              C:\Users\Frank\AppData\Local\Temp\gh_0000pnc1.si
                         295 	.text
                         296 ..bof.C.3A.5Cgit.5Crh850.5Csrc.5Capp.5Cgfx_apps.5Csimple_draw.5Ctarget.5Cd1mx_mango_ghs.5Cobj.5Cr_sys_gpio...43.3A.5Cgit.5Crh850.5Csrc.5Capp.5Cgfx_apps.5Csimple_draw.5Ctarget.5Cd1mx_mango_ghs..5BC5D026..0::
                         297 	.align	2
                         298 	.global	_R_SYS_GPIO_GetPin
                         299 _R_SYS_GPIO_GetPin:
00000000 8007e110        300 	prepare	{r27,r28,r29,r31},0
00000004 06e0            301 	mov	r6,r28
00000006 c7deff00        302 	andi	255,r7,r27
                         303 --	    .bf
                         304 .LDW01:
                         305 --137: {
                         306 --138:     uint32_t  addr         = R_DEV_PinGetRegAddr(R_DEV_PIN_REG_PPR, Port);  
0000000a 1c38            307 	mov	r28,r7
0000000c 0332            308 	mov	3,r6
                         309 	jarl	_R_DEV_PinGetRegAddr,lp
                         309 <EXPANSION BEGIN>
                         309 jarl22 _R_DEV_PinGetRegAddr , lp 
0000000e 80ff0000*       309 <EXPANSION END>
00000012 0ae8            310 	mov	r10,r29
                         311 --139:     uint16_t  pin_position = 1u;
                         312 --line139
                         313 ..lin.C.3A.5Cgit.5Crh850.5Csrc.5Capp.5Cgfx_apps.5Csimple_draw.5Ctarget.5Cd1mx_mango_ghs.5Cobj.5Cr_sys_gpio.1::
                         314 .LDWlin1:
00000014 010a            315 	mov	1,r1
                         316 --140:     uint16_t  reg_val      = R_DEV_READ_REG(16,addr);
00000016 fd770100        317 	ld.hu	0[r29],r14
                         318 --142:     pin_position = (uint16_t)(pin_position << Pin);
0000001a fb0fc268        319 	shl	r27,r1,r13
0000001e cd00            320 	zxh	r13
00000020 0d08            321 	mov	r13,r1
                         322 --143:     if (0 != (reg_val & pin_position)) 
00000022 0168            323 	mov	r1,r13
00000024 4e69            324 	and	r14,r13
00000026 b205*           325 	be	.L4
                         326 --144:     {
                         327 --145:         return 1; 
                         328 --line145
                         329 ..lin.C.3A.5Cgit.5Crh850.5Csrc.5Capp.5Cgfx_apps.5Csimple_draw.5Ctarget.5Cd1mx_mango_ghs.5Cobj.5Cr_sys_gpio.2::
                         330 .LDWlin2:
00000028 0152            331 	mov	1,r10
0000002a a505*           332 	br	.L2
                         333 .L4:
                         334 --146:     }
                         335 --147:     else 
                         336 --148:     {
                         337 --149:         return 0; 
                         338 --line149
                         339 ..lin.C.3A.5Cgit.5Crh850.5Csrc.5Capp.5Cgfx_apps.5Csimple_draw.5Ctarget.5Cd1mx_mango_ghs.5Cobj.5Cr_sys_gpio.3::
                         340 .LDWlin3:
0000002c 0052            341 	mov	0,r10
                         342 .L2:
                         343 --	    .ef
                         344 .LDW11:
0000002e 4006ff10        345 	dispose	0,{r27,r28,r29,r31},[lp]
                         346 	.type	_R_SYS_GPIO_GetPin,@function
                         347 	.size	_R_SYS_GPIO_GetPin,.-_R_SYS_GPIO_GetPin
                         348 	.align	2
                         349 .LDW21:
                         350 --_addr	r29	local
                         351 --_pin_position	r1	local
                         352 --_reg_val	r14	local

                                                                      Page 7
                                                              C:\Users\Frank\AppData\Local\Temp\gh_0000pnc1.si
                         353 
                         354 --_Port	r28	param
                         355 --_Pin	r27	param
                         356 
                         357 	.section ".bss","awb"
                         358 .L54:
                         359 	.type	.L54,@object
                         360 	.size	.L54,0
                         361 	.data
                         362 	.text
                         363 
                         364 --150:     }
                         365 --151: }
                         366 
                         367 --153: /*******************************************************************************
                         368 --154:   Function: R_SYS_GPIO_SetPin
                         369 --156:  See: r_gpio_sys.h for details
                         370 --157: */
                         371 --159: void R_SYS_GPIO_SetPin(int32_t Port, uint8_t Pin, uint8_t Value)
                         372 	.align	2
                         373 	.align	2
                         374 	.global	_R_SYS_GPIO_SetPin
                         375 _R_SYS_GPIO_SetPin:
00000032 8007e130        376 	prepare	{r26,r27,r28,r29,r31},0
00000036 06e0            377 	mov	r6,r28
00000038 c7deff00        378 	andi	255,r7,r27
0000003c c8d6ff00        379 	andi	255,r8,r26
                         380 --	    .bf
                         381 .LDW31:
                         382 --160: {
                         383 --161:     uint32_t  addr         = R_DEV_PinGetRegAddr(R_DEV_PIN_REG_PSR, Port); 
00000040 1c38            384 	mov	r28,r7
00000042 0232            385 	mov	2,r6
                         386 	jarl	_R_DEV_PinGetRegAddr,lp
                         386 <EXPANSION BEGIN>
                         386 jarl22 _R_DEV_PinGetRegAddr , lp 
00000044 80ff0000*       386 <EXPANSION END>
00000048 0ae8            387 	mov	r10,r29
                         388 --162:     uint16_t  pin_position = (uint16_t)((uint16_t)1u << (uint16_t)Pin);
                         389 --line162
                         390 ..lin.C.3A.5Cgit.5Crh850.5Csrc.5Capp.5Cgfx_apps.5Csimple_draw.5Ctarget.5Cd1mx_mango_ghs.5Cobj.5Cr_sys_gpio.4::
                         391 .LDWlin4:
0000004a 010a            392 	mov	1,r1
0000004c fb0fc270        393 	shl	r27,r1,r14
00000050 ce00            394 	zxh	r14
                         395 --163:     uint32_t  reg_val      = pin_position;
00000052 0e08            396 	mov	r14,r1
                         397 --165:     /* we use masked port reg write 
                         398 --166:             reg_val = Mask<<16 | Port */
                         399 --167:     reg_val    <<= 16; 
00000054 d00a            400 	shl	16,r1
                         401 --169:     
                         402 --170:     /* Set or Clear? */
                         403 --171:     if (0 != Value) /* Set bit*/ 
00000056 e0d1            404 	cmp	zero,r26
00000058 a205*           405 	be	.L88
                         406 --172:     {
                         407 --173:         reg_val |= (uint32_t)pin_position; 
                         408 --line173
                         409 ..lin.C.3A.5Cgit.5Crh850.5Csrc.5Capp.5Cgfx_apps.5Csimple_draw.5Ctarget.5Cd1mx_mango_ghs.5Cobj.5Cr_sys_gpio.5::
                         410 .LDWlin5:

                                                                      Page 8
                                                              C:\Users\Frank\AppData\Local\Temp\gh_0000pnc1.si
0000005a 0e09            411 	or	r14,r1
                         412 .L88:
                         413 --174:     }
                         414 --175:     else      /* Clear bit*/
                         415 --176:     {
                         416 --177:         /* Nothing to do */ 
                         417 --178:     }
                         418 --179:     R_DEV_WRITE_REG(32, addr, reg_val); 
0000005c 7d0f0100        419 	st.w	r1,0[r29]
                         420 --180: }
                         421 --	    .ef
                         422 .LDW41:
00000060 4006ff30        423 	dispose	0,{r26,r27,r28,r29,r31},[lp]
                         424 	.type	_R_SYS_GPIO_SetPin,@function
                         425 	.size	_R_SYS_GPIO_SetPin,.-_R_SYS_GPIO_SetPin
                         426 	.align	2
                         427 .LDW51:
                         428 --_addr	r29	local
                         429 --_pin_position	r14	local
                         430 --_reg_val	r1	local
                         431 
                         432 --_Port	r28	param
                         433 --_Pin	r27	param
                         434 --_Value	r26	param
                         435 
                         436 	.section ".bss","awb"
                         437 .L138:
                         438 	.type	.L138,@object
                         439 	.size	.L138,0
                         440 	.data
                         441 	.text
                         442 
                         443 
                         444 --182: /*******************************************************************************
                         445 --183:   Function: R_SYS_GPIO_InvPin
                         446 --185:  See: r_gpio_sys.h for details
                         447 --186: */
                         448 --188: void R_SYS_GPIO_InvPin(int32_t Port, uint8_t Pin)
                         449 	.align	2
                         450 	.align	2
                         451 	.global	_R_SYS_GPIO_InvPin
                         452 _R_SYS_GPIO_InvPin:
00000064 8007e110        453 	prepare	{r27,r28,r29,r31},0
00000068 06e0            454 	mov	r6,r28
0000006a c7deff00        455 	andi	255,r7,r27
                         456 --	    .bf
                         457 .LDW61:
                         458 --189: {
                         459 --190:     uint32_t  addr     = R_DEV_PinGetRegAddr(R_DEV_PIN_REG_PNOT, Port); 
0000006e 1c38            460 	mov	r28,r7
00000070 0832            461 	mov	8,r6
                         462 	jarl	_R_DEV_PinGetRegAddr,lp
                         462 <EXPANSION BEGIN>
                         462 jarl22 _R_DEV_PinGetRegAddr , lp 
00000072 80ff0000*       462 <EXPANSION END>
00000076 0ae8            463 	mov	r10,r29
                         464 --191:     uint16_t  pin_mask = (uint16_t)((uint16_t)1u << (uint16_t)Pin);
                         465 --line191
                         466 ..lin.C.3A.5Cgit.5Crh850.5Csrc.5Capp.5Cgfx_apps.5Csimple_draw.5Ctarget.5Cd1mx_mango_ghs.5Cobj.5Cr_sys_gpio.6::
                         467 .LDWlin6:
00000078 0172            468 	mov	1,r14

                                                                      Page 9
                                                              C:\Users\Frank\AppData\Local\Temp\gh_0000pnc1.si
0000007a fb77c208        469 	shl	r27,r14,r1
0000007e c100            470 	zxh	r1
                         471 --192:     R_DEV_WRITE_REG(32, addr, pin_mask); 
00000080 7d0f0100        472 	st.w	r1,0[r29]
                         473 --193: }
                         474 --	    .ef
                         475 .LDW71:
00000084 4006ff10        476 	dispose	0,{r27,r28,r29,r31},[lp]
                         477 	.type	_R_SYS_GPIO_InvPin,@function
                         478 	.size	_R_SYS_GPIO_InvPin,.-_R_SYS_GPIO_InvPin
                         479 	.align	2
                         480 .LDW81:
                         481 --_addr	r29	local
                         482 --_pin_mask	r1	local
                         483 
                         484 --_Port	r28	param
                         485 --_Pin	r27	param
                         486 
                         487 	.section ".bss","awb"
                         488 .L202:
                         489 	.type	.L202,@object
                         490 	.size	.L202,0
                         491 	.data
                         492 	.text
                         493 
                         494 
                         495 --195: /*******************************************************************************
                         496 --196:   Function: R_SYS_GPIO_InvPort
                         497 --198:  See: r_gpio_sys.h for details
                         498 --199: */
                         499 --201: void R_SYS_GPIO_InvPort(int32_t Port)
                         500 	.align	2
                         501 	.align	2
                         502 	.global	_R_SYS_GPIO_InvPort
                         503 _R_SYS_GPIO_InvPort:
00000088 8007e100        504 	prepare	{r28,r29,r31},0
0000008c 06e0            505 	mov	r6,r28
                         506 --	    .bf
                         507 .LDW91:
                         508 --202: {
                         509 --203:     uint32_t  addr         = R_DEV_PinGetRegAddr(R_DEV_PIN_REG_PNOT, Port); 
0000008e 1c38            510 	mov	r28,r7
00000090 0832            511 	mov	8,r6
                         512 	jarl	_R_DEV_PinGetRegAddr,lp
                         512 <EXPANSION BEGIN>
                         512 jarl22 _R_DEV_PinGetRegAddr , lp 
00000092 80ff0000*       512 <EXPANSION END>
00000096 0ae8            513 	mov	r10,r29
                         514 --204:     R_DEV_WRITE_REG(32, addr, 0xFFFFu); 
                         515 --line204
                         516 ..lin.C.3A.5Cgit.5Crh850.5Csrc.5Capp.5Cgfx_apps.5Csimple_draw.5Ctarget.5Cd1mx_mango_ghs.5Cobj.5Cr_sys_gpio.7::
                         517 .LDWlin7:
00000098 800effff        518 	ori	65535,zero,r1
0000009c 7d0f0100        519 	st.w	r1,0[r29]
                         520 --205: }
                         521 --	    .ef
                         522 .LDW02:
000000a0 4006ff00        523 	dispose	0,{r28,r29,r31},[lp]
                         524 	.type	_R_SYS_GPIO_InvPort,@function
                         525 	.size	_R_SYS_GPIO_InvPort,.-_R_SYS_GPIO_InvPort
                         526 	.align	2

                                                                      Page 10
                                                              C:\Users\Frank\AppData\Local\Temp\gh_0000pnc1.si
                         527 .LDW12:
                         528 --_addr	r29	local
                         529 
                         530 --_Port	r28	param
                         531 
                         532 	.section ".bss","awb"
                         533 .L246:
                         534 	.type	.L246,@object
                         535 	.size	.L246,0
                         536 	.data
                         537 	.text
                         538 
                         539 
                         540 --207: /*******************************************************************************
                         541 --208:   Function: R_SYS_GPIO_GetPort
                         542 --209:   
                         543 --210:  See: r_gpio_sys.h for details
                         544 --211: */
                         545 --213:  uint16_t R_SYS_GPIO_GetPort(int32_t Port)
                         546 	.align	2
                         547 	.align	2
                         548 	.global	_R_SYS_GPIO_GetPort
                         549 _R_SYS_GPIO_GetPort:
000000a4 8007e100        550 	prepare	{r28,r29,r31},0
000000a8 06e0            551 	mov	r6,r28
                         552 --	    .bf
                         553 .LDW22:
                         554 --214: {
                         555 --215:     uint32_t  addr = R_DEV_PinGetRegAddr(R_DEV_PIN_REG_PPR, Port);  
000000aa 1c38            556 	mov	r28,r7
000000ac 0332            557 	mov	3,r6
                         558 	jarl	_R_DEV_PinGetRegAddr,lp
                         558 <EXPANSION BEGIN>
                         558 jarl22 _R_DEV_PinGetRegAddr , lp 
000000ae 80ff0000*       558 <EXPANSION END>
000000b2 0ae8            559 	mov	r10,r29
                         560 --216:     uint32_t  val = R_DEV_READ_REG(16,addr);  
                         561 --line216
                         562 ..lin.C.3A.5Cgit.5Crh850.5Csrc.5Capp.5Cgfx_apps.5Csimple_draw.5Ctarget.5Cd1mx_mango_ghs.5Cobj.5Cr_sys_gpio.8::
                         563 .LDWlin8:
000000b4 fd0f0100        564 	ld.hu	0[r29],r1
                         565 --217:     return val; 
000000b8 0170            566 	mov	r1,r14
000000ba ce00            567 	zxh	r14
000000bc 0e50            568 	mov	r14,r10
                         569 --	    .ef
                         570 .LDW32:
000000be 4006ff00        571 	dispose	0,{r28,r29,r31},[lp]
                         572 	.type	_R_SYS_GPIO_GetPort,@function
                         573 	.size	_R_SYS_GPIO_GetPort,.-_R_SYS_GPIO_GetPort
                         574 	.align	2
                         575 .LDW42:
                         576 --_addr	r29	local
                         577 --_val	r1	local
                         578 
                         579 --_Port	r28	param
                         580 
                         581 	.section ".bss","awb"
                         582 .L294:
                         583 	.type	.L294,@object
                         584 	.size	.L294,0

                                                                      Page 11
                                                              C:\Users\Frank\AppData\Local\Temp\gh_0000pnc1.si
                         585 	.data
                         586 	.text
                         587 
                         588 --218: }
                         589 
                         590 --221: /*******************************************************************************
                         591 --222:   Function: R_SYS_GPIO_PinDirection
                         592 --223:   
                         593 --224:  See: r_gpio_sys.h for details
                         594 --226: */
                         595 --228: void R_SYS_GPIO_PinDirection(int32_t Port, uint8_t Pin, uint8_t Dir)
                         596 	.align	2
                         597 	.align	2
                         598 	.global	_R_SYS_GPIO_PinDirection
                         599 _R_SYS_GPIO_PinDirection:
000000c2 8207e170        600 	prepare	{r25,r26,r27,r28,r29,r31},1
000000c6 c75eff00        601 	andi	255,r7,r11
000000ca 06d0            602 	mov	r6,r26
000000cc 435f0300        603 	st.b	r11,3[sp]
000000d0 c8ceff00        604 	andi	255,r8,r25
                         605 --	    .bf
                         606 .LDW52:
                         607 --229: {
                         608 --230:     uint32_t  addr = R_DEV_PinGetRegAddr(R_DEV_PIN_REG_PM, Port);  
000000d4 1a38            609 	mov	r26,r7
000000d6 0432            610 	mov	4,r6
                         611 	jarl	_R_DEV_PinGetRegAddr,lp
                         611 <EXPANSION BEGIN>
                         611 jarl22 _R_DEV_PinGetRegAddr , lp 
000000d8 80ff0000*       611 <EXPANSION END>
000000dc 0ae0            612 	mov	r10,r28
                         613 --231:     uint16_t  reg_val      = 0u;
                         614 --line231
                         615 ..lin.C.3A.5Cgit.5Crh850.5Csrc.5Capp.5Cgfx_apps.5Csimple_draw.5Ctarget.5Cd1mx_mango_ghs.5Cobj.5Cr_sys_gpio.9::
                         616 .LDWlin9:
000000de 00ea            617 	mov	0,r29
                         618 --232:     uint16_t  pin_position = 1u;
000000e0 01da            619 	mov	1,r27
                         620 --234:     reg_val = R_DEV_READ_REG(16, addr);
000000e2 fcef0100        621 	ld.hu	0[r28],r29
                         622 --235:     if (0 == Dir) /*  Set direction to output */
000000e6 e0c9            623 	cmp	zero,r25
000000e8 8a0d*           624 	bne	.L314
                         625 --236:     {
                         626 --237:         reg_val &= (uint16_t)(~pin_position);
                         627 --line237
                         628 ..lin.C.3A.5Cgit.5Crh850.5Csrc.5Capp.5Cgfx_apps.5Csimple_draw.5Ctarget.5Cd1mx_mango_ghs.5Cobj.5Cr_sys_gpio.10::
                         629 .LDWlin10:
000000ea 3b08            630 	not	r27,r1
000000ec c100            631 	zxh	r1
000000ee 41e9            632 	and	r1,r29
000000f0 dd00            633 	zxh	r29
                         634 --238:         R_DEV_WRITE_REG(16, addr, reg_val);
000000f2 7cef0000        635 	st.h	r29,0[r28]
000000f6 d505*           636 	br	.L316
                         637 .L314:
                         638 --239:     }
                         639 --240:     else /* Set direction to input */
                         640 --241:     {
                         641 --242:         reg_val |= pin_position;
                         642 --line242

                                                                      Page 12
                                                              C:\Users\Frank\AppData\Local\Temp\gh_0000pnc1.si
                         643 ..lin.C.3A.5Cgit.5Crh850.5Csrc.5Capp.5Cgfx_apps.5Csimple_draw.5Ctarget.5Cd1mx_mango_ghs.5Cobj.5Cr_sys_gpio.11::
                         644 .LDWlin11:
000000f8 1be9            645 	or	r27,r29
000000fa dd00            646 	zxh	r29
                         647 --243:         R_DEV_WRITE_REG(16, addr, reg_val);
000000fc 7cef0000        648 	st.h	r29,0[r28]
                         649 .L316:
                         650 --244:     }
                         651 --245:     
                         652 --246:     /* Activate input buffer in case of GP input  */
                         653 --247:     addr    = R_DEV_PinGetRegAddr(R_DEV_PIN_REG_PIBC, Port);
00000100 1a38            654 	mov	r26,r7
00000102 0c32            655 	mov	12,r6
                         656 	jarl	_R_DEV_PinGetRegAddr,lp
                         656 <EXPANSION BEGIN>
                         656 jarl22 _R_DEV_PinGetRegAddr , lp 
00000104 80ff0000*       656 <EXPANSION END>
00000108 0ae0            657 	mov	r10,r28
                         658 --248:     reg_val = R_DEV_READ_REG(16, addr);
                         659 --line248
                         660 ..lin.C.3A.5Cgit.5Crh850.5Csrc.5Capp.5Cgfx_apps.5Csimple_draw.5Ctarget.5Cd1mx_mango_ghs.5Cobj.5Cr_sys_gpio.12::
                         661 .LDWlin12:
0000010a fcef0100        662 	ld.hu	0[r28],r29
                         663 --249:     if (0 == Dir)
0000010e e0c9            664 	cmp	zero,r25
00000110 ea05*           665 	bne	.L317
                         666 --250:     {
                         667 --251:         reg_val &= (uint16_t)(~pin_position); 
                         668 --line251
                         669 ..lin.C.3A.5Cgit.5Crh850.5Csrc.5Capp.5Cgfx_apps.5Csimple_draw.5Ctarget.5Cd1mx_mango_ghs.5Cobj.5Cr_sys_gpio.13::
                         670 .LDWlin13:
00000112 3b08            671 	not	r27,r1
00000114 c100            672 	zxh	r1
00000116 41e9            673 	and	r1,r29
00000118 dd00            674 	zxh	r29
0000011a b505*           675 	br	.L319
                         676 .L317:
                         677 --252:     }
                         678 --253:     else 
                         679 --254:     {
                         680 --255:         reg_val |= pin_position; 
                         681 --line255
                         682 ..lin.C.3A.5Cgit.5Crh850.5Csrc.5Capp.5Cgfx_apps.5Csimple_draw.5Ctarget.5Cd1mx_mango_ghs.5Cobj.5Cr_sys_gpio.14::
                         683 .LDWlin14:
0000011c 1be9            684 	or	r27,r29
0000011e dd00            685 	zxh	r29
                         686 .L319:
                         687 --256:     }
                         688 --257:     R_DEV_WRITE_REG(16, addr, reg_val);
00000120 7cef0000        689 	st.h	r29,0[r28]
                         690 --258:     
                         691 --259: }
                         692 --	    .ef
                         693 .LDW62:
00000124 4206ff70        694 	dispose	1,{r25,r26,r27,r28,r29,r31},[lp]
                         695 	.type	_R_SYS_GPIO_PinDirection,@function
                         696 	.size	_R_SYS_GPIO_PinDirection,.-_R_SYS_GPIO_PinDirection
                         697 	.align	2
                         698 .LDW72:
                         699 --_addr	r28	local
                         700 --_reg_val	r29	local

                                                                      Page 13
                                                              C:\Users\Frank\AppData\Local\Temp\gh_0000pnc1.si
                         701 --_pin_position	r27	local
                         702 
                         703 --_Port	r26	param
                         704 --_Pin	3[sp]	param
                         705 --_Dir	r25	param
                         706 
                         707 	.section ".bss","awb"
                         708 .L394:
                         709 	.type	.L394,@object
                         710 	.size	.L394,0
                         711 	.data
                         712 	.text
                         713 
                         714 
                         715 --261: /*******************************************************************************
                         716 --262:   Function: R_SYS_GPIO_WritePort
                         717 --264:   See: r_gpio_sys.h for details
                         718 --265: */
                         719 --267: void R_SYS_GPIO_WritePort(int32_t Port, uint16_t Mask, uint16_t Value)
                         720 	.align	2
                         721 	.align	2
                         722 	.global	_R_SYS_GPIO_WritePort
                         723 _R_SYS_GPIO_WritePort:
00000128 8007e130        724 	prepare	{r26,r27,r28,r29,r31},0
0000012c 06e0            725 	mov	r6,r28
0000012e c7deffff        726 	andi	65535,r7,r27
00000132 c8d6ffff        727 	andi	65535,r8,r26
                         728 --	    .bf
                         729 .LDW82:
                         730 --268: {
                         731 --269:     uint32_t  addr         = R_DEV_PinGetRegAddr(R_DEV_PIN_REG_PSR, Port); 
00000136 1c38            732 	mov	r28,r7
00000138 0232            733 	mov	2,r6
                         734 	jarl	_R_DEV_PinGetRegAddr,lp
                         734 <EXPANSION BEGIN>
                         734 jarl22 _R_DEV_PinGetRegAddr , lp 
0000013a 80ff0000*       734 <EXPANSION END>
0000013e 0ae8            735 	mov	r10,r29
                         736 --270:     uint32_t  reg_val      = Mask;
                         737 --line270
                         738 ..lin.C.3A.5Cgit.5Crh850.5Csrc.5Capp.5Cgfx_apps.5Csimple_draw.5Ctarget.5Cd1mx_mango_ghs.5Cobj.5Cr_sys_gpio.15::
                         739 .LDWlin15:
00000140 1b08            740 	mov	r27,r1
                         741 --272:     /* we use masked port reg write 
                         742 --273:             reg_val = Mask<<16 | Port */
                         743 --274:     reg_val    <<= 16; 
00000142 d00a            744 	shl	16,r1
                         745 --275:     reg_val |= (uint32_t)Value; 
00000144 1a09            746 	or	r26,r1
                         747 --276:     R_DEV_WRITE_REG(32, addr, reg_val); 
00000146 7d0f0100        748 	st.w	r1,0[r29]
                         749 --278: }
                         750 --	    .ef
                         751 .LDW92:
0000014a 4006ff30        752 	dispose	0,{r26,r27,r28,r29,r31},[lp]
                         753 	.type	_R_SYS_GPIO_WritePort,@function
                         754 	.size	_R_SYS_GPIO_WritePort,.-_R_SYS_GPIO_WritePort
                         755 	.align	2
                         756 .LDW03:
                         757 --_addr	r29	local
                         758 --_reg_val	r1	local

                                                                      Page 14
                                                              C:\Users\Frank\AppData\Local\Temp\gh_0000pnc1.si
                         759 
                         760 --_Port	r28	param
                         761 --_Mask	r27	param
                         762 --_Value	r26	param
                         763 
                         764 	.section ".bss","awb"
                         765 .L498:
                         766 	.type	.L498,@object
                         767 	.size	.L498,0
                         768 	.data
                         769 	.text
                         770 
                         771 
                         772 --279: /*******************************************************************************
                         773 --280:   Function: R_SYS_GPIO_EnableInt
                         774 --282:   See: r_gpio_sys.h for details
                         775 --283: */
                         776 --285: void R_SYS_GPIO_EnableInt(uint32_t Unit) 
                         777 	.align	2
                         778 	.align	2
                         779 	.global	_R_SYS_GPIO_EnableInt
                         780 _R_SYS_GPIO_EnableInt:
0000014e 80076100        781 	prepare	{r29,r31},0
00000152 06e8            782 	mov	r6,r29
                         783 --	    .bf
                         784 .LDW13:
                         785 --286: {
                         786 --287:     if (Unit < R_GPIO_EXT_INT_NUM) 
00000154 6bea            787 	cmp	11,r29
00000156 f905*           788 	bnl	.L527
                         789 --289:     {
                         790 --290:         R_DEV_IntEnable((r_dev_IntSel_t)(R_DEV_INT_P0 + Unit) ,1); 
                         791 --line290
                         792 ..lin.C.3A.5Cgit.5Crh850.5Csrc.5Capp.5Cgfx_apps.5Csimple_draw.5Ctarget.5Cd1mx_mango_ghs.5Cobj.5Cr_sys_gpio.16::
                         793 .LDWlin16:
00000158 1d360600        794 	addi	6,r29,r6
0000015c 013a            795 	mov	1,r7
                         796 	jarl	_R_DEV_IntEnable,lp
                         796 <EXPANSION BEGIN>
                         796 jarl22 _R_DEV_IntEnable , lp 
0000015e 80ff0000*       796 <EXPANSION END>
00000162 d505*           797 	br	.L529
                         798 .L527:
                         799 --291:     }
                         800 --292:     else 
                         801 --293:     {
                         802 --294:         R_DEV_ERROR(Unit, R_DEV_ERR_INTR, "GPIO: We do not have this Ext. Int");      
                         803 --line294
                         804 ..lin.C.3A.5Cgit.5Crh850.5Csrc.5Capp.5Cgfx_apps.5Csimple_draw.5Ctarget.5Cd1mx_mango_ghs.5Cobj.5Cr_sys_gpio.17::
                         805 .LDWlin17:
00000164 1d30            806 	mov	r29,r6
00000166 043a            807 	mov	4,r7
                         808 	jarl	_R_DEV_ErrorHandler,lp
                         808 <EXPANSION BEGIN>
                         808 jarl22 _R_DEV_ErrorHandler , lp 
00000168 80ff0000*       808 <EXPANSION END>
                         809 .L529:
                         810 --295:     }
                         811 --296: }
                         812 --	    .ef
                         813 .LDW23:

                                                                      Page 15
                                                              C:\Users\Frank\AppData\Local\Temp\gh_0000pnc1.si
                         814 --line296
                         815 ..lin.C.3A.5Cgit.5Crh850.5Csrc.5Capp.5Cgfx_apps.5Csimple_draw.5Ctarget.5Cd1mx_mango_ghs.5Cobj.5Cr_sys_gpio.18::
                         816 .LDWlin18:
0000016c 40067f00        817 	dispose	0,{r29,r31},[lp]
                         818 	.type	_R_SYS_GPIO_EnableInt,@function
                         819 	.size	_R_SYS_GPIO_EnableInt,.-_R_SYS_GPIO_EnableInt
                         820 	.align	2
                         821 .LDW33:
                         822 
                         823 --_Unit	r29	param
                         824 
                         825 	.section ".bss","awb"
                         826 .L570:
                         827 	.type	.L570,@object
                         828 	.size	.L570,0
                         829 	.data
                         830 	.text
                         831 
                         832 
                         833 --299: /*******************************************************************************
                         834 --300:   Function: R_SYS_GPIO_DisableInt
                         835 --302:   See: r_gpio_sys.h for details
                         836 --303: */
                         837 --305: void R_SYS_GPIO_DisableInt(uint32_t Unit) 
                         838 	.align	2
                         839 	.align	2
                         840 	.global	_R_SYS_GPIO_DisableInt
                         841 _R_SYS_GPIO_DisableInt:
00000170 80076100        842 	prepare	{r29,r31},0
00000174 06e8            843 	mov	r6,r29
                         844 --	    .bf
                         845 .LDW43:
                         846 --306: {
                         847 --307:     if (Unit < R_GPIO_EXT_INT_NUM) 
00000176 6bea            848 	cmp	11,r29
00000178 f905*           849 	bnl	.L593
                         850 --308:     {
                         851 --309:         R_DEV_IntEnable((r_dev_IntSel_t)(R_DEV_INT_P0 + Unit), 0);
                         852 --line309
                         853 ..lin.C.3A.5Cgit.5Crh850.5Csrc.5Capp.5Cgfx_apps.5Csimple_draw.5Ctarget.5Cd1mx_mango_ghs.5Cobj.5Cr_sys_gpio.19::
                         854 .LDWlin19:
0000017a 1d360600        855 	addi	6,r29,r6
0000017e 003a            856 	mov	0,r7
                         857 	jarl	_R_DEV_IntEnable,lp
                         857 <EXPANSION BEGIN>
                         857 jarl22 _R_DEV_IntEnable , lp 
00000180 80ff0000*       857 <EXPANSION END>
00000184 d505*           858 	br	.L595
                         859 .L593:
                         860 --310:     }
                         861 --311:     else 
                         862 --312:     {
                         863 --313:         R_DEV_ERROR(Unit, R_DEV_ERR_INTR, "GPIO: We do not have this Ext. Int");      
                         864 --line313
                         865 ..lin.C.3A.5Cgit.5Crh850.5Csrc.5Capp.5Cgfx_apps.5Csimple_draw.5Ctarget.5Cd1mx_mango_ghs.5Cobj.5Cr_sys_gpio.20::
                         866 .LDWlin20:
00000186 1d30            867 	mov	r29,r6
00000188 043a            868 	mov	4,r7
                         869 	jarl	_R_DEV_ErrorHandler,lp
                         869 <EXPANSION BEGIN>
                         869 jarl22 _R_DEV_ErrorHandler , lp 

                                                                      Page 16
                                                              C:\Users\Frank\AppData\Local\Temp\gh_0000pnc1.si
0000018a 80ff0000*       869 <EXPANSION END>
                         870 .L595:
                         871 --314:     }
                         872 --315: }
                         873 --	    .ef
                         874 .LDW53:
                         875 --line315
                         876 ..lin.C.3A.5Cgit.5Crh850.5Csrc.5Capp.5Cgfx_apps.5Csimple_draw.5Ctarget.5Cd1mx_mango_ghs.5Cobj.5Cr_sys_gpio.21::
                         877 .LDWlin21:
0000018e 40067f00        878 	dispose	0,{r29,r31},[lp]
                         879 	.type	_R_SYS_GPIO_DisableInt,@function
                         880 	.size	_R_SYS_GPIO_DisableInt,.-_R_SYS_GPIO_DisableInt
                         881 	.align	2
                         882 .LDW63:
                         883 
                         884 --_Unit	r29	param
                         885 
                         886 	.section ".bss","awb"
                         887 .L634:
                         888 	.type	.L634,@object
                         889 	.size	.L634,0
                         890 	.data
                         891 	.text
                         892 
                         893 
                         894 --317: /*******************************************************************************
                         895 --318:   Function: R_SYS_GPIO_SetIntFilter
                         896 --320:   See: r_gpio_sys.h for details
                         897 --321: */
                         898 --322: void R_SYS_GPIO_SetIntFilter(uint32_t Unit, r_gpio_IntTrigger_t Trigger)
                         899 	.align	2
                         900 	.align	2
                         901 	.align	2
                         902 	.global	_R_SYS_GPIO_SetIntFilter
                         903 _R_SYS_GPIO_SetIntFilter:
00000192 8007e100        904 	prepare	{r28,r29,r31},0
00000196 06e8            905 	mov	r6,r29
00000198 07e0            906 	mov	r7,r28
                         907 --	    .bf
                         908 .LDW73:
                         909 --323: {
                         910 --324:     if (Trigger < R_GPIO_INT_TRIGGER_NUM)
0000019a 66e2            911 	cmp	6,r28
0000019c 8915*           912 	bnl	.L657
                         913 --325:     {
                         914 --326:         R_DEV_WRITE_REG(8, loc_FclaCtrlRegOffset[Unit], loc_FilterSetting[Trigger]);
                         915 --line326
                         916 ..lin.C.3A.5Cgit.5Crh850.5Csrc.5Capp.5Cgfx_apps.5Csimple_draw.5Ctarget.5Cd1mx_mango_ghs.5Cobj.5Cr_sys_gpio.22::
                         917 .LDWlin22:
0000019e 1df0            918 	mov	r29,ep
000001a0 c2f2            919 	shl	2,ep
000001a2 2e0600000000*   920 	mov	_loc_FclaCtrlRegOffset,r14
000001a8 cef1            921 	add	r14,ep
000001aa 210600000000*   922 	mov	_loc_FilterSetting,r1
000001b0 00f5            923 	sld.w	0[ep],ep
000001b2 dc09            924 	add	r28,r1
000001b4 810f0100        925 	ld.bu	0[r1],r1
000001b8 800b            926 	sst.b	r1,0[ep]
000001ba d505*           927 	br	.L659
                         928 .L657:
                         929 --327:     }

                                                                      Page 17
                                                              C:\Users\Frank\AppData\Local\Temp\gh_0000pnc1.si
                         930 --328:     else 
                         931 --329:     {
                         932 --330:         R_DEV_ERROR(Unit, R_DEV_ERR_INTR, "GPIO: We do not have this Ext. Int"); 
                         933 --line330
                         934 ..lin.C.3A.5Cgit.5Crh850.5Csrc.5Capp.5Cgfx_apps.5Csimple_draw.5Ctarget.5Cd1mx_mango_ghs.5Cobj.5Cr_sys_gpio.23::
                         935 .LDWlin23:
000001bc 1d30            936 	mov	r29,r6
000001be 043a            937 	mov	4,r7
                         938 	jarl	_R_DEV_ErrorHandler,lp
                         938 <EXPANSION BEGIN>
                         938 jarl22 _R_DEV_ErrorHandler , lp 
000001c0 80ff0000*       938 <EXPANSION END>
                         939 .L659:
                         940 --331:     }
                         941 --332: }
                         942 --	    .ef
                         943 .LDW83:
                         944 --line332
                         945 ..lin.C.3A.5Cgit.5Crh850.5Csrc.5Capp.5Cgfx_apps.5Csimple_draw.5Ctarget.5Cd1mx_mango_ghs.5Cobj.5Cr_sys_gpio.24::
                         946 .LDWlin24:
000001c4 4006ff00        947 	dispose	0,{r28,r29,r31},[lp]
                         948 	.type	_R_SYS_GPIO_SetIntFilter,@function
                         949 	.size	_R_SYS_GPIO_SetIntFilter,.-_R_SYS_GPIO_SetIntFilter
                         950 	.align	2
                         951 .LDW93:
                         952 
                         953 --_Unit	r29	param
                         954 --_Trigger	r28	param
                         955 
                         956 	.section ".bss","awb"
                         957 .L698:
                         958 	.type	.L698,@object
                         959 	.size	.L698,0
                         960 	.section ".rodata","a"
                         961 	.align	4
                         962 	.global	_loc_FilterSetting..C.3A.5Cgit.5Crh850.5Csrc.5Capp.5Cgfx_apps.5Csimple_draw.5Ctarget.5Cd1mx_mango_ghs.5Cobj.5Cr_sys_gpio.
                         963 _loc_FilterSetting..C.3A.5Cgit.5Crh850.5Csrc.5Capp.5Cgfx_apps.5Csimple_draw.5Ctarget.5Cd1mx_mango_ghs.5Cobj.5Cr_sys_gpio.:
00000000 00              964 _loc_FilterSetting:	.space	1
00000001 01020305        965 	.byte	1,2,3,5
00000005 04              966 	.byte	4
                         967 	.type	_loc_FilterSetting..C.3A.5Cgit.5Crh850.5Csrc.5Capp.5Cgfx_apps.5Csimple_draw.5Ctarget.5Cd1mx_mango_ghs.5Cobj.5Cr_sys_gpio.,@object
                         968 	.size	_loc_FilterSetting..C.3A.5Cgit.5Crh850.5Csrc.5Capp.5Cgfx_apps.5Csimple_draw.5Ctarget.5Cd1mx_mango_ghs.5Cobj.5Cr_sys_gpio.,6
                         969 	.type	_loc_FilterSetting,@object
                         970 	.size	_loc_FilterSetting,6
00000006 0000            971 	.space	2
                         972 	.global	_loc_FclaCtrlRegOffset..C.3A.5Cgit.5Crh850.5Csrc.5Capp.5Cgfx_apps.5Csimple_draw.5Ctarget.5Cd1mx_mango_ghs.5Cobj.5Cr_sys_gpio.
                         973 _loc_FclaCtrlRegOffset..C.3A.5Cgit.5Crh850.5Csrc.5Capp.5Cgfx_apps.5Csimple_draw.5Ctarget.5Cd1mx_mango_ghs.5Cobj.5Cr_sys_gpio.:
00000008 0440c3ff        974 _loc_FclaCtrlRegOffset:	.byte	4,64,195,255
0000000c 0840c3ff        975 	.byte	8,64,195,255
00000010 0c40c3ff        976 	.byte	12,64,195,255
00000014 1040c3ff        977 	.byte	16,64,195,255
00000018 1440c3ff        978 	.byte	20,64,195,255
0000001c 1840c3ff        979 	.byte	24,64,195,255
00000020 1c40c3ff        980 	.byte	28,64,195,255
00000024 0041c3ff        981 	.byte	0,65,195,255
00000028 0441c3ff        982 	.byte	4,65,195,255
0000002c 0841c3ff        983 	.byte	8,65,195,255
00000030 0c41c3ff        984 	.byte	12,65,195,255
00000034 0040c3ff        985 	.byte	0,64,195,255
                         986 	.type	_loc_FclaCtrlRegOffset..C.3A.5Cgit.5Crh850.5Csrc.5Capp.5Cgfx_apps.5Csimple_draw.5Ctarget.5Cd1mx_mango_ghs.5Cobj.5Cr_sys_gpio.,@object
                         987 	.size	_loc_FclaCtrlRegOffset..C.3A.5Cgit.5Crh850.5Csrc.5Capp.5Cgfx_apps.5Csimple_draw.5Ctarget.5Cd1mx_mango_ghs.5Cobj.5Cr_sys_gpio.,48

                                                                      Page 18
                                                              C:\Users\Frank\AppData\Local\Temp\gh_0000pnc1.si
                         988 	.type	_loc_FclaCtrlRegOffset,@object
                         989 	.size	_loc_FclaCtrlRegOffset,48
                         990 	.data
                         991 	.text
                         992 
                         993 
                         994 --334: /*******************************************************************************
                         995 --335:   Function: R_SYS_GPIO_ClearIntPendingFlag
                         996 --337:   See: r_gpio_sys.h for details
                         997 --338: */
                         998 --339: void R_SYS_GPIO_ClearIntPendingFlag(uint32_t Unit)
                         999 	.align	2
                        1000 	.align	2
                        1001 	.global	_R_SYS_GPIO_ClearIntPendingFlag
                        1002 _R_SYS_GPIO_ClearIntPendingFlag:
000001c8 80076100       1003 	prepare	{r29,r31},0
000001cc 06e8           1004 	mov	r6,r29
                        1005 --	    .bf
                        1006 .LDW04:
                        1007 --340: {
                        1008 --341:     R_DEV_IntClearFlag((r_dev_IntSel_t)(R_DEV_INT_P0 + Unit)); 
000001ce 1d360600       1009 	addi	6,r29,r6
                        1010 	jarl	_R_DEV_IntClearFlag,lp
                        1010 <EXPANSION BEGIN>
                        1010 jarl22 _R_DEV_IntClearFlag , lp 
000001d2 80ff0000*      1010 <EXPANSION END>
                        1011 --342: } 
                        1012 --	    .ef
                        1013 .LDW14:
                        1014 --line342
                        1015 ..lin.C.3A.5Cgit.5Crh850.5Csrc.5Capp.5Cgfx_apps.5Csimple_draw.5Ctarget.5Cd1mx_mango_ghs.5Cobj.5Cr_sys_gpio.25::
                        1016 .LDWlin25:
000001d6 40067f00       1017 	dispose	0,{r29,r31},[lp]
                        1018 	.type	_R_SYS_GPIO_ClearIntPendingFlag,@function
                        1019 	.size	_R_SYS_GPIO_ClearIntPendingFlag,.-_R_SYS_GPIO_ClearIntPendingFlag
                        1020 	.align	2
                        1021 .LDW24:
                        1022 
                        1023 --_Unit	r29	param
                        1024 
                        1025 	.section ".bss","awb"
                        1026 .L738:
                        1027 	.type	.L738,@object
                        1028 	.size	.L738,0
                        1029 	.data
                        1030 	.text
                        1031 
                        1032 
                        1033 --345: /*******************************************************************************
                        1034 --346:   Function: R_SYS_GPIO_IOReset
                        1035 --347:   
                        1036 --348:   See: r_gpio_sys.h for details
                        1037 --349: */
                        1038 --351: void R_SYS_GPIO_IOReset(uint8_t SetRelease) 
                        1039 	.align	2
                        1040 	.align	2
                        1041 	.global	_R_SYS_GPIO_IOReset
                        1042 _R_SYS_GPIO_IOReset:
000001da c60eff00       1043 	andi	255,r6,r1
                        1044 --	    .bf
                        1045 .LDW34:

                                                                      Page 19
                                                              C:\Users\Frank\AppData\Local\Temp\gh_0000pnc1.si
                        1046 --352: {
                        1047 --353:     /* functionality not implemented, please implement if you need */
                        1048 --355: }
                        1049 --	    .ef
                        1050 .LDW44:
000001de 7f00           1051 	jmp	[lp]
                        1052 	.type	_R_SYS_GPIO_IOReset,@function
                        1053 	.size	_R_SYS_GPIO_IOReset,.-_R_SYS_GPIO_IOReset
                        1054 	.align	2
                        1055 .LDW54:
                        1056 
                        1057 --_SetRelease	r1	param
                        1058 
                        1059 	.section ".bss","awb"
                        1060 .L782:
                        1061 	.type	.L782,@object
                        1062 	.size	.L782,0
                        1063 	.data
                        1064 	.text
                        1065 
                        1066 	.align	2
                        1067 --_loc_FclaCtrlRegOffset	_loc_FclaCtrlRegOffset	static
                        1068 --_loc_FilterSetting	_loc_FilterSetting	static
                        1069 
                        1070 	.data
                        1071 	.ghsnote version,15
                        1072 	.ghsnote tools,3
                        1073 	.ghsnote options,144
                        1074 	.text
                        1075 	.align	2
                        1076 ..eof.C.3A.5Cgit.5Crh850.5Csrc.5Capp.5Cgfx_apps.5Csimple_draw.5Ctarget.5Cd1mx_mango_ghs.5Cobj.5Cr_sys_gpio...43.3A.5Cgit.5Crh850.5Csrc.5Capp.5Cgfx_apps.5Csimple_draw.5Ctarget.5Cd1mx_mango_ghs..5BC5D026..0::
                        1077 .rh850_flags REGMODE22,DATA_ALIGN8,GP_FIX,EP_NONFIX,TP_FIX,REG2_RESERVE,G3M
