                                                                      Page 1
                                                              C:\Users\Frank\AppData\Local\Temp\gh_0000nlg1.si
Command Line: C:\GHS\V800.V2014.1.7\comp_201417\ease850.exe -w -elf -b0 -I../../../../../app/common/dhd -I../../../../../app/gfx_apps/simple_draw/src -I../../../../../app/gfx_apps/simple_draw/lib -I../../../../../bsp/board//config -I../../../../../bsp/board//src/gfx -I../../../../../bsp/board//src/hmi -I../../../../../bsp/board//src/stdio -I../../../../../bsp/board/d1mx_mango/config -I../../../../../bsp/board/d1mx_mango/src -I../../../../../bsp/board/d1mx_mango/src/gfx -I../../../../../bsp/board/d1mx_mango/src/hmi -I../../../../../bsp/board/d1mx_mango/src/stdio -I../../../../../bsp/gfx/lib -I../../../../../bsp/gfx/src -I../../../../../bsp/hmi/lib -I../../../../../bsp/hmi/src -I../../../../../bsp/lib -I../../../../../bsp/stdio/lib -I../../../../../bsp/stdio/src -I../../../../../cdi/lib -I../../../../../cdi/src -I../../../../../compiler/rh850_ghs/inc -I../../../../../device/d1mx/lib -I../../../../../device/d1mx/macro_cfg -I../../../../../device/d1mx/macro_cfg/csisw -I../../../../../device/d1mx/macro_cfg/davehd -I../../../../../device/d1mx/macro_cfg/ddb -I../../../../../device/d1mx/macro_cfg/drw2d -I../../../../../device/d1mx/macro_cfg/gfxbus -I../../../../../device/d1mx/macro_cfg/gpio -I../../../../../device/d1mx/macro_cfg/hypb -I../../../../../device/d1mx/macro_cfg/hypdb -I../../../../../device/d1mx/macro_cfg/jcua -I../../../../../device/d1mx/macro_cfg/nfmabare -I../../../../../device/d1mx/macro_cfg/octa -I../../../../../device/d1mx/macro_cfg/octacdb -I../../../../../device/d1mx/macro_cfg/ostm -I../../../../../device/d1mx/macro_cfg/pbg -I../../../../../device/d1mx/macro_cfg/riic -I../../../../../device/d1mx/macro_cfg/sfcdb -I../../../../../device/d1mx/macro_cfg/sfma -I../../../../../device/d1mx/macro_cfg/spea -I../../../../../device/d1mx/macro_cfg/tauj -I../../../../../device/d1mx/macro_cfg/tick -I../../../../../device/d1mx/macro_cfg/vdce -I../../../../../device/d1mx/macro_cfg/vowe -I../../../../../device/d1mx/macro_cfg/wm -I../../../../../device/d1mx/macro_cfg/xbus -I../../../../../device/d1mx/src/dev -I../../../../../device/d1mx/src/dhd -I../../../../../device/d1mx/src/hypb -I../../../../../device/d1mx/src/jcua -I../../../../../device/d1mx/src/nfmabare -I../../../../../device/d1mx/src/octa -I../../../../../device/d1mx/src/rh850_ghs -I../../../../../device/d1mx/src/vowe -I../../../../../device/d1x_common/macro_cfg -I../../../../../device/d1x_common/macro_cfg/csisw -I../../../../../device/d1x_common/macro_cfg/davehd -I../../../../../device/d1x_common/macro_cfg/ddb -I../../../../../device/d1x_common/macro_cfg/drw2d -I../../../../../device/d1x_common/macro_cfg/gfxbus -I../../../../../device/d1x_common/macro_cfg/gpio -I../../../../../device/d1x_common/macro_cfg/hypb -I../../../../../device/d1x_common/macro_cfg/hypdb -I../../../../../device/d1x_common/macro_cfg/jcua -I../../../../../device/d1x_common/macro_cfg/nfmabare -I../../../../../device/d1x_common/macro_cfg/octa -I../../../../../device/d1x_common/macro_cfg/octacdb -I../../../../../device/d1x_common/macro_cfg/ostm -I../../../../../device/d1x_common/macro_cfg/pbg -I../../../../../device/d1x_common/macro_cfg/riic -I../../../../../device/d1x_common/macro_cfg/sfcdb -I../../../../../device/d1x_common/macro_cfg/sfma -I../../../../../device/d1x_common/macro_cfg/spea -I../../../../../device/d1x_common/macro_cfg/tauj -I../../../../../device/d1x_common/macro_cfg/tick -I../../../../../device/d1x_common/macro_cfg/vdce -I../../../../../device/d1x_common/macro_cfg/vowe -I../../../../../device/d1x_common/macro_cfg/wm -I../../../../../device/d1x_common/macro_cfg/xbus -I../../../../../device/d1x_common/src/csisw -I../../../../../device/d1x_common/src/ddb -I../../../../../device/d1x_common/src/dev -I../../../../../device/d1x_common/src/gfxbus -I../../../../../device/d1x_common/src/gpio -I../../../../../device/d1x_common/src/ostm -I../../../../../device/d1x_common/src/pbg -I../../../../../device/d1x_common/src/riic -I../../../../../device/d1x_common/src/sfma -I../../../../../device/d1x_common/src/spea -I../../../../../device/d1x_common/src/tauj -I../../../../../device/d1x_common/src/tick -I../../../../../device/d1x_common/src/vdce -I../../../../../device/d1x_common/src/wm -I../../../../../device/d1x_common/src/xbus -I../../../../../device/lib -I../../../../../macro/bus/pbg/lib -I../../../../../macro/bus/pbg/src -I../../../../../macro/csi/csisw/lib -I../../../../../macro/csi/csisw/src -I../../../../../macro/drw2d/lib -I../../../../../macro/drw2d/platform/davehd -I../../../../../macro/drw2d/platform/os/no_os -I../../../../../macro/drw2d/src -I../../../../../macro/flashc/hypb/lib -I../../../../../macro/flashc/hypb/src -I../../../../../macro/flashc/hypdb/lib -I../../../../../macro/flashc/hypdb/src -I../../../../../macro/flashc/nfmabare/lib -I../../../../../macro/flashc/nfmabare/src -I../../../../../macro/flashc/octa/lib -I../../../../../macro/flashc/octa/src -I../../../../../macro/flashc/octacdb/lib -I../../../../../macro/flashc/octacdb/src -I../../../../../macro/flashc/sfcdb/lib -I../../../../../macro/flashc/sfcdb/src -I../../../../../macro/flashc/sfma/lib -I../../../../../macro/flashc/sfma/src -I../../../../../macro/gfxbus/lib -I../../../../../macro/gfxbus/src -I../../../../../macro/gfxbus/xbus/lib -I../../../../../macro/gfxbus/xbus/src -I../../../../../macro/gpio/lib -I../../../../../macro/gpio/src -I../../../../../macro/gpu/davehd/common/inc -I../../../../../macro/gpu/davehd/common/inc/platform -I../../../../../macro/gpu/davehd/common/inc/platform/d1mx -I../../../../../macro/gpu/davehd/docs -I../../../../../macro/gpu/davehd/kernel/inc -I../../../../../macro/gpu/davehd/kernel/platform/d1mx -I../../../../../macro/gpu/davehd/kernel/platform/d1mx/bridge -I../../../../../macro/gpu/davehd/kernel/platform/d1mx/non_threaded -I../../../../../macro/gpu/davehd/kernel/platform/ree -I../../../../../macro/gpu/davehd/kernel/src -I../../../../../macro/gpu/davehd/user/inc -I../../../../../macro/gpu/davehd/user/platform/d1mx/no_os -I../../../../../macro/gpu/davehd/user/src -I../../../../../macro/gpu/jcua/lib -I../../../../../macro/gpu/jcua/src -I../../../../../macro/i2c/riic/lib -I../../../../../macro/i2c/riic/src -I../../../../../macro/tick/lib -I../../../../../macro/tick/src -I../../../../../macro/timer/ostm/lib -I../../../../../macro/timer/ostm/src -I../../../../../macro/timer/tauj/lib -I../../../../../macro/timer/tauj/src -I../../../../../macro/vdce/lib -I../../../../../macro/vdce/src -I../../../../../macro/vo/ddb/lib -I../../../../../macro/vo/ddb/src -I../../../../../macro/vo/spea/lib -I../../../../../macro/vo/spea/src -I../../../../../macro/vo/vowe/lib -I../../../../../macro/vo/vowe/src -I../../../../../macro/wm/lib -I../../../../../macro/wm/src -I../../../../../macro/pwm/lib -I../../../../../macro/reset/lib -I../../../../../macro/rscan/lib -I../../../../../macro/uart/rlin3/lib -I../../../../../macro/uart/rlin3/src -I../../../../../device/d1x_common/macro_cfg/rlin3 -I../../../../../macro/stbc/lib -I../../../../../macro/adc/lib -I../../../../../device/d1x_common/macro_cfg/adc7010 -IC:\GHS\V800.V2014.1.7\comp_201417\lib\rh850_22 -cg_underscore -cpu=rh850g3m -no_v850_simd -rh850_fpsimd=none -nomacro -patch_dbo=C:\git\rh850\src\app\gfx_apps\simple_draw\target\d1mx_mango_ghs\obj\r_sys_wm_sprite.dbo -source=r_sys_wm_sprite.c -o .\obj\gh_0000nlg1.o -list=.\obj\r_sys_wm_sprite.lst C:\Users\Frank\AppData\Local\Temp\gh_0000nlg1.si 
Original File: C:\Users\Frank\AppData\Local\Temp\gh_0000nlg1.si
Source File: r_sys_wm_sprite.c
Directory: C:\git\rh850\src\app\gfx_apps\simple_draw\target\d1mx_mango_ghs
Host OS: Windows
EASE: Copyright (C) 1983-2014 Green Hills Software.  All Rights Reversed.
Release: Compiler v2014.1.7
Build Directory: [Directory] BTOWINBOX:c:/build_2014_1_bto/2014-09-04.2200-2014_1_bto/win32-comp-ecom
Revision: [VCInfo] http://toolsvc/branches/release-branch-2014-1-bto/src@515859 (built by build)
Revision Date: Fri Sep 05 14:05:06 2014

Release Date: Fri Sep 05 14:43:29 2014

                           1 --Driver Command: ccv850 -c -MD -I../../../../../app/common/dhd
                           2 --		-I../../../../../app/gfx_apps/simple_draw/src
                           3 --		-I../../../../../app/gfx_apps/simple_draw/lib
                           4 --		-I../../../../../bsp/board//config
                           5 --		-I../../../../../bsp/board//src/gfx
                           6 --		-I../../../../../bsp/board//src/hmi
                           7 --		-I../../../../../bsp/board//src/stdio
                           8 --		-I../../../../../bsp/board/d1mx_mango/config
                           9 --		-I../../../../../bsp/board/d1mx_mango/src
                          10 --		-I../../../../../bsp/board/d1mx_mango/src/gfx
                          11 --		-I../../../../../bsp/board/d1mx_mango/src/hmi
                          12 --		-I../../../../../bsp/board/d1mx_mango/src/stdio
                          13 --		-I../../../../../bsp/gfx/lib -I../../../../../bsp/gfx/src
                          14 --		-I../../../../../bsp/hmi/lib -I../../../../../bsp/hmi/src
                          15 --		-I../../../../../bsp/lib -I../../../../../bsp/stdio/lib
                          16 --		-I../../../../../bsp/stdio/src -I../../../../../cdi/lib
                          17 --		-I../../../../../cdi/src -I../../../../../compiler/rh850_ghs/inc
                          18 --		-I../../../../../device/d1mx/lib
                          19 --		-I../../../../../device/d1mx/macro_cfg
                          20 --		-I../../../../../device/d1mx/macro_cfg/csisw
                          21 --		-I../../../../../device/d1mx/macro_cfg/davehd
                          22 --		-I../../../../../device/d1mx/macro_cfg/ddb
                          23 --		-I../../../../../device/d1mx/macro_cfg/drw2d
                          24 --		-I../../../../../device/d1mx/macro_cfg/gfxbus
                          25 --		-I../../../../../device/d1mx/macro_cfg/gpio
                          26 --		-I../../../../../device/d1mx/macro_cfg/hypb
                          27 --		-I../../../../../device/d1mx/macro_cfg/hypdb
                          28 --		-I../../../../../device/d1mx/macro_cfg/jcua
                          29 --		-I../../../../../device/d1mx/macro_cfg/nfmabare
                          30 --		-I../../../../../device/d1mx/macro_cfg/octa
                          31 --		-I../../../../../device/d1mx/macro_cfg/octacdb
                          32 --		-I../../../../../device/d1mx/macro_cfg/ostm
                          33 --		-I../../../../../device/d1mx/macro_cfg/pbg
                          34 --		-I../../../../../device/d1mx/macro_cfg/riic
                          35 --		-I../../../../../device/d1mx/macro_cfg/sfcdb
                          36 --		-I../../../../../device/d1mx/macro_cfg/sfma
                          37 --		-I../../../../../device/d1mx/macro_cfg/spea
                          38 --		-I../../../../../device/d1mx/macro_cfg/tauj
                          39 --		-I../../../../../device/d1mx/macro_cfg/tick
                          40 --		-I../../../../../device/d1mx/macro_cfg/vdce
                          41 --		-I../../../../../device/d1mx/macro_cfg/vowe
                          42 --		-I../../../../../device/d1mx/macro_cfg/wm
                          43 --		-I../../../../../device/d1mx/macro_cfg/xbus
                          44 --		-I../../../../../device/d1mx/src/dev
                          45 --		-I../../../../../device/d1mx/src/dhd
                          46 --		-I../../../../../device/d1mx/src/hypb
                          47 --		-I../../../../../device/d1mx/src/jcua
                          48 --		-I../../../../../device/d1mx/src/nfmabare
                          49 --		-I../../../../../device/d1mx/src/octa
                          50 --		-I../../../../../device/d1mx/src/rh850_ghs

                                                                      Page 2
                                                              C:\Users\Frank\AppData\Local\Temp\gh_0000nlg1.si
                          51 --		-I../../../../../device/d1mx/src/vowe
                          52 --		-I../../../../../device/d1x_common/macro_cfg
                          53 --		-I../../../../../device/d1x_common/macro_cfg/csisw
                          54 --		-I../../../../../device/d1x_common/macro_cfg/davehd
                          55 --		-I../../../../../device/d1x_common/macro_cfg/ddb
                          56 --		-I../../../../../device/d1x_common/macro_cfg/drw2d
                          57 --		-I../../../../../device/d1x_common/macro_cfg/gfxbus
                          58 --		-I../../../../../device/d1x_common/macro_cfg/gpio
                          59 --		-I../../../../../device/d1x_common/macro_cfg/hypb
                          60 --		-I../../../../../device/d1x_common/macro_cfg/hypdb
                          61 --		-I../../../../../device/d1x_common/macro_cfg/jcua
                          62 --		-I../../../../../device/d1x_common/macro_cfg/nfmabare
                          63 --		-I../../../../../device/d1x_common/macro_cfg/octa
                          64 --		-I../../../../../device/d1x_common/macro_cfg/octacdb
                          65 --		-I../../../../../device/d1x_common/macro_cfg/ostm
                          66 --		-I../../../../../device/d1x_common/macro_cfg/pbg
                          67 --		-I../../../../../device/d1x_common/macro_cfg/riic
                          68 --		-I../../../../../device/d1x_common/macro_cfg/sfcdb
                          69 --		-I../../../../../device/d1x_common/macro_cfg/sfma
                          70 --		-I../../../../../device/d1x_common/macro_cfg/spea
                          71 --		-I../../../../../device/d1x_common/macro_cfg/tauj
                          72 --		-I../../../../../device/d1x_common/macro_cfg/tick
                          73 --		-I../../../../../device/d1x_common/macro_cfg/vdce
                          74 --		-I../../../../../device/d1x_common/macro_cfg/vowe
                          75 --		-I../../../../../device/d1x_common/macro_cfg/wm
                          76 --		-I../../../../../device/d1x_common/macro_cfg/xbus
                          77 --		-I../../../../../device/d1x_common/src/csisw
                          78 --		-I../../../../../device/d1x_common/src/ddb
                          79 --		-I../../../../../device/d1x_common/src/dev
                          80 --		-I../../../../../device/d1x_common/src/gfxbus
                          81 --		-I../../../../../device/d1x_common/src/gpio
                          82 --		-I../../../../../device/d1x_common/src/ostm
                          83 --		-I../../../../../device/d1x_common/src/pbg
                          84 --		-I../../../../../device/d1x_common/src/riic
                          85 --		-I../../../../../device/d1x_common/src/sfma
                          86 --		-I../../../../../device/d1x_common/src/spea
                          87 --		-I../../../../../device/d1x_common/src/tauj
                          88 --		-I../../../../../device/d1x_common/src/tick
                          89 --		-I../../../../../device/d1x_common/src/vdce
                          90 --		-I../../../../../device/d1x_common/src/wm
                          91 --		-I../../../../../device/d1x_common/src/xbus
                          92 --		-I../../../../../device/lib -I../../../../../macro/bus/pbg/lib
                          93 --		-I../../../../../macro/bus/pbg/src
                          94 --		-I../../../../../macro/csi/csisw/lib
                          95 --		-I../../../../../macro/csi/csisw/src
                          96 --		-I../../../../../macro/drw2d/lib
                          97 --		-I../../../../../macro/drw2d/platform/davehd
                          98 --		-I../../../../../macro/drw2d/platform/os/no_os
                          99 --		-I../../../../../macro/drw2d/src
                         100 --		-I../../../../../macro/flashc/hypb/lib
                         101 --		-I../../../../../macro/flashc/hypb/src
                         102 --		-I../../../../../macro/flashc/hypdb/lib
                         103 --		-I../../../../../macro/flashc/hypdb/src
                         104 --		-I../../../../../macro/flashc/nfmabare/lib
                         105 --		-I../../../../../macro/flashc/nfmabare/src
                         106 --		-I../../../../../macro/flashc/octa/lib
                         107 --		-I../../../../../macro/flashc/octa/src
                         108 --		-I../../../../../macro/flashc/octacdb/lib
                         109 --		-I../../../../../macro/flashc/octacdb/src
                         110 --		-I../../../../../macro/flashc/sfcdb/lib
                         111 --		-I../../../../../macro/flashc/sfcdb/src

                                                                      Page 3
                                                              C:\Users\Frank\AppData\Local\Temp\gh_0000nlg1.si
                         112 --		-I../../../../../macro/flashc/sfma/lib
                         113 --		-I../../../../../macro/flashc/sfma/src
                         114 --		-I../../../../../macro/gfxbus/lib
                         115 --		-I../../../../../macro/gfxbus/src
                         116 --		-I../../../../../macro/gfxbus/xbus/lib
                         117 --		-I../../../../../macro/gfxbus/xbus/src
                         118 --		-I../../../../../macro/gpio/lib -I../../../../../macro/gpio/src
                         119 --		-I../../../../../macro/gpu/davehd/common/inc
                         120 --		-I../../../../../macro/gpu/davehd/common/inc/platform
                         121 --		-I../../../../../macro/gpu/davehd/common/inc/platform/d1mx
                         122 --		-I../../../../../macro/gpu/davehd/docs
                         123 --		-I../../../../../macro/gpu/davehd/kernel/inc
                         124 --		-I../../../../../macro/gpu/davehd/kernel/platform/d1mx
                         125 --		-I../../../../../macro/gpu/davehd/kernel/platform/d1mx/bridge
                         126 --		-I../../../../../macro/gpu/davehd/kernel/platform/d1mx/non_threaded
                         127 --		-I../../../../../macro/gpu/davehd/kernel/platform/ree
                         128 --		-I../../../../../macro/gpu/davehd/kernel/src
                         129 --		-I../../../../../macro/gpu/davehd/user/inc
                         130 --		-I../../../../../macro/gpu/davehd/user/platform/d1mx/no_os
                         131 --		-I../../../../../macro/gpu/davehd/user/src
                         132 --		-I../../../../../macro/gpu/jcua/lib
                         133 --		-I../../../../../macro/gpu/jcua/src
                         134 --		-I../../../../../macro/i2c/riic/lib
                         135 --		-I../../../../../macro/i2c/riic/src
                         136 --		-I../../../../../macro/tick/lib -I../../../../../macro/tick/src
                         137 --		-I../../../../../macro/timer/ostm/lib
                         138 --		-I../../../../../macro/timer/ostm/src
                         139 --		-I../../../../../macro/timer/tauj/lib
                         140 --		-I../../../../../macro/timer/tauj/src
                         141 --		-I../../../../../macro/vdce/lib -I../../../../../macro/vdce/src
                         142 --		-I../../../../../macro/vo/ddb/lib
                         143 --		-I../../../../../macro/vo/ddb/src
                         144 --		-I../../../../../macro/vo/spea/lib
                         145 --		-I../../../../../macro/vo/spea/src
                         146 --		-I../../../../../macro/vo/vowe/lib
                         147 --		-I../../../../../macro/vo/vowe/src -I../../../../../macro/wm/lib
                         148 --		-I../../../../../macro/wm/src -I../../../../../macro/pwm/lib
                         149 --		-I../../../../../macro/i2c/riic/lib
                         150 --		-I../../../../../macro/reset/lib -I../../../../../macro/rscan/lib
                         151 --		-I../../../../../macro/uart/rlin3/lib
                         152 --		-I../../../../../macro/uart/rlin3/src
                         153 --		-I../../../../../device/d1x_common/macro_cfg/rlin3
                         154 --		-I../../../../../macro/stbc/lib
                         155 --		-I../../../../../app/gfx_apps/simple_draw/lib
                         156 --		-I../../../../../macro/adc/lib
                         157 --		-I../../../../../device/d1x_common/macro_cfg/adc7010 -G
                         158 --		--no_commons --no_implicit_include --prototype_errors
                         159 --		-DRENESAS_D1X -DR_DRW2D_OS_NO_OS -DR_DRW2D_SYS_DHD
                         160 --		-DUSED_CPU=RH850G3M -DUSE_BSP_GFX -DUSE_BSP_HMI -DUSE_BSP_STDIO
                         161 --		-DUSE_CDI -DUSE_CSISW -DUSE_DAVEHD -DUSE_DDB -DUSE_DRW2D
                         162 --		-DUSE_GFXBUS -DUSE_GPIO -DUSE_HYPB -DUSE_HYPDB -DUSE_JCUA
                         163 --		-DUSE_NFMABARE -DUSE_OCTA -DUSE_OCTACDB -DUSE_OSTM -DUSE_PBG
                         164 --		-DUSE_RIIC -DUSE_SFCDB -DUSE_SFMA -DUSE_SPEA -DUSE_TAUJ
                         165 --		-DUSE_TICK -DUSE_VDCE -DUSE_WM -DUSE_XBUS -DMAG -MD -Zuse1bit
                         166 --		-allocate_ep -cpu=rh850g3m -large_sda -list -no_callt -notda
                         167 --		-passsource -preprocess_assembly_files -registermode=22
                         168 --		-reserve_r2 --diag_warning 1 -object_dir=./obj -DUSE_VDCE_OPENLDI
                         169 --		-gnu99 -filetype.c
                         170 --		..\..\..\..\..\device\d1x_common\src\wm\r_sys_wm_sprite.c -o
                         171 --		.\obj\r_sys_wm_sprite.o
                         172 --Source File:   ..\..\..\..\..\device\d1x_common\src\wm\r_sys_wm_sprite.c

                                                                      Page 4
                                                              C:\Users\Frank\AppData\Local\Temp\gh_0000nlg1.si
                         173 --Directory:     
                         174 --		C:\git\rh850\src\app\gfx_apps\simple_draw\target\d1mx_mango_ghs
                         175 --Compile Date:  Tue Oct 16 19:48:56 2018
                         176 --Host OS:       Win32
                         177 --Version:       C-RH850 2014.1.7 RELEASE VERSION
                         178 --Release:       Compiler v2014.1.7
                         179 --Revision Date: Fri Sep 05 14:10:46 2014
                         180 --Release Date:  Fri Sep 05 14:44:23 2014
                         181 -- ecom  -g -w
                         182 
                         183 --1: /*
                         184 --2: ****************************************************************************
                         185 --3: PROJECT : WM
                         186 --4: FILE    : $Id: r_sys_wm.c 8106 2016-03-24 15:02:00Z florian.zimmermann $
                         187 --5: ============================================================================ 
                         188 --6: DESCRIPTION
                         189 --7: WM system functions for D1x
                         190 --8: ============================================================================
                         191 --9:                             C O P Y R I G H T
                         192 --10: ============================================================================
                         193 --11:                        Copyright (c) 2013 - 2016
                         194 --12:                                   by 
                         195 --13:                    Renesas Electronics (Europe) GmbH. 
                         196 --14:                            Arcadiastrasse 10
                         197 --15:                           D-40472 Duesseldorf
                         198 --16:                                Germany
                         199 --17:                           All rights reserved.
                         200 --18: ============================================================================
                         201 --19: Purpose: only for testing, not for mass production
                         202 --21: DISCLAIMER
                         203 --23: LICENSEE has read, understood and accepted the terms and conditions defined in
                         204 --24: the license agreement, especially the usage rights. In any case, it is
                         205 --25: LICENSEE's responsibility to make sure that any user of the software complies
                         206 --26: with the terms and conditions of the signed license agreement.
                         207 --27: ****************************************************************************
                         208 --28: */
                         209 --30: /***********************************************************
                         210 --31:   Title: D1Mx and D1Lx WM SYS API implementation  
                         211 --32: */
                         212 --34: /***********************************************************
                         213 --35:   Section: Includes
                         214 --36: */
                         215 --38: #include "r_typedefs.h"
                         216 --39: #include "r_cdi_api.h"
                         217 --41: #include "r_ddb_api.h"      /* display database with display timings */
                         218 --42: #include "r_vdce_api.h"
                         219 --43: #include "r_spea_api.h"
                         220 --45: #include "r_config_wm.h"
                         221 --46: #include "r_wm_api.h"
                         222 --47: #include "r_wm_sys.h"
                         223 --48: #include "r_sys_wm.h"
                         224 --50: #include "r_dev_pin_types.h"
                         225 --51: #include "r_dev_api.h"
                         226 --53: #if defined R_WM_MSQ_DEQUEUE_PROFILING || defined R_WM_MSQ_ENQUEUE_PROFILING
                         227 --54: #include "r_profile.h"
                         228 --55: #endif
                         229 --58: /***********************************************************
                         230 --59:   Section: Local Defines
                         231 --60: */
                         232 --62: #ifdef R_WM_SYS_ERROR_TRACKING
                         233 --63:     #include "r_bsp_stdio_api.h"

                                                                      Page 5
                                                              C:\Users\Frank\AppData\Local\Temp\gh_0000nlg1.si
                         234 --64: #endif
                         235 --66: /***********************************************************
                         236 --67:   Macro: VDCECTL
                         237 --68:   
                         238 --69:   ITU 656 register.
                         239 --70: */
                         240 --71: #define VDCECTL         0xFFC0601Cu
                         241 --73: /***********************************************************
                         242 --74:   Macro: VDCECTL_VISL1
                         243 --75:   
                         244 --76:   ITU 656 register.
                         245 --77: */
                         246 --78: #define VDCECTL_VISL0   (1ul<<0)
                         247 --79: #define VDCECTL_VISL1   (1ul<<1)
                         248 --80: #define VDCECTL_PXSL    (1ul<<3)
                         249 --81: #define VDCECTL_UPDT0   (1ul<<4)
                         250 --82: #define VDCECTL_UPDT1   (1ul<<5)
                         251 --86: /***********************************************************
                         252 --87:   Section: Global Variables
                         253 --88: */
                         254 --90: /***********************************************************
                         255 --91:   Variable : r_wm_DevSys
                         256 --92:   
                         257 --93:   Sys layer device object.
                         258 --94: */
                         259 --95: extern r_wm_DevSys_t r_wm_DevSys[R_WM_DEV_NUM];
                         260 --97: /***********************************************************
                         261 --98:   Variable : device
                         262 --99:   
                         263 --100:   Device, the WM driver is running on.
                         264 --101: */
                         265 --102: extern r_dev_Device_t r_wm_Device;
                         266 --104: /***********************************************************
                         267 --105:   Section: Local Function Declarations
                         268 --106: */
                         269 --108:   r_spea_Unit_t loc_WM_Sprite_GetSpriteUnitFromLayerNo(uint32_t Unit, uint32_t Layer);
                         270 --109: static uint32_t loc_WM_Sprite_GetLayerNoFromSpriteUnit(uint32_t Unit, r_spea_Unit_t SpeaUnit);
                         271 --110: static uint8_t  loc_WM_Sprite_GetSpriteNo(uint32_t Unit, const r_wm_Sprite_t *Sprite);
                         272 --112:        void     loc_WM_Sprite_SetReassignFlag(uint32_t Unit, r_spea_Unit_t SpeaUnit);
                         273 --113: static uint32_t loc_WM_Sprite_GetReassignFlag(uint32_t Unit, r_spea_Unit_t SpeaUnit);
                         274 --115:        void     loc_WM_Sprite_SetUpdateFlag(uint32_t Unit, r_spea_Unit_t SpeaUnit);
                         275 --116: static uint32_t loc_WM_Sprite_GetUpdateFlag(uint32_t Unit, r_spea_Unit_t SpeaUnit);
                         276 --118: static uint32_t loc_WM_Sprite_ReassignAllSpritesOfLayer(uint32_t Unit, r_wm_Sprite_t* RootSprite, uint32_t Layer);
                         277 --122: /***********************************************************
                         278 --123:   Section: Local Variables
                         279 --124: */
                         280 --126: /***********************************************************
                         281 --127:   Variable : speaLayer2UnitAssignment
                         282 --128:   
                         283 --129:   Used by functions <loc_WM_Sprite_GetSpriteUnitFromLayerNo> 
                         284 --130:   and <loc_WM_Sprite_GetLayerNoFromSpriteUnit>.
                         285 --131: */
                         286 --132: static const r_spea_Unit_t speaLayer2UnitAssignment[R_WM_DEV_NUM][ R_WM_MAX_LAYERS] = {
                         287 --133:     {R_SPEA_SU3, R_SPEA_SU0, R_SPEA_SU1, R_SPEA_SU2},
                         288 --134:     {R_SPEA_SU3, R_SPEA_SU2, R_SPEA_SU1, R_SPEA_SU0}
                         289 --135: };
                         290 --136: static const r_spea_Unit_t rleLayer2UnitAssignment[R_WM_DEV_NUM][ R_WM_MAX_LAYERS] = {
                         291 --137:     {R_SPEA_RLE0, R_SPEA_RLE1, R_SPEA_RLE2, R_SPEA_RLE3},
                         292 --138:     {R_SPEA_RLE0, R_SPEA_RLE3, R_SPEA_RLE2, R_SPEA_RLE1}
                         293 --139: };
                         294 --142: /***********************************************************

                                                                      Page 6
                                                              C:\Users\Frank\AppData\Local\Temp\gh_0000nlg1.si
                         295 --143:   Section: WM Driver Local Functions
                         296 --144: */
                         297 --146: /***********************************************************
                         298 --147:   Function: loc_WM_Sprite_GetSpriteUnitFromLayerNo
                         299 --148: */
                         300 --149: r_spea_Unit_t loc_WM_Sprite_GetSpriteUnitFromLayerNo(uint32_t Unit, uint32_t Layer)
                         301 	.text
                         302 ..bof.C.3A.5Cgit.5Crh850.5Csrc.5Capp.5Cgfx_apps.5Csimple_draw.5Ctarget.5Cd1mx_mango_ghs.5Cobj.5Cr_sys_wm_sprite...43.3A.5Cgit.5Crh850.5Csrc.5Capp.5Cgfx_apps.5Csimple_draw.5Ctarget.5Cd1mx_mango_ghs..5BC5D028..0::
                         303 	.align	2
                         304 	.global	_loc_WM_Sprite_GetSpriteUnitFromLayerNo
                         305 _loc_WM_Sprite_GetSpriteUnitFromLayerNo:
00000000 0670            306 	mov	r6,r14
00000002 0708            307 	mov	r7,r1
                         308 --	    .bf
                         309 .LDW01:
                         310 --150: {
                         311 --151:     if ( (Layer >  R_WM_MAX_LAYERS) || (Unit > R_WM_DEV_NUM) )
00000004 640a            312 	cmp	4,r1
00000006 bb05*           313 	bh	.L5
00000008 6272            314 	cmp	2,r14
0000000a b305*           315 	bnh	.L4
                         316 .L5:
                         317 --152:     {
                         318 --153:         return R_SPEA_SU_LAST;
                         319 --line153
                         320 ..lin.C.3A.5Cgit.5Crh850.5Csrc.5Capp.5Cgfx_apps.5Csimple_draw.5Ctarget.5Cd1mx_mango_ghs.5Cobj.5Cr_sys_wm_sprite.1::
                         321 .LDWlin1:
0000000c 0952            322 	mov	9,r10
0000000e f515*           323 	br	.L2
                         324 .L4:
                         325 --154:     }
                         326 --155:     
                         327 --156:     if ( (r_wm_Device != R_DEV_R7F701441) && (Layer == 0) )
                         328 --line156
                         329 ..lin.C.3A.5Cgit.5Crh850.5Csrc.5Capp.5Cgfx_apps.5Csimple_draw.5Ctarget.5Cd1mx_mango_ghs.5Cobj.5Cr_sys_wm_sprite.2::
                         330 .LDWlin2:
00000010 2d0600000000*   331 	mov	_r_wm_Device,r13
00000016 2d6f0100        332 	ld.w	0[r13],r13
0000001a 0d065ffa        333 	addi	-1441,r13,zero
0000001e d205*           334 	be	.L8
00000020 e009            335 	cmp	zero,r1
00000022 ba05*           336 	bne	.L8
                         337 --157:     {
                         338 --158:         return R_SPEA_SU_LAST;
                         339 --line158
                         340 ..lin.C.3A.5Cgit.5Crh850.5Csrc.5Capp.5Cgfx_apps.5Csimple_draw.5Ctarget.5Cd1mx_mango_ghs.5Cobj.5Cr_sys_wm_sprite.3::
                         341 .LDWlin3:
00000024 0952            342 	mov	9,r10
00000026 b50d*           343 	br	.L2
                         344 .L8:
                         345 --159:     }
                         346 --160:     
                         347 --161:     return speaLayer2UnitAssignment[Unit][Layer];
                         348 --line161
                         349 ..lin.C.3A.5Cgit.5Crh850.5Csrc.5Capp.5Cgfx_apps.5Csimple_draw.5Ctarget.5Cd1mx_mango_ghs.5Cobj.5Cr_sys_wm_sprite.4::
                         350 .LDWlin4:
00000028 0e60            351 	mov	r14,r12
0000002a c262            352 	shl	2,r12
0000002c 0168            353 	mov	r1,r13
0000002e cc69            354 	add	r12,r13
00000030 c26a            355 	shl	2,r13

                                                                      Page 7
                                                              C:\Users\Frank\AppData\Local\Temp\gh_0000nlg1.si
00000032 3e0600000000*   356 	mov	_speaLayer2UnitAssignment,ep
00000038 cdf1            357 	add	r13,ep
0000003a 0055            358 	sld.w	0[ep],r10
                         359 .L2:
                         360 --	    .ef
                         361 .LDW11:
0000003c 7f00            362 	jmp	[lp]
                         363 	.type	_loc_WM_Sprite_GetSpriteUnitFromLayerNo,@function
                         364 	.size	_loc_WM_Sprite_GetSpriteUnitFromLayerNo,.-_loc_WM_Sprite_GetSpriteUnitFromLayerNo
                         365 	.align	2
                         366 .LDW21:
                         367 
                         368 --_Unit	r14	param
                         369 --_Layer	r1	param
                         370 
                         371 	.section ".bss","awb"
                         372 .L54:
                         373 	.type	.L54,@object
                         374 	.size	.L54,0
                         375 	.section ".rodata","a"
                         376 	.align	4
                         377 	.global	_speaLayer2UnitAssignment..C.3A.5Cgit.5Crh850.5Csrc.5Capp.5Cgfx_apps.5Csimple_draw.5Ctarget.5Cd1mx_mango_ghs.5Cobj.5Cr_sys_wm_sprite.
                         378 _speaLayer2UnitAssignment..C.3A.5Cgit.5Crh850.5Csrc.5Capp.5Cgfx_apps.5Csimple_draw.5Ctarget.5Cd1mx_mango_ghs.5Cobj.5Cr_sys_wm_sprite.:
00000000 08000000        379 _speaLayer2UnitAssignment:	.byte	8,0,0,0
00000004 05000000        380 	.byte	5,0,0,0
00000008 06000000        381 	.byte	6,0,0,0
0000000c 07000000        382 	.byte	7,0,0,0
00000010 08000000        383 	.byte	8,0,0,0
00000014 07000000        384 	.byte	7,0,0,0
00000018 06000000        385 	.byte	6,0,0,0
0000001c 05000000        386 	.byte	5,0,0,0
                         387 	.type	_speaLayer2UnitAssignment..C.3A.5Cgit.5Crh850.5Csrc.5Capp.5Cgfx_apps.5Csimple_draw.5Ctarget.5Cd1mx_mango_ghs.5Cobj.5Cr_sys_wm_sprite.,@object
                         388 	.size	_speaLayer2UnitAssignment..C.3A.5Cgit.5Crh850.5Csrc.5Capp.5Cgfx_apps.5Csimple_draw.5Ctarget.5Cd1mx_mango_ghs.5Cobj.5Cr_sys_wm_sprite.,32
                         389 	.type	_speaLayer2UnitAssignment,@object
                         390 	.size	_speaLayer2UnitAssignment,32
                         391 	.global	_rleLayer2UnitAssignment..C.3A.5Cgit.5Crh850.5Csrc.5Capp.5Cgfx_apps.5Csimple_draw.5Ctarget.5Cd1mx_mango_ghs.5Cobj.5Cr_sys_wm_sprite.
                         392 _rleLayer2UnitAssignment..C.3A.5Cgit.5Crh850.5Csrc.5Capp.5Cgfx_apps.5Csimple_draw.5Ctarget.5Cd1mx_mango_ghs.5Cobj.5Cr_sys_wm_sprite.:
00000020 00000000        393 _rleLayer2UnitAssignment:	.space	4
00000024 01000000        394 	.byte	1,0,0,0
00000028 02000000        395 	.byte	2,0,0,0
0000002c 03000000        396 	.byte	3,0,0,0
00000030 00000000        397 	.space	4
00000034 03000000        398 	.byte	3,0,0,0
00000038 02000000        399 	.byte	2,0,0,0
0000003c 01000000        400 	.byte	1,0,0,0
                         401 	.type	_rleLayer2UnitAssignment..C.3A.5Cgit.5Crh850.5Csrc.5Capp.5Cgfx_apps.5Csimple_draw.5Ctarget.5Cd1mx_mango_ghs.5Cobj.5Cr_sys_wm_sprite.,@object
                         402 	.size	_rleLayer2UnitAssignment..C.3A.5Cgit.5Crh850.5Csrc.5Capp.5Cgfx_apps.5Csimple_draw.5Ctarget.5Cd1mx_mango_ghs.5Cobj.5Cr_sys_wm_sprite.,32
                         403 	.type	_rleLayer2UnitAssignment,@object
                         404 	.size	_rleLayer2UnitAssignment,32
                         405 	.data
                         406 	.text
                         407 
                         408 --162: }
                         409 
                         410 --164: r_spea_Unit_t loc_WM_Sprite_GetRLEUnitFromLayerNo(uint32_t Unit, uint32_t Layer)
                         411 	.align	2
                         412 	.align	2
                         413 	.global	_loc_WM_Sprite_GetRLEUnitFromLayerNo
                         414 _loc_WM_Sprite_GetRLEUnitFromLayerNo:
0000003e 0670            415 	mov	r6,r14
00000040 0708            416 	mov	r7,r1

                                                                      Page 8
                                                              C:\Users\Frank\AppData\Local\Temp\gh_0000nlg1.si
                         417 --	    .bf
                         418 .LDW31:
                         419 --165: {
                         420 --166:     if ( (Layer >  R_WM_MAX_LAYERS) || (Unit > R_WM_DEV_NUM) )
00000042 640a            421 	cmp	4,r1
00000044 bb05*           422 	bh	.L87
00000046 6272            423 	cmp	2,r14
00000048 b305*           424 	bnh	.L86
                         425 .L87:
                         426 --167:     {
                         427 --168:         return R_SPEA_SU_LAST;
                         428 --line168
                         429 ..lin.C.3A.5Cgit.5Crh850.5Csrc.5Capp.5Cgfx_apps.5Csimple_draw.5Ctarget.5Cd1mx_mango_ghs.5Cobj.5Cr_sys_wm_sprite.5::
                         430 .LDWlin5:
0000004a 0952            431 	mov	9,r10
0000004c f515*           432 	br	.L84
                         433 .L86:
                         434 --169:     }
                         435 --170:     
                         436 --171:     if ( (r_wm_Device != R_DEV_R7F701441) && (Layer > 0) )
                         437 --line171
                         438 ..lin.C.3A.5Cgit.5Crh850.5Csrc.5Capp.5Cgfx_apps.5Csimple_draw.5Ctarget.5Cd1mx_mango_ghs.5Cobj.5Cr_sys_wm_sprite.6::
                         439 .LDWlin6:
0000004e 2d0600000000*   440 	mov	_r_wm_Device,r13
00000054 2d6f0100        441 	ld.w	0[r13],r13
00000058 0d065ffa        442 	addi	-1441,r13,zero
0000005c d205*           443 	be	.L90
0000005e e009            444 	cmp	zero,r1
00000060 b305*           445 	bnh	.L90
                         446 --172:     {
                         447 --173:         return R_SPEA_SU_LAST;
                         448 --line173
                         449 ..lin.C.3A.5Cgit.5Crh850.5Csrc.5Capp.5Cgfx_apps.5Csimple_draw.5Ctarget.5Cd1mx_mango_ghs.5Cobj.5Cr_sys_wm_sprite.7::
                         450 .LDWlin7:
00000062 0952            451 	mov	9,r10
00000064 b50d*           452 	br	.L84
                         453 .L90:
                         454 --174:     }
                         455 --175:     
                         456 --176:     return rleLayer2UnitAssignment[Unit][Layer];
                         457 --line176
                         458 ..lin.C.3A.5Cgit.5Crh850.5Csrc.5Capp.5Cgfx_apps.5Csimple_draw.5Ctarget.5Cd1mx_mango_ghs.5Cobj.5Cr_sys_wm_sprite.8::
                         459 .LDWlin8:
00000066 0e60            460 	mov	r14,r12
00000068 c262            461 	shl	2,r12
0000006a 0168            462 	mov	r1,r13
0000006c cc69            463 	add	r12,r13
0000006e c26a            464 	shl	2,r13
00000070 3e0600000000*   465 	mov	_rleLayer2UnitAssignment,ep
00000076 cdf1            466 	add	r13,ep
00000078 0055            467 	sld.w	0[ep],r10
                         468 .L84:
                         469 --	    .ef
                         470 .LDW41:
0000007a 7f00            471 	jmp	[lp]
                         472 	.type	_loc_WM_Sprite_GetRLEUnitFromLayerNo,@function
                         473 	.size	_loc_WM_Sprite_GetRLEUnitFromLayerNo,.-_loc_WM_Sprite_GetRLEUnitFromLayerNo
                         474 	.align	2
                         475 .LDW51:
                         476 
                         477 --_Unit	r14	param

                                                                      Page 9
                                                              C:\Users\Frank\AppData\Local\Temp\gh_0000nlg1.si
                         478 --_Layer	r1	param
                         479 
                         480 	.section ".bss","awb"
                         481 .L134:
                         482 	.type	.L134,@object
                         483 	.size	.L134,0
                         484 	.data
                         485 	.text
                         486 
                         487 --177: }
                         488 
                         489 --179: /***********************************************************
                         490 --180:   Function: loc_WM_Sprite_GetLayerNoFromSpriteUnit
                         491 --181: */
                         492 --182: static uint32_t loc_WM_Sprite_GetLayerNoFromSpriteUnit(uint32_t Unit, r_spea_Unit_t SpeaUnit)
                         493 	.align	2
                         494 	.align	2
                         495 	.global	_loc_WM_Sprite_GetLayerNoFromSpriteUnit..C.3A.5Cgit.5Crh850.5Csrc.5Capp.5Cgfx_apps.5Csimple_draw.5Ctarget.5Cd1mx_mango_ghs.5Cobj.5Cr_sys_wm_sprite.
                         496 _loc_WM_Sprite_GetLayerNoFromSpriteUnit..C.3A.5Cgit.5Crh850.5Csrc.5Capp.5Cgfx_apps.5Csimple_draw.5Ctarget.5Cd1mx_mango_ghs.5Cobj.5Cr_sys_wm_sprite.:
                         497 _loc_WM_Sprite_GetLayerNoFromSpriteUnit:
0000007c 0668            498 	mov	r6,r13
0000007e 0770            499 	mov	r7,r14
                         500 --	    .bf
                         501 .LDW61:
                         502 --183: {
                         503 --184:     uint32_t layer;
                         504 --186:     if ( (r_wm_Device != R_DEV_R7F701441) && (SpeaUnit == R_SPEA_SU3) )
00000080 210600000000*   505 	mov	_r_wm_Device,r1
00000086 210f0100        506 	ld.w	0[r1],r1
0000008a 01065ffa        507 	addi	-1441,r1,zero
0000008e c205*           508 	be	.L166
00000090 6872            509 	cmp	8,r14
00000092 aa05*           510 	bne	.L166
                         511 --187:     {
                         512 --188:         layer =  R_WM_MAX_LAYERS;
                         513 --line188
                         514 ..lin.C.3A.5Cgit.5Crh850.5Csrc.5Capp.5Cgfx_apps.5Csimple_draw.5Ctarget.5Cd1mx_mango_ghs.5Cobj.5Cr_sys_wm_sprite.9::
                         515 .LDWlin9:
00000094 040a            516 	mov	4,r1
                         517 .L166:
                         518 --189:     }
                         519 --191:     for(layer=0; layer< R_WM_MAX_LAYERS; layer++)
00000096 000a            520 	mov	0,r1
00000098 0000            521 	nop
                         522 .L171:
                         523 --192:     {
                         524 --193:         if (speaLayer2UnitAssignment[Unit][layer] == SpeaUnit)
0000009a 0d58            525 	mov	r13,r11
0000009c c25a            526 	shl	2,r11
0000009e 0160            527 	mov	r1,r12
000000a0 cb61            528 	add	r11,r12
000000a2 c262            529 	shl	2,r12
000000a4 3e0600000000*   530 	mov	_speaLayer2UnitAssignment,ep
000000aa ccf1            531 	add	r12,ep
000000ac 0065            532 	sld.w	0[ep],r12
000000ae ee61            533 	cmp	r14,r12
000000b0 aa05*           534 	bne	.L172
                         535 --194:         {
                         536 --195:             break;
                         537 --line195
                         538 ..lin.C.3A.5Cgit.5Crh850.5Csrc.5Capp.5Cgfx_apps.5Csimple_draw.5Ctarget.5Cd1mx_mango_ghs.5Cobj.5Cr_sys_wm_sprite.10::

                                                                      Page 10
                                                              C:\Users\Frank\AppData\Local\Temp\gh_0000nlg1.si
                         539 .LDWlin10:
000000b2 c505*           540 	br	.L174
                         541 .L172:
                         542 --line191
                         543 ..lin.C.3A.5Cgit.5Crh850.5Csrc.5Capp.5Cgfx_apps.5Csimple_draw.5Ctarget.5Cd1mx_mango_ghs.5Cobj.5Cr_sys_wm_sprite.11::
                         544 .LDWlin11:
000000b4 410a            545 	add	1,r1
000000b6 640a            546 	cmp	4,r1
000000b8 91f5*           547 	bl	.L171
                         548 .L174:
                         549 --196:         }
                         550 --197:     }
                         551 --199:     if (layer >=  R_WM_MAX_LAYERS)
                         552 --line199
                         553 ..lin.C.3A.5Cgit.5Crh850.5Csrc.5Capp.5Cgfx_apps.5Csimple_draw.5Ctarget.5Cd1mx_mango_ghs.5Cobj.5Cr_sys_wm_sprite.12::
                         554 .LDWlin12:
000000ba 640a            555 	cmp	4,r1
000000bc a105*           556 	bl	.L176
                         557 --200:     {
                         558 --201:         layer =  R_WM_MAX_LAYERS;
                         559 --line201
                         560 ..lin.C.3A.5Cgit.5Crh850.5Csrc.5Capp.5Cgfx_apps.5Csimple_draw.5Ctarget.5Cd1mx_mango_ghs.5Cobj.5Cr_sys_wm_sprite.13::
                         561 .LDWlin13:
000000be 040a            562 	mov	4,r1
                         563 .L176:
                         564 --202:     }
                         565 --204:     return layer;
000000c0 0150            566 	mov	r1,r10
                         567 --	    .ef
                         568 .LDW71:
000000c2 7f00            569 	jmp	[lp]
                         570 	.type	_loc_WM_Sprite_GetLayerNoFromSpriteUnit,@function
                         571 	.size	_loc_WM_Sprite_GetLayerNoFromSpriteUnit,.-_loc_WM_Sprite_GetLayerNoFromSpriteUnit
                         572 	.type	_loc_WM_Sprite_GetLayerNoFromSpriteUnit..C.3A.5Cgit.5Crh850.5Csrc.5Capp.5Cgfx_apps.5Csimple_draw.5Ctarget.5Cd1mx_mango_ghs.5Cobj.5Cr_sys_wm_sprite.,@function
                         573 	.size	_loc_WM_Sprite_GetLayerNoFromSpriteUnit..C.3A.5Cgit.5Crh850.5Csrc.5Capp.5Cgfx_apps.5Csimple_draw.5Ctarget.5Cd1mx_mango_ghs.5Cobj.5Cr_sys_wm_sprite.,.-_loc_WM_Sprite_GetLayerNoFromSpriteUnit..C.3A.5Cgit.5Crh850.5Csrc.5Capp.5Cgfx_apps.5Csimple_draw.5Ctarget.5Cd1mx_mango_ghs.5Cobj.5Cr_sys_wm_sprite.
                         574 	.align	2
                         575 .LDW81:
                         576 --_layer	r1	local
                         577 
                         578 --_Unit	r13	param
                         579 --_SpeaUnit	r14	param
                         580 
                         581 	.section ".bss","awb"
                         582 .L250:
                         583 	.type	.L250,@object
                         584 	.size	.L250,0
                         585 	.data
                         586 	.text
                         587 
                         588 --205: }
                         589 
                         590 --207: /***********************************************************
                         591 --208:   Function: loc_WM_Sprite_SetReassignFlag
                         592 --209: */
                         593 --210: void loc_WM_Sprite_SetReassignFlag(uint32_t Unit, r_spea_Unit_t SpeaUnit)
                         594 	.align	2
                         595 	.align	2
                         596 	.global	_loc_WM_Sprite_SetReassignFlag
                         597 _loc_WM_Sprite_SetReassignFlag:
000000c4 0670            598 	mov	r6,r14
000000c6 0768            599 	mov	r7,r13

                                                                      Page 11
                                                              C:\Users\Frank\AppData\Local\Temp\gh_0000nlg1.si
                         600 --	    .bf
                         601 .LDW91:
                         602 --211: {
                         603 --212:     uint32_t mask = 0;
000000c8 000a            604 	mov	0,r1
                         605 --213:     switch (SpeaUnit)
000000ca 656a            606 	cmp	5,r13
000000cc c115*           607 	bl	.L303
000000ce f205*           608 	be	.L299
000000d0 676a            609 	cmp	7,r13
000000d2 810d*           610 	bl	.L300
000000d4 a20d*           611 	be	.L301
000000d6 686a            612 	cmp	8,r13
000000d8 ea0d*           613 	bne	.L303
000000da a50d*           614 	br	.L302
                         615 .L299:
                         616 --214:     {
                         617 --215:         case R_SPEA_SU0:
                         618 --216:             mask = 1uL << R_WM_SYS_FRAME_STATUS_SPEA_SU0_REASSIGN_BIT;
                         619 --line216
                         620 ..lin.C.3A.5Cgit.5Crh850.5Csrc.5Capp.5Cgfx_apps.5Csimple_draw.5Ctarget.5Cd1mx_mango_ghs.5Cobj.5Cr_sys_wm_sprite.14::
                         621 .LDWlin14:
000000dc 200e0001        622 	movea	256,zero,r1
000000e0 b50d*           623 	br	.L297
                         624 .L300:
                         625 --217:             break;
                         626 --218:         case R_SPEA_SU1:
                         627 --219:             mask = 1uL << R_WM_SYS_FRAME_STATUS_SPEA_SU1_REASSIGN_BIT;
                         628 --line219
                         629 ..lin.C.3A.5Cgit.5Crh850.5Csrc.5Capp.5Cgfx_apps.5Csimple_draw.5Ctarget.5Cd1mx_mango_ghs.5Cobj.5Cr_sys_wm_sprite.15::
                         630 .LDWlin15:
000000e2 200e0002        631 	movea	512,zero,r1
000000e6 850d*           632 	br	.L297
                         633 .L301:
                         634 --220:             break;
                         635 --221:         case R_SPEA_SU2:
                         636 --222:             mask = 1uL << R_WM_SYS_FRAME_STATUS_SPEA_SU2_REASSIGN_BIT;
                         637 --line222
                         638 ..lin.C.3A.5Cgit.5Crh850.5Csrc.5Capp.5Cgfx_apps.5Csimple_draw.5Ctarget.5Cd1mx_mango_ghs.5Cobj.5Cr_sys_wm_sprite.16::
                         639 .LDWlin16:
000000e8 200e0004        640 	movea	1024,zero,r1
000000ec d505*           641 	br	.L297
                         642 .L302:
                         643 --223:             break;
                         644 --224:         case R_SPEA_SU3:
                         645 --225:             mask = 1uL << R_WM_SYS_FRAME_STATUS_SPEA_SU3_REASSIGN_BIT;
                         646 --line225
                         647 ..lin.C.3A.5Cgit.5Crh850.5Csrc.5Capp.5Cgfx_apps.5Csimple_draw.5Ctarget.5Cd1mx_mango_ghs.5Cobj.5Cr_sys_wm_sprite.17::
                         648 .LDWlin17:
000000ee 200e0008        649 	movea	2048,zero,r1
000000f2 a505*           650 	br	.L297
                         651 .L303:
                         652 --line228
                         653 ..lin.C.3A.5Cgit.5Crh850.5Csrc.5Capp.5Cgfx_apps.5Csimple_draw.5Ctarget.5Cd1mx_mango_ghs.5Cobj.5Cr_sys_wm_sprite.18::
                         654 .LDWlin18:
000000f4 0000            655 	nop
                         656 .L297:
                         657 --226:             break;
                         658 --227:         default:
                         659 --228:             break;
                         660 --229:     }

                                                                      Page 12
                                                              C:\Users\Frank\AppData\Local\Temp\gh_0000nlg1.si
                         661 --230:     r_wm_DevSys[Unit].FrameStatusFlags |= mask;
000000f6 0ef0            662 	mov	r14,ep
000000f8 fe00            663 	sxh	ep
000000fa fef66000        664 	mulhi	96,ep,ep
000000fe 2b0600000000*   665 	mov	_r_wm_DevSys,r11
00000104 cbf1            666 	add	r11,ep
00000106 2a65            667 	sld.w	84[ep],r12
00000108 0161            668 	or	r1,r12
0000010a 2b65            669 	sst.w	r12,84[ep]
                         670 --231: }
                         671 --	    .ef
                         672 .LDW02:
0000010c 7f00            673 	jmp	[lp]
                         674 	.type	_loc_WM_Sprite_SetReassignFlag,@function
                         675 	.size	_loc_WM_Sprite_SetReassignFlag,.-_loc_WM_Sprite_SetReassignFlag
                         676 	.align	2
                         677 .LDW12:
                         678 --_mask	r1	local
                         679 
                         680 --_Unit	r14	param
                         681 --_SpeaUnit	r13	param
                         682 
                         683 	.section ".bss","awb"
                         684 .L366:
                         685 	.type	.L366,@object
                         686 	.size	.L366,0
                         687 	.data
                         688 	.text
                         689 
                         690 
                         691 --233: /***********************************************************
                         692 --234:   Function: loc_WM_Sprite_GetReassignFlag
                         693 --235: */
                         694 --236: static uint32_t loc_WM_Sprite_GetReassignFlag(uint32_t Unit, r_spea_Unit_t SpeaUnit)
                         695 	.align	2
                         696 	.align	2
                         697 	.global	_loc_WM_Sprite_GetReassignFlag..C.3A.5Cgit.5Crh850.5Csrc.5Capp.5Cgfx_apps.5Csimple_draw.5Ctarget.5Cd1mx_mango_ghs.5Cobj.5Cr_sys_wm_sprite.
                         698 _loc_WM_Sprite_GetReassignFlag..C.3A.5Cgit.5Crh850.5Csrc.5Capp.5Cgfx_apps.5Csimple_draw.5Ctarget.5Cd1mx_mango_ghs.5Cobj.5Cr_sys_wm_sprite.:
                         699 _loc_WM_Sprite_GetReassignFlag:
0000010e 0670            700 	mov	r6,r14
00000110 0768            701 	mov	r7,r13
                         702 --	    .bf
                         703 .LDW22:
                         704 --237: {
                         705 --238:     uint32_t mask = 0;
00000112 000a            706 	mov	0,r1
                         707 --239:     switch (SpeaUnit)
00000114 656a            708 	cmp	5,r13
00000116 c115*           709 	bl	.L433
00000118 f205*           710 	be	.L429
0000011a 676a            711 	cmp	7,r13
0000011c 810d*           712 	bl	.L430
0000011e a20d*           713 	be	.L431
00000120 686a            714 	cmp	8,r13
00000122 ea0d*           715 	bne	.L433
00000124 a50d*           716 	br	.L432
                         717 .L429:
                         718 --240:     {
                         719 --241:         case R_SPEA_SU0:
                         720 --242:             mask = 1uL << R_WM_SYS_FRAME_STATUS_SPEA_SU0_REASSIGN_BIT;
                         721 --line242

                                                                      Page 13
                                                              C:\Users\Frank\AppData\Local\Temp\gh_0000nlg1.si
                         722 ..lin.C.3A.5Cgit.5Crh850.5Csrc.5Capp.5Cgfx_apps.5Csimple_draw.5Ctarget.5Cd1mx_mango_ghs.5Cobj.5Cr_sys_wm_sprite.19::
                         723 .LDWlin19:
00000126 200e0001        724 	movea	256,zero,r1
0000012a b50d*           725 	br	.L427
                         726 .L430:
                         727 --243:             break;
                         728 --244:         case R_SPEA_SU1:
                         729 --245:             mask = 1uL << R_WM_SYS_FRAME_STATUS_SPEA_SU1_REASSIGN_BIT;
                         730 --line245
                         731 ..lin.C.3A.5Cgit.5Crh850.5Csrc.5Capp.5Cgfx_apps.5Csimple_draw.5Ctarget.5Cd1mx_mango_ghs.5Cobj.5Cr_sys_wm_sprite.20::
                         732 .LDWlin20:
0000012c 200e0002        733 	movea	512,zero,r1
00000130 850d*           734 	br	.L427
                         735 .L431:
                         736 --246:             break;
                         737 --247:         case R_SPEA_SU2:
                         738 --248:             mask = 1uL << R_WM_SYS_FRAME_STATUS_SPEA_SU2_REASSIGN_BIT;
                         739 --line248
                         740 ..lin.C.3A.5Cgit.5Crh850.5Csrc.5Capp.5Cgfx_apps.5Csimple_draw.5Ctarget.5Cd1mx_mango_ghs.5Cobj.5Cr_sys_wm_sprite.21::
                         741 .LDWlin21:
00000132 200e0004        742 	movea	1024,zero,r1
00000136 d505*           743 	br	.L427
                         744 .L432:
                         745 --249:             break;
                         746 --250:         case R_SPEA_SU3:
                         747 --251:             mask = 1uL << R_WM_SYS_FRAME_STATUS_SPEA_SU3_REASSIGN_BIT;
                         748 --line251
                         749 ..lin.C.3A.5Cgit.5Crh850.5Csrc.5Capp.5Cgfx_apps.5Csimple_draw.5Ctarget.5Cd1mx_mango_ghs.5Cobj.5Cr_sys_wm_sprite.22::
                         750 .LDWlin22:
00000138 200e0008        751 	movea	2048,zero,r1
0000013c a505*           752 	br	.L427
                         753 .L433:
                         754 --line254
                         755 ..lin.C.3A.5Cgit.5Crh850.5Csrc.5Capp.5Cgfx_apps.5Csimple_draw.5Ctarget.5Cd1mx_mango_ghs.5Cobj.5Cr_sys_wm_sprite.23::
                         756 .LDWlin23:
0000013e 0000            757 	nop
                         758 .L427:
                         759 --252:             break;
                         760 --253:         default:
                         761 --254:             break;
                         762 --255:     }
                         763 --256:     if ( (r_wm_DevSys[Unit].FrameStatusFlags & mask) != 0)
00000140 0ef0            764 	mov	r14,ep
00000142 fe00            765 	sxh	ep
00000144 fef66000        766 	mulhi	96,ep,ep
00000148 2b0600000000*   767 	mov	_r_wm_DevSys,r11
0000014e cbf1            768 	add	r11,ep
00000150 2a65            769 	sld.w	84[ep],r12
00000152 4161            770 	and	r1,r12
00000154 b205*           771 	be	.L434
                         772 --257:     {
                         773 --258:         return 1;
                         774 --line258
                         775 ..lin.C.3A.5Cgit.5Crh850.5Csrc.5Capp.5Cgfx_apps.5Csimple_draw.5Ctarget.5Cd1mx_mango_ghs.5Cobj.5Cr_sys_wm_sprite.24::
                         776 .LDWlin24:
00000156 0152            777 	mov	1,r10
00000158 a505*           778 	br	.L425
                         779 .L434:
                         780 --259:     }
                         781 --260:     else
                         782 --261:     {

                                                                      Page 14
                                                              C:\Users\Frank\AppData\Local\Temp\gh_0000nlg1.si
                         783 --262:         return 0;
                         784 --line262
                         785 ..lin.C.3A.5Cgit.5Crh850.5Csrc.5Capp.5Cgfx_apps.5Csimple_draw.5Ctarget.5Cd1mx_mango_ghs.5Cobj.5Cr_sys_wm_sprite.25::
                         786 .LDWlin25:
0000015a 0052            787 	mov	0,r10
                         788 .L425:
                         789 --	    .ef
                         790 .LDW32:
0000015c 7f00            791 	jmp	[lp]
                         792 	.type	_loc_WM_Sprite_GetReassignFlag,@function
                         793 	.size	_loc_WM_Sprite_GetReassignFlag,.-_loc_WM_Sprite_GetReassignFlag
                         794 	.type	_loc_WM_Sprite_GetReassignFlag..C.3A.5Cgit.5Crh850.5Csrc.5Capp.5Cgfx_apps.5Csimple_draw.5Ctarget.5Cd1mx_mango_ghs.5Cobj.5Cr_sys_wm_sprite.,@function
                         795 	.size	_loc_WM_Sprite_GetReassignFlag..C.3A.5Cgit.5Crh850.5Csrc.5Capp.5Cgfx_apps.5Csimple_draw.5Ctarget.5Cd1mx_mango_ghs.5Cobj.5Cr_sys_wm_sprite.,.-_loc_WM_Sprite_GetReassignFlag..C.3A.5Cgit.5Crh850.5Csrc.5Capp.5Cgfx_apps.5Csimple_draw.5Ctarget.5Cd1mx_mango_ghs.5Cobj.5Cr_sys_wm_sprite.
                         796 	.align	2
                         797 .LDW42:
                         798 --_mask	r1	local
                         799 
                         800 --_Unit	r14	param
                         801 --_SpeaUnit	r13	param
                         802 
                         803 	.section ".bss","awb"
                         804 .L514:
                         805 	.type	.L514,@object
                         806 	.size	.L514,0
                         807 	.data
                         808 	.text
                         809 
                         810 --263:     }
                         811 --264: }
                         812 
                         813 --266: /***********************************************************
                         814 --267:   Function: loc_WM_Sprite_SetUpdateFlag
                         815 --268: */
                         816 --269: void loc_WM_Sprite_SetUpdateFlag(uint32_t Unit, r_spea_Unit_t SpeaUnit)
                         817 	.align	2
                         818 	.align	2
                         819 	.global	_loc_WM_Sprite_SetUpdateFlag
                         820 _loc_WM_Sprite_SetUpdateFlag:
0000015e 0670            821 	mov	r6,r14
00000160 0760            822 	mov	r7,r12
                         823 --	    .bf
                         824 .LDW52:
                         825 --270: {
                         826 --271:     uint32_t mask = 0;
00000162 000a            827 	mov	0,r1
                         828 --272:     switch (SpeaUnit)
00000164 0c68            829 	mov	r12,r13
00000166 686a            830 	cmp	8,r13
00000168 cb2d*           831 	bh	.L588
0000016a 0d58            832 	mov	r13,r11
0000016c c25a            833 	shl	2,r11
0000016e eb0600000000*   834 	jmp	.L688[r11]
                         835 .L688:
00000174 80072400*       836 	jr	.L580
00000178 80072400*       837 	jr	.L581
0000017c 80072400*       838 	jr	.L582
00000180 80072400*       839 	jr	.L583
00000184 80073c00*       840 	jr	.L588
00000188 80072000*       841 	jr	.L584
0000018c 80072200*       842 	jr	.L585
00000190 80072400*       843 	jr	.L586

                                                                      Page 15
                                                              C:\Users\Frank\AppData\Local\Temp\gh_0000nlg1.si
00000194 80072600*       844 	jr	.L587
                         845 .L580:
                         846 --273:     {
                         847 --274:         case R_SPEA_RLE0:
                         848 --275:             mask = 1uL << R_WM_SYS_FRAME_STATUS_SPEA_RLE0_UPDATE_BIT;
                         849 --line275
                         850 ..lin.C.3A.5Cgit.5Crh850.5Csrc.5Capp.5Cgfx_apps.5Csimple_draw.5Ctarget.5Cd1mx_mango_ghs.5Cobj.5Cr_sys_wm_sprite.26::
                         851 .LDWlin26:
00000198 010a            852 	mov	1,r1
0000019a c515*           853 	br	.L578
                         854 .L581:
                         855 --276:             break;
                         856 --277:         case R_SPEA_RLE1:
                         857 --278:             mask = 1uL << R_WM_SYS_FRAME_STATUS_SPEA_RLE1_UPDATE_BIT;
                         858 --line278
                         859 ..lin.C.3A.5Cgit.5Crh850.5Csrc.5Capp.5Cgfx_apps.5Csimple_draw.5Ctarget.5Cd1mx_mango_ghs.5Cobj.5Cr_sys_wm_sprite.27::
                         860 .LDWlin27:
0000019c 020a            861 	mov	2,r1
0000019e a515*           862 	br	.L578
                         863 .L582:
                         864 --279:             break;
                         865 --280:         case R_SPEA_RLE2:
                         866 --281:             mask = 1uL << R_WM_SYS_FRAME_STATUS_SPEA_RLE2_UPDATE_BIT;
                         867 --line281
                         868 ..lin.C.3A.5Cgit.5Crh850.5Csrc.5Capp.5Cgfx_apps.5Csimple_draw.5Ctarget.5Cd1mx_mango_ghs.5Cobj.5Cr_sys_wm_sprite.28::
                         869 .LDWlin28:
000001a0 040a            870 	mov	4,r1
000001a2 8515*           871 	br	.L578
                         872 .L583:
                         873 --282:             break;
                         874 --283:         case R_SPEA_RLE3:
                         875 --284:             mask = 1uL << R_WM_SYS_FRAME_STATUS_SPEA_RLE3_UPDATE_BIT;
                         876 --line284
                         877 ..lin.C.3A.5Cgit.5Crh850.5Csrc.5Capp.5Cgfx_apps.5Csimple_draw.5Ctarget.5Cd1mx_mango_ghs.5Cobj.5Cr_sys_wm_sprite.29::
                         878 .LDWlin29:
000001a4 080a            879 	mov	8,r1
000001a6 e50d*           880 	br	.L578
                         881 .L584:
                         882 --285:             break;
                         883 --286:         case R_SPEA_SU0:
                         884 --287:             mask = 1uL << R_WM_SYS_FRAME_STATUS_SPEA_SU0_UPDATE_BIT;
                         885 --line287
                         886 ..lin.C.3A.5Cgit.5Crh850.5Csrc.5Capp.5Cgfx_apps.5Csimple_draw.5Ctarget.5Cd1mx_mango_ghs.5Cobj.5Cr_sys_wm_sprite.30::
                         887 .LDWlin30:
000001a8 200e1000        888 	movea	16,zero,r1
000001ac b50d*           889 	br	.L578
                         890 .L585:
                         891 --288:             break;
                         892 --289:         case R_SPEA_SU1:
                         893 --290:             mask = 1uL << R_WM_SYS_FRAME_STATUS_SPEA_SU1_UPDATE_BIT;
                         894 --line290
                         895 ..lin.C.3A.5Cgit.5Crh850.5Csrc.5Capp.5Cgfx_apps.5Csimple_draw.5Ctarget.5Cd1mx_mango_ghs.5Cobj.5Cr_sys_wm_sprite.31::
                         896 .LDWlin31:
000001ae 200e2000        897 	movea	32,zero,r1
000001b2 850d*           898 	br	.L578
                         899 .L586:
                         900 --291:             break;
                         901 --292:         case R_SPEA_SU2:
                         902 --293:             mask = 1uL << R_WM_SYS_FRAME_STATUS_SPEA_SU2_UPDATE_BIT;
                         903 --line293
                         904 ..lin.C.3A.5Cgit.5Crh850.5Csrc.5Capp.5Cgfx_apps.5Csimple_draw.5Ctarget.5Cd1mx_mango_ghs.5Cobj.5Cr_sys_wm_sprite.32::

                                                                      Page 16
                                                              C:\Users\Frank\AppData\Local\Temp\gh_0000nlg1.si
                         905 .LDWlin32:
000001b4 200e4000        906 	movea	64,zero,r1
000001b8 d505*           907 	br	.L578
                         908 .L587:
                         909 --294:             break;
                         910 --295:         case R_SPEA_SU3:
                         911 --296:             mask = 1uL << R_WM_SYS_FRAME_STATUS_SPEA_SU3_UPDATE_BIT;
                         912 --line296
                         913 ..lin.C.3A.5Cgit.5Crh850.5Csrc.5Capp.5Cgfx_apps.5Csimple_draw.5Ctarget.5Cd1mx_mango_ghs.5Cobj.5Cr_sys_wm_sprite.33::
                         914 .LDWlin33:
000001ba 200e8000        915 	movea	128,zero,r1
000001be a505*           916 	br	.L578
                         917 .L588:
                         918 --line299
                         919 ..lin.C.3A.5Cgit.5Crh850.5Csrc.5Capp.5Cgfx_apps.5Csimple_draw.5Ctarget.5Cd1mx_mango_ghs.5Cobj.5Cr_sys_wm_sprite.34::
                         920 .LDWlin34:
000001c0 0000            921 	nop
                         922 .L578:
                         923 --297:             break;
                         924 --298:         default:
                         925 --299:             break;
                         926 --301:     }
                         927 --302:     r_wm_DevSys[Unit].FrameStatusFlags |= mask;
000001c2 0ef0            928 	mov	r14,ep
000001c4 fe00            929 	sxh	ep
000001c6 fef66000        930 	mulhi	96,ep,ep
000001ca 2b0600000000*   931 	mov	_r_wm_DevSys,r11
000001d0 cbf1            932 	add	r11,ep
000001d2 2a6d            933 	sld.w	84[ep],r13
000001d4 0169            934 	or	r1,r13
000001d6 2b6d            935 	sst.w	r13,84[ep]
                         936 --303: }
                         937 --	    .ef
                         938 .LDW62:
000001d8 7f00            939 	jmp	[lp]
                         940 	.type	_loc_WM_Sprite_SetUpdateFlag,@function
                         941 	.size	_loc_WM_Sprite_SetUpdateFlag,.-_loc_WM_Sprite_SetUpdateFlag
                         942 	.align	2
                         943 .LDW72:
                         944 --_mask	r1	local
                         945 
                         946 --_Unit	r14	param
                         947 --_SpeaUnit	r12	param
                         948 
                         949 	.section ".bss","awb"
                         950 .L686:
                         951 	.type	.L686,@object
                         952 	.size	.L686,0
                         953 	.data
                         954 	.ghsnote jtable,2097156,.L688,.L688,.L688,9
                         955 	.text
                         956 
                         957 
                         958 --305: /***********************************************************
                         959 --306:   Function: loc_WM_Sprite_GetUpdateFlag
                         960 --307: */
                         961 --308: static uint32_t loc_WM_Sprite_GetUpdateFlag(uint32_t Unit, r_spea_Unit_t SpeaUnit)
                         962 	.align	2
                         963 	.align	2
                         964 	.global	_loc_WM_Sprite_GetUpdateFlag..C.3A.5Cgit.5Crh850.5Csrc.5Capp.5Cgfx_apps.5Csimple_draw.5Ctarget.5Cd1mx_mango_ghs.5Cobj.5Cr_sys_wm_sprite.
                         965 _loc_WM_Sprite_GetUpdateFlag..C.3A.5Cgit.5Crh850.5Csrc.5Capp.5Cgfx_apps.5Csimple_draw.5Ctarget.5Cd1mx_mango_ghs.5Cobj.5Cr_sys_wm_sprite.:

                                                                      Page 17
                                                              C:\Users\Frank\AppData\Local\Temp\gh_0000nlg1.si
                         966 _loc_WM_Sprite_GetUpdateFlag:
000001da 0670            967 	mov	r6,r14
000001dc 0760            968 	mov	r7,r12
                         969 --	    .bf
                         970 .LDW82:
                         971 --309: {
                         972 --310:     uint32_t mask = 0;
000001de 000a            973 	mov	0,r1
                         974 --311:     switch (SpeaUnit)
000001e0 0c68            975 	mov	r12,r13
000001e2 686a            976 	cmp	8,r13
000001e4 cb2d*           977 	bh	.L775
000001e6 0d58            978 	mov	r13,r11
000001e8 c25a            979 	shl	2,r11
000001ea eb0600000000*   980 	jmp	.L884[r11]
                         981 .L884:
000001f0 80072400*       982 	jr	.L767
000001f4 80072400*       983 	jr	.L768
000001f8 80072400*       984 	jr	.L769
000001fc 80072400*       985 	jr	.L770
00000200 80073c00*       986 	jr	.L775
00000204 80072000*       987 	jr	.L771
00000208 80072200*       988 	jr	.L772
0000020c 80072400*       989 	jr	.L773
00000210 80072600*       990 	jr	.L774
                         991 .L767:
                         992 --312:     {
                         993 --313:         case R_SPEA_RLE0:
                         994 --314:             mask = 1uL << R_WM_SYS_FRAME_STATUS_SPEA_RLE0_UPDATE_BIT;
                         995 --line314
                         996 ..lin.C.3A.5Cgit.5Crh850.5Csrc.5Capp.5Cgfx_apps.5Csimple_draw.5Ctarget.5Cd1mx_mango_ghs.5Cobj.5Cr_sys_wm_sprite.35::
                         997 .LDWlin35:
00000214 010a            998 	mov	1,r1
00000216 c515*           999 	br	.L765
                        1000 .L768:
                        1001 --315:             break;
                        1002 --316:         case R_SPEA_RLE1:
                        1003 --317:             mask = 1uL << R_WM_SYS_FRAME_STATUS_SPEA_RLE1_UPDATE_BIT;
                        1004 --line317
                        1005 ..lin.C.3A.5Cgit.5Crh850.5Csrc.5Capp.5Cgfx_apps.5Csimple_draw.5Ctarget.5Cd1mx_mango_ghs.5Cobj.5Cr_sys_wm_sprite.36::
                        1006 .LDWlin36:
00000218 020a           1007 	mov	2,r1
0000021a a515*          1008 	br	.L765
                        1009 .L769:
                        1010 --318:             break;
                        1011 --319:         case R_SPEA_RLE2:
                        1012 --320:             mask = 1uL << R_WM_SYS_FRAME_STATUS_SPEA_RLE2_UPDATE_BIT;
                        1013 --line320
                        1014 ..lin.C.3A.5Cgit.5Crh850.5Csrc.5Capp.5Cgfx_apps.5Csimple_draw.5Ctarget.5Cd1mx_mango_ghs.5Cobj.5Cr_sys_wm_sprite.37::
                        1015 .LDWlin37:
0000021c 040a           1016 	mov	4,r1
0000021e 8515*          1017 	br	.L765
                        1018 .L770:
                        1019 --321:             break;
                        1020 --322:         case R_SPEA_RLE3:
                        1021 --323:             mask = 1uL << R_WM_SYS_FRAME_STATUS_SPEA_RLE3_UPDATE_BIT;
                        1022 --line323
                        1023 ..lin.C.3A.5Cgit.5Crh850.5Csrc.5Capp.5Cgfx_apps.5Csimple_draw.5Ctarget.5Cd1mx_mango_ghs.5Cobj.5Cr_sys_wm_sprite.38::
                        1024 .LDWlin38:
00000220 080a           1025 	mov	8,r1
00000222 e50d*          1026 	br	.L765

                                                                      Page 18
                                                              C:\Users\Frank\AppData\Local\Temp\gh_0000nlg1.si
                        1027 .L771:
                        1028 --324:             break;
                        1029 --325:         case R_SPEA_SU0:
                        1030 --326:             mask = 1uL << R_WM_SYS_FRAME_STATUS_SPEA_SU0_UPDATE_BIT;
                        1031 --line326
                        1032 ..lin.C.3A.5Cgit.5Crh850.5Csrc.5Capp.5Cgfx_apps.5Csimple_draw.5Ctarget.5Cd1mx_mango_ghs.5Cobj.5Cr_sys_wm_sprite.39::
                        1033 .LDWlin39:
00000224 200e1000       1034 	movea	16,zero,r1
00000228 b50d*          1035 	br	.L765
                        1036 .L772:
                        1037 --327:             break;
                        1038 --328:         case R_SPEA_SU1:
                        1039 --329:             mask = 1uL << R_WM_SYS_FRAME_STATUS_SPEA_SU1_UPDATE_BIT;
                        1040 --line329
                        1041 ..lin.C.3A.5Cgit.5Crh850.5Csrc.5Capp.5Cgfx_apps.5Csimple_draw.5Ctarget.5Cd1mx_mango_ghs.5Cobj.5Cr_sys_wm_sprite.40::
                        1042 .LDWlin40:
0000022a 200e2000       1043 	movea	32,zero,r1
0000022e 850d*          1044 	br	.L765
                        1045 .L773:
                        1046 --330:             break;
                        1047 --331:         case R_SPEA_SU2:
                        1048 --332:             mask = 1uL << R_WM_SYS_FRAME_STATUS_SPEA_SU2_UPDATE_BIT;
                        1049 --line332
                        1050 ..lin.C.3A.5Cgit.5Crh850.5Csrc.5Capp.5Cgfx_apps.5Csimple_draw.5Ctarget.5Cd1mx_mango_ghs.5Cobj.5Cr_sys_wm_sprite.41::
                        1051 .LDWlin41:
00000230 200e4000       1052 	movea	64,zero,r1
00000234 d505*          1053 	br	.L765
                        1054 .L774:
                        1055 --333:             break;
                        1056 --334:         case R_SPEA_SU3:
                        1057 --335:             mask = 1uL << R_WM_SYS_FRAME_STATUS_SPEA_SU3_UPDATE_BIT;
                        1058 --line335
                        1059 ..lin.C.3A.5Cgit.5Crh850.5Csrc.5Capp.5Cgfx_apps.5Csimple_draw.5Ctarget.5Cd1mx_mango_ghs.5Cobj.5Cr_sys_wm_sprite.42::
                        1060 .LDWlin42:
00000236 200e8000       1061 	movea	128,zero,r1
0000023a a505*          1062 	br	.L765
                        1063 .L775:
                        1064 --line338
                        1065 ..lin.C.3A.5Cgit.5Crh850.5Csrc.5Capp.5Cgfx_apps.5Csimple_draw.5Ctarget.5Cd1mx_mango_ghs.5Cobj.5Cr_sys_wm_sprite.43::
                        1066 .LDWlin43:
0000023c 0000           1067 	nop
                        1068 .L765:
                        1069 --336:             break;
                        1070 --337:         default:
                        1071 --338:             break;
                        1072 --340:     }
                        1073 --341:     if ( (r_wm_DevSys[Unit].FrameStatusFlags & mask) != 0)
0000023e 0ef0           1074 	mov	r14,ep
00000240 fe00           1075 	sxh	ep
00000242 fef66000       1076 	mulhi	96,ep,ep
00000246 2b0600000000*  1077 	mov	_r_wm_DevSys,r11
0000024c cbf1           1078 	add	r11,ep
0000024e 2a6d           1079 	sld.w	84[ep],r13
00000250 4169           1080 	and	r1,r13
00000252 b205*          1081 	be	.L776
                        1082 --342:     {
                        1083 --343:         return 1;
                        1084 --line343
                        1085 ..lin.C.3A.5Cgit.5Crh850.5Csrc.5Capp.5Cgfx_apps.5Csimple_draw.5Ctarget.5Cd1mx_mango_ghs.5Cobj.5Cr_sys_wm_sprite.44::
                        1086 .LDWlin44:
00000254 0152           1087 	mov	1,r10

                                                                      Page 19
                                                              C:\Users\Frank\AppData\Local\Temp\gh_0000nlg1.si
00000256 a505*          1088 	br	.L763
                        1089 .L776:
                        1090 --344:     }
                        1091 --345:     else
                        1092 --346:     {
                        1093 --347:         return 0;
                        1094 --line347
                        1095 ..lin.C.3A.5Cgit.5Crh850.5Csrc.5Capp.5Cgfx_apps.5Csimple_draw.5Ctarget.5Cd1mx_mango_ghs.5Cobj.5Cr_sys_wm_sprite.45::
                        1096 .LDWlin45:
00000258 0052           1097 	mov	0,r10
                        1098 .L763:
                        1099 --	    .ef
                        1100 .LDW92:
0000025a 7f00           1101 	jmp	[lp]
                        1102 	.type	_loc_WM_Sprite_GetUpdateFlag,@function
                        1103 	.size	_loc_WM_Sprite_GetUpdateFlag,.-_loc_WM_Sprite_GetUpdateFlag
                        1104 	.type	_loc_WM_Sprite_GetUpdateFlag..C.3A.5Cgit.5Crh850.5Csrc.5Capp.5Cgfx_apps.5Csimple_draw.5Ctarget.5Cd1mx_mango_ghs.5Cobj.5Cr_sys_wm_sprite.,@function
                        1105 	.size	_loc_WM_Sprite_GetUpdateFlag..C.3A.5Cgit.5Crh850.5Csrc.5Capp.5Cgfx_apps.5Csimple_draw.5Ctarget.5Cd1mx_mango_ghs.5Cobj.5Cr_sys_wm_sprite.,.-_loc_WM_Sprite_GetUpdateFlag..C.3A.5Cgit.5Crh850.5Csrc.5Capp.5Cgfx_apps.5Csimple_draw.5Ctarget.5Cd1mx_mango_ghs.5Cobj.5Cr_sys_wm_sprite.
                        1106 	.align	2
                        1107 .LDW03:
                        1108 --_mask	r1	local
                        1109 
                        1110 --_Unit	r14	param
                        1111 --_SpeaUnit	r12	param
                        1112 
                        1113 	.section ".bss","awb"
                        1114 .L882:
                        1115 	.type	.L882,@object
                        1116 	.size	.L882,0
                        1117 	.data
                        1118 	.ghsnote jtable,2097156,.L884,.L884,.L884,9
                        1119 	.text
                        1120 
                        1121 --348:     }
                        1122 --349: }
                        1123 
                        1124 --351: /***********************************************************
                        1125 --352:   Function: loc_WM_Sprite_GetSpriteNo
                        1126 --353: */
                        1127 --354: static uint8_t loc_WM_Sprite_GetSpriteNo(uint32_t Unit, const r_wm_Sprite_t *Sprite)
                        1128 	.align	2
                        1129 	.align	2
                        1130 	.global	_loc_WM_Sprite_GetSpriteNo..C.3A.5Cgit.5Crh850.5Csrc.5Capp.5Cgfx_apps.5Csimple_draw.5Ctarget.5Cd1mx_mango_ghs.5Cobj.5Cr_sys_wm_sprite.
                        1131 _loc_WM_Sprite_GetSpriteNo..C.3A.5Cgit.5Crh850.5Csrc.5Capp.5Cgfx_apps.5Csimple_draw.5Ctarget.5Cd1mx_mango_ghs.5Cobj.5Cr_sys_wm_sprite.:
                        1132 _loc_WM_Sprite_GetSpriteNo:
0000025c 0668           1133 	mov	r6,r13
0000025e 0770           1134 	mov	r7,r14
                        1135 --	    .bf
                        1136 .LDW13:
                        1137 --355: {
                        1138 --356:     const r_wm_Sprite_t* tmp_sprite = Sprite->Window->Surface.SpritesRoot;
00000260 2ef70100       1139 	ld.w	0[r14],ep
00000264 16f5           1140 	sld.w	44[ep],ep
                        1141 --357:     uint8_t sprite_no = 0;
00000266 000a           1142 	mov	0,r1
                        1143 --358:     /* Iteration of NULL-terminated Linked-List. Maximum Number of expected 
                        1144 --359:        elements for this device family is R_WM_MAX_SPRITES_PER_LAYERS. */
                        1145 --360:     while   (   (tmp_sprite != R_NULL)
00000268 950d*          1146 	br	.L964
                        1147 .L966:
                        1148 --361:                 &&

                                                                      Page 20
                                                              C:\Users\Frank\AppData\Local\Temp\gh_0000nlg1.si
                        1149 --362:                 (sprite_no < R_WM_MAX_SPRITES_PER_LAYER)
                        1150 --363:             )
                        1151 --364:     {
                        1152 --365:         if (tmp_sprite == Sprite)
                        1153 --line365
                        1154 ..lin.C.3A.5Cgit.5Crh850.5Csrc.5Capp.5Cgfx_apps.5Csimple_draw.5Ctarget.5Cd1mx_mango_ghs.5Cobj.5Cr_sys_wm_sprite.46::
                        1155 .LDWlin46:
0000026a eef1           1156 	cmp	r14,ep
0000026c ba05*          1157 	bne	.L967
                        1158 --366:         {
                        1159 --367:             return sprite_no;
                        1160 --line367
                        1161 ..lin.C.3A.5Cgit.5Crh850.5Csrc.5Capp.5Cgfx_apps.5Csimple_draw.5Ctarget.5Cd1mx_mango_ghs.5Cobj.5Cr_sys_wm_sprite.47::
                        1162 .LDWlin47:
0000026e 0150           1163 	mov	r1,r10
00000270 c50d*          1164 	br	.L962
                        1165 .L967:
                        1166 --368:         }
                        1167 --369:         ++sprite_no;
                        1168 --line369
                        1169 ..lin.C.3A.5Cgit.5Crh850.5Csrc.5Capp.5Cgfx_apps.5Csimple_draw.5Ctarget.5Cd1mx_mango_ghs.5Cobj.5Cr_sys_wm_sprite.48::
                        1170 .LDWlin48:
00000272 410a           1171 	add	1,r1
00000274 8100           1172 	zxb	r1
                        1173 --370:         tmp_sprite = tmp_sprite->Next;
00000276 0265           1174 	sld.w	4[ep],r12
00000278 0cf0           1175 	mov	r12,ep
                        1176 .L964:
0000027a e0f1           1177 	cmp	zero,ep
0000027c c205*          1178 	be	.L965
0000027e 0106f0ff       1179 	addi	-16,r1,zero
00000282 c9f5*          1180 	bnl	.L966
                        1181 .L965:
                        1182 --371:     }
                        1183 --372:     return LOC_INVALID_SPRITE;
                        1184 --line372
                        1185 ..lin.C.3A.5Cgit.5Crh850.5Csrc.5Capp.5Cgfx_apps.5Csimple_draw.5Ctarget.5Cd1mx_mango_ghs.5Cobj.5Cr_sys_wm_sprite.49::
                        1186 .LDWlin49:
00000284 20561000       1187 	movea	16,zero,r10
                        1188 .L962:
                        1189 --	    .ef
                        1190 .LDW23:
00000288 7f00           1191 	jmp	[lp]
                        1192 	.type	_loc_WM_Sprite_GetSpriteNo,@function
                        1193 	.size	_loc_WM_Sprite_GetSpriteNo,.-_loc_WM_Sprite_GetSpriteNo
                        1194 	.type	_loc_WM_Sprite_GetSpriteNo..C.3A.5Cgit.5Crh850.5Csrc.5Capp.5Cgfx_apps.5Csimple_draw.5Ctarget.5Cd1mx_mango_ghs.5Cobj.5Cr_sys_wm_sprite.,@function
                        1195 	.size	_loc_WM_Sprite_GetSpriteNo..C.3A.5Cgit.5Crh850.5Csrc.5Capp.5Cgfx_apps.5Csimple_draw.5Ctarget.5Cd1mx_mango_ghs.5Cobj.5Cr_sys_wm_sprite.,.-_loc_WM_Sprite_GetSpriteNo..C.3A.5Cgit.5Crh850.5Csrc.5Capp.5Cgfx_apps.5Csimple_draw.5Ctarget.5Cd1mx_mango_ghs.5Cobj.5Cr_sys_wm_sprite.
                        1196 	.align	2
                        1197 .LDW33:
                        1198 --_tmp_sprite	ep	local
                        1199 --_sprite_no	r1	local
                        1200 
                        1201 --_Unit	r13	param
                        1202 --_Sprite	r14	param
                        1203 
                        1204 	.section ".bss","awb"
                        1205 .L1030:
                        1206 	.type	.L1030,@object
                        1207 	.size	.L1030,0
                        1208 	.data
                        1209 	.text

                                                                      Page 21
                                                              C:\Users\Frank\AppData\Local\Temp\gh_0000nlg1.si
                        1210 
                        1211 --373: }
                        1212 
                        1213 --376: /***********************************************************
                        1214 --377:   Group: WM SPEA Update Functions
                        1215 --378: */
                        1216 --380: /***********************************************************
                        1217 --381:   Function: loc_WM_Sprite_ReassignAllSpritesOfLayer
                        1218 --382:   
                        1219 --383:   Rewrite the sprite configuration for the sprite unit identified by the given RootSprite
                        1220 --384: */
                        1221 --385: static uint32_t loc_WM_Sprite_ReassignAllSpritesOfLayer(uint32_t Unit, r_wm_Sprite_t* RootSprite, uint32_t Layer)
                        1222 	.align	2
                        1223 	.align	2
                        1224 	.global	_loc_WM_Sprite_ReassignAllSpritesOfLayer..C.3A.5Cgit.5Crh850.5Csrc.5Capp.5Cgfx_apps.5Csimple_draw.5Ctarget.5Cd1mx_mango_ghs.5Cobj.5Cr_sys_wm_sprite.
                        1225 _loc_WM_Sprite_ReassignAllSpritesOfLayer..C.3A.5Cgit.5Crh850.5Csrc.5Capp.5Cgfx_apps.5Csimple_draw.5Ctarget.5Cd1mx_mango_ghs.5Cobj.5Cr_sys_wm_sprite.:
                        1226 _loc_WM_Sprite_ReassignAllSpritesOfLayer:
0000028a 8c07e170       1227 	prepare	{r25,r26,r27,r28,r29,r31},6
0000028e 06d0           1228 	mov	r6,r26
00000290 07c8           1229 	mov	r7,r25
00000292 63470500       1230 	st.w	r8,4[sp]
                        1231 --	    .bf
                        1232 .LDW43:
                        1233 --386: {
                        1234 --387:     /* reassign all the sprites  */
                        1235 --388:     r_spea_SpriteConfig_t sprite_conf;
                        1236 --389:     uint32_t sprite_no = 0;
00000296 00ea           1237 	mov	0,r29
                        1238 --390:     r_wm_Sprite_t* sprite = RootSprite;
00000298 19e0           1239 	mov	r25,r28
                        1240 --391:     
                        1241 --392:     r_spea_Unit_t spea_unit;
                        1242 --393:     
                        1243 --394:     spea_unit = loc_WM_Sprite_GetSpriteUnitFromLayerNo(Unit, Layer);
0000029a 233f0500       1244 	ld.w	4[sp],r7
0000029e 1a30           1245 	mov	r26,r6
                        1246 	jarl	_loc_WM_Sprite_GetSpriteUnitFromLayerNo,lp
                        1246 <EXPANSION BEGIN>
                        1246 jarl22 _loc_WM_Sprite_GetSpriteUnitFromLayerNo , lp 
000002a0 bfff60fd*      1246 <EXPANSION END>
000002a4 0ad8           1247 	mov	r10,r27
                        1248 --395:     
                        1249 --396:     /* Iteration of NULL-terminated Linked-List. Maximum Number of expected 
                        1250 --397:        elements for this device family is R_WM_MAX_SPRITES_PER_LAYER. */
                        1251 --398:     while   (   (sprite != R_NULL)
                        1252 --line398
                        1253 ..lin.C.3A.5Cgit.5Crh850.5Csrc.5Capp.5Cgfx_apps.5Csimple_draw.5Ctarget.5Cd1mx_mango_ghs.5Cobj.5Cr_sys_wm_sprite.50::
                        1254 .LDWlin50:
000002a6 a53d*          1255 	br	.L1074
                        1256 .L1076:
                        1257 --399:                 &&
                        1258 --400:                 (sprite_no < R_WM_MAX_SPRITES_PER_LAYER)
                        1259 --401:             )
                        1260 --402:     {
                        1261 --403:         sprite_conf.PosX = sprite->PosX;
                        1262 --line403
                        1263 ..lin.C.3A.5Cgit.5Crh850.5Csrc.5Capp.5Cgfx_apps.5Csimple_draw.5Ctarget.5Cd1mx_mango_ghs.5Cobj.5Cr_sys_wm_sprite.51::
                        1264 .LDWlin51:
000002a8 3c0f1100       1265 	ld.w	16[r28],r1
000002ac 630f1400       1266 	st.h	r1,20[sp]
                        1267 --404:         sprite_conf.PosY = sprite->PosY;

                                                                      Page 22
                                                              C:\Users\Frank\AppData\Local\Temp\gh_0000nlg1.si
000002b0 3c0f1500       1268 	ld.w	20[r28],r1
000002b4 630f1600       1269 	st.h	r1,22[sp]
                        1270 --405:         sprite_conf.Width = sprite->Width;
000002b8 3c0f1d00       1271 	ld.w	28[r28],r1
000002bc 630f1200       1272 	st.h	r1,18[sp]
                        1273 --406:         sprite_conf.Height = sprite->Height;
000002c0 3c0f2100       1274 	ld.w	32[r28],r1
000002c4 630f1000       1275 	st.h	r1,16[sp]
                        1276 --407:         sprite_conf.SrcAddr = (uint32_t)sprite->Data; 
000002c8 3c0f0d00       1277 	ld.w	12[r28],r1
000002cc 630f0d00       1278 	st.w	r1,12[sp]
                        1279 --408:         sprite_conf.VSync = Unit;
000002d0 43d70900       1280 	st.b	r26,9[sp]
                        1281 --409:         if (sprite->Status == R_WM_SPRITESTATUS_ENABLED)
000002d4 3c0f0900       1282 	ld.w	8[r28],r1
000002d8 620a           1283 	cmp	2,r1
000002da da05*          1284 	bne	.L1077
                        1285 --410:         {
                        1286 --411:             sprite_conf.Enable = 1;
                        1287 --line411
                        1288 ..lin.C.3A.5Cgit.5Crh850.5Csrc.5Capp.5Cgfx_apps.5Csimple_draw.5Ctarget.5Cd1mx_mango_ghs.5Cobj.5Cr_sys_wm_sprite.52::
                        1289 .LDWlin52:
000002dc 010a           1290 	mov	1,r1
000002de 430f0800       1291 	st.b	r1,8[sp]
000002e2 b505*          1292 	br	.L1079
                        1293 .L1077:
                        1294 --412:         }
                        1295 --413:         else
                        1296 --414:         {
                        1297 --415:             sprite_conf.Enable = 0;
                        1298 --line415
                        1299 ..lin.C.3A.5Cgit.5Crh850.5Csrc.5Capp.5Cgfx_apps.5Csimple_draw.5Ctarget.5Cd1mx_mango_ghs.5Cobj.5Cr_sys_wm_sprite.53::
                        1300 .LDWlin53:
000002e4 43070800       1301 	st.b	zero,8[sp]
                        1302 .L1079:
                        1303 --416:         }
                        1304 --417:         if (R_SPEA_ERR_OK != R_SPEA_SetSprite(
000002e8 3cf70100       1305 	ld.w	0[r28],ep
000002ec 0435           1306 	sld.w	8[ep],r6
                        1307 	jarl	_R_WM_ColorFmtBitsPerPixGet,lp
                        1307 <EXPANSION BEGIN>
                        1307 jarl22 _R_WM_ColorFmtBitsPerPixGet , lp 
000002ee 80ff0000*      1307 <EXPANSION END>
000002f2 1b3efbff       1308 	addi	-5,r27,r7
000002f6 1d40           1309 	mov	r29,r8
000002f8 63570100       1310 	st.w	r10,0[sp]
000002fc 8700           1311 	zxb	r7
000002fe 8800           1312 	zxb	r8
00000300 0032           1313 	mov	0,r6
00000302 234e0800       1314 	movea	8,sp,r9
                        1315 	jarl	_R_SPEA_SetSprite,lp
                        1315 <EXPANSION BEGIN>
                        1315 jarl22 _R_SPEA_SetSprite , lp 
00000306 80ff0000*      1315 <EXPANSION END>
0000030a e051           1316 	cmp	zero,r10
0000030c b205*          1317 	be	.L1080
                        1318 --418:                                 0, spea_unit-R_SPEA_SU0, sprite_no, 
                        1319 --419:                                 &sprite_conf, R_WM_ColorFmtBitsPerPixGet(sprite->Window->ColorFmt)))
                        1320 --420:         {
                        1321 --421:             return 0;
                        1322 --line421

                                                                      Page 23
                                                              C:\Users\Frank\AppData\Local\Temp\gh_0000nlg1.si
                        1323 ..lin.C.3A.5Cgit.5Crh850.5Csrc.5Capp.5Cgfx_apps.5Csimple_draw.5Ctarget.5Cd1mx_mango_ghs.5Cobj.5Cr_sys_wm_sprite.54::
                        1324 .LDWlin54:
0000030e 0052           1325 	mov	0,r10
00000310 9525*          1326 	br	.L1072
                        1327 .L1080:
                        1328 --422:         }
                        1329 --423:         ++sprite_no;
                        1330 --line423
                        1331 ..lin.C.3A.5Cgit.5Crh850.5Csrc.5Capp.5Cgfx_apps.5Csimple_draw.5Ctarget.5Cd1mx_mango_ghs.5Cobj.5Cr_sys_wm_sprite.55::
                        1332 .LDWlin55:
00000312 41ea           1333 	add	1,r29
                        1334 --424:         sprite = sprite->Next;
00000314 3c0f0500       1335 	ld.w	4[r28],r1
00000318 01e0           1336 	mov	r1,r28
                        1337 .L1074:
0000031a e0e1           1338 	cmp	zero,r28
0000031c c205*          1339 	be	.L1075
0000031e 1d06f0ff       1340 	addi	-16,r29,zero
00000322 b9c5*          1341 	bnl	.L1076
                        1342 .L1075:
                        1343 --425:     }
                        1344 --426:     
                        1345 --427:     for (; sprite_no < R_WM_MAX_SPRITES_PER_LAYER; ++sprite_no)
                        1346 --line427
                        1347 ..lin.C.3A.5Cgit.5Crh850.5Csrc.5Capp.5Cgfx_apps.5Csimple_draw.5Ctarget.5Cd1mx_mango_ghs.5Cobj.5Cr_sys_wm_sprite.56::
                        1348 .LDWlin56:
00000324 f50d*          1349 	br	.L1087
                        1350 .L1086:
                        1351 --428:     {
                        1352 --429:         if (R_SPEA_ERR_OK != R_SPEA_SpriteEnable(0, spea_unit-R_SPEA_SU0, sprite_no, 0))
                        1353 --line429
                        1354 ..lin.C.3A.5Cgit.5Crh850.5Csrc.5Capp.5Cgfx_apps.5Csimple_draw.5Ctarget.5Cd1mx_mango_ghs.5Cobj.5Cr_sys_wm_sprite.57::
                        1355 .LDWlin57:
00000326 1b3efbff       1356 	addi	-5,r27,r7
0000032a 1d40           1357 	mov	r29,r8
0000032c 8700           1358 	zxb	r7
0000032e 0032           1359 	mov	0,r6
00000330 8800           1360 	zxb	r8
00000332 004a           1361 	mov	0,r9
                        1362 	jarl	_R_SPEA_SpriteEnable,lp
                        1362 <EXPANSION BEGIN>
                        1362 jarl22 _R_SPEA_SpriteEnable , lp 
00000334 80ff0000*      1362 <EXPANSION END>
00000338 e051           1363 	cmp	zero,r10
0000033a b205*          1364 	be	.L1085
                        1365 --430:         {
                        1366 --431:             return 0;
                        1367 --line431
                        1368 ..lin.C.3A.5Cgit.5Crh850.5Csrc.5Capp.5Cgfx_apps.5Csimple_draw.5Ctarget.5Cd1mx_mango_ghs.5Cobj.5Cr_sys_wm_sprite.58::
                        1369 .LDWlin58:
0000033c 0052           1370 	mov	0,r10
0000033e a50d*          1371 	br	.L1072
                        1372 .L1085:
                        1373 --line427
                        1374 ..lin.C.3A.5Cgit.5Crh850.5Csrc.5Capp.5Cgfx_apps.5Csimple_draw.5Ctarget.5Cd1mx_mango_ghs.5Cobj.5Cr_sys_wm_sprite.59::
                        1375 .LDWlin59:
00000340 41ea           1376 	add	1,r29
                        1377 .L1087:
00000342 1d06f0ff       1378 	addi	-16,r29,zero
00000346 89f5*          1379 	bnl	.L1086
                        1380 --432:         }

                                                                      Page 24
                                                              C:\Users\Frank\AppData\Local\Temp\gh_0000nlg1.si
                        1381 --433:     }
                        1382 --434:     /* Set respective R_WM_SYS_FRAME_STATUS_SPEA_SUn_UPDATE_BIT */
                        1383 --435:     loc_WM_Sprite_SetUpdateFlag(Unit, spea_unit);
                        1384 --line435
                        1385 ..lin.C.3A.5Cgit.5Crh850.5Csrc.5Capp.5Cgfx_apps.5Csimple_draw.5Ctarget.5Cd1mx_mango_ghs.5Cobj.5Cr_sys_wm_sprite.60::
                        1386 .LDWlin60:
00000348 1a30           1387 	mov	r26,r6
0000034a 1b38           1388 	mov	r27,r7
                        1389 	jarl	_loc_WM_Sprite_SetUpdateFlag,lp
                        1389 <EXPANSION BEGIN>
                        1389 jarl22 _loc_WM_Sprite_SetUpdateFlag , lp 
0000034c bfff12fe*      1389 <EXPANSION END>
                        1390 --436:     
                        1391 --437:     return 1;
                        1392 --line437
                        1393 ..lin.C.3A.5Cgit.5Crh850.5Csrc.5Capp.5Cgfx_apps.5Csimple_draw.5Ctarget.5Cd1mx_mango_ghs.5Cobj.5Cr_sys_wm_sprite.61::
                        1394 .LDWlin61:
00000350 0152           1395 	mov	1,r10
                        1396 .L1072:
                        1397 --	    .ef
                        1398 .LDW53:
00000352 4c06ff70       1399 	dispose	6,{r25,r26,r27,r28,r29,r31},[lp]
                        1400 	.type	_loc_WM_Sprite_ReassignAllSpritesOfLayer,@function
                        1401 	.size	_loc_WM_Sprite_ReassignAllSpritesOfLayer,.-_loc_WM_Sprite_ReassignAllSpritesOfLayer
                        1402 	.type	_loc_WM_Sprite_ReassignAllSpritesOfLayer..C.3A.5Cgit.5Crh850.5Csrc.5Capp.5Cgfx_apps.5Csimple_draw.5Ctarget.5Cd1mx_mango_ghs.5Cobj.5Cr_sys_wm_sprite.,@function
                        1403 	.size	_loc_WM_Sprite_ReassignAllSpritesOfLayer..C.3A.5Cgit.5Crh850.5Csrc.5Capp.5Cgfx_apps.5Csimple_draw.5Ctarget.5Cd1mx_mango_ghs.5Cobj.5Cr_sys_wm_sprite.,.-_loc_WM_Sprite_ReassignAllSpritesOfLayer..C.3A.5Cgit.5Crh850.5Csrc.5Capp.5Cgfx_apps.5Csimple_draw.5Ctarget.5Cd1mx_mango_ghs.5Cobj.5Cr_sys_wm_sprite.
                        1404 	.align	2
                        1405 .LDW63:
                        1406 --_sprite_conf	8[sp]	local
                        1407 --_sprite_no	r29	local
                        1408 --_sprite	r28	local
                        1409 --_spea_unit	r27	local
                        1410 
                        1411 --_Unit	r26	param
                        1412 --_RootSprite	r25	param
                        1413 --_Layer	4[sp]	param
                        1414 
                        1415 	.section ".bss","awb"
                        1416 .L1222:
                        1417 	.type	.L1222,@object
                        1418 	.size	.L1222,0
                        1419 	.data
                        1420 	.text
                        1421 
                        1422 --438: }
                        1423 
                        1424 --440: /***********************************************************
                        1425 --441:   Function: loc_ReassignAllSprites
                        1426 --442: */
                        1427 --443: uint32_t loc_WM_Sprite_ReassignAllSprites(uint32_t Unit)
                        1428 	.align	2
                        1429 	.align	2
                        1430 	.global	_loc_WM_Sprite_ReassignAllSprites
                        1431 _loc_WM_Sprite_ReassignAllSprites:
00000356 8007e130       1432 	prepare	{r26,r27,r28,r29,r31},0
0000035a 06e0           1433 	mov	r6,r28
                        1434 --	    .bf
                        1435 .LDW73:
                        1436 --444: {
                        1437 --445:     r_spea_Unit_t spea_unit;
                        1438 --446:     uint32_t layer;

                                                                      Page 25
                                                              C:\Users\Frank\AppData\Local\Temp\gh_0000nlg1.si
                        1439 --447:     r_wm_sys_vdce_WinLayerPair_t* win_layer_pair;
                        1440 --448:     
                        1441 --449:     /* Rewrite the Sprite configuration for those units that got changed during the last frame */
                        1442 --450:     for (spea_unit = R_SPEA_SU0; spea_unit <= R_SPEA_SU3; ++spea_unit)
0000035c 05ea           1443 	mov	5,r29
0000035e 0000           1444 	nop
                        1445 .L1316:
                        1446 --451:     {
                        1447 --452:         /* Only D1M1A has Sprite Unit SU3 */
                        1448 --453:         if ( (r_wm_Device != R_DEV_R7F701441) && (spea_unit == R_SPEA_SU3) )
00000360 210600000000*  1449 	mov	_r_wm_Device,r1
00000366 210f0100       1450 	ld.w	0[r1],r1
0000036a 01065ffa       1451 	addi	-1441,r1,zero
0000036e c205*          1452 	be	.L1317
00000370 68ea           1453 	cmp	8,r29
00000372 aa05*          1454 	bne	.L1317
                        1455 --454:         {
                        1456 --455:             break;
                        1457 --line455
                        1458 ..lin.C.3A.5Cgit.5Crh850.5Csrc.5Capp.5Cgfx_apps.5Csimple_draw.5Ctarget.5Cd1mx_mango_ghs.5Cobj.5Cr_sys_wm_sprite.62::
                        1459 .LDWlin62:
00000374 8535*          1460 	br	.L1320
                        1461 .L1317:
                        1462 --456:         }
                        1463 --457:         /* Read respective R_WM_SYS_FRAME_STATUS_SPEA_SUn_REASSIGN_BIT */
                        1464 --458:         if (loc_WM_Sprite_GetReassignFlag(Unit, spea_unit) != 0)
                        1465 --line458
                        1466 ..lin.C.3A.5Cgit.5Crh850.5Csrc.5Capp.5Cgfx_apps.5Csimple_draw.5Ctarget.5Cd1mx_mango_ghs.5Cobj.5Cr_sys_wm_sprite.63::
                        1467 .LDWlin63:
00000376 1c30           1468 	mov	r28,r6
00000378 1d38           1469 	mov	r29,r7
                        1470 	jarl	_loc_WM_Sprite_GetReassignFlag,lp
                        1470 <EXPANSION BEGIN>
                        1470 jarl22 _loc_WM_Sprite_GetReassignFlag , lp 
0000037a bfff94fd*      1470 <EXPANSION END>
0000037e e051           1471 	cmp	zero,r10
00000380 f225*          1472 	be	.L1322
                        1473 --459:         {
                        1474 --460:             /* Update respective window's sprites */
                        1475 --461:             layer = loc_WM_Sprite_GetLayerNoFromSpriteUnit(Unit, spea_unit);
                        1476 --line461
                        1477 ..lin.C.3A.5Cgit.5Crh850.5Csrc.5Capp.5Cgfx_apps.5Csimple_draw.5Ctarget.5Cd1mx_mango_ghs.5Cobj.5Cr_sys_wm_sprite.64::
                        1478 .LDWlin64:
00000382 1c30           1479 	mov	r28,r6
00000384 1d38           1480 	mov	r29,r7
                        1481 	jarl	_loc_WM_Sprite_GetLayerNoFromSpriteUnit,lp
                        1481 <EXPANSION BEGIN>
                        1481 jarl22 _loc_WM_Sprite_GetLayerNoFromSpriteUnit , lp 
00000386 bffff6fc*      1481 <EXPANSION END>
0000038a 0ad0           1482 	mov	r10,r26
                        1483 --462:             win_layer_pair = loc_WinLayerPairGetByLayer(Unit, layer);
                        1484 --line462
                        1485 ..lin.C.3A.5Cgit.5Crh850.5Csrc.5Capp.5Cgfx_apps.5Csimple_draw.5Ctarget.5Cd1mx_mango_ghs.5Cobj.5Cr_sys_wm_sprite.65::
                        1486 .LDWlin65:
0000038c 1c30           1487 	mov	r28,r6
0000038e 1a38           1488 	mov	r26,r7
                        1489 	jarl	_loc_WinLayerPairGetByLayer,lp
                        1489 <EXPANSION BEGIN>
                        1489 jarl22 _loc_WinLayerPairGetByLayer , lp 
00000390 80ff0000*      1489 <EXPANSION END>
00000394 0ad8           1490 	mov	r10,r27

                                                                      Page 26
                                                              C:\Users\Frank\AppData\Local\Temp\gh_0000nlg1.si
                        1491 --463:             
                        1492 --464:             if ( (win_layer_pair == 0) || (win_layer_pair->Win->Mode != R_WM_WINMODE_SPRITES) )
                        1493 --line464
                        1494 ..lin.C.3A.5Cgit.5Crh850.5Csrc.5Capp.5Cgfx_apps.5Csimple_draw.5Ctarget.5Cd1mx_mango_ghs.5Cobj.5Cr_sys_wm_sprite.66::
                        1495 .LDWlin66:
00000396 e0d9           1496 	cmp	zero,r27
00000398 e205*          1497 	be	.L1325
0000039a 3bf70100       1498 	ld.w	0[r27],ep
0000039e 020d           1499 	sld.w	4[ep],r1
000003a0 610a           1500 	cmp	1,r1
000003a2 a20d*          1501 	be	.L1324
                        1502 .L1325:
                        1503 --465:             {
                        1504 --466:                 /* Layer is not in use or is no sprite layer (anymore), deinitialise all sprites */
                        1505 --467:                 if (0 == loc_WM_Sprite_ReassignAllSpritesOfLayer(Unit, R_NULL, layer))
                        1506 --line467
                        1507 ..lin.C.3A.5Cgit.5Crh850.5Csrc.5Capp.5Cgfx_apps.5Csimple_draw.5Ctarget.5Cd1mx_mango_ghs.5Cobj.5Cr_sys_wm_sprite.67::
                        1508 .LDWlin67:
000003a4 1c30           1509 	mov	r28,r6
000003a6 1a40           1510 	mov	r26,r8
000003a8 003a           1511 	mov	0,r7
                        1512 	jarl	_loc_WM_Sprite_ReassignAllSpritesOfLayer,lp
                        1512 <EXPANSION BEGIN>
                        1512 jarl22 _loc_WM_Sprite_ReassignAllSpritesOfLayer , lp 
000003aa bfffe0fe*      1512 <EXPANSION END>
000003ae e051           1513 	cmp	zero,r10
000003b0 fa0d*          1514 	bne	.L1322
                        1515 --468:                 {
                        1516 --469:                     return 0;
                        1517 --line469
                        1518 ..lin.C.3A.5Cgit.5Crh850.5Csrc.5Capp.5Cgfx_apps.5Csimple_draw.5Ctarget.5Cd1mx_mango_ghs.5Cobj.5Cr_sys_wm_sprite.68::
                        1519 .LDWlin68:
000003b2 0052           1520 	mov	0,r10
000003b4 9515*          1521 	br	.L1312
                        1522 .L1324:
                        1523 --470:                 }
                        1524 --471:             }
                        1525 --472:             else /*if (win_layer_pair != 0)*/
                        1526 --473:             {
                        1527 --474:                 if (0 == loc_WM_Sprite_ReassignAllSpritesOfLayer(Unit, win_layer_pair->Win->Surface.SpritesRoot, win_layer_pair->Layer))
                        1528 --line474
                        1529 ..lin.C.3A.5Cgit.5Crh850.5Csrc.5Capp.5Cgfx_apps.5Csimple_draw.5Ctarget.5Cd1mx_mango_ghs.5Cobj.5Cr_sys_wm_sprite.69::
                        1530 .LDWlin69:
000003b6 3bf70100       1531 	ld.w	0[r27],ep
000003ba 1c30           1532 	mov	r28,r6
000003bc 3b470500       1533 	ld.w	4[r27],r8
000003c0 163d           1534 	sld.w	44[ep],r7
                        1535 	jarl	_loc_WM_Sprite_ReassignAllSpritesOfLayer,lp
                        1535 <EXPANSION BEGIN>
                        1535 jarl22 _loc_WM_Sprite_ReassignAllSpritesOfLayer , lp 
000003c2 bfffc8fe*      1535 <EXPANSION END>
000003c6 e051           1536 	cmp	zero,r10
000003c8 ba05*          1537 	bne	.L1322
                        1538 --475:                 {
                        1539 --476:                     return 0;
                        1540 --line476
                        1541 ..lin.C.3A.5Cgit.5Crh850.5Csrc.5Capp.5Cgfx_apps.5Csimple_draw.5Ctarget.5Cd1mx_mango_ghs.5Cobj.5Cr_sys_wm_sprite.70::
                        1542 .LDWlin70:
000003ca 0052           1543 	mov	0,r10
000003cc d505*          1544 	br	.L1312
                        1545 .L1322:

                                                                      Page 27
                                                              C:\Users\Frank\AppData\Local\Temp\gh_0000nlg1.si
                        1546 --line450
                        1547 ..lin.C.3A.5Cgit.5Crh850.5Csrc.5Capp.5Cgfx_apps.5Csimple_draw.5Ctarget.5Cd1mx_mango_ghs.5Cobj.5Cr_sys_wm_sprite.71::
                        1548 .LDWlin71:
000003ce 41ea           1549 	add	1,r29
000003d0 68ea           1550 	cmp	8,r29
000003d2 f3c5*          1551 	bnh	.L1316
                        1552 .L1320:
                        1553 --477:                 }
                        1554 --478:             }
                        1555 --479:         }
                        1556 --480:     }
                        1557 --481:     return 1;
                        1558 --line481
                        1559 ..lin.C.3A.5Cgit.5Crh850.5Csrc.5Capp.5Cgfx_apps.5Csimple_draw.5Ctarget.5Cd1mx_mango_ghs.5Cobj.5Cr_sys_wm_sprite.72::
                        1560 .LDWlin72:
000003d4 0152           1561 	mov	1,r10
                        1562 .L1312:
                        1563 --	    .ef
                        1564 .LDW83:
000003d6 4006ff30       1565 	dispose	0,{r26,r27,r28,r29,r31},[lp]
                        1566 	.type	_loc_WM_Sprite_ReassignAllSprites,@function
                        1567 	.size	_loc_WM_Sprite_ReassignAllSprites,.-_loc_WM_Sprite_ReassignAllSprites
                        1568 	.align	2
                        1569 .LDW93:
                        1570 --_spea_unit	r29	local
                        1571 --_layer	r26	local
                        1572 --_win_layer_pair	r27	local
                        1573 
                        1574 --_Unit	r28	param
                        1575 
                        1576 	.section ".bss","awb"
                        1577 .L1422:
                        1578 	.type	.L1422,@object
                        1579 	.size	.L1422,0
                        1580 	.data
                        1581 	.text
                        1582 
                        1583 --482: }
                        1584 
                        1585 --484: /***********************************************************
                        1586 --485:   Function: loc_WM_Sprite_UpdateAllSprites
                        1587 --486: */
                        1588 --487: uint32_t loc_WM_Sprite_UpdateAllSprites(uint32_t Unit)
                        1589 	.align	2
                        1590 	.align	2
                        1591 	.global	_loc_WM_Sprite_UpdateAllSprites
                        1592 _loc_WM_Sprite_UpdateAllSprites:
000003da 8007e100       1593 	prepare	{r28,r29,r31},0
000003de 06e0           1594 	mov	r6,r28
                        1595 --	    .bf
                        1596 .LDW04:
                        1597 --488: {
                        1598 --489:     r_spea_Unit_t spea_unit;
                        1599 --491:     /* Set update request bit for those Sprite Unit Registers, that have been written to in the last frame */
                        1600 --492:     for (spea_unit = R_SPEA_SU0; spea_unit <= R_SPEA_SU3; ++spea_unit)
000003e0 05ea           1601 	mov	5,r29
000003e2 0000           1602 	nop
                        1603 .L1486:
                        1604 --493:     {
                        1605 --494:         /* Only D1M1A has Sprite Unit SU3 */
                        1606 --495:         if ( (r_wm_Device != R_DEV_R7F701441) && (spea_unit == R_SPEA_SU3) )

                                                                      Page 28
                                                              C:\Users\Frank\AppData\Local\Temp\gh_0000nlg1.si
000003e4 210600000000*  1607 	mov	_r_wm_Device,r1
000003ea 210f0100       1608 	ld.w	0[r1],r1
000003ee 01065ffa       1609 	addi	-1441,r1,zero
000003f2 c205*          1610 	be	.L1487
000003f4 68ea           1611 	cmp	8,r29
000003f6 aa05*          1612 	bne	.L1487
                        1613 --496:         {
                        1614 --497:             break;
                        1615 --line497
                        1616 ..lin.C.3A.5Cgit.5Crh850.5Csrc.5Capp.5Cgfx_apps.5Csimple_draw.5Ctarget.5Cd1mx_mango_ghs.5Cobj.5Cr_sys_wm_sprite.73::
                        1617 .LDWlin73:
000003f8 c515*          1618 	br	.L1490
                        1619 .L1487:
                        1620 --498:         }
                        1621 --499:         /* Read respective R_WM_SYS_FRAME_STATUS_SPEA_SUn_UPDATE_BIT */
                        1622 --500:         if (loc_WM_Sprite_GetUpdateFlag(Unit, spea_unit) != 0)
                        1623 --line500
                        1624 ..lin.C.3A.5Cgit.5Crh850.5Csrc.5Capp.5Cgfx_apps.5Csimple_draw.5Ctarget.5Cd1mx_mango_ghs.5Cobj.5Cr_sys_wm_sprite.74::
                        1625 .LDWlin74:
000003fa 1c30           1626 	mov	r28,r6
000003fc 1d38           1627 	mov	r29,r7
                        1628 	jarl	_loc_WM_Sprite_GetUpdateFlag,lp
                        1628 <EXPANSION BEGIN>
                        1628 jarl22 _loc_WM_Sprite_GetUpdateFlag , lp 
000003fe bfffdcfd*      1628 <EXPANSION END>
00000402 e051           1629 	cmp	zero,r10
00000404 b20d*          1630 	be	.L1492
                        1631 --501:         {
                        1632 --502:             if (R_SPEA_ERR_OK != R_SPEA_UpdateUnit(0, spea_unit, Unit))
                        1633 --line502
                        1634 ..lin.C.3A.5Cgit.5Crh850.5Csrc.5Capp.5Cgfx_apps.5Csimple_draw.5Ctarget.5Cd1mx_mango_ghs.5Cobj.5Cr_sys_wm_sprite.75::
                        1635 .LDWlin75:
00000406 1c40           1636 	mov	r28,r8
00000408 1d38           1637 	mov	r29,r7
0000040a 8800           1638 	zxb	r8
0000040c 0032           1639 	mov	0,r6
                        1640 	jarl	_R_SPEA_UpdateUnit,lp
                        1640 <EXPANSION BEGIN>
                        1640 jarl22 _R_SPEA_UpdateUnit , lp 
0000040e 80ff0000*      1640 <EXPANSION END>
00000412 e051           1641 	cmp	zero,r10
00000414 b205*          1642 	be	.L1492
                        1643 --503:             {
                        1644 --504:                 return 0;
                        1645 --line504
                        1646 ..lin.C.3A.5Cgit.5Crh850.5Csrc.5Capp.5Cgfx_apps.5Csimple_draw.5Ctarget.5Cd1mx_mango_ghs.5Cobj.5Cr_sys_wm_sprite.76::
                        1647 .LDWlin76:
00000416 0052           1648 	mov	0,r10
00000418 d505*          1649 	br	.L1482
                        1650 .L1492:
                        1651 --line492
                        1652 ..lin.C.3A.5Cgit.5Crh850.5Csrc.5Capp.5Cgfx_apps.5Csimple_draw.5Ctarget.5Cd1mx_mango_ghs.5Cobj.5Cr_sys_wm_sprite.77::
                        1653 .LDWlin77:
0000041a 41ea           1654 	add	1,r29
0000041c 68ea           1655 	cmp	8,r29
0000041e b3e5*          1656 	bnh	.L1486
                        1657 .L1490:
                        1658 --505:             }
                        1659 --506:         }
                        1660 --507:     }
                        1661 --508:     return 1;

                                                                      Page 29
                                                              C:\Users\Frank\AppData\Local\Temp\gh_0000nlg1.si
                        1662 --line508
                        1663 ..lin.C.3A.5Cgit.5Crh850.5Csrc.5Capp.5Cgfx_apps.5Csimple_draw.5Ctarget.5Cd1mx_mango_ghs.5Cobj.5Cr_sys_wm_sprite.78::
                        1664 .LDWlin78:
00000420 0152           1665 	mov	1,r10
                        1666 .L1482:
                        1667 --	    .ef
                        1668 .LDW14:
00000422 4006ff00       1669 	dispose	0,{r28,r29,r31},[lp]
                        1670 	.type	_loc_WM_Sprite_UpdateAllSprites,@function
                        1671 	.size	_loc_WM_Sprite_UpdateAllSprites,.-_loc_WM_Sprite_UpdateAllSprites
                        1672 	.align	2
                        1673 .LDW24:
                        1674 --_spea_unit	r29	local
                        1675 
                        1676 --_Unit	r28	param
                        1677 
                        1678 	.section ".bss","awb"
                        1679 .L1558:
                        1680 	.type	.L1558,@object
                        1681 	.size	.L1558,0
                        1682 	.data
                        1683 	.text
                        1684 
                        1685 --509: }
                        1686 
                        1687 --511: /***********************************************************
                        1688 --512:   Function: loc_WM_Sprite_UpdateAllRLEs
                        1689 --513: */
                        1690 --514: uint32_t loc_WM_Sprite_UpdateAllRLEs(uint32_t Unit)
                        1691 	.align	2
                        1692 	.align	2
                        1693 	.global	_loc_WM_Sprite_UpdateAllRLEs
                        1694 _loc_WM_Sprite_UpdateAllRLEs:
00000426 8007e100       1695 	prepare	{r28,r29,r31},0
0000042a 06e0           1696 	mov	r6,r28
                        1697 --	    .bf
                        1698 .LDW34:
                        1699 --515: {
                        1700 --516:     r_spea_Unit_t spea_unit;
                        1701 --517:     
                        1702 --518:     /* Process update request for those RLE Unit Registers, if it has been written to in the last frame */
                        1703 --519:     for (spea_unit = R_SPEA_RLE0; spea_unit <= R_SPEA_RLE3; ++spea_unit)
0000042c 00ea           1704 	mov	0,r29
0000042e 0000           1705 	nop
                        1706 .L1604:
                        1707 --520:     {
                        1708 --521:         /* Only D1M1A has other RLE Units than RLE0 */
                        1709 --522:         if ( (r_wm_Device != R_DEV_R7F701441) && (spea_unit != R_SPEA_RLE0) )
00000430 210600000000*  1710 	mov	_r_wm_Device,r1
00000436 210f0100       1711 	ld.w	0[r1],r1
0000043a 01065ffa       1712 	addi	-1441,r1,zero
0000043e c205*          1713 	be	.L1605
00000440 e0e9           1714 	cmp	zero,r29
00000442 a205*          1715 	be	.L1605
                        1716 --523:         {
                        1717 --524:             break;
                        1718 --line524
                        1719 ..lin.C.3A.5Cgit.5Crh850.5Csrc.5Capp.5Cgfx_apps.5Csimple_draw.5Ctarget.5Cd1mx_mango_ghs.5Cobj.5Cr_sys_wm_sprite.79::
                        1720 .LDWlin79:
00000444 c515*          1721 	br	.L1608
                        1722 .L1605:

                                                                      Page 30
                                                              C:\Users\Frank\AppData\Local\Temp\gh_0000nlg1.si
                        1723 --525:         }
                        1724 --526:         if (loc_WM_Sprite_GetUpdateFlag(Unit, spea_unit) != 0)
                        1725 --line526
                        1726 ..lin.C.3A.5Cgit.5Crh850.5Csrc.5Capp.5Cgfx_apps.5Csimple_draw.5Ctarget.5Cd1mx_mango_ghs.5Cobj.5Cr_sys_wm_sprite.80::
                        1727 .LDWlin80:
00000446 1c30           1728 	mov	r28,r6
00000448 1d38           1729 	mov	r29,r7
                        1730 	jarl	_loc_WM_Sprite_GetUpdateFlag,lp
                        1730 <EXPANSION BEGIN>
                        1730 jarl22 _loc_WM_Sprite_GetUpdateFlag , lp 
0000044a bfff90fd*      1730 <EXPANSION END>
0000044e e051           1731 	cmp	zero,r10
00000450 b20d*          1732 	be	.L1610
                        1733 --527:         {
                        1734 --528:             /* For RLE's (rather than Sprites) only parameter <Unit> is relevant. */
                        1735 --529:             if (R_SPEA_ERR_OK != R_SPEA_UpdateUnit(spea_unit, spea_unit, Unit))
                        1736 --line529
                        1737 ..lin.C.3A.5Cgit.5Crh850.5Csrc.5Capp.5Cgfx_apps.5Csimple_draw.5Ctarget.5Cd1mx_mango_ghs.5Cobj.5Cr_sys_wm_sprite.81::
                        1738 .LDWlin81:
00000452 1c40           1739 	mov	r28,r8
00000454 1d30           1740 	mov	r29,r6
00000456 1d38           1741 	mov	r29,r7
00000458 8800           1742 	zxb	r8
                        1743 	jarl	_R_SPEA_UpdateUnit,lp
                        1743 <EXPANSION BEGIN>
                        1743 jarl22 _R_SPEA_UpdateUnit , lp 
0000045a 80ff0000*      1743 <EXPANSION END>
0000045e e051           1744 	cmp	zero,r10
00000460 b205*          1745 	be	.L1610
                        1746 --530:             {
                        1747 --531:                 return 0;
                        1748 --line531
                        1749 ..lin.C.3A.5Cgit.5Crh850.5Csrc.5Capp.5Cgfx_apps.5Csimple_draw.5Ctarget.5Cd1mx_mango_ghs.5Cobj.5Cr_sys_wm_sprite.82::
                        1750 .LDWlin82:
00000462 0052           1751 	mov	0,r10
00000464 d505*          1752 	br	.L1600
                        1753 .L1610:
                        1754 --line519
                        1755 ..lin.C.3A.5Cgit.5Crh850.5Csrc.5Capp.5Cgfx_apps.5Csimple_draw.5Ctarget.5Cd1mx_mango_ghs.5Cobj.5Cr_sys_wm_sprite.83::
                        1756 .LDWlin83:
00000466 41ea           1757 	add	1,r29
00000468 63ea           1758 	cmp	3,r29
0000046a b3e5*          1759 	bnh	.L1604
                        1760 .L1608:
                        1761 --532:             }
                        1762 --533:         }
                        1763 --534:     }
                        1764 --535:     return 1;
                        1765 --line535
                        1766 ..lin.C.3A.5Cgit.5Crh850.5Csrc.5Capp.5Cgfx_apps.5Csimple_draw.5Ctarget.5Cd1mx_mango_ghs.5Cobj.5Cr_sys_wm_sprite.84::
                        1767 .LDWlin84:
0000046c 0152           1768 	mov	1,r10
                        1769 .L1600:
                        1770 --	    .ef
                        1771 .LDW44:
0000046e 4006ff00       1772 	dispose	0,{r28,r29,r31},[lp]
                        1773 	.type	_loc_WM_Sprite_UpdateAllRLEs,@function
                        1774 	.size	_loc_WM_Sprite_UpdateAllRLEs,.-_loc_WM_Sprite_UpdateAllRLEs
                        1775 	.align	2
                        1776 .LDW54:
                        1777 --_spea_unit	r29	local

                                                                      Page 31
                                                              C:\Users\Frank\AppData\Local\Temp\gh_0000nlg1.si
                        1778 
                        1779 --_Unit	r28	param
                        1780 
                        1781 	.section ".bss","awb"
                        1782 .L1670:
                        1783 	.type	.L1670,@object
                        1784 	.size	.L1670,0
                        1785 	.data
                        1786 	.text
                        1787 
                        1788 --536: }
                        1789 
                        1790 --538: /***********************************************************
                        1791 --539:   Function: loc_WM_Sprite_SynchronizeSprites
                        1792 --540: */
                        1793 --541: uint32_t loc_WM_Sprite_SynchronizeSprites(uint32_t Unit)
                        1794 	.align	2
                        1795 	.align	2
                        1796 	.global	_loc_WM_Sprite_SynchronizeSprites
                        1797 _loc_WM_Sprite_SynchronizeSprites:
00000472 0608           1798 	mov	r6,r1
00000474 2d0600000000*  1799 	mov	_r_wm_DevSys,r13
                        1800 --	    .bf
                        1801 .LDW64:
                        1802 --542: {
                        1803 --543:     /* If no window was visible in this frame, pending SPEA Update Requests cannot be completed immediately.
                        1804 --544:        => Manually create a SYNC signal. 
                        1805 --545:           Flickering or artifacts are no problem as nothing is visible on-screen! */
                        1806 --546:     if ( ((r_wm_DevSys[Unit].FrameStatusFlags & R_WM_SYS_FRAME_STATUS_SPEA_UPDATE_MASK) != 0)
0000047a 01f0           1807 	mov	r1,ep
0000047c fe00           1808 	sxh	ep
0000047e fef66000       1809 	mulhi	96,ep,ep
00000482 cdf1           1810 	add	r13,ep
00000484 2a75           1811 	sld.w	84[ep],r14
00000486 d472           1812 	shl	20,r14
00000488 a21d*          1813 	be	.L1714
0000048a 01f0           1814 	mov	r1,ep
0000048c fe00           1815 	sxh	ep
0000048e fef66000       1816 	mulhi	96,ep,ep
00000492 cdf1           1817 	add	r13,ep
00000494 2c75           1818 	sld.w	88[ep],r14
00000496 8572           1819 	shr	5,r14
00000498 a115*          1820 	bl	.L1714
                        1821 --547:         && ((r_wm_DevSys[Unit].GlobalStatusFlags & R_WM_SYS_GLOBAL_STATUS_FLAG_WINDOWS_VISIBLE) == 0) )
                        1822 --548:     {
                        1823 --	    .bs
                        1824 .LDW74:
                        1825 --549:         uint32_t vdcectl = R_DEV_READ_REG(32, VDCECTL);
                        1826 --line549
                        1827 ..lin.C.3A.5Cgit.5Crh850.5Csrc.5Capp.5Cgfx_apps.5Csimple_draw.5Ctarget.5Cd1mx_mango_ghs.5Cobj.5Cr_sys_wm_sprite.85::
                        1828 .LDWlin85:
0000049a 8007c971c080   1829 	ld.w	4290797596[zero],r14
                        1830 --550:         
                        1831 --551:     #if defined R_WM_MSQ_DEQUEUE_PROFILING || defined R_WM_MSQ_ENQUEUE_PROFILING
                        1832 --552:         R_WM_Profile_Log_CheckSPEAUpd();
                        1833 --553:     #endif /* R_WM_MSQ_DEQUEUE_PROFILING || R_WM_MSQ_ENQUEUE_PROFILING */
                        1834 --555:         /* Check UM 37.6 "Hardware and Software Update" about the use of the UPDTn Bit */
                        1835 --556:         /* Set SYNC(Unit) Signal to 1 */
                        1836 --557:         R_DEV_WRITE_REG(32, VDCECTL, vdcectl | ((0 == Unit) ? VDCECTL_UPDT0 : VDCECTL_UPDT1) );
000004a0 20662000       1837 	movea	32,zero,r12
000004a4 205e1000       1838 	movea	16,zero,r11

                                                                      Page 32
                                                              C:\Users\Frank\AppData\Local\Temp\gh_0000nlg1.si
000004a8 e009           1839 	cmp	zero,r1
000004aa ec5f3463       1840 	cmovne	r12,r11,r12
000004ae 0e61           1841 	or	r14,r12
000004b0 8007cf61c080   1842 	st.w	r12,4290797596[zero]
                        1843 --558:         
                        1844 --559:         /* Set to 0 to create falling edge */
                        1845 --560:         R_DEV_WRITE_REG(32, VDCECTL, vdcectl);
000004b6 8007cf71c080   1846 	st.w	r14,4290797596[zero]
                        1847 --	    .es
                        1848 .LDW84:
                        1849 .L1714:
                        1850 --561:         
                        1851 --562:         
                        1852 --563:     #if defined R_WM_MSQ_DEQUEUE_PROFILING || defined R_WM_MSQ_ENQUEUE_PROFILING
                        1853 --564:         R_WM_Profile_Log_SPEASWSync();
                        1854 --565:         for (vdcectl=0; vdcectl<10; vdcectl++) {
                        1855 --566:             R_WM_Profile_Log_CheckSPEAUpd();
                        1856 --567:         }
                        1857 --568:     #endif /* R_WM_MSQ_DEQUEUE_PROFILING || R_WM_MSQ_ENQUEUE_PROFILING */
                        1858 --569:     }
                        1859 --570:     return 1;
000004bc 0152           1860 	mov	1,r10
                        1861 --	    .ef
                        1862 .LDW94:
000004be 7f00           1863 	jmp	[lp]
                        1864 	.type	_loc_WM_Sprite_SynchronizeSprites,@function
                        1865 	.size	_loc_WM_Sprite_SynchronizeSprites,.-_loc_WM_Sprite_SynchronizeSprites
                        1866 	.align	2
                        1867 .LDW05:
                        1868 --_vdcectl	r14	local
                        1869 
                        1870 --_Unit	r1	param
                        1871 
                        1872 	.section ".bss","awb"
                        1873 .L1770:
                        1874 	.type	.L1770,@object
                        1875 	.size	.L1770,0
                        1876 	.data
                        1877 	.text
                        1878 
                        1879 --571: }
                        1880 
                        1881 --575: /***********************************************************
                        1882 --576:   Section: WM Driver Support Functions
                        1883 --577:   
                        1884 --578:   Comments see: <WM Support Functions>
                        1885 --579: */
                        1886 --582: /***********************************************************
                        1887 --583:   Group: WM Video Output Sprite interface
                        1888 --584: */
                        1889 --587: /***********************************************************
                        1890 --588:   Function: R_WM_Sys_SpriteCreate
                        1891 --589: */
                        1892 --590: uint32_t R_WM_Sys_SpriteCreate(uint32_t Unit, const r_wm_Sprite_t* Sprite)
                        1893 	.align	2
                        1894 	.align	2
                        1895 	.global	_R_WM_Sys_SpriteCreate
                        1896 _R_WM_Sys_SpriteCreate:
000004c0 8007e130       1897 	prepare	{r26,r27,r28,r29,r31},0
000004c4 06e8           1898 	mov	r6,r29
000004c6 07d8           1899 	mov	r7,r27

                                                                      Page 33
                                                              C:\Users\Frank\AppData\Local\Temp\gh_0000nlg1.si
                        1900 --	    .bf
                        1901 .LDW15:
                        1902 --591: {
                        1903 --592:     r_wm_sys_vdce_WinLayerPair_t* win_layer_pair = loc_WM_WinLayerPairGet(Unit, Sprite->Window);
000004c8 3b3f0100       1904 	ld.w	0[r27],r7
000004cc 1d30           1905 	mov	r29,r6
                        1906 	jarl	_loc_WM_WinLayerPairGet,lp
                        1906 <EXPANSION BEGIN>
                        1906 jarl22 _loc_WM_WinLayerPairGet , lp 
000004ce 80ff0000*      1906 <EXPANSION END>
000004d2 0ae0           1907 	mov	r10,r28
                        1908 --593:     r_spea_Unit_t spea_unit;
                        1909 --595:     if (win_layer_pair == R_NULL)
                        1910 --line595
                        1911 ..lin.C.3A.5Cgit.5Crh850.5Csrc.5Capp.5Cgfx_apps.5Csimple_draw.5Ctarget.5Cd1mx_mango_ghs.5Cobj.5Cr_sys_wm_sprite.86::
                        1912 .LDWlin86:
000004d4 e0e1           1913 	cmp	zero,r28
000004d6 ba05*          1914 	bne	.L1802
                        1915 --596:     {
                        1916 --597:         R_WM_SYS_REPORT_ERROR(Unit, R_WM_ERR_NULL_PTR_ARGUMENT, 0);
                        1917 --598:         return 0;
                        1918 --line598
                        1919 ..lin.C.3A.5Cgit.5Crh850.5Csrc.5Capp.5Cgfx_apps.5Csimple_draw.5Ctarget.5Cd1mx_mango_ghs.5Cobj.5Cr_sys_wm_sprite.87::
                        1920 .LDWlin87:
000004d8 0052           1921 	mov	0,r10
000004da 9515*          1922 	br	.L1800
                        1923 .L1802:
                        1924 --599:     }
                        1925 --600:     
                        1926 --601:     spea_unit = loc_WM_Sprite_GetSpriteUnitFromLayerNo(Unit, win_layer_pair->Layer);
                        1927 --line601
                        1928 ..lin.C.3A.5Cgit.5Crh850.5Csrc.5Capp.5Cgfx_apps.5Csimple_draw.5Ctarget.5Cd1mx_mango_ghs.5Cobj.5Cr_sys_wm_sprite.88::
                        1929 .LDWlin88:
000004dc 3c3f0500       1930 	ld.w	4[r28],r7
000004e0 1d30           1931 	mov	r29,r6
                        1932 	jarl	_loc_WM_Sprite_GetSpriteUnitFromLayerNo,lp
                        1932 <EXPANSION BEGIN>
                        1932 jarl22 _loc_WM_Sprite_GetSpriteUnitFromLayerNo , lp 
000004e2 bfff1efb*      1932 <EXPANSION END>
000004e6 0ad0           1933 	mov	r10,r26
                        1934 --602:     loc_WM_Sprite_SetReassignFlag(Unit, spea_unit);
                        1935 --line602
                        1936 ..lin.C.3A.5Cgit.5Crh850.5Csrc.5Capp.5Cgfx_apps.5Csimple_draw.5Ctarget.5Cd1mx_mango_ghs.5Cobj.5Cr_sys_wm_sprite.89::
                        1937 .LDWlin89:
000004e8 1d30           1938 	mov	r29,r6
000004ea 1a38           1939 	mov	r26,r7
                        1940 	jarl	_loc_WM_Sprite_SetReassignFlag,lp
                        1940 <EXPANSION BEGIN>
                        1940 jarl22 _loc_WM_Sprite_SetReassignFlag , lp 
000004ec bfffd8fb*      1940 <EXPANSION END>
                        1941 --604:     /* make the sprite initially invisible */
                        1942 --605:     R_WM_Sys_SpriteEnable(Unit, Sprite, 0);
                        1943 --line605
                        1944 ..lin.C.3A.5Cgit.5Crh850.5Csrc.5Capp.5Cgfx_apps.5Csimple_draw.5Ctarget.5Cd1mx_mango_ghs.5Cobj.5Cr_sys_wm_sprite.90::
                        1945 .LDWlin90:
000004f0 1d30           1946 	mov	r29,r6
000004f2 1b38           1947 	mov	r27,r7
000004f4 0042           1948 	mov	0,r8
                        1949 	jarl	_R_WM_Sys_SpriteEnable,lp
                        1949 <EXPANSION BEGIN>
                        1949 jarl22 _R_WM_Sys_SpriteEnable , lp 

                                                                      Page 34
                                                              C:\Users\Frank\AppData\Local\Temp\gh_0000nlg1.si
000004f6 80ff0a00*      1949 <EXPANSION END>
                        1950 --606:     return 1;
                        1951 --line606
                        1952 ..lin.C.3A.5Cgit.5Crh850.5Csrc.5Capp.5Cgfx_apps.5Csimple_draw.5Ctarget.5Cd1mx_mango_ghs.5Cobj.5Cr_sys_wm_sprite.91::
                        1953 .LDWlin91:
000004fa 0152           1954 	mov	1,r10
                        1955 .L1800:
                        1956 --	    .ef
                        1957 .LDW25:
000004fc 4006ff30       1958 	dispose	0,{r26,r27,r28,r29,r31},[lp]
                        1959 	.type	_R_WM_Sys_SpriteCreate,@function
                        1960 	.size	_R_WM_Sys_SpriteCreate,.-_R_WM_Sys_SpriteCreate
                        1961 	.align	2
                        1962 .LDW35:
                        1963 --_win_layer_pair	r28	local
                        1964 --_spea_unit	r26	local
                        1965 
                        1966 --_Unit	r29	param
                        1967 --_Sprite	r27	param
                        1968 
                        1969 	.section ".bss","awb"
                        1970 .L1846:
                        1971 	.type	.L1846,@object
                        1972 	.size	.L1846,0
                        1973 	.data
                        1974 	.text
                        1975 
                        1976 --607: }
                        1977 
                        1978 --609: /***********************************************************
                        1979 --610:   Function: R_WM_Sys_SpriteEnable
                        1980 --611: */
                        1981 --612: uint32_t R_WM_Sys_SpriteEnable(uint32_t Unit, const r_wm_Sprite_t* Sprite, uint32_t Enabled)
                        1982 	.align	2
                        1983 	.align	2
                        1984 	.global	_R_WM_Sys_SpriteEnable
                        1985 _R_WM_Sys_SpriteEnable:
00000500 8207e170       1986 	prepare	{r25,r26,r27,r28,r29,r31},1
00000504 06e0           1987 	mov	r6,r28
00000506 07c8           1988 	mov	r7,r25
00000508 63470100       1989 	st.w	r8,0[sp]
                        1990 --	    .bf
                        1991 .LDW45:
                        1992 --613: {
                        1993 --614:     r_wm_sys_vdce_WinLayerPair_t* win_layer_pair = loc_WM_WinLayerPairGet(Unit, Sprite->Window);
0000050c 393f0100       1994 	ld.w	0[r25],r7
00000510 1c30           1995 	mov	r28,r6
                        1996 	jarl	_loc_WM_WinLayerPairGet,lp
                        1996 <EXPANSION BEGIN>
                        1996 jarl22 _loc_WM_WinLayerPairGet , lp 
00000512 80ff0000*      1996 <EXPANSION END>
00000516 0ad0           1997 	mov	r10,r26
                        1998 --615:     uint8_t sprite_no = LOC_INVALID_SPRITE;
                        1999 --line615
                        2000 ..lin.C.3A.5Cgit.5Crh850.5Csrc.5Capp.5Cgfx_apps.5Csimple_draw.5Ctarget.5Cd1mx_mango_ghs.5Cobj.5Cr_sys_wm_sprite.92::
                        2001 .LDWlin92:
00000518 20ee1000       2002 	movea	16,zero,r29
                        2003 --616:     r_spea_Unit_t spea_unit;
                        2004 --617:     
                        2005 --618:     if (win_layer_pair == R_NULL)
0000051c e0d1           2006 	cmp	zero,r26

                                                                      Page 35
                                                              C:\Users\Frank\AppData\Local\Temp\gh_0000nlg1.si
0000051e ba05*          2007 	bne	.L1878
                        2008 --619:     {
                        2009 --620:         R_WM_SYS_REPORT_ERROR(Unit, R_WM_ERR_NULL_PTR_ARGUMENT, 0);
                        2010 --621:         return 0;
                        2011 --line621
                        2012 ..lin.C.3A.5Cgit.5Crh850.5Csrc.5Capp.5Cgfx_apps.5Csimple_draw.5Ctarget.5Cd1mx_mango_ghs.5Cobj.5Cr_sys_wm_sprite.93::
                        2013 .LDWlin93:
00000520 0052           2014 	mov	0,r10
00000522 c525*          2015 	br	.L1876
                        2016 .L1878:
                        2017 --622:     }
                        2018 --624:     spea_unit = loc_WM_Sprite_GetSpriteUnitFromLayerNo(Unit, win_layer_pair->Layer);
                        2019 --line624
                        2020 ..lin.C.3A.5Cgit.5Crh850.5Csrc.5Capp.5Cgfx_apps.5Csimple_draw.5Ctarget.5Cd1mx_mango_ghs.5Cobj.5Cr_sys_wm_sprite.94::
                        2021 .LDWlin94:
00000524 3a3f0500       2022 	ld.w	4[r26],r7
00000528 1c30           2023 	mov	r28,r6
                        2024 	jarl	_loc_WM_Sprite_GetSpriteUnitFromLayerNo,lp
                        2024 <EXPANSION BEGIN>
                        2024 jarl22 _loc_WM_Sprite_GetSpriteUnitFromLayerNo , lp 
0000052a bfffd6fa*      2024 <EXPANSION END>
0000052e 0ad8           2025 	mov	r10,r27
                        2026 --625:     sprite_no = loc_WM_Sprite_GetSpriteNo(Unit, Sprite);
                        2027 --line625
                        2028 ..lin.C.3A.5Cgit.5Crh850.5Csrc.5Capp.5Cgfx_apps.5Csimple_draw.5Ctarget.5Cd1mx_mango_ghs.5Cobj.5Cr_sys_wm_sprite.95::
                        2029 .LDWlin95:
00000530 1c30           2030 	mov	r28,r6
00000532 1938           2031 	mov	r25,r7
                        2032 	jarl	_loc_WM_Sprite_GetSpriteNo,lp
                        2032 <EXPANSION BEGIN>
                        2032 jarl22 _loc_WM_Sprite_GetSpriteNo , lp 
00000534 bfff28fd*      2032 <EXPANSION END>
00000538 0ae8           2033 	mov	r10,r29
                        2034 --626:     if (sprite_no == LOC_INVALID_SPRITE)
                        2035 --line626
                        2036 ..lin.C.3A.5Cgit.5Crh850.5Csrc.5Capp.5Cgfx_apps.5Csimple_draw.5Ctarget.5Cd1mx_mango_ghs.5Cobj.5Cr_sys_wm_sprite.96::
                        2037 .LDWlin96:
0000053a 1d06f0ff       2038 	addi	-16,r29,zero
0000053e ba05*          2039 	bne	.L1881
                        2040 --627:     {
                        2041 --628:         R_WM_SYS_REPORT_ERROR(Unit, R_WM_ERR_RANGE_WM, 0);
                        2042 --629:         return 0;
                        2043 --line629
                        2044 ..lin.C.3A.5Cgit.5Crh850.5Csrc.5Capp.5Cgfx_apps.5Csimple_draw.5Ctarget.5Cd1mx_mango_ghs.5Cobj.5Cr_sys_wm_sprite.97::
                        2045 .LDWlin97:
00000540 0052           2046 	mov	0,r10
00000542 c515*          2047 	br	.L1876
                        2048 .L1881:
                        2049 --630:     }
                        2050 --631:     
                        2051 --632:     if (R_SPEA_ERR_OK != R_SPEA_SpriteEnable(0, spea_unit-R_SPEA_SU0, sprite_no, Enabled))
                        2052 --line632
                        2053 ..lin.C.3A.5Cgit.5Crh850.5Csrc.5Capp.5Cgfx_apps.5Csimple_draw.5Ctarget.5Cd1mx_mango_ghs.5Cobj.5Cr_sys_wm_sprite.98::
                        2054 .LDWlin98:
00000544 835f0100       2055 	ld.bu	0[sp],r11
00000548 1b3efbff       2056 	addi	-5,r27,r7
0000054c 8700           2057 	zxb	r7
0000054e 1d40           2058 	mov	r29,r8
00000550 0032           2059 	mov	0,r6
00000552 0b48           2060 	mov	r11,r9
                        2061 	jarl	_R_SPEA_SpriteEnable,lp

                                                                      Page 36
                                                              C:\Users\Frank\AppData\Local\Temp\gh_0000nlg1.si
                        2061 <EXPANSION BEGIN>
                        2061 jarl22 _R_SPEA_SpriteEnable , lp 
00000554 80ff0000*      2061 <EXPANSION END>
00000558 e051           2062 	cmp	zero,r10
0000055a b205*          2063 	be	.L1884
                        2064 --633:     {
                        2065 --634:         return 0;
                        2066 --line634
                        2067 ..lin.C.3A.5Cgit.5Crh850.5Csrc.5Capp.5Cgfx_apps.5Csimple_draw.5Ctarget.5Cd1mx_mango_ghs.5Cobj.5Cr_sys_wm_sprite.99::
                        2068 .LDWlin99:
0000055c 0052           2069 	mov	0,r10
0000055e e505*          2070 	br	.L1876
                        2071 .L1884:
                        2072 --635:     }
                        2073 --636:     
                        2074 --637:     /* Set respective R_WM_SYS_FRAME_STATUS_SPEA_SUn_UPDATE_BIT */
                        2075 --638:     loc_WM_Sprite_SetReassignFlag(Unit, spea_unit);
                        2076 --line638
                        2077 ..lin.C.3A.5Cgit.5Crh850.5Csrc.5Capp.5Cgfx_apps.5Csimple_draw.5Ctarget.5Cd1mx_mango_ghs.5Cobj.5Cr_sys_wm_sprite.100::
                        2078 .LDWlin100:
00000560 1c30           2079 	mov	r28,r6
00000562 1b38           2080 	mov	r27,r7
                        2081 	jarl	_loc_WM_Sprite_SetReassignFlag,lp
                        2081 <EXPANSION BEGIN>
                        2081 jarl22 _loc_WM_Sprite_SetReassignFlag , lp 
00000564 bfff60fb*      2081 <EXPANSION END>
                        2082 --639:     return 1;
                        2083 --line639
                        2084 ..lin.C.3A.5Cgit.5Crh850.5Csrc.5Capp.5Cgfx_apps.5Csimple_draw.5Ctarget.5Cd1mx_mango_ghs.5Cobj.5Cr_sys_wm_sprite.101::
                        2085 .LDWlin101:
00000568 0152           2086 	mov	1,r10
                        2087 .L1876:
                        2088 --	    .ef
                        2089 .LDW55:
0000056a 4206ff70       2090 	dispose	1,{r25,r26,r27,r28,r29,r31},[lp]
                        2091 	.type	_R_WM_Sys_SpriteEnable,@function
                        2092 	.size	_R_WM_Sys_SpriteEnable,.-_R_WM_Sys_SpriteEnable
                        2093 	.align	2
                        2094 .LDW65:
                        2095 --_win_layer_pair	r26	local
                        2096 --_sprite_no	r29	local
                        2097 --_spea_unit	r27	local
                        2098 
                        2099 --_Unit	r28	param
                        2100 --_Sprite	r25	param
                        2101 --_Enabled	0[sp]	param
                        2102 
                        2103 	.section ".bss","awb"
                        2104 .L1946:
                        2105 	.type	.L1946,@object
                        2106 	.size	.L1946,0
                        2107 	.data
                        2108 	.text
                        2109 
                        2110 --640: }
                        2111 
                        2112 --642: /***********************************************************
                        2113 --643:   Function: R_WM_Sys_SpriteDelete
                        2114 --644: */
                        2115 --645: uint32_t R_WM_Sys_SpriteDelete(uint32_t Unit, const r_wm_Sprite_t* Sprite)
                        2116 	.align	2

                                                                      Page 37
                                                              C:\Users\Frank\AppData\Local\Temp\gh_0000nlg1.si
                        2117 	.align	2
                        2118 	.global	_R_WM_Sys_SpriteDelete
                        2119 _R_WM_Sys_SpriteDelete:
0000056e 8007e130       2120 	prepare	{r26,r27,r28,r29,r31},0
00000572 06e8           2121 	mov	r6,r29
00000574 07d0           2122 	mov	r7,r26
                        2123 --	    .bf
                        2124 .LDW75:
                        2125 --646: {
                        2126 --647:     r_wm_sys_vdce_WinLayerPair_t* win_layer_pair = loc_WM_WinLayerPairGet(Unit, Sprite->Window);
00000576 3a3f0100       2127 	ld.w	0[r26],r7
0000057a 1d30           2128 	mov	r29,r6
                        2129 	jarl	_loc_WM_WinLayerPairGet,lp
                        2129 <EXPANSION BEGIN>
                        2129 jarl22 _loc_WM_WinLayerPairGet , lp 
0000057c 80ff0000*      2129 <EXPANSION END>
00000580 0ae0           2130 	mov	r10,r28
                        2131 --648:     r_spea_Unit_t spea_unit;
                        2132 --649:     
                        2133 --650:     spea_unit = loc_WM_Sprite_GetSpriteUnitFromLayerNo(Unit, win_layer_pair->Layer);
                        2134 --line650
                        2135 ..lin.C.3A.5Cgit.5Crh850.5Csrc.5Capp.5Cgfx_apps.5Csimple_draw.5Ctarget.5Cd1mx_mango_ghs.5Cobj.5Cr_sys_wm_sprite.102::
                        2136 .LDWlin102:
00000582 3c3f0500       2137 	ld.w	4[r28],r7
00000586 1d30           2138 	mov	r29,r6
                        2139 	jarl	_loc_WM_Sprite_GetSpriteUnitFromLayerNo,lp
                        2139 <EXPANSION BEGIN>
                        2139 jarl22 _loc_WM_Sprite_GetSpriteUnitFromLayerNo , lp 
00000588 bfff78fa*      2139 <EXPANSION END>
0000058c 0ad8           2140 	mov	r10,r27
                        2141 --651:     loc_WM_Sprite_SetReassignFlag(Unit, spea_unit);
                        2142 --line651
                        2143 ..lin.C.3A.5Cgit.5Crh850.5Csrc.5Capp.5Cgfx_apps.5Csimple_draw.5Ctarget.5Cd1mx_mango_ghs.5Cobj.5Cr_sys_wm_sprite.103::
                        2144 .LDWlin103:
0000058e 1d30           2145 	mov	r29,r6
00000590 1b38           2146 	mov	r27,r7
                        2147 	jarl	_loc_WM_Sprite_SetReassignFlag,lp
                        2147 <EXPANSION BEGIN>
                        2147 jarl22 _loc_WM_Sprite_SetReassignFlag , lp 
00000592 bfff32fb*      2147 <EXPANSION END>
                        2148 --653:     return 1;
                        2149 --line653
                        2150 ..lin.C.3A.5Cgit.5Crh850.5Csrc.5Capp.5Cgfx_apps.5Csimple_draw.5Ctarget.5Cd1mx_mango_ghs.5Cobj.5Cr_sys_wm_sprite.104::
                        2151 .LDWlin104:
00000596 0152           2152 	mov	1,r10
                        2153 --	    .ef
                        2154 .LDW85:
00000598 4006ff30       2155 	dispose	0,{r26,r27,r28,r29,r31},[lp]
                        2156 	.type	_R_WM_Sys_SpriteDelete,@function
                        2157 	.size	_R_WM_Sys_SpriteDelete,.-_R_WM_Sys_SpriteDelete
                        2158 	.align	2
                        2159 .LDW95:
                        2160 --_win_layer_pair	r28	local
                        2161 --_spea_unit	r27	local
                        2162 
                        2163 --_Unit	r29	param
                        2164 --_Sprite	r26	param
                        2165 
                        2166 	.section ".bss","awb"
                        2167 .L2026:
                        2168 	.type	.L2026,@object

                                                                      Page 38
                                                              C:\Users\Frank\AppData\Local\Temp\gh_0000nlg1.si
                        2169 	.size	.L2026,0
                        2170 	.data
                        2171 	.text
                        2172 
                        2173 --654: }
                        2174 
                        2175 --656: /***********************************************************
                        2176 --657:   Function: R_WM_Sys_SpriteMove
                        2177 --658: */
                        2178 --659: uint32_t R_WM_Sys_SpriteMove(uint32_t Unit, const r_wm_Sprite_t* Sprite, uint32_t PosX, uint32_t PosY, uint32_t PosZ)
                        2179 	.align	2
                        2180 	.align	2
                        2181 	.global	_R_WM_Sys_SpriteMove
                        2182 _R_WM_Sys_SpriteMove:
0000059c 8807e170       2183 	prepare	{r25,r26,r27,r28,r29,r31},4
000005a0 06e0           2184 	mov	r6,r28
000005a2 07d0           2185 	mov	r7,r26
000005a4 63470900       2186 	st.w	r8,8[sp]
000005a8 634f0d00       2187 	st.w	r9,12[sp]
                        2188 --	    .bf
                        2189 .LDW06:
                        2190 --660: {
                        2191 --661:     r_wm_sys_vdce_WinLayerPair_t* win_layer_pair = loc_WM_WinLayerPairGet(Unit, Sprite->Window);
000005ac 3a3f0100       2192 	ld.w	0[r26],r7
000005b0 1c30           2193 	mov	r28,r6
                        2194 	jarl	_loc_WM_WinLayerPairGet,lp
                        2194 <EXPANSION BEGIN>
                        2194 jarl22 _loc_WM_WinLayerPairGet , lp 
000005b2 80ff0000*      2194 <EXPANSION END>
000005b6 0ac8           2195 	mov	r10,r25
                        2196 --662:     uint32_t sprite_no = LOC_INVALID_SPRITE;
                        2197 --line662
                        2198 ..lin.C.3A.5Cgit.5Crh850.5Csrc.5Capp.5Cgfx_apps.5Csimple_draw.5Ctarget.5Cd1mx_mango_ghs.5Cobj.5Cr_sys_wm_sprite.105::
                        2199 .LDWlin105:
000005b8 20ee1000       2200 	movea	16,zero,r29
                        2201 --663:     
                        2202 --664:     r_spea_Unit_t spea_unit;
                        2203 --665:     
                        2204 --666:     if (win_layer_pair == R_NULL)
000005bc e0c9           2205 	cmp	zero,r25
000005be ba05*          2206 	bne	.L2049
                        2207 --667:     {
                        2208 --668:         R_WM_SYS_REPORT_ERROR(Unit, R_WM_ERR_NULL_PTR_ARGUMENT, 0);
                        2209 --669:         return 0;
                        2210 --line669
                        2211 ..lin.C.3A.5Cgit.5Crh850.5Csrc.5Capp.5Cgfx_apps.5Csimple_draw.5Ctarget.5Cd1mx_mango_ghs.5Cobj.5Cr_sys_wm_sprite.106::
                        2212 .LDWlin106:
000005c0 0052           2213 	mov	0,r10
000005c2 a53d*          2214 	br	.L2047
                        2215 .L2049:
                        2216 --670:     }
                        2217 --672:     spea_unit = loc_WM_Sprite_GetSpriteUnitFromLayerNo(Unit, win_layer_pair->Layer);
                        2218 --line672
                        2219 ..lin.C.3A.5Cgit.5Crh850.5Csrc.5Capp.5Cgfx_apps.5Csimple_draw.5Ctarget.5Cd1mx_mango_ghs.5Cobj.5Cr_sys_wm_sprite.107::
                        2220 .LDWlin107:
000005c4 393f0500       2221 	ld.w	4[r25],r7
000005c8 1c30           2222 	mov	r28,r6
                        2223 	jarl	_loc_WM_Sprite_GetSpriteUnitFromLayerNo,lp
                        2223 <EXPANSION BEGIN>
                        2223 jarl22 _loc_WM_Sprite_GetSpriteUnitFromLayerNo , lp 
000005ca bfff36fa*      2223 <EXPANSION END>

                                                                      Page 39
                                                              C:\Users\Frank\AppData\Local\Temp\gh_0000nlg1.si
000005ce 0ad8           2224 	mov	r10,r27
                        2225 --673:     sprite_no = loc_WM_Sprite_GetSpriteNo(Unit, Sprite);
                        2226 --line673
                        2227 ..lin.C.3A.5Cgit.5Crh850.5Csrc.5Capp.5Cgfx_apps.5Csimple_draw.5Ctarget.5Cd1mx_mango_ghs.5Cobj.5Cr_sys_wm_sprite.108::
                        2228 .LDWlin108:
000005d0 1c30           2229 	mov	r28,r6
000005d2 1a38           2230 	mov	r26,r7
                        2231 	jarl	_loc_WM_Sprite_GetSpriteNo,lp
                        2231 <EXPANSION BEGIN>
                        2231 jarl22 _loc_WM_Sprite_GetSpriteNo , lp 
000005d4 bfff88fc*      2231 <EXPANSION END>
000005d8 0ae8           2232 	mov	r10,r29
                        2233 --674:     if (sprite_no == LOC_INVALID_SPRITE)
                        2234 --line674
                        2235 ..lin.C.3A.5Cgit.5Crh850.5Csrc.5Capp.5Cgfx_apps.5Csimple_draw.5Ctarget.5Cd1mx_mango_ghs.5Cobj.5Cr_sys_wm_sprite.109::
                        2236 .LDWlin109:
000005da 1d06f0ff       2237 	addi	-16,r29,zero
000005de ba05*          2238 	bne	.L2052
                        2239 --675:     {
                        2240 --676:         R_WM_SYS_REPORT_ERROR(Unit, R_WM_ERR_RANGE_WM, 0);
                        2241 --677:         return 0;
                        2242 --line677
                        2243 ..lin.C.3A.5Cgit.5Crh850.5Csrc.5Capp.5Cgfx_apps.5Csimple_draw.5Ctarget.5Cd1mx_mango_ghs.5Cobj.5Cr_sys_wm_sprite.110::
                        2244 .LDWlin110:
000005e0 0052           2245 	mov	0,r10
000005e2 a52d*          2246 	br	.L2047
                        2247 .L2052:
                        2248 --678:     }
                        2249 --679:     
                        2250 --680:     if (R_SPEA_ERR_OK != R_SPEA_SetSpritePos(
                        2251 --line680
                        2252 ..lin.C.3A.5Cgit.5Crh850.5Csrc.5Capp.5Cgfx_apps.5Csimple_draw.5Ctarget.5Cd1mx_mango_ghs.5Cobj.5Cr_sys_wm_sprite.111::
                        2253 .LDWlin111:
000005e4 3af70100       2254 	ld.w	0[r26],ep
000005e8 0435           2255 	sld.w	8[ep],r6
                        2256 	jarl	_R_WM_ColorFmtBitsPerPixGet,lp
                        2256 <EXPANSION BEGIN>
                        2256 jarl22 _R_WM_ColorFmtBitsPerPixGet , lp 
000005ea 80ff0000*      2256 <EXPANSION END>
000005ee e35f0900       2257 	ld.hu	8[sp],r11
000005f2 1b3efbff       2258 	addi	-5,r27,r7
000005f6 e3670d00       2259 	ld.hu	12[sp],r12
000005fa 1d40           2260 	mov	r29,r8
000005fc 63570500       2261 	st.w	r10,4[sp]
00000600 8700           2262 	zxb	r7
00000602 8800           2263 	zxb	r8
00000604 0032           2264 	mov	0,r6
00000606 0b48           2265 	mov	r11,r9
00000608 63670100       2266 	st.w	r12,0[sp]
                        2267 	jarl	_R_SPEA_SetSpritePos,lp
                        2267 <EXPANSION BEGIN>
                        2267 jarl22 _R_SPEA_SetSpritePos , lp 
0000060c 80ff0000*      2267 <EXPANSION END>
00000610 e051           2268 	cmp	zero,r10
00000612 b205*          2269 	be	.L2055
                        2270 --681:                             0, spea_unit-R_SPEA_SU0, sprite_no, 
                        2271 --682:                             PosX, PosY, R_WM_ColorFmtBitsPerPixGet(Sprite->Window->ColorFmt)))
                        2272 --683:     {
                        2273 --684:         R_WM_SYS_REPORT_ERROR(Unit, R_WM_ERR_SPEA_INTERNAL, 0);
                        2274 --685:         return 0;
                        2275 --line685

                                                                      Page 40
                                                              C:\Users\Frank\AppData\Local\Temp\gh_0000nlg1.si
                        2276 ..lin.C.3A.5Cgit.5Crh850.5Csrc.5Capp.5Cgfx_apps.5Csimple_draw.5Ctarget.5Cd1mx_mango_ghs.5Cobj.5Cr_sys_wm_sprite.112::
                        2277 .LDWlin112:
00000614 0052           2278 	mov	0,r10
00000616 8515*          2279 	br	.L2047
                        2280 .L2055:
                        2281 --686:     }
                        2282 --688:     /* If z-Pos of the spite has changes, all sprite registers have to be reassigned. */
                        2283 --689:     if (Sprite->PosZ != PosZ)
                        2284 --line689
                        2285 ..lin.C.3A.5Cgit.5Crh850.5Csrc.5Capp.5Cgfx_apps.5Csimple_draw.5Ctarget.5Cd1mx_mango_ghs.5Cobj.5Cr_sys_wm_sprite.113::
                        2286 .LDWlin113:
00000618 3a0f1900       2287 	ld.w	24[r26],r1
0000061c 235f2900       2288 	ld.w	40[sp],r11
00000620 eb09           2289 	cmp	r11,r1
00000622 d205*          2290 	be	.L2058
                        2291 --690:     {
                        2292 --691:         loc_WM_Sprite_SetReassignFlag(Unit, spea_unit);
                        2293 --line691
                        2294 ..lin.C.3A.5Cgit.5Crh850.5Csrc.5Capp.5Cgfx_apps.5Csimple_draw.5Ctarget.5Cd1mx_mango_ghs.5Cobj.5Cr_sys_wm_sprite.114::
                        2295 .LDWlin114:
00000624 1c30           2296 	mov	r28,r6
00000626 1b38           2297 	mov	r27,r7
                        2298 	jarl	_loc_WM_Sprite_SetReassignFlag,lp
                        2298 <EXPANSION BEGIN>
                        2298 jarl22 _loc_WM_Sprite_SetReassignFlag , lp 
00000628 bfff9cfa*      2298 <EXPANSION END>
                        2299 .L2058:
                        2300 --692:     }
                        2301 --693:     
                        2302 --694:     /* Set respective R_WM_SYS_FRAME_STATUS_SPEA_SUn_UPDATE_BIT */
                        2303 --695:     loc_WM_Sprite_SetUpdateFlag(Unit, spea_unit);
                        2304 --line695
                        2305 ..lin.C.3A.5Cgit.5Crh850.5Csrc.5Capp.5Cgfx_apps.5Csimple_draw.5Ctarget.5Cd1mx_mango_ghs.5Cobj.5Cr_sys_wm_sprite.115::
                        2306 .LDWlin115:
0000062c 1c30           2307 	mov	r28,r6
0000062e 1b38           2308 	mov	r27,r7
                        2309 	jarl	_loc_WM_Sprite_SetUpdateFlag,lp
                        2309 <EXPANSION BEGIN>
                        2309 jarl22 _loc_WM_Sprite_SetUpdateFlag , lp 
00000630 bfff2efb*      2309 <EXPANSION END>
                        2310 --696:     return 1;
                        2311 --line696
                        2312 ..lin.C.3A.5Cgit.5Crh850.5Csrc.5Capp.5Cgfx_apps.5Csimple_draw.5Ctarget.5Cd1mx_mango_ghs.5Cobj.5Cr_sys_wm_sprite.116::
                        2313 .LDWlin116:
00000634 0152           2314 	mov	1,r10
                        2315 .L2047:
                        2316 --	    .ef
                        2317 .LDW16:
00000636 4806ff70       2318 	dispose	4,{r25,r26,r27,r28,r29,r31},[lp]
                        2319 	.type	_R_WM_Sys_SpriteMove,@function
                        2320 	.size	_R_WM_Sys_SpriteMove,.-_R_WM_Sys_SpriteMove
                        2321 	.align	2
                        2322 .LDW26:
                        2323 --_win_layer_pair	r25	local
                        2324 --_sprite_no	r29	local
                        2325 --_spea_unit	r27	local
                        2326 
                        2327 --_Unit	r28	param
                        2328 --_Sprite	r26	param
                        2329 --_PosX	8[sp]	param
                        2330 --_PosY	12[sp]	param

                                                                      Page 41
                                                              C:\Users\Frank\AppData\Local\Temp\gh_0000nlg1.si
                        2331 --_PosZ	40[sp]	param
                        2332 
                        2333 	.section ".bss","awb"
                        2334 .L2130:
                        2335 	.type	.L2130,@object
                        2336 	.size	.L2130,0
                        2337 	.data
                        2338 	.text
                        2339 
                        2340 --697: }
                        2341 
                        2342 --699: /***********************************************************
                        2343 --700:   Function: R_WM_Sys_SpriteBufSet
                        2344 --701: */
                        2345 --702: uint32_t R_WM_Sys_SpriteBufSet(uint32_t Unit, const r_wm_Sprite_t *Sprite, void* Buf)
                        2346 	.align	2
                        2347 	.align	2
                        2348 	.global	_R_WM_Sys_SpriteBufSet
                        2349 _R_WM_Sys_SpriteBufSet:
0000063a 8c07e170       2350 	prepare	{r25,r26,r27,r28,r29,r31},6
0000063e 06e0           2351 	mov	r6,r28
00000640 07e8           2352 	mov	r7,r29
00000642 63470500       2353 	st.w	r8,4[sp]
                        2354 --	    .bf
                        2355 .LDW36:
                        2356 --703: {
                        2357 --704:     r_wm_sys_vdce_WinLayerPair_t* win_layer_pair = loc_WM_WinLayerPairGet(Unit, Sprite->Window);
00000646 3d3f0100       2358 	ld.w	0[r29],r7
0000064a 1c30           2359 	mov	r28,r6
                        2360 	jarl	_loc_WM_WinLayerPairGet,lp
                        2360 <EXPANSION BEGIN>
                        2360 jarl22 _loc_WM_WinLayerPairGet , lp 
0000064c 80ff0000*      2360 <EXPANSION END>
00000650 0ac8           2361 	mov	r10,r25
                        2362 --705:     r_spea_SpriteConfig_t sprite_conf;
                        2363 --706:     uint32_t sprite_no = LOC_INVALID_SPRITE;
                        2364 --line706
                        2365 ..lin.C.3A.5Cgit.5Crh850.5Csrc.5Capp.5Cgfx_apps.5Csimple_draw.5Ctarget.5Cd1mx_mango_ghs.5Cobj.5Cr_sys_wm_sprite.117::
                        2366 .LDWlin117:
00000652 20de1000       2367 	movea	16,zero,r27
                        2368 --707:     
                        2369 --708:     r_spea_Unit_t spea_unit;
                        2370 --709:     
                        2371 --710:     if (win_layer_pair == R_NULL)
00000656 e0c9           2372 	cmp	zero,r25
00000658 ba05*          2373 	bne	.L2183
                        2374 --711:     {
                        2375 --712:         R_WM_SYS_REPORT_ERROR(Unit, R_WM_ERR_NULL_PTR_ARGUMENT, 0);
                        2376 --713:         return 0;
                        2377 --line713
                        2378 ..lin.C.3A.5Cgit.5Crh850.5Csrc.5Capp.5Cgfx_apps.5Csimple_draw.5Ctarget.5Cd1mx_mango_ghs.5Cobj.5Cr_sys_wm_sprite.118::
                        2379 .LDWlin118:
0000065a 0052           2380 	mov	0,r10
0000065c d54d*          2381 	br	.L2181
                        2382 .L2183:
                        2383 --714:     }
                        2384 --716:     spea_unit = loc_WM_Sprite_GetSpriteUnitFromLayerNo(Unit, win_layer_pair->Layer);
                        2385 --line716
                        2386 ..lin.C.3A.5Cgit.5Crh850.5Csrc.5Capp.5Cgfx_apps.5Csimple_draw.5Ctarget.5Cd1mx_mango_ghs.5Cobj.5Cr_sys_wm_sprite.119::
                        2387 .LDWlin119:
0000065e 393f0500       2388 	ld.w	4[r25],r7

                                                                      Page 42
                                                              C:\Users\Frank\AppData\Local\Temp\gh_0000nlg1.si
00000662 1c30           2389 	mov	r28,r6
                        2390 	jarl	_loc_WM_Sprite_GetSpriteUnitFromLayerNo,lp
                        2390 <EXPANSION BEGIN>
                        2390 jarl22 _loc_WM_Sprite_GetSpriteUnitFromLayerNo , lp 
00000664 bfff9cf9*      2390 <EXPANSION END>
00000668 0ad0           2391 	mov	r10,r26
                        2392 --717:     sprite_no = loc_WM_Sprite_GetSpriteNo(Unit, Sprite);
                        2393 --line717
                        2394 ..lin.C.3A.5Cgit.5Crh850.5Csrc.5Capp.5Cgfx_apps.5Csimple_draw.5Ctarget.5Cd1mx_mango_ghs.5Cobj.5Cr_sys_wm_sprite.120::
                        2395 .LDWlin120:
0000066a 1c30           2396 	mov	r28,r6
0000066c 1d38           2397 	mov	r29,r7
                        2398 	jarl	_loc_WM_Sprite_GetSpriteNo,lp
                        2398 <EXPANSION BEGIN>
                        2398 jarl22 _loc_WM_Sprite_GetSpriteNo , lp 
0000066e bfffeefb*      2398 <EXPANSION END>
00000672 0ad8           2399 	mov	r10,r27
                        2400 --718:     if (sprite_no == LOC_INVALID_SPRITE)
                        2401 --line718
                        2402 ..lin.C.3A.5Cgit.5Crh850.5Csrc.5Capp.5Cgfx_apps.5Csimple_draw.5Ctarget.5Cd1mx_mango_ghs.5Cobj.5Cr_sys_wm_sprite.121::
                        2403 .LDWlin121:
00000674 1b06f0ff       2404 	addi	-16,r27,zero
00000678 ba05*          2405 	bne	.L2186
                        2406 --719:     {
                        2407 --720:         R_WM_SYS_REPORT_ERROR(Unit, R_WM_ERR_RANGE_WM, 0);
                        2408 --721:         return 0;
                        2409 --line721
                        2410 ..lin.C.3A.5Cgit.5Crh850.5Csrc.5Capp.5Cgfx_apps.5Csimple_draw.5Ctarget.5Cd1mx_mango_ghs.5Cobj.5Cr_sys_wm_sprite.122::
                        2411 .LDWlin122:
0000067a 0052           2412 	mov	0,r10
0000067c d53d*          2413 	br	.L2181
                        2414 .L2186:
                        2415 --722:     }
                        2416 --723:     
                        2417 --724:     sprite_conf.PosX = Sprite->PosX;
                        2418 --line724
                        2419 ..lin.C.3A.5Cgit.5Crh850.5Csrc.5Capp.5Cgfx_apps.5Csimple_draw.5Ctarget.5Cd1mx_mango_ghs.5Cobj.5Cr_sys_wm_sprite.123::
                        2420 .LDWlin123:
0000067e 3d0f1100       2421 	ld.w	16[r29],r1
00000682 630f1400       2422 	st.h	r1,20[sp]
                        2423 --725:     sprite_conf.PosY = Sprite->PosY;
00000686 3d0f1500       2424 	ld.w	20[r29],r1
0000068a 630f1600       2425 	st.h	r1,22[sp]
                        2426 --726:     sprite_conf.Width = Sprite->Width;
0000068e 3d0f1d00       2427 	ld.w	28[r29],r1
00000692 630f1200       2428 	st.h	r1,18[sp]
                        2429 --727:     sprite_conf.Height = Sprite->Height;
00000696 3d0f2100       2430 	ld.w	32[r29],r1
0000069a 630f1000       2431 	st.h	r1,16[sp]
                        2432 --728:     sprite_conf.SrcAddr = (uint32_t)Buf;
0000069e 235f0500       2433 	ld.w	4[sp],r11
000006a2 635f0d00       2434 	st.w	r11,12[sp]
                        2435 --729:     sprite_conf.VSync = Unit;
000006a6 43e70900       2436 	st.b	r28,9[sp]
                        2437 --730:     if (Sprite->Status == R_WM_SPRITESTATUS_ENABLED)
000006aa 3d0f0900       2438 	ld.w	8[r29],r1
000006ae 620a           2439 	cmp	2,r1
000006b0 da05*          2440 	bne	.L2189
                        2441 --731:     {
                        2442 --732:         sprite_conf.Enable = 1;
                        2443 --line732

                                                                      Page 43
                                                              C:\Users\Frank\AppData\Local\Temp\gh_0000nlg1.si
                        2444 ..lin.C.3A.5Cgit.5Crh850.5Csrc.5Capp.5Cgfx_apps.5Csimple_draw.5Ctarget.5Cd1mx_mango_ghs.5Cobj.5Cr_sys_wm_sprite.124::
                        2445 .LDWlin124:
000006b2 010a           2446 	mov	1,r1
000006b4 430f0800       2447 	st.b	r1,8[sp]
000006b8 b505*          2448 	br	.L2191
                        2449 .L2189:
                        2450 --733:     }
                        2451 --734:     else
                        2452 --735:     {
                        2453 --736:         sprite_conf.Enable = 0;
                        2454 --line736
                        2455 ..lin.C.3A.5Cgit.5Crh850.5Csrc.5Capp.5Cgfx_apps.5Csimple_draw.5Ctarget.5Cd1mx_mango_ghs.5Cobj.5Cr_sys_wm_sprite.125::
                        2456 .LDWlin125:
000006ba 43070800       2457 	st.b	zero,8[sp]
                        2458 .L2191:
                        2459 --737:     }
                        2460 --738:     sprite_conf.VSync = Unit;
000006be 43e70900       2461 	st.b	r28,9[sp]
                        2462 --739:     
                        2463 --740:     if (R_SPEA_ERR_OK != R_SPEA_SetSprite(
000006c2 3df70100       2464 	ld.w	0[r29],ep
000006c6 0435           2465 	sld.w	8[ep],r6
                        2466 	jarl	_R_WM_ColorFmtBitsPerPixGet,lp
                        2466 <EXPANSION BEGIN>
                        2466 jarl22 _R_WM_ColorFmtBitsPerPixGet , lp 
000006c8 80ff0000*      2466 <EXPANSION END>
000006cc 1a3efbff       2467 	addi	-5,r26,r7
000006d0 1b40           2468 	mov	r27,r8
000006d2 63570100       2469 	st.w	r10,0[sp]
000006d6 8700           2470 	zxb	r7
000006d8 8800           2471 	zxb	r8
000006da 0032           2472 	mov	0,r6
000006dc 234e0800       2473 	movea	8,sp,r9
                        2474 	jarl	_R_SPEA_SetSprite,lp
                        2474 <EXPANSION BEGIN>
                        2474 jarl22 _R_SPEA_SetSprite , lp 
000006e0 80ff0000*      2474 <EXPANSION END>
000006e4 e051           2475 	cmp	zero,r10
000006e6 b205*          2476 	be	.L2192
                        2477 --741:                             0, spea_unit-R_SPEA_SU0, sprite_no, 
                        2478 --742:                             &sprite_conf, R_WM_ColorFmtBitsPerPixGet(Sprite->Window->ColorFmt)))
                        2479 --743:     {
                        2480 --744:         return 0;
                        2481 --line744
                        2482 ..lin.C.3A.5Cgit.5Crh850.5Csrc.5Capp.5Cgfx_apps.5Csimple_draw.5Ctarget.5Cd1mx_mango_ghs.5Cobj.5Cr_sys_wm_sprite.126::
                        2483 .LDWlin126:
000006e8 0052           2484 	mov	0,r10
000006ea e505*          2485 	br	.L2181
                        2486 .L2192:
                        2487 --745:     }
                        2488 --746:     
                        2489 --747:     /* Set respective R_WM_SYS_FRAME_STATUS_SPEA_SUn_UPDATE_BIT */
                        2490 --748:     loc_WM_Sprite_SetUpdateFlag(Unit, spea_unit);
                        2491 --line748
                        2492 ..lin.C.3A.5Cgit.5Crh850.5Csrc.5Capp.5Cgfx_apps.5Csimple_draw.5Ctarget.5Cd1mx_mango_ghs.5Cobj.5Cr_sys_wm_sprite.127::
                        2493 .LDWlin127:
000006ec 1c30           2494 	mov	r28,r6
000006ee 1a38           2495 	mov	r26,r7
                        2496 	jarl	_loc_WM_Sprite_SetUpdateFlag,lp
                        2496 <EXPANSION BEGIN>
                        2496 jarl22 _loc_WM_Sprite_SetUpdateFlag , lp 

                                                                      Page 44
                                                              C:\Users\Frank\AppData\Local\Temp\gh_0000nlg1.si
000006f0 bfff6efa*      2496 <EXPANSION END>
                        2497 --749:     return 1;
                        2498 --line749
                        2499 ..lin.C.3A.5Cgit.5Crh850.5Csrc.5Capp.5Cgfx_apps.5Csimple_draw.5Ctarget.5Cd1mx_mango_ghs.5Cobj.5Cr_sys_wm_sprite.128::
                        2500 .LDWlin128:
000006f4 0152           2501 	mov	1,r10
                        2502 .L2181:
                        2503 --	    .ef
                        2504 .LDW46:
000006f6 4c06ff70       2505 	dispose	6,{r25,r26,r27,r28,r29,r31},[lp]
                        2506 	.type	_R_WM_Sys_SpriteBufSet,@function
                        2507 	.size	_R_WM_Sys_SpriteBufSet,.-_R_WM_Sys_SpriteBufSet
                        2508 	.align	2
                        2509 .LDW56:
                        2510 --_win_layer_pair	r25	local
                        2511 --_sprite_conf	8[sp]	local
                        2512 --_sprite_no	r27	local
                        2513 --_spea_unit	r26	local
                        2514 
                        2515 --_Unit	r28	param
                        2516 --_Sprite	r29	param
                        2517 --_Buf	4[sp]	param
                        2518 
                        2519 	.section ".bss","awb"
                        2520 .L2306:
                        2521 	.type	.L2306,@object
                        2522 	.size	.L2306,0
                        2523 	.data
                        2524 	.text
                        2525 
                        2526 --750: }
                        2527 
                        2528 --752: /***********************************************************
                        2529 --753:   Function: R_WM_Sys_WindowDeleteAllSprites
                        2530 --754: */
                        2531 --755: uint32_t R_WM_Sys_WindowDeleteAllSprites    (   uint32_t Unit,
                        2532 	.align	2
                        2533 	.align	2
                        2534 	.global	_R_WM_Sys_WindowDeleteAllSprites
                        2535 _R_WM_Sys_WindowDeleteAllSprites:
000006fa 8007e170       2536 	prepare	{r25,r26,r27,r28,r29,r31},0
000006fe 06d8           2537 	mov	r6,r27
00000700 07c8           2538 	mov	r7,r25
                        2539 --	    .bf
                        2540 .LDW66:
                        2541 --756:                                                 const r_wm_Window_t* Win
                        2542 --757:                                             )
                        2543 --758: {
                        2544 --759:     r_wm_sys_vdce_WinLayerPair_t* win_layer_pair = loc_WM_WinLayerPairGet(Unit, Win);
00000702 1b30           2545 	mov	r27,r6
00000704 1938           2546 	mov	r25,r7
                        2547 	jarl	_loc_WM_WinLayerPairGet,lp
                        2547 <EXPANSION BEGIN>
                        2547 jarl22 _loc_WM_WinLayerPairGet , lp 
00000706 80ff0000*      2547 <EXPANSION END>
0000070a 0ad0           2548 	mov	r10,r26
                        2549 --760:     uint32_t sprite;
                        2550 --761:     r_spea_Unit_t spea_unit;
                        2551 --762:     
                        2552 --763:     if (win_layer_pair == R_NULL)
                        2553 --line763

                                                                      Page 45
                                                              C:\Users\Frank\AppData\Local\Temp\gh_0000nlg1.si
                        2554 ..lin.C.3A.5Cgit.5Crh850.5Csrc.5Capp.5Cgfx_apps.5Csimple_draw.5Ctarget.5Cd1mx_mango_ghs.5Cobj.5Cr_sys_wm_sprite.129::
                        2555 .LDWlin129:
0000070c e0d1           2556 	cmp	zero,r26
0000070e ba05*          2557 	bne	.L2383
                        2558 --764:     {
                        2559 --765:         R_WM_SYS_REPORT_ERROR(Unit, R_WM_ERR_NULL_PTR_ARGUMENT, 0);
                        2560 --766:         return 0;
                        2561 --line766
                        2562 ..lin.C.3A.5Cgit.5Crh850.5Csrc.5Capp.5Cgfx_apps.5Csimple_draw.5Ctarget.5Cd1mx_mango_ghs.5Cobj.5Cr_sys_wm_sprite.130::
                        2563 .LDWlin130:
00000710 0052           2564 	mov	0,r10
00000712 f51d*          2565 	br	.L2381
                        2566 .L2383:
                        2567 --767:     }
                        2568 --769:     spea_unit = loc_WM_Sprite_GetSpriteUnitFromLayerNo(Unit, win_layer_pair->Layer);
                        2569 --line769
                        2570 ..lin.C.3A.5Cgit.5Crh850.5Csrc.5Capp.5Cgfx_apps.5Csimple_draw.5Ctarget.5Cd1mx_mango_ghs.5Cobj.5Cr_sys_wm_sprite.131::
                        2571 .LDWlin131:
00000714 3a3f0500       2572 	ld.w	4[r26],r7
00000718 1b30           2573 	mov	r27,r6
                        2574 	jarl	_loc_WM_Sprite_GetSpriteUnitFromLayerNo,lp
                        2574 <EXPANSION BEGIN>
                        2574 jarl22 _loc_WM_Sprite_GetSpriteUnitFromLayerNo , lp 
0000071a bfffe6f8*      2574 <EXPANSION END>
0000071e 0ae0           2575 	mov	r10,r28
                        2576 --770:     
                        2577 --771:     for (sprite = 0; sprite < R_WM_MAX_SPRITES_PER_LAYER; ++sprite)
                        2578 --line771
                        2579 ..lin.C.3A.5Cgit.5Crh850.5Csrc.5Capp.5Cgfx_apps.5Csimple_draw.5Ctarget.5Cd1mx_mango_ghs.5Cobj.5Cr_sys_wm_sprite.132::
                        2580 .LDWlin132:
00000720 00ea           2581 	mov	0,r29
00000722 0000           2582 	nop
                        2583 .L2388:
                        2584 --772:     {
                        2585 --773:         if (R_SPEA_ERR_OK != R_SPEA_SpriteEnable(0, spea_unit-R_SPEA_SU0, sprite, 0))
00000724 1c3efbff       2586 	addi	-5,r28,r7
00000728 1d40           2587 	mov	r29,r8
0000072a 8700           2588 	zxb	r7
0000072c 0032           2589 	mov	0,r6
0000072e 8800           2590 	zxb	r8
00000730 004a           2591 	mov	0,r9
                        2592 	jarl	_R_SPEA_SpriteEnable,lp
                        2592 <EXPANSION BEGIN>
                        2592 jarl22 _R_SPEA_SpriteEnable , lp 
00000732 80ff0000*      2592 <EXPANSION END>
00000736 e051           2593 	cmp	zero,r10
00000738 b205*          2594 	be	.L2389
                        2595 --774:         {
                        2596 --775:             return 0;
                        2597 --line775
                        2598 ..lin.C.3A.5Cgit.5Crh850.5Csrc.5Capp.5Cgfx_apps.5Csimple_draw.5Ctarget.5Cd1mx_mango_ghs.5Cobj.5Cr_sys_wm_sprite.133::
                        2599 .LDWlin133:
0000073a 0052           2600 	mov	0,r10
0000073c a50d*          2601 	br	.L2381
                        2602 .L2389:
                        2603 --line771
                        2604 ..lin.C.3A.5Cgit.5Crh850.5Csrc.5Capp.5Cgfx_apps.5Csimple_draw.5Ctarget.5Cd1mx_mango_ghs.5Cobj.5Cr_sys_wm_sprite.134::
                        2605 .LDWlin134:
0000073e 41ea           2606 	add	1,r29
00000740 1d06f0ff       2607 	addi	-16,r29,zero
00000744 89f5*          2608 	bnl	.L2388

                                                                      Page 46
                                                              C:\Users\Frank\AppData\Local\Temp\gh_0000nlg1.si
                        2609 --776:         }
                        2610 --777:     }
                        2611 --778:     
                        2612 --779:     /* Set respective R_WM_SYS_FRAME_STATUS_SPEA_SUn_UPDATE_BIT */
                        2613 --780:     loc_WM_Sprite_SetUpdateFlag(Unit, spea_unit);
                        2614 --line780
                        2615 ..lin.C.3A.5Cgit.5Crh850.5Csrc.5Capp.5Cgfx_apps.5Csimple_draw.5Ctarget.5Cd1mx_mango_ghs.5Cobj.5Cr_sys_wm_sprite.135::
                        2616 .LDWlin135:
00000746 1b30           2617 	mov	r27,r6
00000748 1c38           2618 	mov	r28,r7
                        2619 	jarl	_loc_WM_Sprite_SetUpdateFlag,lp
                        2619 <EXPANSION BEGIN>
                        2619 jarl22 _loc_WM_Sprite_SetUpdateFlag , lp 
0000074a bfff14fa*      2619 <EXPANSION END>
                        2620 --781:     return 1;
                        2621 --line781
                        2622 ..lin.C.3A.5Cgit.5Crh850.5Csrc.5Capp.5Cgfx_apps.5Csimple_draw.5Ctarget.5Cd1mx_mango_ghs.5Cobj.5Cr_sys_wm_sprite.136::
                        2623 .LDWlin136:
0000074e 0152           2624 	mov	1,r10
                        2625 .L2381:
                        2626 --	    .ef
                        2627 .LDW76:
00000750 4006ff70       2628 	dispose	0,{r25,r26,r27,r28,r29,r31},[lp]
                        2629 	.type	_R_WM_Sys_WindowDeleteAllSprites,@function
                        2630 	.size	_R_WM_Sys_WindowDeleteAllSprites,.-_R_WM_Sys_WindowDeleteAllSprites
                        2631 	.align	2
                        2632 .LDW86:
                        2633 --_win_layer_pair	r26	local
                        2634 --_sprite	r29	local
                        2635 --_spea_unit	r28	local
                        2636 
                        2637 --_Unit	r27	param
                        2638 --_Win	r25	param
                        2639 
                        2640 	.section ".bss","awb"
                        2641 .L2458:
                        2642 	.type	.L2458,@object
                        2643 	.size	.L2458,0
                        2644 	.data
                        2645 	.text
                        2646 
                        2647 --782: }
                        2648 	.align	2
                        2649 --_r_wm_DevSys	_r_wm_DevSys	import
                        2650 --_r_wm_Device	_r_wm_Device	import
                        2651 --_speaLayer2UnitAssignment	_speaLayer2UnitAssignment	static
                        2652 --_rleLayer2UnitAssignment	_rleLayer2UnitAssignment	static
                        2653 
                        2654 	.data
                        2655 	.ghsnote version,15
                        2656 	.ghsnote tools,3
                        2657 	.ghsnote options,144
                        2658 	.text
                        2659 	.align	2
                        2660 ..eof.C.3A.5Cgit.5Crh850.5Csrc.5Capp.5Cgfx_apps.5Csimple_draw.5Ctarget.5Cd1mx_mango_ghs.5Cobj.5Cr_sys_wm_sprite...43.3A.5Cgit.5Crh850.5Csrc.5Capp.5Cgfx_apps.5Csimple_draw.5Ctarget.5Cd1mx_mango_ghs..5BC5D028..0::
                        2661 .rh850_flags REGMODE22,DATA_ALIGN8,GP_FIX,EP_NONFIX,TP_FIX,REG2_RESERVE,G3M
