                                                                      Page 1
                                                              C:\Users\Frank\AppData\Local\Temp\gh_0000oso1.si
Command Line: C:\GHS\V800.V2014.1.7\comp_201417\ease850.exe -w -elf -b0 -I../../../../../app/common/dhd -I../../../../../app/gfx_apps/simple_draw/src -I../../../../../app/gfx_apps/simple_draw/lib -I../../../../../bsp/board//config -I../../../../../bsp/board//src/gfx -I../../../../../bsp/board//src/hmi -I../../../../../bsp/board//src/stdio -I../../../../../bsp/board/d1mx_mango/config -I../../../../../bsp/board/d1mx_mango/src -I../../../../../bsp/board/d1mx_mango/src/gfx -I../../../../../bsp/board/d1mx_mango/src/hmi -I../../../../../bsp/board/d1mx_mango/src/stdio -I../../../../../bsp/gfx/lib -I../../../../../bsp/gfx/src -I../../../../../bsp/hmi/lib -I../../../../../bsp/hmi/src -I../../../../../bsp/lib -I../../../../../bsp/stdio/lib -I../../../../../bsp/stdio/src -I../../../../../cdi/lib -I../../../../../cdi/src -I../../../../../compiler/rh850_ghs/inc -I../../../../../device/d1mx/lib -I../../../../../device/d1mx/macro_cfg -I../../../../../device/d1mx/macro_cfg/csisw -I../../../../../device/d1mx/macro_cfg/davehd -I../../../../../device/d1mx/macro_cfg/ddb -I../../../../../device/d1mx/macro_cfg/drw2d -I../../../../../device/d1mx/macro_cfg/gfxbus -I../../../../../device/d1mx/macro_cfg/gpio -I../../../../../device/d1mx/macro_cfg/hypb -I../../../../../device/d1mx/macro_cfg/hypdb -I../../../../../device/d1mx/macro_cfg/jcua -I../../../../../device/d1mx/macro_cfg/nfmabare -I../../../../../device/d1mx/macro_cfg/octa -I../../../../../device/d1mx/macro_cfg/octacdb -I../../../../../device/d1mx/macro_cfg/ostm -I../../../../../device/d1mx/macro_cfg/pbg -I../../../../../device/d1mx/macro_cfg/riic -I../../../../../device/d1mx/macro_cfg/sfcdb -I../../../../../device/d1mx/macro_cfg/sfma -I../../../../../device/d1mx/macro_cfg/spea -I../../../../../device/d1mx/macro_cfg/tauj -I../../../../../device/d1mx/macro_cfg/tick -I../../../../../device/d1mx/macro_cfg/vdce -I../../../../../device/d1mx/macro_cfg/vowe -I../../../../../device/d1mx/macro_cfg/wm -I../../../../../device/d1mx/macro_cfg/xbus -I../../../../../device/d1mx/src/dev -I../../../../../device/d1mx/src/dhd -I../../../../../device/d1mx/src/hypb -I../../../../../device/d1mx/src/jcua -I../../../../../device/d1mx/src/nfmabare -I../../../../../device/d1mx/src/octa -I../../../../../device/d1mx/src/rh850_ghs -I../../../../../device/d1mx/src/vowe -I../../../../../device/d1x_common/macro_cfg -I../../../../../device/d1x_common/macro_cfg/csisw -I../../../../../device/d1x_common/macro_cfg/davehd -I../../../../../device/d1x_common/macro_cfg/ddb -I../../../../../device/d1x_common/macro_cfg/drw2d -I../../../../../device/d1x_common/macro_cfg/gfxbus -I../../../../../device/d1x_common/macro_cfg/gpio -I../../../../../device/d1x_common/macro_cfg/hypb -I../../../../../device/d1x_common/macro_cfg/hypdb -I../../../../../device/d1x_common/macro_cfg/jcua -I../../../../../device/d1x_common/macro_cfg/nfmabare -I../../../../../device/d1x_common/macro_cfg/octa -I../../../../../device/d1x_common/macro_cfg/octacdb -I../../../../../device/d1x_common/macro_cfg/ostm -I../../../../../device/d1x_common/macro_cfg/pbg -I../../../../../device/d1x_common/macro_cfg/riic -I../../../../../device/d1x_common/macro_cfg/sfcdb -I../../../../../device/d1x_common/macro_cfg/sfma -I../../../../../device/d1x_common/macro_cfg/spea -I../../../../../device/d1x_common/macro_cfg/tauj -I../../../../../device/d1x_common/macro_cfg/tick -I../../../../../device/d1x_common/macro_cfg/vdce -I../../../../../device/d1x_common/macro_cfg/vowe -I../../../../../device/d1x_common/macro_cfg/wm -I../../../../../device/d1x_common/macro_cfg/xbus -I../../../../../device/d1x_common/src/csisw -I../../../../../device/d1x_common/src/ddb -I../../../../../device/d1x_common/src/dev -I../../../../../device/d1x_common/src/gfxbus -I../../../../../device/d1x_common/src/gpio -I../../../../../device/d1x_common/src/ostm -I../../../../../device/d1x_common/src/pbg -I../../../../../device/d1x_common/src/riic -I../../../../../device/d1x_common/src/sfma -I../../../../../device/d1x_common/src/spea -I../../../../../device/d1x_common/src/tauj -I../../../../../device/d1x_common/src/tick -I../../../../../device/d1x_common/src/vdce -I../../../../../device/d1x_common/src/wm -I../../../../../device/d1x_common/src/xbus -I../../../../../device/lib -I../../../../../macro/bus/pbg/lib -I../../../../../macro/bus/pbg/src -I../../../../../macro/csi/csisw/lib -I../../../../../macro/csi/csisw/src -I../../../../../macro/drw2d/lib -I../../../../../macro/drw2d/platform/davehd -I../../../../../macro/drw2d/platform/os/no_os -I../../../../../macro/drw2d/src -I../../../../../macro/flashc/hypb/lib -I../../../../../macro/flashc/hypb/src -I../../../../../macro/flashc/hypdb/lib -I../../../../../macro/flashc/hypdb/src -I../../../../../macro/flashc/nfmabare/lib -I../../../../../macro/flashc/nfmabare/src -I../../../../../macro/flashc/octa/lib -I../../../../../macro/flashc/octa/src -I../../../../../macro/flashc/octacdb/lib -I../../../../../macro/flashc/octacdb/src -I../../../../../macro/flashc/sfcdb/lib -I../../../../../macro/flashc/sfcdb/src -I../../../../../macro/flashc/sfma/lib -I../../../../../macro/flashc/sfma/src -I../../../../../macro/gfxbus/lib -I../../../../../macro/gfxbus/src -I../../../../../macro/gfxbus/xbus/lib -I../../../../../macro/gfxbus/xbus/src -I../../../../../macro/gpio/lib -I../../../../../macro/gpio/src -I../../../../../macro/gpu/davehd/common/inc -I../../../../../macro/gpu/davehd/common/inc/platform -I../../../../../macro/gpu/davehd/common/inc/platform/d1mx -I../../../../../macro/gpu/davehd/docs -I../../../../../macro/gpu/davehd/kernel/inc -I../../../../../macro/gpu/davehd/kernel/platform/d1mx -I../../../../../macro/gpu/davehd/kernel/platform/d1mx/bridge -I../../../../../macro/gpu/davehd/kernel/platform/d1mx/non_threaded -I../../../../../macro/gpu/davehd/kernel/platform/ree -I../../../../../macro/gpu/davehd/kernel/src -I../../../../../macro/gpu/davehd/user/inc -I../../../../../macro/gpu/davehd/user/platform/d1mx/no_os -I../../../../../macro/gpu/davehd/user/src -I../../../../../macro/gpu/jcua/lib -I../../../../../macro/gpu/jcua/src -I../../../../../macro/i2c/riic/lib -I../../../../../macro/i2c/riic/src -I../../../../../macro/tick/lib -I../../../../../macro/tick/src -I../../../../../macro/timer/ostm/lib -I../../../../../macro/timer/ostm/src -I../../../../../macro/timer/tauj/lib -I../../../../../macro/timer/tauj/src -I../../../../../macro/vdce/lib -I../../../../../macro/vdce/src -I../../../../../macro/vo/ddb/lib -I../../../../../macro/vo/ddb/src -I../../../../../macro/vo/spea/lib -I../../../../../macro/vo/spea/src -I../../../../../macro/vo/vowe/lib -I../../../../../macro/vo/vowe/src -I../../../../../macro/wm/lib -I../../../../../macro/wm/src -I../../../../../macro/pwm/lib -I../../../../../macro/reset/lib -I../../../../../macro/rscan/lib -I../../../../../macro/uart/rlin3/lib -I../../../../../macro/uart/rlin3/src -I../../../../../device/d1x_common/macro_cfg/rlin3 -I../../../../../macro/stbc/lib -I../../../../../macro/adc/lib -I../../../../../device/d1x_common/macro_cfg/adc7010 -IC:\GHS\V800.V2014.1.7\comp_201417\lib\rh850_22 -cg_underscore -cpu=rh850g3m -no_v850_simd -rh850_fpsimd=none -nomacro -patch_dbo=C:\git\rh850\src\app\gfx_apps\simple_draw\target\d1mx_mango_ghs\obj\r_tauj_main.dbo -source=r_tauj_main.c -o .\obj\gh_0000oso1.o -list=.\obj\r_tauj_main.lst C:\Users\Frank\AppData\Local\Temp\gh_0000oso1.si 
Original File: C:\Users\Frank\AppData\Local\Temp\gh_0000oso1.si
Source File: r_tauj_main.c
Directory: C:\git\rh850\src\app\gfx_apps\simple_draw\target\d1mx_mango_ghs
Host OS: Windows
EASE: Copyright (C) 1983-2014 Green Hills Software.  All Rights Reversed.
Release: Compiler v2014.1.7
Build Directory: [Directory] BTOWINBOX:c:/build_2014_1_bto/2014-09-04.2200-2014_1_bto/win32-comp-ecom
Revision: [VCInfo] http://toolsvc/branches/release-branch-2014-1-bto/src@515859 (built by build)
Revision Date: Fri Sep 05 14:05:06 2014

Release Date: Fri Sep 05 14:43:29 2014

                           1 --Driver Command: ccv850 -c -MD -I../../../../../app/common/dhd
                           2 --		-I../../../../../app/gfx_apps/simple_draw/src
                           3 --		-I../../../../../app/gfx_apps/simple_draw/lib
                           4 --		-I../../../../../bsp/board//config
                           5 --		-I../../../../../bsp/board//src/gfx
                           6 --		-I../../../../../bsp/board//src/hmi
                           7 --		-I../../../../../bsp/board//src/stdio
                           8 --		-I../../../../../bsp/board/d1mx_mango/config
                           9 --		-I../../../../../bsp/board/d1mx_mango/src
                          10 --		-I../../../../../bsp/board/d1mx_mango/src/gfx
                          11 --		-I../../../../../bsp/board/d1mx_mango/src/hmi
                          12 --		-I../../../../../bsp/board/d1mx_mango/src/stdio
                          13 --		-I../../../../../bsp/gfx/lib -I../../../../../bsp/gfx/src
                          14 --		-I../../../../../bsp/hmi/lib -I../../../../../bsp/hmi/src
                          15 --		-I../../../../../bsp/lib -I../../../../../bsp/stdio/lib
                          16 --		-I../../../../../bsp/stdio/src -I../../../../../cdi/lib
                          17 --		-I../../../../../cdi/src -I../../../../../compiler/rh850_ghs/inc
                          18 --		-I../../../../../device/d1mx/lib
                          19 --		-I../../../../../device/d1mx/macro_cfg
                          20 --		-I../../../../../device/d1mx/macro_cfg/csisw
                          21 --		-I../../../../../device/d1mx/macro_cfg/davehd
                          22 --		-I../../../../../device/d1mx/macro_cfg/ddb
                          23 --		-I../../../../../device/d1mx/macro_cfg/drw2d
                          24 --		-I../../../../../device/d1mx/macro_cfg/gfxbus
                          25 --		-I../../../../../device/d1mx/macro_cfg/gpio
                          26 --		-I../../../../../device/d1mx/macro_cfg/hypb
                          27 --		-I../../../../../device/d1mx/macro_cfg/hypdb
                          28 --		-I../../../../../device/d1mx/macro_cfg/jcua
                          29 --		-I../../../../../device/d1mx/macro_cfg/nfmabare
                          30 --		-I../../../../../device/d1mx/macro_cfg/octa
                          31 --		-I../../../../../device/d1mx/macro_cfg/octacdb
                          32 --		-I../../../../../device/d1mx/macro_cfg/ostm
                          33 --		-I../../../../../device/d1mx/macro_cfg/pbg
                          34 --		-I../../../../../device/d1mx/macro_cfg/riic
                          35 --		-I../../../../../device/d1mx/macro_cfg/sfcdb
                          36 --		-I../../../../../device/d1mx/macro_cfg/sfma
                          37 --		-I../../../../../device/d1mx/macro_cfg/spea
                          38 --		-I../../../../../device/d1mx/macro_cfg/tauj
                          39 --		-I../../../../../device/d1mx/macro_cfg/tick
                          40 --		-I../../../../../device/d1mx/macro_cfg/vdce
                          41 --		-I../../../../../device/d1mx/macro_cfg/vowe
                          42 --		-I../../../../../device/d1mx/macro_cfg/wm
                          43 --		-I../../../../../device/d1mx/macro_cfg/xbus
                          44 --		-I../../../../../device/d1mx/src/dev
                          45 --		-I../../../../../device/d1mx/src/dhd
                          46 --		-I../../../../../device/d1mx/src/hypb
                          47 --		-I../../../../../device/d1mx/src/jcua
                          48 --		-I../../../../../device/d1mx/src/nfmabare
                          49 --		-I../../../../../device/d1mx/src/octa
                          50 --		-I../../../../../device/d1mx/src/rh850_ghs

                                                                      Page 2
                                                              C:\Users\Frank\AppData\Local\Temp\gh_0000oso1.si
                          51 --		-I../../../../../device/d1mx/src/vowe
                          52 --		-I../../../../../device/d1x_common/macro_cfg
                          53 --		-I../../../../../device/d1x_common/macro_cfg/csisw
                          54 --		-I../../../../../device/d1x_common/macro_cfg/davehd
                          55 --		-I../../../../../device/d1x_common/macro_cfg/ddb
                          56 --		-I../../../../../device/d1x_common/macro_cfg/drw2d
                          57 --		-I../../../../../device/d1x_common/macro_cfg/gfxbus
                          58 --		-I../../../../../device/d1x_common/macro_cfg/gpio
                          59 --		-I../../../../../device/d1x_common/macro_cfg/hypb
                          60 --		-I../../../../../device/d1x_common/macro_cfg/hypdb
                          61 --		-I../../../../../device/d1x_common/macro_cfg/jcua
                          62 --		-I../../../../../device/d1x_common/macro_cfg/nfmabare
                          63 --		-I../../../../../device/d1x_common/macro_cfg/octa
                          64 --		-I../../../../../device/d1x_common/macro_cfg/octacdb
                          65 --		-I../../../../../device/d1x_common/macro_cfg/ostm
                          66 --		-I../../../../../device/d1x_common/macro_cfg/pbg
                          67 --		-I../../../../../device/d1x_common/macro_cfg/riic
                          68 --		-I../../../../../device/d1x_common/macro_cfg/sfcdb
                          69 --		-I../../../../../device/d1x_common/macro_cfg/sfma
                          70 --		-I../../../../../device/d1x_common/macro_cfg/spea
                          71 --		-I../../../../../device/d1x_common/macro_cfg/tauj
                          72 --		-I../../../../../device/d1x_common/macro_cfg/tick
                          73 --		-I../../../../../device/d1x_common/macro_cfg/vdce
                          74 --		-I../../../../../device/d1x_common/macro_cfg/vowe
                          75 --		-I../../../../../device/d1x_common/macro_cfg/wm
                          76 --		-I../../../../../device/d1x_common/macro_cfg/xbus
                          77 --		-I../../../../../device/d1x_common/src/csisw
                          78 --		-I../../../../../device/d1x_common/src/ddb
                          79 --		-I../../../../../device/d1x_common/src/dev
                          80 --		-I../../../../../device/d1x_common/src/gfxbus
                          81 --		-I../../../../../device/d1x_common/src/gpio
                          82 --		-I../../../../../device/d1x_common/src/ostm
                          83 --		-I../../../../../device/d1x_common/src/pbg
                          84 --		-I../../../../../device/d1x_common/src/riic
                          85 --		-I../../../../../device/d1x_common/src/sfma
                          86 --		-I../../../../../device/d1x_common/src/spea
                          87 --		-I../../../../../device/d1x_common/src/tauj
                          88 --		-I../../../../../device/d1x_common/src/tick
                          89 --		-I../../../../../device/d1x_common/src/vdce
                          90 --		-I../../../../../device/d1x_common/src/wm
                          91 --		-I../../../../../device/d1x_common/src/xbus
                          92 --		-I../../../../../device/lib -I../../../../../macro/bus/pbg/lib
                          93 --		-I../../../../../macro/bus/pbg/src
                          94 --		-I../../../../../macro/csi/csisw/lib
                          95 --		-I../../../../../macro/csi/csisw/src
                          96 --		-I../../../../../macro/drw2d/lib
                          97 --		-I../../../../../macro/drw2d/platform/davehd
                          98 --		-I../../../../../macro/drw2d/platform/os/no_os
                          99 --		-I../../../../../macro/drw2d/src
                         100 --		-I../../../../../macro/flashc/hypb/lib
                         101 --		-I../../../../../macro/flashc/hypb/src
                         102 --		-I../../../../../macro/flashc/hypdb/lib
                         103 --		-I../../../../../macro/flashc/hypdb/src
                         104 --		-I../../../../../macro/flashc/nfmabare/lib
                         105 --		-I../../../../../macro/flashc/nfmabare/src
                         106 --		-I../../../../../macro/flashc/octa/lib
                         107 --		-I../../../../../macro/flashc/octa/src
                         108 --		-I../../../../../macro/flashc/octacdb/lib
                         109 --		-I../../../../../macro/flashc/octacdb/src
                         110 --		-I../../../../../macro/flashc/sfcdb/lib
                         111 --		-I../../../../../macro/flashc/sfcdb/src

                                                                      Page 3
                                                              C:\Users\Frank\AppData\Local\Temp\gh_0000oso1.si
                         112 --		-I../../../../../macro/flashc/sfma/lib
                         113 --		-I../../../../../macro/flashc/sfma/src
                         114 --		-I../../../../../macro/gfxbus/lib
                         115 --		-I../../../../../macro/gfxbus/src
                         116 --		-I../../../../../macro/gfxbus/xbus/lib
                         117 --		-I../../../../../macro/gfxbus/xbus/src
                         118 --		-I../../../../../macro/gpio/lib -I../../../../../macro/gpio/src
                         119 --		-I../../../../../macro/gpu/davehd/common/inc
                         120 --		-I../../../../../macro/gpu/davehd/common/inc/platform
                         121 --		-I../../../../../macro/gpu/davehd/common/inc/platform/d1mx
                         122 --		-I../../../../../macro/gpu/davehd/docs
                         123 --		-I../../../../../macro/gpu/davehd/kernel/inc
                         124 --		-I../../../../../macro/gpu/davehd/kernel/platform/d1mx
                         125 --		-I../../../../../macro/gpu/davehd/kernel/platform/d1mx/bridge
                         126 --		-I../../../../../macro/gpu/davehd/kernel/platform/d1mx/non_threaded
                         127 --		-I../../../../../macro/gpu/davehd/kernel/platform/ree
                         128 --		-I../../../../../macro/gpu/davehd/kernel/src
                         129 --		-I../../../../../macro/gpu/davehd/user/inc
                         130 --		-I../../../../../macro/gpu/davehd/user/platform/d1mx/no_os
                         131 --		-I../../../../../macro/gpu/davehd/user/src
                         132 --		-I../../../../../macro/gpu/jcua/lib
                         133 --		-I../../../../../macro/gpu/jcua/src
                         134 --		-I../../../../../macro/i2c/riic/lib
                         135 --		-I../../../../../macro/i2c/riic/src
                         136 --		-I../../../../../macro/tick/lib -I../../../../../macro/tick/src
                         137 --		-I../../../../../macro/timer/ostm/lib
                         138 --		-I../../../../../macro/timer/ostm/src
                         139 --		-I../../../../../macro/timer/tauj/lib
                         140 --		-I../../../../../macro/timer/tauj/src
                         141 --		-I../../../../../macro/vdce/lib -I../../../../../macro/vdce/src
                         142 --		-I../../../../../macro/vo/ddb/lib
                         143 --		-I../../../../../macro/vo/ddb/src
                         144 --		-I../../../../../macro/vo/spea/lib
                         145 --		-I../../../../../macro/vo/spea/src
                         146 --		-I../../../../../macro/vo/vowe/lib
                         147 --		-I../../../../../macro/vo/vowe/src -I../../../../../macro/wm/lib
                         148 --		-I../../../../../macro/wm/src -I../../../../../macro/pwm/lib
                         149 --		-I../../../../../macro/i2c/riic/lib
                         150 --		-I../../../../../macro/reset/lib -I../../../../../macro/rscan/lib
                         151 --		-I../../../../../macro/uart/rlin3/lib
                         152 --		-I../../../../../macro/uart/rlin3/src
                         153 --		-I../../../../../device/d1x_common/macro_cfg/rlin3
                         154 --		-I../../../../../macro/stbc/lib
                         155 --		-I../../../../../app/gfx_apps/simple_draw/lib
                         156 --		-I../../../../../macro/adc/lib
                         157 --		-I../../../../../device/d1x_common/macro_cfg/adc7010 -G
                         158 --		--no_commons --no_implicit_include --prototype_errors
                         159 --		-DRENESAS_D1X -DR_DRW2D_OS_NO_OS -DR_DRW2D_SYS_DHD
                         160 --		-DUSED_CPU=RH850G3M -DUSE_BSP_GFX -DUSE_BSP_HMI -DUSE_BSP_STDIO
                         161 --		-DUSE_CDI -DUSE_CSISW -DUSE_DAVEHD -DUSE_DDB -DUSE_DRW2D
                         162 --		-DUSE_GFXBUS -DUSE_GPIO -DUSE_HYPB -DUSE_HYPDB -DUSE_JCUA
                         163 --		-DUSE_NFMABARE -DUSE_OCTA -DUSE_OCTACDB -DUSE_OSTM -DUSE_PBG
                         164 --		-DUSE_RIIC -DUSE_SFCDB -DUSE_SFMA -DUSE_SPEA -DUSE_TAUJ
                         165 --		-DUSE_TICK -DUSE_VDCE -DUSE_WM -DUSE_XBUS -DMAG -MD -Zuse1bit
                         166 --		-allocate_ep -cpu=rh850g3m -large_sda -list -no_callt -notda
                         167 --		-passsource -preprocess_assembly_files -registermode=22
                         168 --		-reserve_r2 --diag_warning 1 -object_dir=./obj -DUSE_VDCE_OPENLDI
                         169 --		-gnu99 -filetype.c
                         170 --		..\..\..\..\..\macro\timer\tauj\src\r_tauj_main.c -o
                         171 --		.\obj\r_tauj_main.o
                         172 --Source File:   ..\..\..\..\..\macro\timer\tauj\src\r_tauj_main.c

                                                                      Page 4
                                                              C:\Users\Frank\AppData\Local\Temp\gh_0000oso1.si
                         173 --Directory:     
                         174 --		C:\git\rh850\src\app\gfx_apps\simple_draw\target\d1mx_mango_ghs
                         175 --Compile Date:  Tue Oct 16 19:48:55 2018
                         176 --Host OS:       Win32
                         177 --Version:       C-RH850 2014.1.7 RELEASE VERSION
                         178 --Release:       Compiler v2014.1.7
                         179 --Revision Date: Fri Sep 05 14:10:46 2014
                         180 --Release Date:  Fri Sep 05 14:44:23 2014
                         181 -- ecom  -g -w
                         182 
                         183 --1: /*
                         184 --2: ****************************************************************************
                         185 --3: PROJECT : TAUJ driver
                         186 --4: AUTHOR  : Michael Golczewski
                         187 --5: FILE    : $Id: r_tauj_main.c 7402 2016-01-27 15:43:39Z florian.zimmermann $
                         188 --6: ============================================================================ 
                         189 --7: DESCRIPTION
                         190 --8: Driver for TAUJ macro
                         191 --9: ============================================================================
                         192 --10:                             C O P Y R I G H T
                         193 --11: ============================================================================
                         194 --12:                        Copyright (c) 2013 - 2014
                         195 --13:                                   by 
                         196 --14:                        Renesas Electronics (Europe) GmbH. 
                         197 --15:                            Arcadiastrasse 10
                         198 --16:                           D-40472 Duesseldorf
                         199 --17:                                Germany
                         200 --18:                           All rights reserved.
                         201 --19: ============================================================================
                         202 --20: Purpose: only for testing, not for mass production
                         203 --22: DISCLAIMER
                         204 --24: LICENSEE has read, understood and accepted the terms and conditions defined in
                         205 --25: the license agreement, especially the usage rights. In any case, it is
                         206 --26: LICENSEE's responsibility to make sure that any user of the software complies
                         207 --27: with the terms and conditions of the signed license agreement.
                         208 --29: SAMPLE CODE is not part of the licensed software, as such it must not be used in
                         209 --30: mass-production applications. It can only be used for evaluation and
                         210 --31: demonstration purposes at customer's premises listed in the signed license
                         211 --32: agreement.
                         212 --34: ****************************************************************************
                         213 --36: ****************************************************************************
                         214 --37: */
                         215 --39: #ifdef __cplusplus
                         216 --40: extern "C" {
                         217 --41: #endif
                         218 --43: /***********************************************************
                         219 --44:   Title: Main Module
                         220 --46:   Implementation of the API and other global functions.
                         221 --47: */
                         222 --50: /***********************************************************
                         223 --51:   Section: Includes
                         224 --52: */
                         225 --53: #include "r_typedefs.h"
                         226 --54: #include "r_config_tauj.h"
                         227 --55: #include "r_tauj_regs.h"
                         228 --56: #include "r_tauj_api.h"
                         229 --57: #define  R_TAUJ_MAIN_GLOBALS_
                         230 --58: #include "r_tauj_main.h"
                         231 --59: #include "r_tauj_sys.h"
                         232 --62: /***********************************************************
                         233 --63:   Section: Local Defines

                                                                      Page 5
                                                              C:\Users\Frank\AppData\Local\Temp\gh_0000oso1.si
                         234 --64: */
                         235 --66: /* Timer interval */
                         236 --67: #define LOC_TIME_INTERVAL_0                 (0x0000)
                         237 --68: #define LOC_TIME_INTERVAL_1                 (0x0001)
                         238 --69: #define LOC_TIME_INTERVAL_2                 (0x0002)
                         239 --70: #define LOC_TIME_INTERVAL_3                 (0x0003)
                         240 --71: #define LOC_TIME_INTERVAL_4                 (0x0004)
                         241 --72: #define LOC_TIME_INTERVAL_5                 (0x0005)
                         242 --73: #define LOC_TIME_INTERVAL_6                 (0x0006)
                         243 --74: #define LOC_TIME_INTERVAL_7                 (0x0007)
                         244 --75: #define LOC_TIME_INTERVAL_8                 (0x0008)
                         245 --76: #define LOC_TIME_INTERVAL_9                 (0x0009)
                         246 --77: #define LOC_TIME_INTERVAL_10                (0x000A)
                         247 --78: #define LOC_TIME_INTERVAL_11                (0x000B)
                         248 --79: #define LOC_TIME_INTERVAL_12                (0x000C)
                         249 --80: #define LOC_TIME_INTERVAL_13                (0x000D)
                         250 --81: #define LOC_TIME_INTERVAL_14                (0x000E)
                         251 --82: #define LOC_TIME_INTERVAL_15                (0x000F)
                         252 --84: /* clock source */
                         253 --85: #define LOC_CK_0                            (0x00)
                         254 --86: #define LOC_CK_1                            (0x01)
                         255 --87: #define LOC_CK_2                            (0x02)
                         256 --88: #define LOC_CK_3                            (0x03)
                         257 --90: /* Mode */
                         258 --91: #define LOC_INTERVAL_TIMER_MODE             (0x00)
                         259 --92: #define LOC_RFU_JUDGE_MODE                  (0x01)
                         260 --93: #define LOC_CAPTURE_MODE                    (0x02)
                         261 --94: #define LOC_RFU_EVENT_COUNT_MODE            (0x03)
                         262 --95: #define LOC_ONE_COUNT_MODE                  (0x04)
                         263 --96: #define LOC_RFU_TRIGGER_START_MODE          (0x05)
                         264 --97: #define LOC_CAPTURE_ONE_COUNT_MODE          (0x06)
                         265 --98: #define LOC_RFU_JUDGE_ONE_COUNT_MODE        (0x07)
                         266 --99: #define LOC_RFU_INTERVAL_ONE_COUNT_MODE     (0x08)
                         267 --100: #define LOC_RFU_UP_DOWN_COUNT_MODE          (0x09)
                         268 --101: #define LOC_RFU_PULSE_ONE_COUNT_MODE        (0x0A)
                         269 --102: #define LOC_COUNT_CAPTURE_MODE              (0x0B)
                         270 --103: #define LOC_GATE_COUNT_MODE                 (0x0C)
                         271 --104: #define LOC_CAPTURE_GATE_COUNT_MODE         (0x0D)
                         272 --106: #define LOC_NONE                            (0x00)
                         273 --107: #define LOC_VALID_EDGE_TIN                  (0x01)
                         274 --108: #define LOC_VALID_EITHER_TIN                (0x02)
                         275 --109: #define LOC_RFU_START_TRIG_FROM_MASTER      (0x03)
                         276 --110: #define LOC_INT_FROM_MASTER                 (0x04)
                         277 --111: #define LOC_RFU_INT_FROM_UPPER              (0x05)
                         278 --112: #define LOC_RFU_TOUT_DEAD_TIME              (0x06)
                         279 --113: #define LOC_RFU_UP_DOWN_FROM_MASTER         (0x07)
                         280 --115: #define LOC_COUNT_CLK_PRESCALER             (0x00)
                         281 --116: #define LOC_COUNT_CLK_TIN                   (0x01)
                         282 --117: #define LOC_COUNT_CLK_RFU                   (0x02)
                         283 --118: #define LOC_COUNT_CLK_MASTER_INT_RFU        (0x03)
                         284 --120: #define LOC_CHANNEL_ALL                     (0x000F)
                         285 --122: #define LOC_FALLING_EDGE                    (0x00)
                         286 --123: #define LOC_RISING_EDGE                     (0x01)
                         287 --124: #define LOC_BOTH_LOW_WIDTH                  (0x02)
                         288 --125: #define LOC_BOTH_HIGH_WIDTH                 (0x03)
                         289 --127: #define LOC_NULL 0
                         290 --129: /***********************************************************
                         291 --130:   Section: Local variables
                         292 --131: */
                         293 --134: /***********************************************************
                         294 --135:   Section: Local Functions

                                                                      Page 6
                                                              C:\Users\Frank\AppData\Local\Temp\gh_0000oso1.si
                         295 --136: */
                         296 --137: static uint16_t loc_GetChannelID(r_tauj_Channel_t Channel) ; 
                         297 --138: static uint32_t loc_GetChannelAddress(r_tauj_Channel_t Channel); 
                         298 --139: static void loc_InitRegs(uint32_t Unit); 
                         299 --140:  
                         300 --141: /***********************************************************
                         301 --142:   Variable: _UserErrorHandler
                         302 --144:   A function pointer to a user callback (Applications error handler)
                         303 --146:   The value is assigned by the application using the driver
                         304 --147: */
                         305 --149: static void (*_UserErrorHandler )(uint32_t Unit, uint32_t Error) = LOC_NULL;
                         306 --153: void R_TAUJ_ErrorHandler(uint32_t Unit, r_tauj_Error_t Error) 
                         307 	.text
                         308 ..bof.C.3A.5Cgit.5Crh850.5Csrc.5Capp.5Cgfx_apps.5Csimple_draw.5Ctarget.5Cd1mx_mango_ghs.5Cobj.5Cr_tauj_main...43.3A.5Cgit.5Crh850.5Csrc.5Capp.5Cgfx_apps.5Csimple_draw.5Ctarget.5Cd1mx_mango_ghs..5BC5D027..0::
                         309 	.align	2
                         310 	.global	_R_TAUJ_ErrorHandler
                         311 _R_TAUJ_ErrorHandler:
00000000 8007e170        312 	prepare	{r25,r26,r27,r28,r29,r31},0
00000004 3d0600000000*   313 	mov	.L46,r29
0000000a 06e0            314 	mov	r6,r28
0000000c 07d8            315 	mov	r7,r27
0000000e 1dd0            316 	mov	r29,r26
                         317 --	    .bf
                         318 .LDW01:
                         319 --154: {
                         320 --155:     if (_UserErrorHandler != LOC_NULL) 
00000010 3d0f0100        321 	ld.w	0[r29],r1
00000014 e009            322 	cmp	zero,r1
00000016 820d*           323 	be	.L4
                         324 --156:     {      /* we've got a registered error handler here ...*/
                         325 --157:         _UserErrorHandler(Unit, Error);      /* ... and we gonna use it!*/
                         326 --line157
                         327 ..lin.C.3A.5Cgit.5Crh850.5Csrc.5Capp.5Cgfx_apps.5Csimple_draw.5Ctarget.5Cd1mx_mango_ghs.5Cobj.5Cr_tauj_main.1::
                         328 .LDWlin1:
00000018 3dcf0100        329 	ld.w	0[r29],r25
0000001c 1c30            330 	mov	r28,r6
0000001e 1b38            331 	mov	r27,r7
00000020 f9c760f9        332 	jarl	[r25],lp
00000024 a505*           333 	br	.L6
                         334 .L4:
                         335 --158:     } 
                         336 --159:     else 
                         337 --160:     {
                         338 --161:         for (;;)
                         339 .L9:
                         340 --162:         {                          /* we don't have a handler */
                         341 --line161
                         342 ..lin.C.3A.5Cgit.5Crh850.5Csrc.5Capp.5Cgfx_apps.5Csimple_draw.5Ctarget.5Cd1mx_mango_ghs.5Cobj.5Cr_tauj_main.2::
                         343 .LDWlin2:
00000026 8505*           344 	br	.L9
                         345 .L6:
                         346 --163:         }                                    /* so, let's wait here */
                         347 --164:     }
                         348 --165: }
                         349 --	    .ef
                         350 .LDW11:
                         351 --line165
                         352 ..lin.C.3A.5Cgit.5Crh850.5Csrc.5Capp.5Cgfx_apps.5Csimple_draw.5Ctarget.5Cd1mx_mango_ghs.5Cobj.5Cr_tauj_main.3::
                         353 .LDWlin3:
00000028 4006ff70        354 	dispose	0,{r25,r26,r27,r28,r29,r31},[lp]
                         355 	.type	_R_TAUJ_ErrorHandler,@function

                                                                      Page 7
                                                              C:\Users\Frank\AppData\Local\Temp\gh_0000oso1.si
                         356 	.size	_R_TAUJ_ErrorHandler,.-_R_TAUJ_ErrorHandler
                         357 	.align	2
                         358 .LDW21:
                         359 
                         360 --_Unit	r28	param
                         361 --_Error	r27	param
                         362 
                         363 	.data
                         364 	.align	4
                         365 .L46:
                         366 	.type	.L46,@object
                         367 	.size	.L46,0
                         368 	.global	__UserErrorHandler..C.3A.5Cgit.5Crh850.5Csrc.5Capp.5Cgfx_apps.5Csimple_draw.5Ctarget.5Cd1mx_mango_ghs.5Cobj.5Cr_tauj_main.
                         369 __UserErrorHandler..C.3A.5Cgit.5Crh850.5Csrc.5Capp.5Cgfx_apps.5Csimple_draw.5Ctarget.5Cd1mx_mango_ghs.5Cobj.5Cr_tauj_main.:
00000000 00000000        370 __UserErrorHandler:	.byte	0,0,0,0
                         371 	.type	__UserErrorHandler..C.3A.5Cgit.5Crh850.5Csrc.5Capp.5Cgfx_apps.5Csimple_draw.5Ctarget.5Cd1mx_mango_ghs.5Cobj.5Cr_tauj_main.,@object
                         372 	.size	__UserErrorHandler..C.3A.5Cgit.5Crh850.5Csrc.5Capp.5Cgfx_apps.5Csimple_draw.5Ctarget.5Cd1mx_mango_ghs.5Cobj.5Cr_tauj_main.,4
                         373 	.type	__UserErrorHandler,@object
                         374 	.size	__UserErrorHandler,4
                         375 	.text
                         376 
                         377 
                         378 --168: /***********************************************************
                         379 --169:   Function: loc_GetChannelID
                         380 --171:   converts the channel from an enum to an uint16_t
                         381 --173:   Parameters:
                         382 --174:   Channel        - TAUJ channel number <r_tauj_Channel_t>
                         383 --176:    Returns:
                         384 --177:   u16_channel    - uint16_t version of the enum
                         385 --179: */
                         386 --181: static uint16_t loc_GetChannelID(r_tauj_Channel_t Channel) 
                         387 	.align	2
                         388 	.align	2
                         389 	.global	_loc_GetChannelID..C.3A.5Cgit.5Crh850.5Csrc.5Capp.5Cgfx_apps.5Csimple_draw.5Ctarget.5Cd1mx_mango_ghs.5Cobj.5Cr_tauj_main.
                         390 _loc_GetChannelID..C.3A.5Cgit.5Crh850.5Csrc.5Capp.5Cgfx_apps.5Csimple_draw.5Ctarget.5Cd1mx_mango_ghs.5Cobj.5Cr_tauj_main.:
                         391 _loc_GetChannelID:
0000002c 0670            392 	mov	r6,r14
                         393 --	    .bf
                         394 .LDW31:
                         395 --182: {
                         396 --183:     uint16_t u16_channel = 0x0000;
0000002e 000a            397 	mov	0,r1
                         398 --185:     if (Channel == R_TAUJ_CHANNEL_0) 
00000030 e071            399 	cmp	zero,r14
00000032 ba05*           400 	bne	.L72
                         401 --186:     {
                         402 --187:         u16_channel = 0x0000;
                         403 --line187
                         404 ..lin.C.3A.5Cgit.5Crh850.5Csrc.5Capp.5Cgfx_apps.5Csimple_draw.5Ctarget.5Cd1mx_mango_ghs.5Cobj.5Cr_tauj_main.4::
                         405 .LDWlin4:
00000034 000a            406 	mov	0,r1
00000036 f50d*           407 	br	.L74
                         408 .L72:
                         409 --188:     } 
                         410 --189:     else if (Channel == R_TAUJ_CHANNEL_1) 
                         411 --line189
                         412 ..lin.C.3A.5Cgit.5Crh850.5Csrc.5Capp.5Cgfx_apps.5Csimple_draw.5Ctarget.5Cd1mx_mango_ghs.5Cobj.5Cr_tauj_main.5::
                         413 .LDWlin5:
00000038 6172            414 	cmp	1,r14
0000003a ba05*           415 	bne	.L75
                         416 --190:     {

                                                                      Page 8
                                                              C:\Users\Frank\AppData\Local\Temp\gh_0000oso1.si
                         417 --191:         u16_channel = 0x0001;
                         418 --line191
                         419 ..lin.C.3A.5Cgit.5Crh850.5Csrc.5Capp.5Cgfx_apps.5Csimple_draw.5Ctarget.5Cd1mx_mango_ghs.5Cobj.5Cr_tauj_main.6::
                         420 .LDWlin6:
0000003c 010a            421 	mov	1,r1
0000003e b50d*           422 	br	.L74
                         423 .L75:
                         424 --192:     } 
                         425 --193:     else if ( Channel == R_TAUJ_CHANNEL_2) 
                         426 --line193
                         427 ..lin.C.3A.5Cgit.5Crh850.5Csrc.5Capp.5Cgfx_apps.5Csimple_draw.5Ctarget.5Cd1mx_mango_ghs.5Cobj.5Cr_tauj_main.7::
                         428 .LDWlin7:
00000040 6272            429 	cmp	2,r14
00000042 ba05*           430 	bne	.L78
                         431 --194:     {
                         432 --195:         u16_channel = 0x0002;
                         433 --line195
                         434 ..lin.C.3A.5Cgit.5Crh850.5Csrc.5Capp.5Cgfx_apps.5Csimple_draw.5Ctarget.5Cd1mx_mango_ghs.5Cobj.5Cr_tauj_main.8::
                         435 .LDWlin8:
00000044 020a            436 	mov	2,r1
00000046 f505*           437 	br	.L74
                         438 .L78:
                         439 --196:     } 
                         440 --197:     else if ( Channel == R_TAUJ_CHANNEL_3) 
                         441 --line197
                         442 ..lin.C.3A.5Cgit.5Crh850.5Csrc.5Capp.5Cgfx_apps.5Csimple_draw.5Ctarget.5Cd1mx_mango_ghs.5Cobj.5Cr_tauj_main.9::
                         443 .LDWlin9:
00000048 6372            444 	cmp	3,r14
0000004a ba05*           445 	bne	.L81
                         446 --198:     {
                         447 --199:         u16_channel = 0x0003;
                         448 --line199
                         449 ..lin.C.3A.5Cgit.5Crh850.5Csrc.5Capp.5Cgfx_apps.5Csimple_draw.5Ctarget.5Cd1mx_mango_ghs.5Cobj.5Cr_tauj_main.10::
                         450 .LDWlin10:
0000004c 030a            451 	mov	3,r1
0000004e b505*           452 	br	.L74
                         453 .L81:
                         454 --200:     } 
                         455 --201:     else 
                         456 --202:     {
                         457 --203:         /* error */
                         458 --204:         u16_channel = 0xFFFF;
                         459 --line204
                         460 ..lin.C.3A.5Cgit.5Crh850.5Csrc.5Capp.5Cgfx_apps.5Csimple_draw.5Ctarget.5Cd1mx_mango_ghs.5Cobj.5Cr_tauj_main.11::
                         461 .LDWlin11:
00000050 800effff        462 	ori	65535,zero,r1
                         463 .L74:
                         464 --205:     }
                         465 --207:     return u16_channel;
00000054 0150            466 	mov	r1,r10
                         467 --	    .ef
                         468 .LDW41:
00000056 7f00            469 	jmp	[lp]
                         470 	.type	_loc_GetChannelID,@function
                         471 	.size	_loc_GetChannelID,.-_loc_GetChannelID
                         472 	.type	_loc_GetChannelID..C.3A.5Cgit.5Crh850.5Csrc.5Capp.5Cgfx_apps.5Csimple_draw.5Ctarget.5Cd1mx_mango_ghs.5Cobj.5Cr_tauj_main.,@function
                         473 	.size	_loc_GetChannelID..C.3A.5Cgit.5Crh850.5Csrc.5Capp.5Cgfx_apps.5Csimple_draw.5Ctarget.5Cd1mx_mango_ghs.5Cobj.5Cr_tauj_main.,.-_loc_GetChannelID..C.3A.5Cgit.5Crh850.5Csrc.5Capp.5Cgfx_apps.5Csimple_draw.5Ctarget.5Cd1mx_mango_ghs.5Cobj.5Cr_tauj_main.
                         474 	.align	2
                         475 .LDW51:
                         476 --_u16_channel	r1	local
                         477 

                                                                      Page 9
                                                              C:\Users\Frank\AppData\Local\Temp\gh_0000oso1.si
                         478 --_Channel	r14	param
                         479 
                         480 	.section ".bss","awb"
                         481 .L150:
                         482 	.type	.L150,@object
                         483 	.size	.L150,0
                         484 	.data
                         485 	.text
                         486 
                         487 --208: }
                         488 
                         489 --211: /***********************************************************
                         490 --212:   Function: loc_GetChannelAddress
                         491 --214:   converts the channel to an offset address and assumes registers
                         492 --215:   are spaced by an equal offset of 4 bytes
                         493 --217:   Parameters:
                         494 --218:   Channel        - TAUJ channel number <r_tauj_Channel_t>
                         495 --220:    Returns:
                         496 --221:   ChannelAddress - Address offset of four added to each channel
                         497 --223: */
                         498 --225: static uint32_t loc_GetChannelAddress(r_tauj_Channel_t Channel) 
                         499 	.align	2
                         500 	.align	2
                         501 	.global	_loc_GetChannelAddress..C.3A.5Cgit.5Crh850.5Csrc.5Capp.5Cgfx_apps.5Csimple_draw.5Ctarget.5Cd1mx_mango_ghs.5Cobj.5Cr_tauj_main.
                         502 _loc_GetChannelAddress..C.3A.5Cgit.5Crh850.5Csrc.5Capp.5Cgfx_apps.5Csimple_draw.5Ctarget.5Cd1mx_mango_ghs.5Cobj.5Cr_tauj_main.:
                         503 _loc_GetChannelAddress:
00000058 0670            504 	mov	r6,r14
                         505 --	    .bf
                         506 .LDW61:
                         507 --226: {
                         508 --227:     uint32_t ChannelAddress = 0;
0000005a 000a            509 	mov	0,r1
                         510 --229:     if (Channel == R_TAUJ_CHANNEL_0) 
0000005c e071            511 	cmp	zero,r14
0000005e ba05*           512 	bne	.L194
                         513 --230:     {
                         514 --231:         ChannelAddress = 0;
                         515 --line231
                         516 ..lin.C.3A.5Cgit.5Crh850.5Csrc.5Capp.5Cgfx_apps.5Csimple_draw.5Ctarget.5Cd1mx_mango_ghs.5Cobj.5Cr_tauj_main.12::
                         517 .LDWlin12:
00000060 000a            518 	mov	0,r1
00000062 e50d*           519 	br	.L196
                         520 .L194:
                         521 --232:     } 
                         522 --233:     else if ( Channel == R_TAUJ_CHANNEL_1) 
                         523 --line233
                         524 ..lin.C.3A.5Cgit.5Crh850.5Csrc.5Capp.5Cgfx_apps.5Csimple_draw.5Ctarget.5Cd1mx_mango_ghs.5Cobj.5Cr_tauj_main.13::
                         525 .LDWlin13:
00000064 6172            526 	cmp	1,r14
00000066 ba05*           527 	bne	.L197
                         528 --234:     {
                         529 --235:         ChannelAddress = 1 * 4;
                         530 --line235
                         531 ..lin.C.3A.5Cgit.5Crh850.5Csrc.5Capp.5Cgfx_apps.5Csimple_draw.5Ctarget.5Cd1mx_mango_ghs.5Cobj.5Cr_tauj_main.14::
                         532 .LDWlin14:
00000068 040a            533 	mov	4,r1
0000006a a50d*           534 	br	.L196
                         535 .L197:
                         536 --236:     } 
                         537 --237:     else if ( Channel == R_TAUJ_CHANNEL_2) 
                         538 --line237

                                                                      Page 10
                                                              C:\Users\Frank\AppData\Local\Temp\gh_0000oso1.si
                         539 ..lin.C.3A.5Cgit.5Crh850.5Csrc.5Capp.5Cgfx_apps.5Csimple_draw.5Ctarget.5Cd1mx_mango_ghs.5Cobj.5Cr_tauj_main.15::
                         540 .LDWlin15:
0000006c 6272            541 	cmp	2,r14
0000006e ba05*           542 	bne	.L200
                         543 --238:     {
                         544 --239:         ChannelAddress = 2 * 4;
                         545 --line239
                         546 ..lin.C.3A.5Cgit.5Crh850.5Csrc.5Capp.5Cgfx_apps.5Csimple_draw.5Ctarget.5Cd1mx_mango_ghs.5Cobj.5Cr_tauj_main.16::
                         547 .LDWlin16:
00000070 080a            548 	mov	8,r1
00000072 e505*           549 	br	.L196
                         550 .L200:
                         551 --240:     } 
                         552 --241:     else if ( Channel == R_TAUJ_CHANNEL_3) 
                         553 --line241
                         554 ..lin.C.3A.5Cgit.5Crh850.5Csrc.5Capp.5Cgfx_apps.5Csimple_draw.5Ctarget.5Cd1mx_mango_ghs.5Cobj.5Cr_tauj_main.17::
                         555 .LDWlin17:
00000074 6372            556 	cmp	3,r14
00000076 ba05*           557 	bne	.L203
                         558 --242:     {
                         559 --243:         ChannelAddress = 3 * 4;
                         560 --line243
                         561 ..lin.C.3A.5Cgit.5Crh850.5Csrc.5Capp.5Cgfx_apps.5Csimple_draw.5Ctarget.5Cd1mx_mango_ghs.5Cobj.5Cr_tauj_main.18::
                         562 .LDWlin18:
00000078 0c0a            563 	mov	12,r1
0000007a a505*           564 	br	.L196
                         565 .L203:
                         566 --244:     } 
                         567 --245:     else 
                         568 --246:     {
                         569 --247:         /* error */
                         570 --248:         ChannelAddress = 0xFFFFFFFFu;
                         571 --line248
                         572 ..lin.C.3A.5Cgit.5Crh850.5Csrc.5Capp.5Cgfx_apps.5Csimple_draw.5Ctarget.5Cd1mx_mango_ghs.5Cobj.5Cr_tauj_main.19::
                         573 .LDWlin19:
0000007c 1f0a            574 	mov	-1,r1
                         575 .L196:
                         576 --249:     }
                         577 --251:     return ChannelAddress;
0000007e 0150            578 	mov	r1,r10
                         579 --	    .ef
                         580 .LDW71:
00000080 7f00            581 	jmp	[lp]
                         582 	.type	_loc_GetChannelAddress,@function
                         583 	.size	_loc_GetChannelAddress,.-_loc_GetChannelAddress
                         584 	.type	_loc_GetChannelAddress..C.3A.5Cgit.5Crh850.5Csrc.5Capp.5Cgfx_apps.5Csimple_draw.5Ctarget.5Cd1mx_mango_ghs.5Cobj.5Cr_tauj_main.,@function
                         585 	.size	_loc_GetChannelAddress..C.3A.5Cgit.5Crh850.5Csrc.5Capp.5Cgfx_apps.5Csimple_draw.5Ctarget.5Cd1mx_mango_ghs.5Cobj.5Cr_tauj_main.,.-_loc_GetChannelAddress..C.3A.5Cgit.5Crh850.5Csrc.5Capp.5Cgfx_apps.5Csimple_draw.5Ctarget.5Cd1mx_mango_ghs.5Cobj.5Cr_tauj_main.
                         586 	.align	2
                         587 .LDW81:
                         588 --_ChannelAddress	r1	local
                         589 
                         590 --_Channel	r14	param
                         591 
                         592 	.section ".bss","awb"
                         593 .L262:
                         594 	.type	.L262,@object
                         595 	.size	.L262,0
                         596 	.data
                         597 	.text
                         598 
                         599 --252: }

                                                                      Page 11
                                                              C:\Users\Frank\AppData\Local\Temp\gh_0000oso1.si
                         600 
                         601 --254: #ifndef R_TAUJ_LIMIT_INIT 
                         602 --255: /***********************************************************
                         603 --256:   Function: loc_InitRegs
                         604 --258:   Updates all the writeable registers in the TAUJ with their default
                         605 --259:   reset values
                         606 --261:   Parameters:
                         607 --262:   Channel        - TAUJ channel number <r_tauj_Channel_t>
                         608 --264:    Returns:
                         609 --265:    none
                         610 --267: */
                         611 --268: static void loc_InitRegs(uint32_t Unit) 
                         612 	.align	2
                         613 	.align	2
                         614 	.global	_loc_InitRegs..C.3A.5Cgit.5Crh850.5Csrc.5Capp.5Cgfx_apps.5Csimple_draw.5Ctarget.5Cd1mx_mango_ghs.5Cobj.5Cr_tauj_main.
                         615 _loc_InitRegs..C.3A.5Cgit.5Crh850.5Csrc.5Capp.5Cgfx_apps.5Csimple_draw.5Ctarget.5Cd1mx_mango_ghs.5Cobj.5Cr_tauj_main.:
                         616 _loc_InitRegs:
00000082 8007e130        617 	prepare	{r26,r27,r28,r29,r31},0
00000086 06d0            618 	mov	r6,r26
                         619 --	    .bf
                         620 .LDW91:
                         621 --269: {
                         622 --270:     uint32_t i              = 0;
00000088 00da            623 	mov	0,r27
                         624 --271:     uint32_t base_address   = 0;
0000008a 00ea            625 	mov	0,r29
                         626 --272:     uint32_t offset_address = 0;
0000008c 00e2            627 	mov	0,r28
                         628 --274:     base_address = R_TAUJ_Dev[Unit].BaseAddr;
0000008e 1af0            629 	mov	r26,ep
00000090 fe00            630 	sxh	ep
00000092 fef61400        631 	mulhi	20,ep,ep
00000096 2e0600000000*   632 	mov	_R_TAUJ_Dev,r14
0000009c cef1            633 	add	r14,ep
0000009e 00ed            634 	sld.w	0[ep],r29
                         635 --276:     /* channels should be stopped first */
                         636 --277:     /* update the TT Channel Stop Trigger Register */
                         637 --278:     R_TAUJ_WRITE16(base_address + R_TAUJ0_TT, 0xFFFF);
000000a0 800effff        638 	ori	65535,zero,r1
000000a4 7d0f5800        639 	st.h	r1,88[r29]
                         640 --280:     /* update the TOE Channel Output Enable Register*/
                         641 --281:     R_TAUJ_WRITE16(base_address + R_TAUJ0_TOE, 0);
000000a8 7d076000        642 	st.h	zero,96[r29]
                         643 --283:     for(i = 0; i < R_TAUJ_NUM_CHANNELS; i++) 
000000ac 00da            644 	mov	0,r27
000000ae 0000            645 	nop
                         646 .L308:
                         647 --284:     {
                         648 --285:         /* update the CMOR Channel Mode OS Register */
                         649 --286:         offset_address = R_TAUJ0_CMOR0 + loc_GetChannelAddress((r_tauj_Channel_t) i);
000000b0 1b30            650 	mov	r27,r6
                         651 	jarl	_loc_GetChannelAddress,lp
                         651 <EXPANSION BEGIN>
                         651 jarl22 _loc_GetChannelAddress , lp 
000000b2 bfffa6ff*       651 <EXPANSION END>
000000b6 0ae68000        652 	addi	128,r10,r28
                         653 --287:         R_TAUJ_WRITE16(base_address + offset_address, 0);
                         654 --line287
                         655 ..lin.C.3A.5Cgit.5Crh850.5Csrc.5Capp.5Cgfx_apps.5Csimple_draw.5Ctarget.5Cd1mx_mango_ghs.5Cobj.5Cr_tauj_main.20::
                         656 .LDWlin20:
000000ba 1cf0            657 	mov	r28,ep

                                                                      Page 12
                                                              C:\Users\Frank\AppData\Local\Temp\gh_0000oso1.si
000000bc ddf1            658 	add	r29,ep
000000be 8004            659 	sst.h	zero,0[ep]
                         660 --289:         /* update the CDR Channel Data Register */
                         661 --290:         offset_address = R_TAUJ0_CDR0 + loc_GetChannelAddress((r_tauj_Channel_t) i);
000000c0 1b30            662 	mov	r27,r6
                         663 	jarl	_loc_GetChannelAddress,lp
                         663 <EXPANSION BEGIN>
                         663 jarl22 _loc_GetChannelAddress , lp 
000000c2 bfff96ff*       663 <EXPANSION END>
000000c6 0ae0            664 	mov	r10,r28
                         665 --291:         R_TAUJ_WRITE32(base_address + offset_address, 0);
                         666 --line291
                         667 ..lin.C.3A.5Cgit.5Crh850.5Csrc.5Capp.5Cgfx_apps.5Csimple_draw.5Ctarget.5Cd1mx_mango_ghs.5Cobj.5Cr_tauj_main.21::
                         668 .LDWlin21:
000000c8 1cf0            669 	mov	r28,ep
000000ca ddf1            670 	add	r29,ep
000000cc 0105            671 	sst.w	zero,0[ep]
                         672 --293:         /* update the CMUR TAU Channel Mode User Register */
                         673 --294:         offset_address = R_TAUJ0_CMUR0 + loc_GetChannelAddress((r_tauj_Channel_t) i);
000000ce 1b30            674 	mov	r27,r6
                         675 	jarl	_loc_GetChannelAddress,lp
                         675 <EXPANSION BEGIN>
                         675 jarl22 _loc_GetChannelAddress , lp 
000000d0 bfff88ff*       675 <EXPANSION END>
000000d4 0ae62000        676 	addi	32,r10,r28
                         677 --295:         R_TAUJ_WRITE16(base_address + offset_address, 0);
                         678 --line295
                         679 ..lin.C.3A.5Cgit.5Crh850.5Csrc.5Capp.5Cgfx_apps.5Csimple_draw.5Ctarget.5Cd1mx_mango_ghs.5Cobj.5Cr_tauj_main.22::
                         680 .LDWlin22:
000000d8 1cf0            681 	mov	r28,ep
000000da ddf1            682 	add	r29,ep
000000dc 8004            683 	sst.h	zero,0[ep]
                         684 --297:         /* update the CSC Channel Status Clear Register*/
                         685 --298:         offset_address = R_TAUJ0_CSC0 + loc_GetChannelAddress((r_tauj_Channel_t) i);
000000de 1b30            686 	mov	r27,r6
                         687 	jarl	_loc_GetChannelAddress,lp
                         687 <EXPANSION BEGIN>
                         687 jarl22 _loc_GetChannelAddress , lp 
000000e0 bfff78ff*       687 <EXPANSION END>
000000e4 0ae64000        688 	addi	64,r10,r28
                         689 --299:         R_TAUJ_WRITE16(base_address + offset_address, 1);
                         690 --line299
                         691 ..lin.C.3A.5Cgit.5Crh850.5Csrc.5Capp.5Cgfx_apps.5Csimple_draw.5Ctarget.5Cd1mx_mango_ghs.5Cobj.5Cr_tauj_main.23::
                         692 .LDWlin23:
000000e8 1cf0            693 	mov	r28,ep
000000ea ddf1            694 	add	r29,ep
000000ec 010a            695 	mov	1,r1
000000ee 800c            696 	sst.h	r1,0[ep]
000000f0 41da            697 	add	1,r27
000000f2 64da            698 	cmp	4,r27
000000f4 e1dd*           699 	bl	.L308
                         700 --300:     }
                         701 --302:     /* update the TPS Prescaler Clock Select Register */
                         702 --303:     R_TAUJ_WRITE16(base_address + R_TAUJ0_TPS, 0xFFFF);
                         703 --line303
                         704 ..lin.C.3A.5Cgit.5Crh850.5Csrc.5Capp.5Cgfx_apps.5Csimple_draw.5Ctarget.5Cd1mx_mango_ghs.5Cobj.5Cr_tauj_main.24::
                         705 .LDWlin24:
000000f6 800effff        706 	ori	65535,zero,r1
000000fa 7d0f9000        707 	st.h	r1,144[r29]
                         708 --305:     /* update the BRS Prescaler Baud Rate Setting Register */
                         709 --306:     R_TAUJ_WRITE16(base_address + R_TAUJ0_BRS, 0x00FF);

                                                                      Page 13
                                                              C:\Users\Frank\AppData\Local\Temp\gh_0000oso1.si
000000fe 200eff00        710 	movea	255,zero,r1
00000102 7d0f9400        711 	st.h	r1,148[r29]
                         712 --308:     /* update the TO Channel Output Register */
                         713 --309:     R_TAUJ_WRITE16(base_address + R_TAUJ0_TO, 0);
00000106 7d075c00        714 	st.h	zero,92[r29]
                         715 --311:     /* update the RDE Channel Reload Data Enable Register */
                         716 --312:     R_TAUJ_WRITE16(base_address + R_TAUJ0_RDE, 0);
0000010a 7d07a000        717 	st.h	zero,160[r29]
                         718 --314:     /* update the RDM Channel Reload Data Mode Register */
                         719 --315:     R_TAUJ_WRITE16(base_address + R_TAUJ0_RDM, 0);
0000010e 7d07a400        720 	st.h	zero,164[r29]
                         721 --317:     /* update the RDT CChannel Reload Data Trigger Register */
                         722 --318:     R_TAUJ_WRITE16(base_address + R_TAUJ0_RDT, 0);
00000112 7d076800        723 	st.h	zero,104[r29]
                         724 --320:     /* update the TS Channel Start Trigger Register */
                         725 --321:     R_TAUJ_WRITE16(base_address + R_TAUJ0_TS, 0);
00000116 7d075400        726 	st.h	zero,84[r29]
                         727 --323:     /* update the TOM Channel Output Mode Register */
                         728 --324:     R_TAUJ_WRITE16(base_address + R_TAUJ0_TOM, 0);
0000011a 7d079800        729 	st.h	zero,152[r29]
                         730 --326:     /* update the TOC Channel Output Configuration Register */
                         731 --327:     R_TAUJ_WRITE16(base_address + R_TAUJ0_TOC, 0);
0000011e 7d079c00        732 	st.h	zero,156[r29]
                         733 --329:     /* update the TOL Channel Output Level Register */
                         734 --330:     R_TAUJ_WRITE16(base_address + R_TAUJ0_TOL, 0);
00000122 7d076400        735 	st.h	zero,100[r29]
                         736 --332:     /* update the EMU Register */
                         737 --333:     R_TAUJ_WRITE16(base_address + R_TAUJ0_EMU, LOC_SVSTOP);
00000126 7d07a800        738 	st.h	zero,168[r29]
                         739 --334: }
                         740 --	    .ef
                         741 .LDW02:
0000012a 4006ff30        742 	dispose	0,{r26,r27,r28,r29,r31},[lp]
                         743 	.type	_loc_InitRegs,@function
                         744 	.size	_loc_InitRegs,.-_loc_InitRegs
                         745 	.type	_loc_InitRegs..C.3A.5Cgit.5Crh850.5Csrc.5Capp.5Cgfx_apps.5Csimple_draw.5Ctarget.5Cd1mx_mango_ghs.5Cobj.5Cr_tauj_main.,@function
                         746 	.size	_loc_InitRegs..C.3A.5Cgit.5Crh850.5Csrc.5Capp.5Cgfx_apps.5Csimple_draw.5Ctarget.5Cd1mx_mango_ghs.5Cobj.5Cr_tauj_main.,.-_loc_InitRegs..C.3A.5Cgit.5Crh850.5Csrc.5Capp.5Cgfx_apps.5Csimple_draw.5Ctarget.5Cd1mx_mango_ghs.5Cobj.5Cr_tauj_main.
                         747 	.align	2
                         748 .LDW12:
                         749 --_i	r27	local
                         750 --_base_address	r29	local
                         751 --_offset_address	r28	local
                         752 
                         753 --_Unit	r26	param
                         754 
                         755 	.section ".bss","awb"
                         756 .L450:
                         757 	.type	.L450,@object
                         758 	.size	.L450,0
                         759 	.data
                         760 	.text
                         761 
                         762 
                         763 --335: #endif
                         764 --337: /***********************************************************
                         765 --338:   Section: Global API Functions
                         766 --339: */
                         767 --341: /***********************************************************
                         768 --342:   Function: R_TAUJ_Init
                         769 --343: */
                         770 --345: r_tauj_Error_t R_TAUJ_Init(uint32_t Unit) 

                                                                      Page 14
                                                              C:\Users\Frank\AppData\Local\Temp\gh_0000oso1.si
                         771 	.align	2
                         772 	.align	2
                         773 	.global	_R_TAUJ_Init
                         774 _R_TAUJ_Init:
0000012e 8007e130        775 	prepare	{r26,r27,r28,r29,r31},0
00000132 06e8            776 	mov	r6,r29
00000134 3c0600000000*   777 	mov	_R_TAUJ_Dev,r28
                         778 --	    .bf
                         779 .LDW22:
                         780 --346: {
                         781 --347:     r_tauj_Error_t error_mode = R_TAUJ_ERR_OK;
0000013a 00da            782 	mov	0,r27
                         783 --349:     /* check the instance is allowed */
                         784 --350:     if ( Unit > (R_TAUJ_MACRO_NUM - 1)) 
0000013c e0e9            785 	cmp	zero,r29
0000013e b305*           786 	bnh	.L551
                         787 --351:     {
                         788 --352:         /* instance too high */
                         789 --353:         error_mode = R_TAUJ_ERR_INSTANCE;
                         790 --line353
                         791 ..lin.C.3A.5Cgit.5Crh850.5Csrc.5Capp.5Cgfx_apps.5Csimple_draw.5Ctarget.5Cd1mx_mango_ghs.5Cobj.5Cr_tauj_main.25::
                         792 .LDWlin25:
00000140 03da            793 	mov	3,r27
00000142 952d*           794 	br	.L553
                         795 .L551:
                         796 --354:     } 
                         797 --355:     else 
                         798 --356:     {
                         799 --357:         /* update the BaseAddr */
                         800 --358:         R_TAUJ_Dev[Unit].BaseAddr = R_TAUJ_Sys_GetBaseAddr(Unit);
                         801 --line358
                         802 ..lin.C.3A.5Cgit.5Crh850.5Csrc.5Capp.5Cgfx_apps.5Csimple_draw.5Ctarget.5Cd1mx_mango_ghs.5Cobj.5Cr_tauj_main.26::
                         803 .LDWlin26:
00000144 1dd0            804 	mov	r29,r26
00000146 fa00            805 	sxh	r26
00000148 fad61400        806 	mulhi	20,r26,r26
0000014c 1d30            807 	mov	r29,r6
0000014e dcd1            808 	add	r28,r26
                         809 	jarl	_R_TAUJ_Sys_GetBaseAddr,lp
                         809 <EXPANSION BEGIN>
                         809 jarl22 _R_TAUJ_Sys_GetBaseAddr , lp 
00000150 80ff0000*       809 <EXPANSION END>
00000154 7a570100        810 	st.w	r10,0[r26]
                         811 --359: #ifndef TAUJ_LIMIT_INIT 
                         812 --360:         loc_InitRegs(Unit);
                         813 --line360
                         814 ..lin.C.3A.5Cgit.5Crh850.5Csrc.5Capp.5Cgfx_apps.5Csimple_draw.5Ctarget.5Cd1mx_mango_ghs.5Cobj.5Cr_tauj_main.27::
                         815 .LDWlin27:
00000158 1d30            816 	mov	r29,r6
                         817 	jarl	_loc_InitRegs,lp
                         817 <EXPANSION BEGIN>
                         817 jarl22 _loc_InitRegs , lp 
0000015a bfff28ff*       817 <EXPANSION END>
                         818 --361: #endif
                         819 --362:         /* Set the default callbacks for all interrupts  */
                         820 --363:         R_TAUJ_Dev[Unit].IsrCallback[R_TAUJ_INT_CH0]   = LOC_NULL;
                         821 --line363
                         822 ..lin.C.3A.5Cgit.5Crh850.5Csrc.5Capp.5Cgfx_apps.5Csimple_draw.5Ctarget.5Cd1mx_mango_ghs.5Cobj.5Cr_tauj_main.28::
                         823 .LDWlin28:
0000015e 1df0            824 	mov	r29,ep
00000160 fe00            825 	sxh	ep

                                                                      Page 15
                                                              C:\Users\Frank\AppData\Local\Temp\gh_0000oso1.si
00000162 fef61400        826 	mulhi	20,ep,ep
00000166 dcf1            827 	add	r28,ep
00000168 0305            828 	sst.w	zero,4[ep]
                         829 --364:         R_TAUJ_Dev[Unit].IsrCallback[R_TAUJ_INT_CH1]   = LOC_NULL;
0000016a 1df0            830 	mov	r29,ep
0000016c fe00            831 	sxh	ep
0000016e fef61400        832 	mulhi	20,ep,ep
00000172 dcf1            833 	add	r28,ep
00000174 0505            834 	sst.w	zero,8[ep]
                         835 --365:         R_TAUJ_Dev[Unit].IsrCallback[R_TAUJ_INT_CH2]   = LOC_NULL;
00000176 1df0            836 	mov	r29,ep
00000178 fe00            837 	sxh	ep
0000017a fef61400        838 	mulhi	20,ep,ep
0000017e dcf1            839 	add	r28,ep
00000180 0705            840 	sst.w	zero,12[ep]
                         841 --366:         R_TAUJ_Dev[Unit].IsrCallback[R_TAUJ_INT_CH3]   = LOC_NULL;
00000182 1df0            842 	mov	r29,ep
00000184 fe00            843 	sxh	ep
00000186 fef61400        844 	mulhi	20,ep,ep
0000018a dcf1            845 	add	r28,ep
0000018c 0905            846 	sst.w	zero,16[ep]
                         847 --368:         /* Setup device interrupt controller */
                         848 --369:         R_TAUJ_Sys_IntCInit(Unit);
0000018e 1d30            849 	mov	r29,r6
                         850 	jarl	_R_TAUJ_Sys_IntCInit,lp
                         850 <EXPANSION BEGIN>
                         850 jarl22 _R_TAUJ_Sys_IntCInit , lp 
00000190 80ff0000*       850 <EXPANSION END>
                         851 .L553:
                         852 --370:     }
                         853 --372:     return error_mode;
                         854 --line372
                         855 ..lin.C.3A.5Cgit.5Crh850.5Csrc.5Capp.5Cgfx_apps.5Csimple_draw.5Ctarget.5Cd1mx_mango_ghs.5Cobj.5Cr_tauj_main.29::
                         856 .LDWlin29:
00000194 1b50            857 	mov	r27,r10
                         858 --	    .ef
                         859 .LDW32:
00000196 4006ff30        860 	dispose	0,{r26,r27,r28,r29,r31},[lp]
                         861 	.type	_R_TAUJ_Init,@function
                         862 	.size	_R_TAUJ_Init,.-_R_TAUJ_Init
                         863 	.align	2
                         864 .LDW42:
                         865 --_error_mode	r27	local
                         866 
                         867 --_Unit	r29	param
                         868 
                         869 	.section ".bss","awb"
                         870 .L614:
                         871 	.type	.L614,@object
                         872 	.size	.L614,0
                         873 	.data
                         874 	.text
                         875 
                         876 --373: }
                         877 
                         878 --376: /***********************************************************
                         879 --377:   Function: R_TAUJ_InitChannel
                         880 --378: */
                         881 --380: r_tauj_Error_t R_TAUJ_InitChannel(uint32_t Unit, r_tauj_Channel_t Channel) 
                         882 	.align	2
                         883 	.align	2

                                                                      Page 16
                                                              C:\Users\Frank\AppData\Local\Temp\gh_0000oso1.si
                         884 	.global	_R_TAUJ_InitChannel
                         885 _R_TAUJ_InitChannel:
0000019a 8407e170        886 	prepare	{r25,r26,r27,r28,r29,r31},2
0000019e 63370500        887 	st.w	r6,4[sp]
000001a2 07d8            888 	mov	r7,r27
                         889 --	    .bf
                         890 .LDW52:
                         891 --381: {
                         892 --382:     r_tauj_Error_t  error_mode      = R_TAUJ_ERR_OK;
000001a4 00ca            893 	mov	0,r25
                         894 --383:     uint16_t        ichannel        = 0;
000001a6 63070200        895 	st.h	zero,2[sp]
000001aa 005a            896 	mov	0,r11
                         897 --384:     uint16_t        u16_temp        = 0;
000001ac 00ea            898 	mov	0,r29
                         899 --385:     uint32_t        base_address    = 0;
000001ae 00e2            900 	mov	0,r28
                         901 --386:     uint32_t        offset_address  = 0;
000001b0 00d2            902 	mov	0,r26
                         903 --388:     /* check the instance is allowed */
                         904 --389:     if (Unit > (R_TAUJ_MACRO_NUM - 1)) 
000001b2 235f0500        905 	ld.w	4[sp],r11
000001b6 e059            906 	cmp	zero,r11
000001b8 c305*           907 	bnh	.L658
                         908 --390:     {
                         909 --391:         /* instance too high */
                         910 --392:         error_mode = R_TAUJ_ERR_INSTANCE;
                         911 --line392
                         912 ..lin.C.3A.5Cgit.5Crh850.5Csrc.5Capp.5Cgfx_apps.5Csimple_draw.5Ctarget.5Cd1mx_mango_ghs.5Cobj.5Cr_tauj_main.30::
                         913 .LDWlin30:
000001ba 03ca            914 	mov	3,r25
000001bc 80076001*       915 	br	.L660
                         916 .L658:
                         917 --393:     } 
                         918 --394:     else 
                         919 --395:     {
                         920 --396:         ichannel = loc_GetChannelID(Channel);
                         921 --line396
                         922 ..lin.C.3A.5Cgit.5Crh850.5Csrc.5Capp.5Cgfx_apps.5Csimple_draw.5Ctarget.5Cd1mx_mango_ghs.5Cobj.5Cr_tauj_main.31::
                         923 .LDWlin31:
000001c0 1b30            924 	mov	r27,r6
                         925 	jarl	_loc_GetChannelID,lp
                         925 <EXPANSION BEGIN>
                         925 jarl22 _loc_GetChannelID , lp 
000001c2 bfff6afe*       925 <EXPANSION END>
000001c6 63570200        926 	st.h	r10,2[sp]
                         927 --398:         /* make sure the channel number is in range */
                         928 --399:         if ( ichannel < R_TAUJ_NUM_CHANNELS) 
                         929 --line399
                         930 ..lin.C.3A.5Cgit.5Crh850.5Csrc.5Capp.5Cgfx_apps.5Csimple_draw.5Ctarget.5Cd1mx_mango_ghs.5Cobj.5Cr_tauj_main.32::
                         931 .LDWlin32:
000001ca e35f0300        932 	ld.hu	2[sp],r11
000001ce 645a            933 	cmp	4,r11
000001d0 e9074b01*       934 	bnl	.L661
                         935 --400:         {
                         936 --401:             base_address = R_TAUJ_Dev[Unit].BaseAddr;
                         937 --line401
                         938 ..lin.C.3A.5Cgit.5Crh850.5Csrc.5Capp.5Cgfx_apps.5Csimple_draw.5Ctarget.5Cd1mx_mango_ghs.5Cobj.5Cr_tauj_main.33::
                         939 .LDWlin33:
000001d4 235f0500        940 	ld.w	4[sp],r11
000001d8 2e0600000000*   941 	mov	_R_TAUJ_Dev,r14

                                                                      Page 17
                                                              C:\Users\Frank\AppData\Local\Temp\gh_0000oso1.si
000001de 0bf0            942 	mov	r11,ep
000001e0 fe00            943 	sxh	ep
000001e2 fef61400        944 	mulhi	20,ep,ep
000001e6 cef1            945 	add	r14,ep
000001e8 00e5            946 	sld.w	0[ep],r28
                         947 --403:             /* update the CDR */
                         948 --404:             offset_address = R_TAUJ0_CDR0 + loc_GetChannelAddress(Channel);
000001ea 1b30            949 	mov	r27,r6
                         950 	jarl	_loc_GetChannelAddress,lp
                         950 <EXPANSION BEGIN>
                         950 jarl22 _loc_GetChannelAddress , lp 
000001ec bfff6cfe*       950 <EXPANSION END>
000001f0 0ad0            951 	mov	r10,r26
                         952 --405:             R_TAUJ_WRITE32(base_address + offset_address, 0);
                         953 --line405
                         954 ..lin.C.3A.5Cgit.5Crh850.5Csrc.5Capp.5Cgfx_apps.5Csimple_draw.5Ctarget.5Cd1mx_mango_ghs.5Cobj.5Cr_tauj_main.34::
                         955 .LDWlin34:
000001f2 1af0            956 	mov	r26,ep
000001f4 dcf1            957 	add	r28,ep
000001f6 0105            958 	sst.w	zero,0[ep]
                         959 --407:             /* update the CMOR */
                         960 --408:             offset_address = R_TAUJ0_CMOR0 + loc_GetChannelAddress(Channel);
000001f8 1b30            961 	mov	r27,r6
                         962 	jarl	_loc_GetChannelAddress,lp
                         962 <EXPANSION BEGIN>
                         962 jarl22 _loc_GetChannelAddress , lp 
000001fa bfff5efe*       962 <EXPANSION END>
000001fe 0ad68000        963 	addi	128,r10,r26
                         964 --409:             R_TAUJ_WRITE16(base_address + offset_address, 0);
                         965 --line409
                         966 ..lin.C.3A.5Cgit.5Crh850.5Csrc.5Capp.5Cgfx_apps.5Csimple_draw.5Ctarget.5Cd1mx_mango_ghs.5Cobj.5Cr_tauj_main.35::
                         967 .LDWlin35:
00000202 1af0            968 	mov	r26,ep
00000204 dcf1            969 	add	r28,ep
00000206 8004            970 	sst.h	zero,0[ep]
                         971 --411:             /* update the CMUR */
                         972 --412:             offset_address = R_TAUJ0_CMUR0 + loc_GetChannelAddress(Channel);
00000208 1b30            973 	mov	r27,r6
                         974 	jarl	_loc_GetChannelAddress,lp
                         974 <EXPANSION BEGIN>
                         974 jarl22 _loc_GetChannelAddress , lp 
0000020a bfff4efe*       974 <EXPANSION END>
0000020e 0ad62000        975 	addi	32,r10,r26
                         976 --413:             R_TAUJ_WRITE16(base_address + offset_address, 0);
                         977 --line413
                         978 ..lin.C.3A.5Cgit.5Crh850.5Csrc.5Capp.5Cgfx_apps.5Csimple_draw.5Ctarget.5Cd1mx_mango_ghs.5Cobj.5Cr_tauj_main.36::
                         979 .LDWlin36:
00000212 1af0            980 	mov	r26,ep
00000214 dcf1            981 	add	r28,ep
00000216 8004            982 	sst.h	zero,0[ep]
                         983 --415:             /* update the CSC */
                         984 --416:             offset_address = R_TAUJ0_CSC0 + loc_GetChannelAddress(Channel);
00000218 1b30            985 	mov	r27,r6
                         986 	jarl	_loc_GetChannelAddress,lp
                         986 <EXPANSION BEGIN>
                         986 jarl22 _loc_GetChannelAddress , lp 
0000021a bfff3efe*       986 <EXPANSION END>
0000021e 0ad64000        987 	addi	64,r10,r26
                         988 --417:             R_TAUJ_WRITE16(base_address + offset_address, 0);
                         989 --line417
                         990 ..lin.C.3A.5Cgit.5Crh850.5Csrc.5Capp.5Cgfx_apps.5Csimple_draw.5Ctarget.5Cd1mx_mango_ghs.5Cobj.5Cr_tauj_main.37::

                                                                      Page 18
                                                              C:\Users\Frank\AppData\Local\Temp\gh_0000oso1.si
                         991 .LDWlin37:
00000222 1af0            992 	mov	r26,ep
00000224 dcf1            993 	add	r28,ep
00000226 8004            994 	sst.h	zero,0[ep]
                         995 --419:             /* update the TS */
                         996 --420:             u16_temp = R_TAUJ_READ16(base_address + R_TAUJ0_TS);
00000228 fcef5500        997 	ld.hu	84[r28],r29
                         998 --421:             R_TAUJ_CLR_BIT(u16_temp, Channel);
0000022c 010a            999 	mov	1,r1
0000022e fb0fc208       1000 	shl	r27,r1,r1
00000232 c100           1001 	zxh	r1
00000234 2108           1002 	not	r1,r1
00000236 c100           1003 	zxh	r1
00000238 41e9           1004 	and	r1,r29
0000023a dd00           1005 	zxh	r29
                        1006 --422:             R_TAUJ_WRITE16(base_address + R_TAUJ0_TS, 0);
0000023c 7c075400       1007 	st.h	zero,84[r28]
                        1008 --424:             /* update the TT */
                        1009 --425:             u16_temp = R_TAUJ_READ16(base_address + R_TAUJ0_TT);
00000240 fcef5900       1010 	ld.hu	88[r28],r29
                        1011 --426:             R_TAUJ_CLR_BIT(u16_temp, Channel);
00000244 010a           1012 	mov	1,r1
00000246 fb0fc208       1013 	shl	r27,r1,r1
0000024a c100           1014 	zxh	r1
0000024c 2108           1015 	not	r1,r1
0000024e c100           1016 	zxh	r1
00000250 41e9           1017 	and	r1,r29
00000252 dd00           1018 	zxh	r29
                        1019 --427:             R_TAUJ_WRITE16(base_address + R_TAUJ0_TT, 0);
00000254 7c075800       1020 	st.h	zero,88[r28]
                        1021 --429:             /* update the TO */
                        1022 --430:             u16_temp = R_TAUJ_READ16(base_address + R_TAUJ0_TO);
00000258 fcef5d00       1023 	ld.hu	92[r28],r29
                        1024 --431:             R_TAUJ_CLR_BIT(u16_temp, Channel);
0000025c 010a           1025 	mov	1,r1
0000025e fb0fc208       1026 	shl	r27,r1,r1
00000262 c100           1027 	zxh	r1
00000264 2108           1028 	not	r1,r1
00000266 c100           1029 	zxh	r1
00000268 41e9           1030 	and	r1,r29
0000026a dd00           1031 	zxh	r29
                        1032 --432:             R_TAUJ_WRITE16(base_address + R_TAUJ0_TO, 0);
0000026c 7c075c00       1033 	st.h	zero,92[r28]
                        1034 --434:             /* update the TOE */
                        1035 --435:             u16_temp = R_TAUJ_READ16(base_address + R_TAUJ0_TOE);
00000270 fcef6100       1036 	ld.hu	96[r28],r29
                        1037 --436:             R_TAUJ_CLR_BIT(u16_temp, Channel);
00000274 010a           1038 	mov	1,r1
00000276 fb0fc208       1039 	shl	r27,r1,r1
0000027a c100           1040 	zxh	r1
0000027c 2108           1041 	not	r1,r1
0000027e c100           1042 	zxh	r1
00000280 41e9           1043 	and	r1,r29
00000282 dd00           1044 	zxh	r29
                        1045 --437:             R_TAUJ_WRITE16(base_address + R_TAUJ0_TOE, 0);
00000284 7c076000       1046 	st.h	zero,96[r28]
                        1047 --439:             /* update the TOM */
                        1048 --440:             u16_temp = R_TAUJ_READ16(base_address + R_TAUJ0_TOM);
00000288 fcef9900       1049 	ld.hu	152[r28],r29
                        1050 --441:             R_TAUJ_CLR_BIT(u16_temp, Channel);
0000028c 010a           1051 	mov	1,r1

                                                                      Page 19
                                                              C:\Users\Frank\AppData\Local\Temp\gh_0000oso1.si
0000028e fb0fc208       1052 	shl	r27,r1,r1
00000292 c100           1053 	zxh	r1
00000294 2108           1054 	not	r1,r1
00000296 c100           1055 	zxh	r1
00000298 41e9           1056 	and	r1,r29
0000029a dd00           1057 	zxh	r29
                        1058 --442:             R_TAUJ_WRITE16(base_address + R_TAUJ0_TOM, 0);
0000029c 7c079800       1059 	st.h	zero,152[r28]
                        1060 --444:             /* update the TOC */
                        1061 --445:             u16_temp = R_TAUJ_READ16(base_address + R_TAUJ0_TOC);
000002a0 fcef9d00       1062 	ld.hu	156[r28],r29
                        1063 --446:             R_TAUJ_CLR_BIT(u16_temp, Channel);
000002a4 010a           1064 	mov	1,r1
000002a6 fb0fc208       1065 	shl	r27,r1,r1
000002aa c100           1066 	zxh	r1
000002ac 2108           1067 	not	r1,r1
000002ae c100           1068 	zxh	r1
000002b0 41e9           1069 	and	r1,r29
000002b2 dd00           1070 	zxh	r29
                        1071 --447:             R_TAUJ_WRITE16(base_address + R_TAUJ0_TOC, 0);
000002b4 7c079c00       1072 	st.h	zero,156[r28]
                        1073 --449:             /* update the TOL */
                        1074 --450:             u16_temp = R_TAUJ_READ16(base_address + R_TAUJ0_TOL);
000002b8 fcef6500       1075 	ld.hu	100[r28],r29
                        1076 --451:             R_TAUJ_CLR_BIT(u16_temp, Channel);
000002bc 010a           1077 	mov	1,r1
000002be fb0fc208       1078 	shl	r27,r1,r1
000002c2 c100           1079 	zxh	r1
000002c4 2108           1080 	not	r1,r1
000002c6 c100           1081 	zxh	r1
000002c8 41e9           1082 	and	r1,r29
000002ca dd00           1083 	zxh	r29
                        1084 --452:             R_TAUJ_WRITE16(base_address + R_TAUJ0_TOL, 0);
000002cc 7c076400       1085 	st.h	zero,100[r28]
                        1086 --454:             /* update the RDE */
                        1087 --455:             u16_temp = R_TAUJ_READ16(base_address + R_TAUJ0_RDE);
000002d0 fcefa100       1088 	ld.hu	160[r28],r29
                        1089 --456:             R_TAUJ_CLR_BIT(u16_temp, Channel);
000002d4 010a           1090 	mov	1,r1
000002d6 fb0fc208       1091 	shl	r27,r1,r1
000002da c100           1092 	zxh	r1
000002dc 2108           1093 	not	r1,r1
000002de c100           1094 	zxh	r1
000002e0 41e9           1095 	and	r1,r29
000002e2 dd00           1096 	zxh	r29
                        1097 --457:             R_TAUJ_WRITE16(base_address + R_TAUJ0_RDE, 0);
000002e4 7c07a000       1098 	st.h	zero,160[r28]
                        1099 --459:             /* update the RDM */
                        1100 --460:             u16_temp = R_TAUJ_READ16(base_address + R_TAUJ0_RDM);
000002e8 fcefa500       1101 	ld.hu	164[r28],r29
                        1102 --461:             R_TAUJ_CLR_BIT(u16_temp, Channel);
000002ec 010a           1103 	mov	1,r1
000002ee fb0fc208       1104 	shl	r27,r1,r1
000002f2 c100           1105 	zxh	r1
000002f4 2108           1106 	not	r1,r1
000002f6 c100           1107 	zxh	r1
000002f8 41e9           1108 	and	r1,r29
000002fa dd00           1109 	zxh	r29
                        1110 --462:             R_TAUJ_WRITE16(base_address + R_TAUJ0_RDM, 0);
000002fc 7c07a400       1111 	st.h	zero,164[r28]
                        1112 --464:             /* update the RDT */

                                                                      Page 20
                                                              C:\Users\Frank\AppData\Local\Temp\gh_0000oso1.si
                        1113 --465:             u16_temp = R_TAUJ_READ16(base_address + R_TAUJ0_RDT);
00000300 fcef6900       1114 	ld.hu	104[r28],r29
                        1115 --466:             R_TAUJ_CLR_BIT(u16_temp, Channel);
00000304 010a           1116 	mov	1,r1
00000306 fb0fc208       1117 	shl	r27,r1,r1
0000030a c100           1118 	zxh	r1
0000030c 2108           1119 	not	r1,r1
0000030e c100           1120 	zxh	r1
00000310 41e9           1121 	and	r1,r29
00000312 dd00           1122 	zxh	r29
                        1123 --467:             R_TAUJ_WRITE16(base_address + R_TAUJ0_RDT, 0);
00000314 7c076800       1124 	st.h	zero,104[r28]
00000318 a505*          1125 	br	.L660
                        1126 .L661:
                        1127 --469:         }
                        1128 --470:         else 
                        1129 --471:         {
                        1130 --472:             /* error */
                        1131 --473:             error_mode = R_TAUJ_ERR_RANGE;
                        1132 --line473
                        1133 ..lin.C.3A.5Cgit.5Crh850.5Csrc.5Capp.5Cgfx_apps.5Csimple_draw.5Ctarget.5Cd1mx_mango_ghs.5Cobj.5Cr_tauj_main.38::
                        1134 .LDWlin38:
0000031a 02ca           1135 	mov	2,r25
                        1136 .L660:
                        1137 --474:         }
                        1138 --475:     }
                        1139 --477:     return error_mode;
0000031c 1950           1140 	mov	r25,r10
                        1141 --	    .ef
                        1142 .LDW62:
0000031e 4406ff70       1143 	dispose	2,{r25,r26,r27,r28,r29,r31},[lp]
                        1144 	.type	_R_TAUJ_InitChannel,@function
                        1145 	.size	_R_TAUJ_InitChannel,.-_R_TAUJ_InitChannel
                        1146 	.align	2
                        1147 .LDW72:
                        1148 --_error_mode	r25	local
                        1149 --_ichannel	2[sp]	local
                        1150 --_u16_temp	r29	local
                        1151 --_base_address	r28	local
                        1152 --_offset_address	r26	local
                        1153 
                        1154 --_Unit	4[sp]	param
                        1155 --_Channel	r27	param
                        1156 
                        1157 	.section ".bss","awb"
                        1158 .L882:
                        1159 	.type	.L882,@object
                        1160 	.size	.L882,0
                        1161 	.data
                        1162 	.text
                        1163 
                        1164 --478: }
                        1165 
                        1166 --481: /***********************************************************
                        1167 --482:   Function: R_TAUJ_SetClockPeriod
                        1168 --483: */
                        1169 --485: r_tauj_Error_t R_TAUJ_SetClockPeriod(
                        1170 	.align	2
                        1171 	.align	2
                        1172 	.global	_R_TAUJ_SetClockPeriod
                        1173 _R_TAUJ_SetClockPeriod:

                                                                      Page 21
                                                              C:\Users\Frank\AppData\Local\Temp\gh_0000oso1.si
00000322 80074100       1174 	prepare	{r29},0
00000326 0650           1175 	mov	r6,r10
00000328 0758           1176 	mov	r7,r11
0000032a 0868           1177 	mov	r8,r13
0000032c 0072           1178 	mov	0,r14
                        1179 --	    .bf
                        1180 .LDW82:
                        1181 --486:         uint32_t Unit,
                        1182 --487:         r_tauj_Clock_t Clock,
                        1183 --488:         r_tauj_TimeInterval_t TimeInterval)
                        1184 --489: {
                        1185 --490:     uint8_t ucTimeInterval = 0;
0000032e 000a           1186 	mov	0,r1
                        1187 --491:     r_tauj_Error_t error_mode = R_TAUJ_ERR_OK;
00000330 0062           1188 	mov	0,r12
                        1189 --492:     uint32_t base_address = 0;
00000332 00f2           1190 	mov	0,ep
                        1191 --493:     r_tauj_RegTps_t r_tauj_RegTps;
                        1192 --495:     /* check the instance is allowed */
                        1193 --496:     if (Unit > (R_TAUJ_MACRO_NUM - 1)) 
00000334 e051           1194 	cmp	zero,r10
00000336 b305*          1195 	bnh	.L1043
                        1196 --497:     {
                        1197 --498:         /* instance too high */
                        1198 --499:         error_mode = R_TAUJ_ERR_INSTANCE;
                        1199 --line499
                        1200 ..lin.C.3A.5Cgit.5Crh850.5Csrc.5Capp.5Cgfx_apps.5Csimple_draw.5Ctarget.5Cd1mx_mango_ghs.5Cobj.5Cr_tauj_main.39::
                        1201 .LDWlin39:
00000338 0362           1202 	mov	3,r12
0000033a 9575*          1203 	br	.L1045
                        1204 .L1043:
                        1205 --500:     }
                        1206 --501:     else 
                        1207 --502:     {
                        1208 --503:         /* ok, update the TPS register value */
                        1209 --504:         base_address = R_TAUJ_Dev[Unit].BaseAddr;
                        1210 --line504
                        1211 ..lin.C.3A.5Cgit.5Crh850.5Csrc.5Capp.5Cgfx_apps.5Csimple_draw.5Ctarget.5Cd1mx_mango_ghs.5Cobj.5Cr_tauj_main.40::
                        1212 .LDWlin40:
0000033c 0a48           1213 	mov	r10,r9
0000033e e900           1214 	sxh	r9
00000340 e94e1400       1215 	mulhi	20,r9,r9
00000344 3d0600000000*  1216 	mov	_R_TAUJ_Dev,r29
0000034a dd49           1217 	add	r29,r9
0000034c 29f70100       1218 	ld.w	0[r9],ep
                        1219 --506:         /* get the current value */
                        1220 --507:         r_tauj_RegTps.Word = R_TAUJ_READ16(base_address + R_TAUJ0_TPS);
00000350 fe779100       1221 	ld.hu	144[ep],r14
                        1222 --509:         /* timer interval */
                        1223 --510:         if ( TimeInterval == R_TAUJ_TIME_INTERVAL_0) 
00000354 e069           1224 	cmp	zero,r13
00000356 ba05*          1225 	bne	.L1046
                        1226 --511:         {
                        1227 --512:             ucTimeInterval = LOC_TIME_INTERVAL_0;
                        1228 --line512
                        1229 ..lin.C.3A.5Cgit.5Crh850.5Csrc.5Capp.5Cgfx_apps.5Csimple_draw.5Ctarget.5Cd1mx_mango_ghs.5Cobj.5Cr_tauj_main.41::
                        1230 .LDWlin41:
00000358 000a           1231 	mov	0,r1
0000035a e53d*          1232 	br	.L1048
                        1233 .L1046:
                        1234 --513:         } 

                                                                      Page 22
                                                              C:\Users\Frank\AppData\Local\Temp\gh_0000oso1.si
                        1235 --514:         else if ( TimeInterval == R_TAUJ_TIME_INTERVAL_1) 
                        1236 --line514
                        1237 ..lin.C.3A.5Cgit.5Crh850.5Csrc.5Capp.5Cgfx_apps.5Csimple_draw.5Ctarget.5Cd1mx_mango_ghs.5Cobj.5Cr_tauj_main.42::
                        1238 .LDWlin42:
0000035c 616a           1239 	cmp	1,r13
0000035e ba05*          1240 	bne	.L1049
                        1241 --515:         {
                        1242 --516:             ucTimeInterval = LOC_TIME_INTERVAL_1;
                        1243 --line516
                        1244 ..lin.C.3A.5Cgit.5Crh850.5Csrc.5Capp.5Cgfx_apps.5Csimple_draw.5Ctarget.5Cd1mx_mango_ghs.5Cobj.5Cr_tauj_main.43::
                        1245 .LDWlin43:
00000360 010a           1246 	mov	1,r1
00000362 a53d*          1247 	br	.L1048
                        1248 .L1049:
                        1249 --517:         } 
                        1250 --518:         else if ( TimeInterval == R_TAUJ_TIME_INTERVAL_2) 
                        1251 --line518
                        1252 ..lin.C.3A.5Cgit.5Crh850.5Csrc.5Capp.5Cgfx_apps.5Csimple_draw.5Ctarget.5Cd1mx_mango_ghs.5Cobj.5Cr_tauj_main.44::
                        1253 .LDWlin44:
00000364 626a           1254 	cmp	2,r13
00000366 ba05*          1255 	bne	.L1052
                        1256 --519:         {
                        1257 --520:             ucTimeInterval = LOC_TIME_INTERVAL_2;
                        1258 --line520
                        1259 ..lin.C.3A.5Cgit.5Crh850.5Csrc.5Capp.5Cgfx_apps.5Csimple_draw.5Ctarget.5Cd1mx_mango_ghs.5Cobj.5Cr_tauj_main.45::
                        1260 .LDWlin45:
00000368 020a           1261 	mov	2,r1
0000036a e535*          1262 	br	.L1048
                        1263 .L1052:
                        1264 --521:         } 
                        1265 --522:         else if ( TimeInterval == R_TAUJ_TIME_INTERVAL_3) 
                        1266 --line522
                        1267 ..lin.C.3A.5Cgit.5Crh850.5Csrc.5Capp.5Cgfx_apps.5Csimple_draw.5Ctarget.5Cd1mx_mango_ghs.5Cobj.5Cr_tauj_main.46::
                        1268 .LDWlin46:
0000036c 636a           1269 	cmp	3,r13
0000036e ba05*          1270 	bne	.L1055
                        1271 --523:         {
                        1272 --524:             ucTimeInterval = LOC_TIME_INTERVAL_3;
                        1273 --line524
                        1274 ..lin.C.3A.5Cgit.5Crh850.5Csrc.5Capp.5Cgfx_apps.5Csimple_draw.5Ctarget.5Cd1mx_mango_ghs.5Cobj.5Cr_tauj_main.47::
                        1275 .LDWlin47:
00000370 030a           1276 	mov	3,r1
00000372 a535*          1277 	br	.L1048
                        1278 .L1055:
                        1279 --525:         } 
                        1280 --526:         else if ( TimeInterval == R_TAUJ_TIME_INTERVAL_4) 
                        1281 --line526
                        1282 ..lin.C.3A.5Cgit.5Crh850.5Csrc.5Capp.5Cgfx_apps.5Csimple_draw.5Ctarget.5Cd1mx_mango_ghs.5Cobj.5Cr_tauj_main.48::
                        1283 .LDWlin48:
00000374 646a           1284 	cmp	4,r13
00000376 ba05*          1285 	bne	.L1058
                        1286 --527:         {
                        1287 --528:             ucTimeInterval = LOC_TIME_INTERVAL_4;
                        1288 --line528
                        1289 ..lin.C.3A.5Cgit.5Crh850.5Csrc.5Capp.5Cgfx_apps.5Csimple_draw.5Ctarget.5Cd1mx_mango_ghs.5Cobj.5Cr_tauj_main.49::
                        1290 .LDWlin49:
00000378 040a           1291 	mov	4,r1
0000037a e52d*          1292 	br	.L1048
                        1293 .L1058:
                        1294 --529:         } 
                        1295 --530:         else if ( TimeInterval == R_TAUJ_TIME_INTERVAL_5) 

                                                                      Page 23
                                                              C:\Users\Frank\AppData\Local\Temp\gh_0000oso1.si
                        1296 --line530
                        1297 ..lin.C.3A.5Cgit.5Crh850.5Csrc.5Capp.5Cgfx_apps.5Csimple_draw.5Ctarget.5Cd1mx_mango_ghs.5Cobj.5Cr_tauj_main.50::
                        1298 .LDWlin50:
0000037c 656a           1299 	cmp	5,r13
0000037e ba05*          1300 	bne	.L1061
                        1301 --531:         {
                        1302 --532:             ucTimeInterval = LOC_TIME_INTERVAL_5;
                        1303 --line532
                        1304 ..lin.C.3A.5Cgit.5Crh850.5Csrc.5Capp.5Cgfx_apps.5Csimple_draw.5Ctarget.5Cd1mx_mango_ghs.5Cobj.5Cr_tauj_main.51::
                        1305 .LDWlin51:
00000380 050a           1306 	mov	5,r1
00000382 a52d*          1307 	br	.L1048
                        1308 .L1061:
                        1309 --533:         } 
                        1310 --534:         else if ( TimeInterval == R_TAUJ_TIME_INTERVAL_6) 
                        1311 --line534
                        1312 ..lin.C.3A.5Cgit.5Crh850.5Csrc.5Capp.5Cgfx_apps.5Csimple_draw.5Ctarget.5Cd1mx_mango_ghs.5Cobj.5Cr_tauj_main.52::
                        1313 .LDWlin52:
00000384 666a           1314 	cmp	6,r13
00000386 ba05*          1315 	bne	.L1064
                        1316 --535:         {
                        1317 --536:             ucTimeInterval = LOC_TIME_INTERVAL_6;
                        1318 --line536
                        1319 ..lin.C.3A.5Cgit.5Crh850.5Csrc.5Capp.5Cgfx_apps.5Csimple_draw.5Ctarget.5Cd1mx_mango_ghs.5Cobj.5Cr_tauj_main.53::
                        1320 .LDWlin53:
00000388 060a           1321 	mov	6,r1
0000038a e525*          1322 	br	.L1048
                        1323 .L1064:
                        1324 --537:         } 
                        1325 --538:         else if ( TimeInterval == R_TAUJ_TIME_INTERVAL_7) 
                        1326 --line538
                        1327 ..lin.C.3A.5Cgit.5Crh850.5Csrc.5Capp.5Cgfx_apps.5Csimple_draw.5Ctarget.5Cd1mx_mango_ghs.5Cobj.5Cr_tauj_main.54::
                        1328 .LDWlin54:
0000038c 676a           1329 	cmp	7,r13
0000038e ba05*          1330 	bne	.L1067
                        1331 --539:         {
                        1332 --540:             ucTimeInterval = LOC_TIME_INTERVAL_7;
                        1333 --line540
                        1334 ..lin.C.3A.5Cgit.5Crh850.5Csrc.5Capp.5Cgfx_apps.5Csimple_draw.5Ctarget.5Cd1mx_mango_ghs.5Cobj.5Cr_tauj_main.55::
                        1335 .LDWlin55:
00000390 070a           1336 	mov	7,r1
00000392 a525*          1337 	br	.L1048
                        1338 .L1067:
                        1339 --541:         } 
                        1340 --542:         else if ( TimeInterval == R_TAUJ_TIME_INTERVAL_8) 
                        1341 --line542
                        1342 ..lin.C.3A.5Cgit.5Crh850.5Csrc.5Capp.5Cgfx_apps.5Csimple_draw.5Ctarget.5Cd1mx_mango_ghs.5Cobj.5Cr_tauj_main.56::
                        1343 .LDWlin56:
00000394 686a           1344 	cmp	8,r13
00000396 ba05*          1345 	bne	.L1070
                        1346 --543:         {
                        1347 --544:             ucTimeInterval = LOC_TIME_INTERVAL_8;
                        1348 --line544
                        1349 ..lin.C.3A.5Cgit.5Crh850.5Csrc.5Capp.5Cgfx_apps.5Csimple_draw.5Ctarget.5Cd1mx_mango_ghs.5Cobj.5Cr_tauj_main.57::
                        1350 .LDWlin57:
00000398 080a           1351 	mov	8,r1
0000039a e51d*          1352 	br	.L1048
                        1353 .L1070:
                        1354 --545:         } 
                        1355 --546:         else if ( TimeInterval == R_TAUJ_TIME_INTERVAL_9) 
                        1356 --line546

                                                                      Page 24
                                                              C:\Users\Frank\AppData\Local\Temp\gh_0000oso1.si
                        1357 ..lin.C.3A.5Cgit.5Crh850.5Csrc.5Capp.5Cgfx_apps.5Csimple_draw.5Ctarget.5Cd1mx_mango_ghs.5Cobj.5Cr_tauj_main.58::
                        1358 .LDWlin58:
0000039c 696a           1359 	cmp	9,r13
0000039e ba05*          1360 	bne	.L1073
                        1361 --547:         {
                        1362 --548:             ucTimeInterval = LOC_TIME_INTERVAL_9;
                        1363 --line548
                        1364 ..lin.C.3A.5Cgit.5Crh850.5Csrc.5Capp.5Cgfx_apps.5Csimple_draw.5Ctarget.5Cd1mx_mango_ghs.5Cobj.5Cr_tauj_main.59::
                        1365 .LDWlin59:
000003a0 090a           1366 	mov	9,r1
000003a2 a51d*          1367 	br	.L1048
                        1368 .L1073:
                        1369 --549:         } 
                        1370 --550:         else if ( TimeInterval == R_TAUJ_TIME_INTERVAL_10) 
                        1371 --line550
                        1372 ..lin.C.3A.5Cgit.5Crh850.5Csrc.5Capp.5Cgfx_apps.5Csimple_draw.5Ctarget.5Cd1mx_mango_ghs.5Cobj.5Cr_tauj_main.60::
                        1373 .LDWlin60:
000003a4 6a6a           1374 	cmp	10,r13
000003a6 ba05*          1375 	bne	.L1076
                        1376 --551:         {
                        1377 --552:             ucTimeInterval = LOC_TIME_INTERVAL_10;
                        1378 --line552
                        1379 ..lin.C.3A.5Cgit.5Crh850.5Csrc.5Capp.5Cgfx_apps.5Csimple_draw.5Ctarget.5Cd1mx_mango_ghs.5Cobj.5Cr_tauj_main.61::
                        1380 .LDWlin61:
000003a8 0a0a           1381 	mov	10,r1
000003aa e515*          1382 	br	.L1048
                        1383 .L1076:
                        1384 --553:         } 
                        1385 --554:         else if ( TimeInterval == R_TAUJ_TIME_INTERVAL_11) 
                        1386 --line554
                        1387 ..lin.C.3A.5Cgit.5Crh850.5Csrc.5Capp.5Cgfx_apps.5Csimple_draw.5Ctarget.5Cd1mx_mango_ghs.5Cobj.5Cr_tauj_main.62::
                        1388 .LDWlin62:
000003ac 6b6a           1389 	cmp	11,r13
000003ae ba05*          1390 	bne	.L1079
                        1391 --555:         {
                        1392 --556:             ucTimeInterval = LOC_TIME_INTERVAL_11;
                        1393 --line556
                        1394 ..lin.C.3A.5Cgit.5Crh850.5Csrc.5Capp.5Cgfx_apps.5Csimple_draw.5Ctarget.5Cd1mx_mango_ghs.5Cobj.5Cr_tauj_main.63::
                        1395 .LDWlin63:
000003b0 0b0a           1396 	mov	11,r1
000003b2 a515*          1397 	br	.L1048
                        1398 .L1079:
                        1399 --557:         } 
                        1400 --558:         else if ( TimeInterval == R_TAUJ_TIME_INTERVAL_12) 
                        1401 --line558
                        1402 ..lin.C.3A.5Cgit.5Crh850.5Csrc.5Capp.5Cgfx_apps.5Csimple_draw.5Ctarget.5Cd1mx_mango_ghs.5Cobj.5Cr_tauj_main.64::
                        1403 .LDWlin64:
000003b4 6c6a           1404 	cmp	12,r13
000003b6 ba05*          1405 	bne	.L1082
                        1406 --559:         {
                        1407 --560:             ucTimeInterval = LOC_TIME_INTERVAL_12;
                        1408 --line560
                        1409 ..lin.C.3A.5Cgit.5Crh850.5Csrc.5Capp.5Cgfx_apps.5Csimple_draw.5Ctarget.5Cd1mx_mango_ghs.5Cobj.5Cr_tauj_main.65::
                        1410 .LDWlin65:
000003b8 0c0a           1411 	mov	12,r1
000003ba e50d*          1412 	br	.L1048
                        1413 .L1082:
                        1414 --561:         } 
                        1415 --562:         else if ( TimeInterval == R_TAUJ_TIME_INTERVAL_13) 
                        1416 --line562
                        1417 ..lin.C.3A.5Cgit.5Crh850.5Csrc.5Capp.5Cgfx_apps.5Csimple_draw.5Ctarget.5Cd1mx_mango_ghs.5Cobj.5Cr_tauj_main.66::

                                                                      Page 25
                                                              C:\Users\Frank\AppData\Local\Temp\gh_0000oso1.si
                        1418 .LDWlin66:
000003bc 6d6a           1419 	cmp	13,r13
000003be ba05*          1420 	bne	.L1085
                        1421 --563:         {
                        1422 --564:             ucTimeInterval = LOC_TIME_INTERVAL_13;
                        1423 --line564
                        1424 ..lin.C.3A.5Cgit.5Crh850.5Csrc.5Capp.5Cgfx_apps.5Csimple_draw.5Ctarget.5Cd1mx_mango_ghs.5Cobj.5Cr_tauj_main.67::
                        1425 .LDWlin67:
000003c0 0d0a           1426 	mov	13,r1
000003c2 a50d*          1427 	br	.L1048
                        1428 .L1085:
                        1429 --565:         } 
                        1430 --566:         else if ( TimeInterval == R_TAUJ_TIME_INTERVAL_14) 
                        1431 --line566
                        1432 ..lin.C.3A.5Cgit.5Crh850.5Csrc.5Capp.5Cgfx_apps.5Csimple_draw.5Ctarget.5Cd1mx_mango_ghs.5Cobj.5Cr_tauj_main.68::
                        1433 .LDWlin68:
000003c4 6e6a           1434 	cmp	14,r13
000003c6 ba05*          1435 	bne	.L1088
                        1436 --567:         {
                        1437 --568:             ucTimeInterval = LOC_TIME_INTERVAL_14;
                        1438 --line568
                        1439 ..lin.C.3A.5Cgit.5Crh850.5Csrc.5Capp.5Cgfx_apps.5Csimple_draw.5Ctarget.5Cd1mx_mango_ghs.5Cobj.5Cr_tauj_main.69::
                        1440 .LDWlin69:
000003c8 0e0a           1441 	mov	14,r1
000003ca e505*          1442 	br	.L1048
                        1443 .L1088:
                        1444 --569:         } 
                        1445 --570:         else if ( TimeInterval == R_TAUJ_TIME_INTERVAL_15) 
                        1446 --line570
                        1447 ..lin.C.3A.5Cgit.5Crh850.5Csrc.5Capp.5Cgfx_apps.5Csimple_draw.5Ctarget.5Cd1mx_mango_ghs.5Cobj.5Cr_tauj_main.70::
                        1448 .LDWlin70:
000003cc 6f6a           1449 	cmp	15,r13
000003ce ba05*          1450 	bne	.L1091
                        1451 --571:         {
                        1452 --572:             ucTimeInterval = LOC_TIME_INTERVAL_15;
                        1453 --line572
                        1454 ..lin.C.3A.5Cgit.5Crh850.5Csrc.5Capp.5Cgfx_apps.5Csimple_draw.5Ctarget.5Cd1mx_mango_ghs.5Cobj.5Cr_tauj_main.71::
                        1455 .LDWlin71:
000003d0 0f0a           1456 	mov	15,r1
000003d2 a505*          1457 	br	.L1048
                        1458 .L1091:
                        1459 --573:         } 
                        1460 --574:         else 
                        1461 --575:         {
                        1462 --576:             /* error */
                        1463 --577:             error_mode = R_TAUJ_ERR_RANGE;
                        1464 --line577
                        1465 ..lin.C.3A.5Cgit.5Crh850.5Csrc.5Capp.5Cgfx_apps.5Csimple_draw.5Ctarget.5Cd1mx_mango_ghs.5Cobj.5Cr_tauj_main.72::
                        1466 .LDWlin72:
000003d4 0262           1467 	mov	2,r12
                        1468 .L1048:
                        1469 --578:         }
                        1470 --580:         /* if a valid time interval the write the clock */
                        1471 --581:         if ( error_mode == R_TAUJ_ERR_OK) 
000003d6 e061           1472 	cmp	zero,r12
000003d8 aa25*          1473 	bne	.L1045
                        1474 --582:         {
                        1475 --583:             if ( Clock == R_TAUJ_CK_0) 
                        1476 --line583
                        1477 ..lin.C.3A.5Cgit.5Crh850.5Csrc.5Capp.5Cgfx_apps.5Csimple_draw.5Ctarget.5Cd1mx_mango_ghs.5Cobj.5Cr_tauj_main.73::
                        1478 .LDWlin73:

                                                                      Page 26
                                                              C:\Users\Frank\AppData\Local\Temp\gh_0000oso1.si
000003da e059           1479 	cmp	zero,r11
000003dc fa05*          1480 	bne	.L1096
                        1481 --584:             {
                        1482 --585:                 r_tauj_RegTps.Bits.Pcs_Ck0 = ucTimeInterval;
                        1483 --line585
                        1484 ..lin.C.3A.5Cgit.5Crh850.5Csrc.5Capp.5Cgfx_apps.5Csimple_draw.5Ctarget.5Cd1mx_mango_ghs.5Cobj.5Cr_tauj_main.74::
                        1485 .LDWlin74:
000003de 0e48           1486 	mov	r14,r9
000003e0 e14fd030       1487 	bins	r1,0,4,r9
000003e4 c976ffff       1488 	andi	65535,r9,r14
000003e8 a51d*          1489 	br	.L1045
                        1490 .L1096:
                        1491 --586:             } 
                        1492 --587:             else if ( Clock == R_TAUJ_CK_1) 
                        1493 --line587
                        1494 ..lin.C.3A.5Cgit.5Crh850.5Csrc.5Capp.5Cgfx_apps.5Csimple_draw.5Ctarget.5Cd1mx_mango_ghs.5Cobj.5Cr_tauj_main.75::
                        1495 .LDWlin75:
000003ea 615a           1496 	cmp	1,r11
000003ec fa05*          1497 	bne	.L1099
                        1498 --588:             {
                        1499 --589:                 r_tauj_RegTps.Bits.Pcs_Ck1 = ucTimeInterval;
                        1500 --line589
                        1501 ..lin.C.3A.5Cgit.5Crh850.5Csrc.5Capp.5Cgfx_apps.5Csimple_draw.5Ctarget.5Cd1mx_mango_ghs.5Cobj.5Cr_tauj_main.76::
                        1502 .LDWlin76:
000003ee 0e48           1503 	mov	r14,r9
000003f0 e14fd870       1504 	bins	r1,4,4,r9
000003f4 c976ffff       1505 	andi	65535,r9,r14
000003f8 a515*          1506 	br	.L1045
                        1507 .L1099:
                        1508 --590:             } 
                        1509 --591:             else if ( Clock == R_TAUJ_CK_2)
                        1510 --line591
                        1511 ..lin.C.3A.5Cgit.5Crh850.5Csrc.5Capp.5Cgfx_apps.5Csimple_draw.5Ctarget.5Cd1mx_mango_ghs.5Cobj.5Cr_tauj_main.77::
                        1512 .LDWlin77:
000003fa 625a           1513 	cmp	2,r11
000003fc fa05*          1514 	bne	.L1102
                        1515 --592:             {
                        1516 --593:                  r_tauj_RegTps.Bits.Pcs_Ck2 = ucTimeInterval;
                        1517 --line593
                        1518 ..lin.C.3A.5Cgit.5Crh850.5Csrc.5Capp.5Cgfx_apps.5Csimple_draw.5Ctarget.5Cd1mx_mango_ghs.5Cobj.5Cr_tauj_main.78::
                        1519 .LDWlin78:
000003fe 0e48           1520 	mov	r14,r9
00000400 e14fd0b8       1521 	bins	r1,8,4,r9
00000404 c976ffff       1522 	andi	65535,r9,r14
00000408 a50d*          1523 	br	.L1045
                        1524 .L1102:
                        1525 --594:             } 
                        1526 --595:             else if ( Clock == R_TAUJ_CK_3) 
                        1527 --line595
                        1528 ..lin.C.3A.5Cgit.5Crh850.5Csrc.5Capp.5Cgfx_apps.5Csimple_draw.5Ctarget.5Cd1mx_mango_ghs.5Cobj.5Cr_tauj_main.79::
                        1529 .LDWlin79:
0000040a 635a           1530 	cmp	3,r11
0000040c fa05*          1531 	bne	.L1105
                        1532 --596:             {
                        1533 --597:                  r_tauj_RegTps.Bits.Pcs_Ck3 = ucTimeInterval;
                        1534 --line597
                        1535 ..lin.C.3A.5Cgit.5Crh850.5Csrc.5Capp.5Cgfx_apps.5Csimple_draw.5Ctarget.5Cd1mx_mango_ghs.5Cobj.5Cr_tauj_main.80::
                        1536 .LDWlin80:
0000040e 0e48           1537 	mov	r14,r9
00000410 e14fd8f8       1538 	bins	r1,12,4,r9
00000414 c976ffff       1539 	andi	65535,r9,r14

                                                                      Page 27
                                                              C:\Users\Frank\AppData\Local\Temp\gh_0000oso1.si
00000418 a505*          1540 	br	.L1045
                        1541 .L1105:
                        1542 --598:             } 
                        1543 --599:             else 
                        1544 --600:             {
                        1545 --601:                 /* error */
                        1546 --602:                 error_mode = R_TAUJ_ERR_RANGE;
                        1547 --line602
                        1548 ..lin.C.3A.5Cgit.5Crh850.5Csrc.5Capp.5Cgfx_apps.5Csimple_draw.5Ctarget.5Cd1mx_mango_ghs.5Cobj.5Cr_tauj_main.81::
                        1549 .LDWlin81:
0000041a 0262           1550 	mov	2,r12
                        1551 .L1045:
                        1552 --603:             }
                        1553 --604:         } 
                        1554 --605:         else 
                        1555 --606:         {
                        1556 --607:             /* error do not write anything, the return value will indicate the error condition */
                        1557 --608:         }
                        1558 --609:     }
                        1559 --611:     /* if no error then update the register */
                        1560 --612:     if ( error_mode == R_TAUJ_ERR_OK) 
0000041c e061           1561 	cmp	zero,r12
0000041e 8a0d*          1562 	bne	.L1109
                        1563 --613:     {
                        1564 --614:         /* update the TPS Prescaler Clock Select Register */
                        1565 --615:         R_TAUJ_WRITE16(base_address + R_TAUJ0_TPS, r_tauj_RegTps.Word);
                        1566 --line615
                        1567 ..lin.C.3A.5Cgit.5Crh850.5Csrc.5Capp.5Cgfx_apps.5Csimple_draw.5Ctarget.5Cd1mx_mango_ghs.5Cobj.5Cr_tauj_main.82::
                        1568 .LDWlin82:
00000420 c874           1569 	sst.h	r14,144[ep]
                        1570 --616:         /* check values! */
                        1571 --617:         while (R_TAUJ_READ16(base_address + + R_TAUJ0_TPS) != r_tauj_RegTps.Word) 
00000422 a505*          1572 	br	.L1111
                        1573 .L1113:
                        1574 --618:         {
                        1575 --619:             R_TAUJ_WRITE16(base_address + R_TAUJ0_TPS, r_tauj_RegTps.Word);
                        1576 --line619
                        1577 ..lin.C.3A.5Cgit.5Crh850.5Csrc.5Capp.5Cgfx_apps.5Csimple_draw.5Ctarget.5Cd1mx_mango_ghs.5Cobj.5Cr_tauj_main.83::
                        1578 .LDWlin83:
00000424 c874           1579 	sst.h	r14,144[ep]
                        1580 .L1111:
00000426 fe4f9100       1581 	ld.hu	144[ep],r9
0000042a ee49           1582 	cmp	r14,r9
0000042c cafd*          1583 	bne	.L1113
                        1584 .L1109:
                        1585 --620:         }           
                        1586 --621:     }
                        1587 --622:     return error_mode;
                        1588 --line622
                        1589 ..lin.C.3A.5Cgit.5Crh850.5Csrc.5Capp.5Cgfx_apps.5Csimple_draw.5Ctarget.5Cd1mx_mango_ghs.5Cobj.5Cr_tauj_main.84::
                        1590 .LDWlin84:
0000042e 0000           1591 	nop
                        1592 --	    .ef
                        1593 .LDW92:
00000430 0c50           1594 	mov	r12,r10
00000432 40065f00       1595 	dispose	0,{r29},[lp]
                        1596 	.type	_R_TAUJ_SetClockPeriod,@function
                        1597 	.size	_R_TAUJ_SetClockPeriod,.-_R_TAUJ_SetClockPeriod
                        1598 	.align	2
                        1599 .LDW03:
                        1600 --_ucTimeInterval	r1	local

                                                                      Page 28
                                                              C:\Users\Frank\AppData\Local\Temp\gh_0000oso1.si
                        1601 --_error_mode	r12	local
                        1602 --_base_address	ep	local
                        1603 --_r_tauj_RegTps	r14	local
                        1604 
                        1605 --_Unit	r10	param
                        1606 --_Clock	r11	param
                        1607 --_TimeInterval	r13	param
                        1608 
                        1609 	.section ".bss","awb"
                        1610 .L1358:
                        1611 	.type	.L1358,@object
                        1612 	.size	.L1358,0
                        1613 	.data
                        1614 	.text
                        1615 
                        1616 --623: }
                        1617 
                        1618 --626: /***********************************************************
                        1619 --627:   Function: R_TAUJ_SetCK3BaudRateClock
                        1620 --628: */
                        1621 --630: r_tauj_Error_t R_TAUJ_SetCK3BaudRateClock(uint32_t Unit, uint8_t Period) 
                        1622 	.align	2
                        1623 	.align	2
                        1624 	.global	_R_TAUJ_SetCK3BaudRateClock
                        1625 _R_TAUJ_SetCK3BaudRateClock:
00000436 0670           1626 	mov	r6,r14
00000438 c76eff00       1627 	andi	255,r7,r13
                        1628 --	    .bf
                        1629 .LDW13:
                        1630 --631: {
                        1631 --632:     r_tauj_Error_t error_mode = R_TAUJ_ERR_OK;
0000043c 000a           1632 	mov	0,r1
                        1633 --633:     uint32_t base_address = 0;
0000043e 00f2           1634 	mov	0,ep
                        1635 --635:     /* check the instance is allowed */
                        1636 --636:     if ( Unit > (R_TAUJ_MACRO_NUM - 1)) 
00000440 e071           1637 	cmp	zero,r14
00000442 b305*          1638 	bnh	.L1540
                        1639 --637:     {
                        1640 --638:         /* instance too high */
                        1641 --639:         error_mode = R_TAUJ_ERR_INSTANCE;
                        1642 --line639
                        1643 ..lin.C.3A.5Cgit.5Crh850.5Csrc.5Capp.5Cgfx_apps.5Csimple_draw.5Ctarget.5Cd1mx_mango_ghs.5Cobj.5Cr_tauj_main.85::
                        1644 .LDWlin85:
00000444 030a           1645 	mov	3,r1
00000446 c50d*          1646 	br	.L1542
                        1647 .L1540:
                        1648 --640:     } 
                        1649 --641:     else 
                        1650 --642:     {
                        1651 --643:         /* ok, update the BRS register value */
                        1652 --644:         base_address = R_TAUJ_Dev[Unit].BaseAddr;
                        1653 --line644
                        1654 ..lin.C.3A.5Cgit.5Crh850.5Csrc.5Capp.5Cgfx_apps.5Csimple_draw.5Ctarget.5Cd1mx_mango_ghs.5Cobj.5Cr_tauj_main.86::
                        1655 .LDWlin86:
00000448 0e60           1656 	mov	r14,r12
0000044a ec00           1657 	sxh	r12
0000044c ec661400       1658 	mulhi	20,r12,r12
00000450 2b0600000000*  1659 	mov	_R_TAUJ_Dev,r11
00000456 cb61           1660 	add	r11,r12
00000458 2cf70100       1661 	ld.w	0[r12],ep

                                                                      Page 29
                                                              C:\Users\Frank\AppData\Local\Temp\gh_0000oso1.si
                        1662 --646:         /* update the BRS Prescaler Baud Rate Setting Register */
                        1663 --647:         R_TAUJ_WRITE16(base_address + R_TAUJ0_BRS, Period);
0000045c ca6c           1664 	sst.h	r13,148[ep]
                        1665 .L1542:
                        1666 --648:     }
                        1667 --650:     return error_mode;
0000045e 0150           1668 	mov	r1,r10
                        1669 --	    .ef
                        1670 .LDW23:
00000460 7f00           1671 	jmp	[lp]
                        1672 	.type	_R_TAUJ_SetCK3BaudRateClock,@function
                        1673 	.size	_R_TAUJ_SetCK3BaudRateClock,.-_R_TAUJ_SetCK3BaudRateClock
                        1674 	.align	2
                        1675 .LDW33:
                        1676 --_error_mode	r1	local
                        1677 --_base_address	ep	local
                        1678 
                        1679 --_Unit	r14	param
                        1680 --_Period	r13	param
                        1681 
                        1682 	.section ".bss","awb"
                        1683 .L1590:
                        1684 	.type	.L1590,@object
                        1685 	.size	.L1590,0
                        1686 	.data
                        1687 	.text
                        1688 
                        1689 --651: }
                        1690 
                        1691 --654: /***********************************************************
                        1692 --655:   Function: R_TAUJ_SetClkSource
                        1693 --656: */
                        1694 --658: r_tauj_Error_t R_TAUJ_SetClkSource(uint32_t Unit, r_tauj_Channel_t Channel, r_tauj_Clock_t Clock) 
                        1695 	.align	2
                        1696 	.align	2
                        1697 	.global	_R_TAUJ_SetClkSource
                        1698 _R_TAUJ_SetClkSource:
00000462 8407e170       1699 	prepare	{r25,r26,r27,r28,r29,r31},2
00000466 63370100       1700 	st.w	r6,0[sp]
0000046a 08c8           1701 	mov	r8,r25
0000046c 633f0500       1702 	st.w	r7,4[sp]
00000470 00ea           1703 	mov	0,r29
                        1704 --	    .bf
                        1705 .LDW43:
                        1706 --659: {
                        1707 --660:     r_tauj_Error_t error_mode = R_TAUJ_ERR_OK;
00000472 00e2           1708 	mov	0,r28
                        1709 --661:     uint32_t base_address = 0;
00000474 00da           1710 	mov	0,r27
                        1711 --662:     uint32_t offset_address = 0;
00000476 00d2           1712 	mov	0,r26
                        1713 --663:     r_tauj_RegCmor_t r_tauj_RegCmor;
                        1714 --665:     /* check the instance is allowed */
                        1715 --666:     if ( Unit > (R_TAUJ_MACRO_NUM - 1)) 
00000478 235f0100       1716 	ld.w	0[sp],r11
0000047c e059           1717 	cmp	zero,r11
0000047e b305*          1718 	bnh	.L1622
                        1719 --667:     {
                        1720 --668:         /* instance too high */
                        1721 --669:         error_mode = R_TAUJ_ERR_INSTANCE;
                        1722 --line669

                                                                      Page 30
                                                              C:\Users\Frank\AppData\Local\Temp\gh_0000oso1.si
                        1723 ..lin.C.3A.5Cgit.5Crh850.5Csrc.5Capp.5Cgfx_apps.5Csimple_draw.5Ctarget.5Cd1mx_mango_ghs.5Cobj.5Cr_tauj_main.87::
                        1724 .LDWlin87:
00000480 03e2           1725 	mov	3,r28
00000482 f535*          1726 	br	.L1624
                        1727 .L1622:
                        1728 --670:     } 
                        1729 --671:     else 
                        1730 --672:     {
                        1731 --673:         base_address = R_TAUJ_Dev[Unit].BaseAddr;
                        1732 --line673
                        1733 ..lin.C.3A.5Cgit.5Crh850.5Csrc.5Capp.5Cgfx_apps.5Csimple_draw.5Ctarget.5Cd1mx_mango_ghs.5Cobj.5Cr_tauj_main.88::
                        1734 .LDWlin88:
00000484 235f0100       1735 	ld.w	0[sp],r11
00000488 2e0600000000*  1736 	mov	_R_TAUJ_Dev,r14
0000048e 0bf0           1737 	mov	r11,ep
00000490 fe00           1738 	sxh	ep
00000492 fef61400       1739 	mulhi	20,ep,ep
00000496 cef1           1740 	add	r14,ep
00000498 00dd           1741 	sld.w	0[ep],r27
                        1742 --674:         offset_address = R_TAUJ0_CMOR0 + loc_GetChannelAddress(Channel);
0000049a 23370500       1743 	ld.w	4[sp],r6
                        1744 	jarl	_loc_GetChannelAddress,lp
                        1744 <EXPANSION BEGIN>
                        1744 jarl22 _loc_GetChannelAddress , lp 
0000049e bfffbafb*      1744 <EXPANSION END>
000004a2 0ad68000       1745 	addi	128,r10,r26
                        1746 --675:         r_tauj_RegCmor.Word = R_TAUJ_READ16(base_address + offset_address);
                        1747 --line675
                        1748 ..lin.C.3A.5Cgit.5Crh850.5Csrc.5Capp.5Cgfx_apps.5Csimple_draw.5Ctarget.5Cd1mx_mango_ghs.5Cobj.5Cr_tauj_main.89::
                        1749 .LDWlin89:
000004a6 1af0           1750 	mov	r26,ep
000004a8 dbf1           1751 	add	r27,ep
000004aa 70e8           1752 	sld.hu	0[ep],r29
                        1753 --677:         if ( Clock == R_TAUJ_CK_0) 
000004ac e0c9           1754 	cmp	zero,r25
000004ae fa05*          1755 	bne	.L1625
                        1756 --678:         {
                        1757 --679:             r_tauj_RegCmor.Bits.Cks = LOC_CK_0;
                        1758 --line679
                        1759 ..lin.C.3A.5Cgit.5Crh850.5Csrc.5Capp.5Cgfx_apps.5Csimple_draw.5Ctarget.5Cd1mx_mango_ghs.5Cobj.5Cr_tauj_main.90::
                        1760 .LDWlin90:
000004b0 1d08           1761 	mov	r29,r1
000004b2 e00fdcf8       1762 	bins	zero,14,2,r1
000004b6 c1eeffff       1763 	andi	65535,r1,r29
000004ba b51d*          1764 	br	.L1624
                        1765 .L1625:
                        1766 --680:         } 
                        1767 --681:         else if ( Clock == R_TAUJ_CK_1) 
                        1768 --line681
                        1769 ..lin.C.3A.5Cgit.5Crh850.5Csrc.5Capp.5Cgfx_apps.5Csimple_draw.5Ctarget.5Cd1mx_mango_ghs.5Cobj.5Cr_tauj_main.91::
                        1770 .LDWlin91:
000004bc 61ca           1771 	cmp	1,r25
000004be 8a0d*          1772 	bne	.L1628
                        1773 --682:         {
                        1774 --683:             r_tauj_RegCmor.Bits.Cks = LOC_CK_1;
                        1775 --line683
                        1776 ..lin.C.3A.5Cgit.5Crh850.5Csrc.5Capp.5Cgfx_apps.5Csimple_draw.5Ctarget.5Cd1mx_mango_ghs.5Cobj.5Cr_tauj_main.92::
                        1777 .LDWlin92:
000004c0 1d08           1778 	mov	r29,r1
000004c2 0172           1779 	mov	1,r14
000004c4 ee0fdcf8       1780 	bins	r14,14,2,r1

                                                                      Page 31
                                                              C:\Users\Frank\AppData\Local\Temp\gh_0000oso1.si
000004c8 c1eeffff       1781 	andi	65535,r1,r29
000004cc a515*          1782 	br	.L1624
                        1783 .L1628:
                        1784 --684:         } 
                        1785 --685:         else if ( Clock == R_TAUJ_CK_2) 
                        1786 --line685
                        1787 ..lin.C.3A.5Cgit.5Crh850.5Csrc.5Capp.5Cgfx_apps.5Csimple_draw.5Ctarget.5Cd1mx_mango_ghs.5Cobj.5Cr_tauj_main.93::
                        1788 .LDWlin93:
000004ce 62ca           1789 	cmp	2,r25
000004d0 8a0d*          1790 	bne	.L1631
                        1791 --686:         {
                        1792 --687:             r_tauj_RegCmor.Bits.Cks = LOC_CK_2;
                        1793 --line687
                        1794 ..lin.C.3A.5Cgit.5Crh850.5Csrc.5Capp.5Cgfx_apps.5Csimple_draw.5Ctarget.5Cd1mx_mango_ghs.5Cobj.5Cr_tauj_main.94::
                        1795 .LDWlin94:
000004d2 1d08           1796 	mov	r29,r1
000004d4 0272           1797 	mov	2,r14
000004d6 ee0fdcf8       1798 	bins	r14,14,2,r1
000004da c1eeffff       1799 	andi	65535,r1,r29
000004de 950d*          1800 	br	.L1624
                        1801 .L1631:
                        1802 --688:         } 
                        1803 --689:         else if ( Clock == R_TAUJ_CK_3) 
                        1804 --line689
                        1805 ..lin.C.3A.5Cgit.5Crh850.5Csrc.5Capp.5Cgfx_apps.5Csimple_draw.5Ctarget.5Cd1mx_mango_ghs.5Cobj.5Cr_tauj_main.95::
                        1806 .LDWlin95:
000004e0 63ca           1807 	cmp	3,r25
000004e2 ea05*          1808 	bne	.L1634
                        1809 --690:         {
                        1810 --691:             r_tauj_RegCmor.Bits.Cks = LOC_CK_3;
                        1811 --line691
                        1812 ..lin.C.3A.5Cgit.5Crh850.5Csrc.5Capp.5Cgfx_apps.5Csimple_draw.5Ctarget.5Cd1mx_mango_ghs.5Cobj.5Cr_tauj_main.96::
                        1813 .LDWlin96:
000004e4 9d0e00c0       1814 	ori	49152,r29,r1
000004e8 c1eeffff       1815 	andi	65535,r1,r29
000004ec a505*          1816 	br	.L1624
                        1817 .L1634:
                        1818 --692:         } 
                        1819 --693:         else 
                        1820 --694:         {
                        1821 --695:             /* error */
                        1822 --696:             error_mode = R_TAUJ_ERR_RANGE;
                        1823 --line696
                        1824 ..lin.C.3A.5Cgit.5Crh850.5Csrc.5Capp.5Cgfx_apps.5Csimple_draw.5Ctarget.5Cd1mx_mango_ghs.5Cobj.5Cr_tauj_main.97::
                        1825 .LDWlin97:
000004ee 02e2           1826 	mov	2,r28
                        1827 .L1624:
                        1828 --697:         }
                        1829 --698:     }
                        1830 --700:     /* if no error then update the register */
                        1831 --701:     if ( error_mode == R_TAUJ_ERR_OK) 
000004f0 e0e1           1832 	cmp	zero,r28
000004f2 da0d*          1833 	bne	.L1637
                        1834 --702:     {
                        1835 --703:         /* update the CMOR Channel Mode OS Register */
                        1836 --704:         R_TAUJ_WRITE16(base_address + offset_address, r_tauj_RegCmor.Word);
                        1837 --line704
                        1838 ..lin.C.3A.5Cgit.5Crh850.5Csrc.5Capp.5Cgfx_apps.5Csimple_draw.5Ctarget.5Cd1mx_mango_ghs.5Cobj.5Cr_tauj_main.98::
                        1839 .LDWlin98:
000004f4 1af0           1840 	mov	r26,ep
000004f6 dbf1           1841 	add	r27,ep

                                                                      Page 32
                                                              C:\Users\Frank\AppData\Local\Temp\gh_0000oso1.si
000004f8 80ec           1842 	sst.h	r29,0[ep]
                        1843 --705:                 /* check values! */
                        1844 --706:         while (R_TAUJ_READ16(base_address + offset_address) != r_tauj_RegCmor.Word) 
000004fa c505*          1845 	br	.L1639
                        1846 .L1641:
                        1847 --707:         {
                        1848 --708:             R_TAUJ_WRITE16(base_address + offset_address, r_tauj_RegCmor.Word);
                        1849 --line708
                        1850 ..lin.C.3A.5Cgit.5Crh850.5Csrc.5Capp.5Cgfx_apps.5Csimple_draw.5Ctarget.5Cd1mx_mango_ghs.5Cobj.5Cr_tauj_main.99::
                        1851 .LDWlin99:
000004fc 1af0           1852 	mov	r26,ep
000004fe dbf1           1853 	add	r27,ep
00000500 80ec           1854 	sst.h	r29,0[ep]
                        1855 .L1639:
00000502 1af0           1856 	mov	r26,ep
00000504 dbf1           1857 	add	r27,ep
00000506 7008           1858 	sld.hu	0[ep],r1
00000508 fd09           1859 	cmp	r29,r1
0000050a 9afd*          1860 	bne	.L1641
                        1861 .L1637:
                        1862 --709:         }           
                        1863 --710:     }
                        1864 --711:     return error_mode;
                        1865 --line711
                        1866 ..lin.C.3A.5Cgit.5Crh850.5Csrc.5Capp.5Cgfx_apps.5Csimple_draw.5Ctarget.5Cd1mx_mango_ghs.5Cobj.5Cr_tauj_main.100::
                        1867 .LDWlin100:
0000050c 1c50           1868 	mov	r28,r10
                        1869 --	    .ef
                        1870 .LDW53:
0000050e 4406ff70       1871 	dispose	2,{r25,r26,r27,r28,r29,r31},[lp]
                        1872 	.type	_R_TAUJ_SetClkSource,@function
                        1873 	.size	_R_TAUJ_SetClkSource,.-_R_TAUJ_SetClkSource
                        1874 	.align	2
                        1875 .LDW63:
                        1876 --_error_mode	r28	local
                        1877 --_base_address	r27	local
                        1878 --_offset_address	r26	local
                        1879 --_r_tauj_RegCmor	r29	local
                        1880 
                        1881 --_Unit	0[sp]	param
                        1882 --_Channel	4[sp]	param
                        1883 --_Clock	r25	param
                        1884 
                        1885 	.section ".bss","awb"
                        1886 .L1754:
                        1887 	.type	.L1754,@object
                        1888 	.size	.L1754,0
                        1889 	.data
                        1890 	.text
                        1891 
                        1892 --712: }
                        1893 
                        1894 --715: /***********************************************************
                        1895 --716:   Function: R_TAUJ_ClearOverflow
                        1896 --717: */
                        1897 --719: r_tauj_Error_t R_TAUJ_ClearOverflow(uint32_t Unit, r_tauj_Channel_t Channel) 
                        1898 	.align	2
                        1899 	.align	2
                        1900 	.global	_R_TAUJ_ClearOverflow
                        1901 _R_TAUJ_ClearOverflow:
00000512 8007e170       1902 	prepare	{r25,r26,r27,r28,r29,r31},0

                                                                      Page 33
                                                              C:\Users\Frank\AppData\Local\Temp\gh_0000oso1.si
00000516 06d0           1903 	mov	r6,r26
00000518 07c8           1904 	mov	r7,r25
                        1905 --	    .bf
                        1906 .LDW73:
                        1907 --720: {
                        1908 --721:     r_tauj_Error_t error_mode = R_TAUJ_ERR_OK;
0000051a 00ea           1909 	mov	0,r29
                        1910 --722:     uint32_t base_address = 0;
0000051c 00e2           1911 	mov	0,r28
                        1912 --723:     uint32_t offset_address = 0;
0000051e 00da           1913 	mov	0,r27
                        1914 --725:     /* check the instance is allowed */
                        1915 --726:     if ( Unit > (R_TAUJ_MACRO_NUM - 1)) 
00000520 e0d1           1916 	cmp	zero,r26
00000522 b305*          1917 	bnh	.L1837
                        1918 --727:     {
                        1919 --728:         /* instance too high */
                        1920 --729:         error_mode = R_TAUJ_ERR_INSTANCE;
                        1921 --line729
                        1922 ..lin.C.3A.5Cgit.5Crh850.5Csrc.5Capp.5Cgfx_apps.5Csimple_draw.5Ctarget.5Cd1mx_mango_ghs.5Cobj.5Cr_tauj_main.101::
                        1923 .LDWlin101:
00000524 03ea           1924 	mov	3,r29
00000526 f515*          1925 	br	.L1839
                        1926 .L1837:
                        1927 --730:     } 
                        1928 --731:     else 
                        1929 --732:     {
                        1930 --733:         if ( Channel == R_TAUJ_CHANNEL_ALL) 
                        1931 --line733
                        1932 ..lin.C.3A.5Cgit.5Crh850.5Csrc.5Capp.5Cgfx_apps.5Csimple_draw.5Ctarget.5Cd1mx_mango_ghs.5Cobj.5Cr_tauj_main.102::
                        1933 .LDWlin102:
00000528 64ca           1934 	cmp	4,r25
0000052a ba05*          1935 	bne	.L1840
                        1936 --734:         {
                        1937 --735:             error_mode = R_TAUJ_ERR_RANGE;
                        1938 --line735
                        1939 ..lin.C.3A.5Cgit.5Crh850.5Csrc.5Capp.5Cgfx_apps.5Csimple_draw.5Ctarget.5Cd1mx_mango_ghs.5Cobj.5Cr_tauj_main.103::
                        1940 .LDWlin103:
0000052c 02ea           1941 	mov	2,r29
0000052e b515*          1942 	br	.L1839
                        1943 .L1840:
                        1944 --736:         } 
                        1945 --737:         else 
                        1946 --738:         {
                        1947 --739:             base_address = R_TAUJ_Dev[Unit].BaseAddr;
                        1948 --line739
                        1949 ..lin.C.3A.5Cgit.5Crh850.5Csrc.5Capp.5Cgfx_apps.5Csimple_draw.5Ctarget.5Cd1mx_mango_ghs.5Cobj.5Cr_tauj_main.104::
                        1950 .LDWlin104:
00000530 1af0           1951 	mov	r26,ep
00000532 fe00           1952 	sxh	ep
00000534 fef61400       1953 	mulhi	20,ep,ep
00000538 2e0600000000*  1954 	mov	_R_TAUJ_Dev,r14
0000053e cef1           1955 	add	r14,ep
00000540 00e5           1956 	sld.w	0[ep],r28
                        1957 --740:             offset_address = R_TAUJ0_CSC0 + loc_GetChannelAddress(Channel);
00000542 1930           1958 	mov	r25,r6
                        1959 	jarl	_loc_GetChannelAddress,lp
                        1959 <EXPANSION BEGIN>
                        1959 jarl22 _loc_GetChannelAddress , lp 
00000544 bfff14fb*      1959 <EXPANSION END>
00000548 0ade4000       1960 	addi	64,r10,r27

                                                                      Page 34
                                                              C:\Users\Frank\AppData\Local\Temp\gh_0000oso1.si
                        1961 --741:             /* update the CSC Channel Status Clear Register */
                        1962 --742:             R_TAUJ_WRITE16(base_address + offset_address, 0x0001);
                        1963 --line742
                        1964 ..lin.C.3A.5Cgit.5Crh850.5Csrc.5Capp.5Cgfx_apps.5Csimple_draw.5Ctarget.5Cd1mx_mango_ghs.5Cobj.5Cr_tauj_main.105::
                        1965 .LDWlin105:
0000054c 1bf0           1966 	mov	r27,ep
0000054e dcf1           1967 	add	r28,ep
00000550 010a           1968 	mov	1,r1
00000552 800c           1969 	sst.h	r1,0[ep]
                        1970 .L1839:
                        1971 --743:         }
                        1972 --744:     }
                        1973 --746:     return error_mode;
00000554 1d50           1974 	mov	r29,r10
                        1975 --	    .ef
                        1976 .LDW83:
00000556 4006ff70       1977 	dispose	0,{r25,r26,r27,r28,r29,r31},[lp]
                        1978 	.type	_R_TAUJ_ClearOverflow,@function
                        1979 	.size	_R_TAUJ_ClearOverflow,.-_R_TAUJ_ClearOverflow
                        1980 	.align	2
                        1981 .LDW93:
                        1982 --_error_mode	r29	local
                        1983 --_base_address	r28	local
                        1984 --_offset_address	r27	local
                        1985 
                        1986 --_Unit	r26	param
                        1987 --_Channel	r25	param
                        1988 
                        1989 	.section ".bss","awb"
                        1990 .L1910:
                        1991 	.type	.L1910,@object
                        1992 	.size	.L1910,0
                        1993 	.data
                        1994 	.text
                        1995 
                        1996 --747: }
                        1997 
                        1998 --750: /***********************************************************
                        1999 --751:   Function: R_TAUJ_SetMode
                        2000 --752: */
                        2001 --754: r_tauj_Error_t R_TAUJ_SetMode(uint32_t Unit, r_tauj_Channel_t Channel, r_tauj_Mode_t Mode) 
                        2002 	.align	2
                        2003 	.align	2
                        2004 	.global	_R_TAUJ_SetMode
                        2005 _R_TAUJ_SetMode:
0000055a 8607e170       2006 	prepare	{r25,r26,r27,r28,r29,r31},3
0000055e 63370500       2007 	st.w	r6,4[sp]
00000562 08e0           2008 	mov	r8,r28
00000564 633f0900       2009 	st.w	r7,8[sp]
00000568 00ea           2010 	mov	0,r29
                        2011 --	    .bf
                        2012 .LDW04:
                        2013 --755: {
                        2014 --756:     r_tauj_Error_t error_mode = R_TAUJ_ERR_OK;
0000056a 00ca           2015 	mov	0,r25
                        2016 --757:     uint32_t base_address = 0;
0000056c 00da           2017 	mov	0,r27
                        2018 --758:     uint32_t offset_address = 0;
0000056e 00d2           2019 	mov	0,r26
                        2020 --759:     r_tauj_RegCmor_t r_tauj_RegCmor;
                        2021 --761:     /* check the instance is allowed */

                                                                      Page 35
                                                              C:\Users\Frank\AppData\Local\Temp\gh_0000oso1.si
                        2022 --762:     if (Unit > (R_TAUJ_MACRO_NUM - 1)) 
00000570 235f0500       2023 	ld.w	4[sp],r11
00000574 e059           2024 	cmp	zero,r11
00000576 c305*          2025 	bnh	.L1954
                        2026 --763:     {
                        2027 --764:         /* instance too high */
                        2028 --765:         error_mode = R_TAUJ_ERR_INSTANCE;
                        2029 --line765
                        2030 ..lin.C.3A.5Cgit.5Crh850.5Csrc.5Capp.5Cgfx_apps.5Csimple_draw.5Ctarget.5Cd1mx_mango_ghs.5Cobj.5Cr_tauj_main.106::
                        2031 .LDWlin106:
00000578 03ca           2032 	mov	3,r25
0000057a 80073a01*      2033 	br	.L1956
                        2034 .L1954:
                        2035 --766:     } 
                        2036 --767:     else 
                        2037 --768:     {
                        2038 --769:         /* ok, update the CMOR register value */
                        2039 --770:         base_address = R_TAUJ_Dev[Unit].BaseAddr;
                        2040 --line770
                        2041 ..lin.C.3A.5Cgit.5Crh850.5Csrc.5Capp.5Cgfx_apps.5Csimple_draw.5Ctarget.5Cd1mx_mango_ghs.5Cobj.5Cr_tauj_main.107::
                        2042 .LDWlin107:
0000057e 235f0500       2043 	ld.w	4[sp],r11
00000582 2c0600000000*  2044 	mov	_R_TAUJ_Dev,r12
00000588 0bf0           2045 	mov	r11,ep
0000058a fe00           2046 	sxh	ep
0000058c fef61400       2047 	mulhi	20,ep,ep
00000590 ccf1           2048 	add	r12,ep
00000592 00dd           2049 	sld.w	0[ep],r27
                        2050 --771:         offset_address = R_TAUJ0_CMOR0 + loc_GetChannelAddress(Channel);
00000594 23370900       2051 	ld.w	8[sp],r6
                        2052 	jarl	_loc_GetChannelAddress,lp
                        2052 <EXPANSION BEGIN>
                        2052 jarl22 _loc_GetChannelAddress , lp 
00000598 bfffc0fa*      2052 <EXPANSION END>
0000059c 0ad68000       2053 	addi	128,r10,r26
                        2054 --772:         r_tauj_RegCmor.Word = R_TAUJ_READ16(base_address + offset_address);
                        2055 --line772
                        2056 ..lin.C.3A.5Cgit.5Crh850.5Csrc.5Capp.5Cgfx_apps.5Csimple_draw.5Ctarget.5Cd1mx_mango_ghs.5Cobj.5Cr_tauj_main.108::
                        2057 .LDWlin108:
000005a0 1af0           2058 	mov	r26,ep
000005a2 dbf1           2059 	add	r27,ep
000005a4 70e8           2060 	sld.hu	0[ep],r29
                        2061 --774:         /* timer interval */
                        2062 --775:         if ( Mode == R_TAUJ_INTERVAL_TIMER_MODE) 
000005a6 e0e1           2063 	cmp	zero,r28
000005a8 fa05*          2064 	bne	.L1957
                        2065 --776:         {
                        2066 --777:             r_tauj_RegCmor.Bits.Md = LOC_INTERVAL_TIMER_MODE;
                        2067 --line777
                        2068 ..lin.C.3A.5Cgit.5Crh850.5Csrc.5Capp.5Cgfx_apps.5Csimple_draw.5Ctarget.5Cd1mx_mango_ghs.5Cobj.5Cr_tauj_main.109::
                        2069 .LDWlin109:
000005aa dd0ee1ff       2070 	andi	65505,r29,r1
000005ae c1eeffff       2071 	andi	65535,r1,r29
000005b2 80070201*      2072 	br	.L1956
                        2073 .L1957:
                        2074 --778:         } 
                        2075 --779:         else if ( Mode == R_TAUJ_RFU_JUDGE_MODE) 
                        2076 --line779
                        2077 ..lin.C.3A.5Cgit.5Crh850.5Csrc.5Capp.5Cgfx_apps.5Csimple_draw.5Ctarget.5Cd1mx_mango_ghs.5Cobj.5Cr_tauj_main.110::
                        2078 .LDWlin110:
000005b6 61e2           2079 	cmp	1,r28

                                                                      Page 36
                                                              C:\Users\Frank\AppData\Local\Temp\gh_0000oso1.si
000005b8 8a0d*          2080 	bne	.L1960
                        2081 --780:         {
                        2082 --781:             r_tauj_RegCmor.Bits.Md = LOC_RFU_JUDGE_MODE;
                        2083 --line781
                        2084 ..lin.C.3A.5Cgit.5Crh850.5Csrc.5Capp.5Cgfx_apps.5Csimple_draw.5Ctarget.5Cd1mx_mango_ghs.5Cobj.5Cr_tauj_main.111::
                        2085 .LDWlin111:
000005ba 1d08           2086 	mov	r29,r1
000005bc 0172           2087 	mov	1,r14
000005be ee0fd240       2088 	bins	r14,1,4,r1
000005c2 c1eeffff       2089 	andi	65535,r1,r29
000005c6 f575*          2090 	br	.L1956
                        2091 .L1960:
                        2092 --782:         } 
                        2093 --783:         else if ( Mode == R_TAUJ_CAPTURE_MODE) 
                        2094 --line783
                        2095 ..lin.C.3A.5Cgit.5Crh850.5Csrc.5Capp.5Cgfx_apps.5Csimple_draw.5Ctarget.5Cd1mx_mango_ghs.5Cobj.5Cr_tauj_main.112::
                        2096 .LDWlin112:
000005c8 62e2           2097 	cmp	2,r28
000005ca 8a0d*          2098 	bne	.L1963
                        2099 --784:         {
                        2100 --785:             r_tauj_RegCmor.Bits.Md = LOC_CAPTURE_MODE;
                        2101 --line785
                        2102 ..lin.C.3A.5Cgit.5Crh850.5Csrc.5Capp.5Cgfx_apps.5Csimple_draw.5Ctarget.5Cd1mx_mango_ghs.5Cobj.5Cr_tauj_main.113::
                        2103 .LDWlin113:
000005cc 1d08           2104 	mov	r29,r1
000005ce 0272           2105 	mov	2,r14
000005d0 ee0fd240       2106 	bins	r14,1,4,r1
000005d4 c1eeffff       2107 	andi	65535,r1,r29
000005d8 e56d*          2108 	br	.L1956
                        2109 .L1963:
                        2110 --786:         } 
                        2111 --787:         else if ( Mode == R_TAUJ_RFU_EVENT_COUNT_MODE) 
                        2112 --line787
                        2113 ..lin.C.3A.5Cgit.5Crh850.5Csrc.5Capp.5Cgfx_apps.5Csimple_draw.5Ctarget.5Cd1mx_mango_ghs.5Cobj.5Cr_tauj_main.114::
                        2114 .LDWlin114:
000005da 63e2           2115 	cmp	3,r28
000005dc 8a0d*          2116 	bne	.L1966
                        2117 --788:         {
                        2118 --789:             r_tauj_RegCmor.Bits.Md = LOC_RFU_EVENT_COUNT_MODE;
                        2119 --line789
                        2120 ..lin.C.3A.5Cgit.5Crh850.5Csrc.5Capp.5Cgfx_apps.5Csimple_draw.5Ctarget.5Cd1mx_mango_ghs.5Cobj.5Cr_tauj_main.115::
                        2121 .LDWlin115:
000005de 1d08           2122 	mov	r29,r1
000005e0 0372           2123 	mov	3,r14
000005e2 ee0fd240       2124 	bins	r14,1,4,r1
000005e6 c1eeffff       2125 	andi	65535,r1,r29
000005ea d565*          2126 	br	.L1956
                        2127 .L1966:
                        2128 --790:         } 
                        2129 --791:         else if ( Mode == R_TAUJ_ONE_COUNT_MODE) 
                        2130 --line791
                        2131 ..lin.C.3A.5Cgit.5Crh850.5Csrc.5Capp.5Cgfx_apps.5Csimple_draw.5Ctarget.5Cd1mx_mango_ghs.5Cobj.5Cr_tauj_main.116::
                        2132 .LDWlin116:
000005ec 64e2           2133 	cmp	4,r28
000005ee 8a0d*          2134 	bne	.L1969
                        2135 --792:         {
                        2136 --793:             r_tauj_RegCmor.Bits.Md = LOC_ONE_COUNT_MODE;
                        2137 --line793
                        2138 ..lin.C.3A.5Cgit.5Crh850.5Csrc.5Capp.5Cgfx_apps.5Csimple_draw.5Ctarget.5Cd1mx_mango_ghs.5Cobj.5Cr_tauj_main.117::
                        2139 .LDWlin117:
000005f0 1d08           2140 	mov	r29,r1

                                                                      Page 37
                                                              C:\Users\Frank\AppData\Local\Temp\gh_0000oso1.si
000005f2 0472           2141 	mov	4,r14
000005f4 ee0fd240       2142 	bins	r14,1,4,r1
000005f8 c1eeffff       2143 	andi	65535,r1,r29
000005fc c55d*          2144 	br	.L1956
                        2145 .L1969:
                        2146 --794:         } 
                        2147 --795:         else if ( Mode == R_TAUJ_RFU_TRIGGER_START_MODE) 
                        2148 --line795
                        2149 ..lin.C.3A.5Cgit.5Crh850.5Csrc.5Capp.5Cgfx_apps.5Csimple_draw.5Ctarget.5Cd1mx_mango_ghs.5Cobj.5Cr_tauj_main.118::
                        2150 .LDWlin118:
000005fe 65e2           2151 	cmp	5,r28
00000600 8a0d*          2152 	bne	.L1972
                        2153 --796:         {
                        2154 --797:             r_tauj_RegCmor.Bits.Md = LOC_RFU_TRIGGER_START_MODE;
                        2155 --line797
                        2156 ..lin.C.3A.5Cgit.5Crh850.5Csrc.5Capp.5Cgfx_apps.5Csimple_draw.5Ctarget.5Cd1mx_mango_ghs.5Cobj.5Cr_tauj_main.119::
                        2157 .LDWlin119:
00000602 1d08           2158 	mov	r29,r1
00000604 0572           2159 	mov	5,r14
00000606 ee0fd240       2160 	bins	r14,1,4,r1
0000060a c1eeffff       2161 	andi	65535,r1,r29
0000060e b555*          2162 	br	.L1956
                        2163 .L1972:
                        2164 --798:         } 
                        2165 --799:         else if ( Mode == R_TAUJ_CAPTURE_ONE_COUNT_MODE) 
                        2166 --line799
                        2167 ..lin.C.3A.5Cgit.5Crh850.5Csrc.5Capp.5Cgfx_apps.5Csimple_draw.5Ctarget.5Cd1mx_mango_ghs.5Cobj.5Cr_tauj_main.120::
                        2168 .LDWlin120:
00000610 66e2           2169 	cmp	6,r28
00000612 8a0d*          2170 	bne	.L1975
                        2171 --800:         {
                        2172 --801:             r_tauj_RegCmor.Bits.Md = LOC_CAPTURE_ONE_COUNT_MODE;
                        2173 --line801
                        2174 ..lin.C.3A.5Cgit.5Crh850.5Csrc.5Capp.5Cgfx_apps.5Csimple_draw.5Ctarget.5Cd1mx_mango_ghs.5Cobj.5Cr_tauj_main.121::
                        2175 .LDWlin121:
00000614 1d08           2176 	mov	r29,r1
00000616 0672           2177 	mov	6,r14
00000618 ee0fd240       2178 	bins	r14,1,4,r1
0000061c c1eeffff       2179 	andi	65535,r1,r29
00000620 a54d*          2180 	br	.L1956
                        2181 .L1975:
                        2182 --802:         } 
                        2183 --803:         else if ( Mode == R_TAUJ_RFU_JUDGE_ONE_COUNT_MODE) 
                        2184 --line803
                        2185 ..lin.C.3A.5Cgit.5Crh850.5Csrc.5Capp.5Cgfx_apps.5Csimple_draw.5Ctarget.5Cd1mx_mango_ghs.5Cobj.5Cr_tauj_main.122::
                        2186 .LDWlin122:
00000622 67e2           2187 	cmp	7,r28
00000624 8a0d*          2188 	bne	.L1978
                        2189 --804:         {
                        2190 --805:             r_tauj_RegCmor.Bits.Md = LOC_RFU_JUDGE_ONE_COUNT_MODE;
                        2191 --line805
                        2192 ..lin.C.3A.5Cgit.5Crh850.5Csrc.5Capp.5Cgfx_apps.5Csimple_draw.5Ctarget.5Cd1mx_mango_ghs.5Cobj.5Cr_tauj_main.123::
                        2193 .LDWlin123:
00000626 1d08           2194 	mov	r29,r1
00000628 0772           2195 	mov	7,r14
0000062a ee0fd240       2196 	bins	r14,1,4,r1
0000062e c1eeffff       2197 	andi	65535,r1,r29
00000632 9545*          2198 	br	.L1956
                        2199 .L1978:
                        2200 --806:         } 
                        2201 --807:         else if ( Mode == R_TAUJ_RFU_INTERVAL_ONE_COUNT_MODE) 

                                                                      Page 38
                                                              C:\Users\Frank\AppData\Local\Temp\gh_0000oso1.si
                        2202 --line807
                        2203 ..lin.C.3A.5Cgit.5Crh850.5Csrc.5Capp.5Cgfx_apps.5Csimple_draw.5Ctarget.5Cd1mx_mango_ghs.5Cobj.5Cr_tauj_main.124::
                        2204 .LDWlin124:
00000634 68e2           2205 	cmp	8,r28
00000636 8a0d*          2206 	bne	.L1981
                        2207 --808:         {
                        2208 --809:             r_tauj_RegCmor.Bits.Md = LOC_RFU_INTERVAL_ONE_COUNT_MODE;
                        2209 --line809
                        2210 ..lin.C.3A.5Cgit.5Crh850.5Csrc.5Capp.5Cgfx_apps.5Csimple_draw.5Ctarget.5Cd1mx_mango_ghs.5Cobj.5Cr_tauj_main.125::
                        2211 .LDWlin125:
00000638 1d08           2212 	mov	r29,r1
0000063a 0872           2213 	mov	8,r14
0000063c ee0fd240       2214 	bins	r14,1,4,r1
00000640 c1eeffff       2215 	andi	65535,r1,r29
00000644 853d*          2216 	br	.L1956
                        2217 .L1981:
                        2218 --810:         } 
                        2219 --811:         else if ( Mode == R_TAUJ_RFU_UP_DOWN_COUNT_MODE) 
                        2220 --line811
                        2221 ..lin.C.3A.5Cgit.5Crh850.5Csrc.5Capp.5Cgfx_apps.5Csimple_draw.5Ctarget.5Cd1mx_mango_ghs.5Cobj.5Cr_tauj_main.126::
                        2222 .LDWlin126:
00000646 69e2           2223 	cmp	9,r28
00000648 8a0d*          2224 	bne	.L1984
                        2225 --812:         {
                        2226 --813:             r_tauj_RegCmor.Bits.Md = LOC_RFU_UP_DOWN_COUNT_MODE;
                        2227 --line813
                        2228 ..lin.C.3A.5Cgit.5Crh850.5Csrc.5Capp.5Cgfx_apps.5Csimple_draw.5Ctarget.5Cd1mx_mango_ghs.5Cobj.5Cr_tauj_main.127::
                        2229 .LDWlin127:
0000064a 1d08           2230 	mov	r29,r1
0000064c 0972           2231 	mov	9,r14
0000064e ee0fd240       2232 	bins	r14,1,4,r1
00000652 c1eeffff       2233 	andi	65535,r1,r29
00000656 f52d*          2234 	br	.L1956
                        2235 .L1984:
                        2236 --814:         } 
                        2237 --815:         else if ( Mode == R_TAUJ_RFU_PULSE_ONE_COUNT_MODE) 
                        2238 --line815
                        2239 ..lin.C.3A.5Cgit.5Crh850.5Csrc.5Capp.5Cgfx_apps.5Csimple_draw.5Ctarget.5Cd1mx_mango_ghs.5Cobj.5Cr_tauj_main.128::
                        2240 .LDWlin128:
00000658 6ae2           2241 	cmp	10,r28
0000065a 8a0d*          2242 	bne	.L1987
                        2243 --816:         {
                        2244 --817:             r_tauj_RegCmor.Bits.Md = LOC_RFU_PULSE_ONE_COUNT_MODE;
                        2245 --line817
                        2246 ..lin.C.3A.5Cgit.5Crh850.5Csrc.5Capp.5Cgfx_apps.5Csimple_draw.5Ctarget.5Cd1mx_mango_ghs.5Cobj.5Cr_tauj_main.129::
                        2247 .LDWlin129:
0000065c 1d08           2248 	mov	r29,r1
0000065e 0a72           2249 	mov	10,r14
00000660 ee0fd240       2250 	bins	r14,1,4,r1
00000664 c1eeffff       2251 	andi	65535,r1,r29
00000668 e525*          2252 	br	.L1956
                        2253 .L1987:
                        2254 --818:         } 
                        2255 --819:         else if ( Mode == R_TAUJ_RFU_INTERVAL_ONE_COUNT_MODE) 
                        2256 --line819
                        2257 ..lin.C.3A.5Cgit.5Crh850.5Csrc.5Capp.5Cgfx_apps.5Csimple_draw.5Ctarget.5Cd1mx_mango_ghs.5Cobj.5Cr_tauj_main.130::
                        2258 .LDWlin130:
0000066a 68e2           2259 	cmp	8,r28
0000066c 8a0d*          2260 	bne	.L1990
                        2261 --820:         {
                        2262 --821:             r_tauj_RegCmor.Bits.Md = LOC_RFU_INTERVAL_ONE_COUNT_MODE;

                                                                      Page 39
                                                              C:\Users\Frank\AppData\Local\Temp\gh_0000oso1.si
                        2263 --line821
                        2264 ..lin.C.3A.5Cgit.5Crh850.5Csrc.5Capp.5Cgfx_apps.5Csimple_draw.5Ctarget.5Cd1mx_mango_ghs.5Cobj.5Cr_tauj_main.131::
                        2265 .LDWlin131:
0000066e 1d08           2266 	mov	r29,r1
00000670 0872           2267 	mov	8,r14
00000672 ee0fd240       2268 	bins	r14,1,4,r1
00000676 c1eeffff       2269 	andi	65535,r1,r29
0000067a d51d*          2270 	br	.L1956
                        2271 .L1990:
                        2272 --822:         } 
                        2273 --823:         else if ( Mode == R_TAUJ_COUNT_CAPTURE_MODE) 
                        2274 --line823
                        2275 ..lin.C.3A.5Cgit.5Crh850.5Csrc.5Capp.5Cgfx_apps.5Csimple_draw.5Ctarget.5Cd1mx_mango_ghs.5Cobj.5Cr_tauj_main.132::
                        2276 .LDWlin132:
0000067c 6be2           2277 	cmp	11,r28
0000067e 8a0d*          2278 	bne	.L1993
                        2279 --824:         {
                        2280 --825:             r_tauj_RegCmor.Bits.Md = LOC_COUNT_CAPTURE_MODE;
                        2281 --line825
                        2282 ..lin.C.3A.5Cgit.5Crh850.5Csrc.5Capp.5Cgfx_apps.5Csimple_draw.5Ctarget.5Cd1mx_mango_ghs.5Cobj.5Cr_tauj_main.133::
                        2283 .LDWlin133:
00000680 1d08           2284 	mov	r29,r1
00000682 0b72           2285 	mov	11,r14
00000684 ee0fd240       2286 	bins	r14,1,4,r1
00000688 c1eeffff       2287 	andi	65535,r1,r29
0000068c c515*          2288 	br	.L1956
                        2289 .L1993:
                        2290 --826:         } 
                        2291 --827:         else if ( Mode == R_TAUJ_GATE_COUNT_MODE) 
                        2292 --line827
                        2293 ..lin.C.3A.5Cgit.5Crh850.5Csrc.5Capp.5Cgfx_apps.5Csimple_draw.5Ctarget.5Cd1mx_mango_ghs.5Cobj.5Cr_tauj_main.134::
                        2294 .LDWlin134:
0000068e 6ce2           2295 	cmp	12,r28
00000690 8a0d*          2296 	bne	.L1996
                        2297 --828:         {
                        2298 --829:             r_tauj_RegCmor.Bits.Md = LOC_GATE_COUNT_MODE;
                        2299 --line829
                        2300 ..lin.C.3A.5Cgit.5Crh850.5Csrc.5Capp.5Cgfx_apps.5Csimple_draw.5Ctarget.5Cd1mx_mango_ghs.5Cobj.5Cr_tauj_main.135::
                        2301 .LDWlin135:
00000692 1d08           2302 	mov	r29,r1
00000694 0c72           2303 	mov	12,r14
00000696 ee0fd240       2304 	bins	r14,1,4,r1
0000069a c1eeffff       2305 	andi	65535,r1,r29
0000069e b50d*          2306 	br	.L1956
                        2307 .L1996:
                        2308 --830:         } 
                        2309 --831:         else if ( Mode == R_TAUJ_CAPTURE_GATE_COUNT_MODE) 
                        2310 --line831
                        2311 ..lin.C.3A.5Cgit.5Crh850.5Csrc.5Capp.5Cgfx_apps.5Csimple_draw.5Ctarget.5Cd1mx_mango_ghs.5Cobj.5Cr_tauj_main.136::
                        2312 .LDWlin136:
000006a0 6de2           2313 	cmp	13,r28
000006a2 8a0d*          2314 	bne	.L1999
                        2315 --832:         {
                        2316 --833:             r_tauj_RegCmor.Bits.Md = LOC_CAPTURE_GATE_COUNT_MODE;
                        2317 --line833
                        2318 ..lin.C.3A.5Cgit.5Crh850.5Csrc.5Capp.5Cgfx_apps.5Csimple_draw.5Ctarget.5Cd1mx_mango_ghs.5Cobj.5Cr_tauj_main.137::
                        2319 .LDWlin137:
000006a4 1d08           2320 	mov	r29,r1
000006a6 0d72           2321 	mov	13,r14
000006a8 ee0fd240       2322 	bins	r14,1,4,r1
000006ac c1eeffff       2323 	andi	65535,r1,r29

                                                                      Page 40
                                                              C:\Users\Frank\AppData\Local\Temp\gh_0000oso1.si
000006b0 a505*          2324 	br	.L1956
                        2325 .L1999:
                        2326 --834:         } 
                        2327 --835:         else 
                        2328 --836:         {
                        2329 --837:             /* error */
                        2330 --838:             error_mode = R_TAUJ_ERR_RANGE;
                        2331 --line838
                        2332 ..lin.C.3A.5Cgit.5Crh850.5Csrc.5Capp.5Cgfx_apps.5Csimple_draw.5Ctarget.5Cd1mx_mango_ghs.5Cobj.5Cr_tauj_main.138::
                        2333 .LDWlin138:
000006b2 02ca           2334 	mov	2,r25
                        2335 .L1956:
                        2336 --839:         }
                        2337 --840:     }
                        2338 --842:     /* if no error then update the register */
                        2339 --843:     if (error_mode == R_TAUJ_ERR_OK) 
000006b4 e0c9           2340 	cmp	zero,r25
000006b6 ea1d*          2341 	bne	.L2002
                        2342 --844:     {
                        2343 --845:         /* update the CMOR Channel Mode OS Register */
                        2344 --846:         base_address = R_TAUJ_Dev[Unit].BaseAddr;
                        2345 --line846
                        2346 ..lin.C.3A.5Cgit.5Crh850.5Csrc.5Capp.5Cgfx_apps.5Csimple_draw.5Ctarget.5Cd1mx_mango_ghs.5Cobj.5Cr_tauj_main.139::
                        2347 .LDWlin139:
000006b8 235f0500       2348 	ld.w	4[sp],r11
000006bc 2c0600000000*  2349 	mov	_R_TAUJ_Dev,r12
000006c2 0bf0           2350 	mov	r11,ep
000006c4 fe00           2351 	sxh	ep
000006c6 fef61400       2352 	mulhi	20,ep,ep
000006ca ccf1           2353 	add	r12,ep
000006cc 00dd           2354 	sld.w	0[ep],r27
                        2355 --847:         offset_address = R_TAUJ0_CMOR0 + loc_GetChannelAddress(Channel);
000006ce 23370900       2356 	ld.w	8[sp],r6
                        2357 	jarl	_loc_GetChannelAddress,lp
                        2357 <EXPANSION BEGIN>
                        2357 jarl22 _loc_GetChannelAddress , lp 
000006d2 bfff86f9*      2357 <EXPANSION END>
000006d6 0ad68000       2358 	addi	128,r10,r26
                        2359 --848:         R_TAUJ_WRITE16(base_address + offset_address, r_tauj_RegCmor.Word);
                        2360 --line848
                        2361 ..lin.C.3A.5Cgit.5Crh850.5Csrc.5Capp.5Cgfx_apps.5Csimple_draw.5Ctarget.5Cd1mx_mango_ghs.5Cobj.5Cr_tauj_main.140::
                        2362 .LDWlin140:
000006da 1af0           2363 	mov	r26,ep
000006dc dbf1           2364 	add	r27,ep
000006de 80ec           2365 	sst.h	r29,0[ep]
                        2366 --849:         /* check values! */
                        2367 --850:         while (R_TAUJ_READ16(base_address + offset_address) != r_tauj_RegCmor.Word) 
000006e0 c505*          2368 	br	.L2004
                        2369 .L2006:
                        2370 --851:         {
                        2371 --852:             R_TAUJ_WRITE16(base_address + offset_address, r_tauj_RegCmor.Word);
                        2372 --line852
                        2373 ..lin.C.3A.5Cgit.5Crh850.5Csrc.5Capp.5Cgfx_apps.5Csimple_draw.5Ctarget.5Cd1mx_mango_ghs.5Cobj.5Cr_tauj_main.141::
                        2374 .LDWlin141:
000006e2 1af0           2375 	mov	r26,ep
000006e4 dbf1           2376 	add	r27,ep
000006e6 80ec           2377 	sst.h	r29,0[ep]
                        2378 .L2004:
000006e8 1af0           2379 	mov	r26,ep
000006ea dbf1           2380 	add	r27,ep
000006ec 7008           2381 	sld.hu	0[ep],r1

                                                                      Page 41
                                                              C:\Users\Frank\AppData\Local\Temp\gh_0000oso1.si
000006ee fd09           2382 	cmp	r29,r1
000006f0 9afd*          2383 	bne	.L2006
                        2384 .L2002:
                        2385 --853:         }           
                        2386 --854:     }
                        2387 --855:     return error_mode;
                        2388 --line855
                        2389 ..lin.C.3A.5Cgit.5Crh850.5Csrc.5Capp.5Cgfx_apps.5Csimple_draw.5Ctarget.5Cd1mx_mango_ghs.5Cobj.5Cr_tauj_main.142::
                        2390 .LDWlin142:
000006f2 1950           2391 	mov	r25,r10
                        2392 --	    .ef
                        2393 .LDW14:
000006f4 4606ff70       2394 	dispose	3,{r25,r26,r27,r28,r29,r31},[lp]
                        2395 	.type	_R_TAUJ_SetMode,@function
                        2396 	.size	_R_TAUJ_SetMode,.-_R_TAUJ_SetMode
                        2397 	.align	2
                        2398 .LDW24:
                        2399 --_error_mode	r25	local
                        2400 --_base_address	r27	local
                        2401 --_offset_address	r26	local
                        2402 --_r_tauj_RegCmor	r29	local
                        2403 
                        2404 --_Unit	4[sp]	param
                        2405 --_Channel	8[sp]	param
                        2406 --_Mode	r28	param
                        2407 
                        2408 	.section ".bss","awb"
                        2409 .L2218:
                        2410 	.type	.L2218,@object
                        2411 	.size	.L2218,0
                        2412 	.data
                        2413 	.text
                        2414 
                        2415 --856: }
                        2416 
                        2417 --859: /***********************************************************
                        2418 --860:   Function: r_tauj_SetCaptureOverflow
                        2419 --861: */
                        2420 --863: r_tauj_Error_t R_TAUJ_SetCaptureOverflow(
                        2421 	.align	2
                        2422 	.align	2
                        2423 	.global	_R_TAUJ_SetCaptureOverflow
                        2424 _R_TAUJ_SetCaptureOverflow:
000006f8 8407e170       2425 	prepare	{r25,r26,r27,r28,r29,r31},2
000006fc 63370100       2426 	st.w	r6,0[sp]
00000700 08c8           2427 	mov	r8,r25
00000702 633f0500       2428 	st.w	r7,4[sp]
00000706 00ea           2429 	mov	0,r29
                        2430 --	    .bf
                        2431 .LDW34:
                        2432 --864:     uint32_t Unit,
                        2433 --865:     r_tauj_Channel_t Channel,
                        2434 --866:     r_tauj_Overflow_t Overflow)
                        2435 --867: {
                        2436 --868:     r_tauj_Error_t error_mode = R_TAUJ_ERR_OK;
00000708 00e2           2437 	mov	0,r28
                        2438 --869:     uint32_t base_address = 0;
0000070a 00da           2439 	mov	0,r27
                        2440 --870:     uint32_t offset_address = 0;
0000070c 00d2           2441 	mov	0,r26
                        2442 --871:     r_tauj_RegCmor_t r_tauj_RegCmor;

                                                                      Page 42
                                                              C:\Users\Frank\AppData\Local\Temp\gh_0000oso1.si
                        2443 --873:     /* check the instance is allowed */
                        2444 --874:     if (Unit > (R_TAUJ_MACRO_NUM - 1)) 
0000070e 235f0100       2445 	ld.w	0[sp],r11
00000712 e059           2446 	cmp	zero,r11
00000714 b305*          2447 	bnh	.L2373
                        2448 --875:     {
                        2449 --876:         /* instance too high */
                        2450 --877:         error_mode = R_TAUJ_ERR_INSTANCE;
                        2451 --line877
                        2452 ..lin.C.3A.5Cgit.5Crh850.5Csrc.5Capp.5Cgfx_apps.5Csimple_draw.5Ctarget.5Cd1mx_mango_ghs.5Cobj.5Cr_tauj_main.143::
                        2453 .LDWlin143:
00000716 03e2           2454 	mov	3,r28
00000718 e535*          2455 	br	.L2375
                        2456 .L2373:
                        2457 --878:     } 
                        2458 --879:     else 
                        2459 --880:     {
                        2460 --881:         /* ok, update the CMOR register value */
                        2461 --882:         base_address = R_TAUJ_Dev[Unit].BaseAddr;
                        2462 --line882
                        2463 ..lin.C.3A.5Cgit.5Crh850.5Csrc.5Capp.5Cgfx_apps.5Csimple_draw.5Ctarget.5Cd1mx_mango_ghs.5Cobj.5Cr_tauj_main.144::
                        2464 .LDWlin144:
0000071a 235f0100       2465 	ld.w	0[sp],r11
0000071e 2e0600000000*  2466 	mov	_R_TAUJ_Dev,r14
00000724 0bf0           2467 	mov	r11,ep
00000726 fe00           2468 	sxh	ep
00000728 fef61400       2469 	mulhi	20,ep,ep
0000072c cef1           2470 	add	r14,ep
0000072e 00dd           2471 	sld.w	0[ep],r27
                        2472 --883:         offset_address = R_TAUJ0_CMOR0 + loc_GetChannelAddress(Channel);
00000730 23370500       2473 	ld.w	4[sp],r6
                        2474 	jarl	_loc_GetChannelAddress,lp
                        2474 <EXPANSION BEGIN>
                        2474 jarl22 _loc_GetChannelAddress , lp 
00000734 bfff24f9*      2474 <EXPANSION END>
00000738 0ad68000       2475 	addi	128,r10,r26
                        2476 --884:         r_tauj_RegCmor.Word = R_TAUJ_READ16(base_address + offset_address);
                        2477 --line884
                        2478 ..lin.C.3A.5Cgit.5Crh850.5Csrc.5Capp.5Cgfx_apps.5Csimple_draw.5Ctarget.5Cd1mx_mango_ghs.5Cobj.5Cr_tauj_main.145::
                        2479 .LDWlin145:
0000073c 1af0           2480 	mov	r26,ep
0000073e dbf1           2481 	add	r27,ep
00000740 70e8           2482 	sld.hu	0[ep],r29
                        2483 --886:         /* timer interval */
                        2484 --887:         if ( Overflow == R_TAUJ_OVERFLOW_OPTION_0) 
00000742 e0c9           2485 	cmp	zero,r25
00000744 ea05*          2486 	bne	.L2376
                        2487 --888:         {
                        2488 --889:             r_tauj_RegCmor.Bits.Cos = 0;
                        2489 --line889
                        2490 ..lin.C.3A.5Cgit.5Crh850.5Csrc.5Capp.5Cgfx_apps.5Csimple_draw.5Ctarget.5Cd1mx_mango_ghs.5Cobj.5Cr_tauj_main.146::
                        2491 .LDWlin146:
00000746 dd0e3fff       2492 	andi	65343,r29,r1
0000074a c1eeffff       2493 	andi	65535,r1,r29
0000074e b51d*          2494 	br	.L2375
                        2495 .L2376:
                        2496 --890:         } 
                        2497 --891:         else if ( Overflow == R_TAUJ_OVERFLOW_OPTION_1) 
                        2498 --line891
                        2499 ..lin.C.3A.5Cgit.5Crh850.5Csrc.5Capp.5Cgfx_apps.5Csimple_draw.5Ctarget.5Cd1mx_mango_ghs.5Cobj.5Cr_tauj_main.147::
                        2500 .LDWlin147:

                                                                      Page 43
                                                              C:\Users\Frank\AppData\Local\Temp\gh_0000oso1.si
00000750 61ca           2501 	cmp	1,r25
00000752 8a0d*          2502 	bne	.L2379
                        2503 --892:         {
                        2504 --893:             r_tauj_RegCmor.Bits.Cos = 1;
                        2505 --line893
                        2506 ..lin.C.3A.5Cgit.5Crh850.5Csrc.5Capp.5Cgfx_apps.5Csimple_draw.5Ctarget.5Cd1mx_mango_ghs.5Cobj.5Cr_tauj_main.148::
                        2507 .LDWlin148:
00000754 1d08           2508 	mov	r29,r1
00000756 0172           2509 	mov	1,r14
00000758 ee0fdc70       2510 	bins	r14,6,2,r1
0000075c c1eeffff       2511 	andi	65535,r1,r29
00000760 a515*          2512 	br	.L2375
                        2513 .L2379:
                        2514 --894:         } 
                        2515 --895:         else if ( Overflow == R_TAUJ_OVERFLOW_OPTION_2) 
                        2516 --line895
                        2517 ..lin.C.3A.5Cgit.5Crh850.5Csrc.5Capp.5Cgfx_apps.5Csimple_draw.5Ctarget.5Cd1mx_mango_ghs.5Cobj.5Cr_tauj_main.149::
                        2518 .LDWlin149:
00000762 62ca           2519 	cmp	2,r25
00000764 8a0d*          2520 	bne	.L2382
                        2521 --896:         {
                        2522 --897:             r_tauj_RegCmor.Bits.Cos = 2;
                        2523 --line897
                        2524 ..lin.C.3A.5Cgit.5Crh850.5Csrc.5Capp.5Cgfx_apps.5Csimple_draw.5Ctarget.5Cd1mx_mango_ghs.5Cobj.5Cr_tauj_main.150::
                        2525 .LDWlin150:
00000766 1d08           2526 	mov	r29,r1
00000768 0272           2527 	mov	2,r14
0000076a ee0fdc70       2528 	bins	r14,6,2,r1
0000076e c1eeffff       2529 	andi	65535,r1,r29
00000772 950d*          2530 	br	.L2375
                        2531 .L2382:
                        2532 --898:         } 
                        2533 --899:         else if ( Overflow == R_TAUJ_OVERFLOW_OPTION_3) 
                        2534 --line899
                        2535 ..lin.C.3A.5Cgit.5Crh850.5Csrc.5Capp.5Cgfx_apps.5Csimple_draw.5Ctarget.5Cd1mx_mango_ghs.5Cobj.5Cr_tauj_main.151::
                        2536 .LDWlin151:
00000774 63ca           2537 	cmp	3,r25
00000776 ea05*          2538 	bne	.L2385
                        2539 --900:         {
                        2540 --901:             r_tauj_RegCmor.Bits.Cos = 3;
                        2541 --line901
                        2542 ..lin.C.3A.5Cgit.5Crh850.5Csrc.5Capp.5Cgfx_apps.5Csimple_draw.5Ctarget.5Cd1mx_mango_ghs.5Cobj.5Cr_tauj_main.152::
                        2543 .LDWlin152:
00000778 9d0ec000       2544 	ori	192,r29,r1
0000077c c1eeffff       2545 	andi	65535,r1,r29
00000780 a505*          2546 	br	.L2375
                        2547 .L2385:
                        2548 --902:         } 
                        2549 --903:         else 
                        2550 --904:         {
                        2551 --905:             /* error */
                        2552 --906:             error_mode = R_TAUJ_ERR_RANGE;
                        2553 --line906
                        2554 ..lin.C.3A.5Cgit.5Crh850.5Csrc.5Capp.5Cgfx_apps.5Csimple_draw.5Ctarget.5Cd1mx_mango_ghs.5Cobj.5Cr_tauj_main.153::
                        2555 .LDWlin153:
00000782 02e2           2556 	mov	2,r28
                        2557 .L2375:
                        2558 --907:         }
                        2559 --908:     }
                        2560 --910:     /* if no error then update the register */
                        2561 --911:     if ( error_mode == R_TAUJ_ERR_OK) 

                                                                      Page 44
                                                              C:\Users\Frank\AppData\Local\Temp\gh_0000oso1.si
00000784 e0e1           2562 	cmp	zero,r28
00000786 da0d*          2563 	bne	.L2388
                        2564 --912:     {
                        2565 --913:         /* update the CMOR Channel Mode OS Register */
                        2566 --914:         R_TAUJ_WRITE16(base_address + offset_address, r_tauj_RegCmor.Word);
                        2567 --line914
                        2568 ..lin.C.3A.5Cgit.5Crh850.5Csrc.5Capp.5Cgfx_apps.5Csimple_draw.5Ctarget.5Cd1mx_mango_ghs.5Cobj.5Cr_tauj_main.154::
                        2569 .LDWlin154:
00000788 1af0           2570 	mov	r26,ep
0000078a dbf1           2571 	add	r27,ep
0000078c 80ec           2572 	sst.h	r29,0[ep]
                        2573 --915:         /* check values! */
                        2574 --916:         while (R_TAUJ_READ16(base_address + offset_address) != r_tauj_RegCmor.Word) 
0000078e c505*          2575 	br	.L2390
                        2576 .L2392:
                        2577 --917:         {
                        2578 --918:             R_TAUJ_WRITE16(base_address + offset_address, r_tauj_RegCmor.Word);
                        2579 --line918
                        2580 ..lin.C.3A.5Cgit.5Crh850.5Csrc.5Capp.5Cgfx_apps.5Csimple_draw.5Ctarget.5Cd1mx_mango_ghs.5Cobj.5Cr_tauj_main.155::
                        2581 .LDWlin155:
00000790 1af0           2582 	mov	r26,ep
00000792 dbf1           2583 	add	r27,ep
00000794 80ec           2584 	sst.h	r29,0[ep]
                        2585 .L2390:
00000796 1af0           2586 	mov	r26,ep
00000798 dbf1           2587 	add	r27,ep
0000079a 7008           2588 	sld.hu	0[ep],r1
0000079c fd09           2589 	cmp	r29,r1
0000079e 9afd*          2590 	bne	.L2392
                        2591 .L2388:
                        2592 --919:         }           
                        2593 --920:     }
                        2594 --921:     return error_mode;
                        2595 --line921
                        2596 ..lin.C.3A.5Cgit.5Crh850.5Csrc.5Capp.5Cgfx_apps.5Csimple_draw.5Ctarget.5Cd1mx_mango_ghs.5Cobj.5Cr_tauj_main.156::
                        2597 .LDWlin156:
000007a0 1c50           2598 	mov	r28,r10
                        2599 --	    .ef
                        2600 .LDW44:
000007a2 4406ff70       2601 	dispose	2,{r25,r26,r27,r28,r29,r31},[lp]
                        2602 	.type	_R_TAUJ_SetCaptureOverflow,@function
                        2603 	.size	_R_TAUJ_SetCaptureOverflow,.-_R_TAUJ_SetCaptureOverflow
                        2604 	.align	2
                        2605 .LDW54:
                        2606 --_error_mode	r28	local
                        2607 --_base_address	r27	local
                        2608 --_offset_address	r26	local
                        2609 --_r_tauj_RegCmor	r29	local
                        2610 
                        2611 --_Unit	0[sp]	param
                        2612 --_Channel	4[sp]	param
                        2613 --_Overflow	r25	param
                        2614 
                        2615 	.section ".bss","awb"
                        2616 .L2506:
                        2617 	.type	.L2506,@object
                        2618 	.size	.L2506,0
                        2619 	.data
                        2620 	.text
                        2621 
                        2622 --922: }

                                                                      Page 45
                                                              C:\Users\Frank\AppData\Local\Temp\gh_0000oso1.si
                        2623 
                        2624 --925: /***********************************************************
                        2625 --926:   Function: R_TAUJ_EnableIntAtStartUp
                        2626 --927: */
                        2627 --929: r_tauj_Error_t R_TAUJ_EnableIntAtStartUp(
                        2628 	.align	2
                        2629 	.align	2
                        2630 	.global	_R_TAUJ_EnableIntAtStartUp
                        2631 _R_TAUJ_EnableIntAtStartUp:
000007a6 8607e170       2632 	prepare	{r25,r26,r27,r28,r29,r31},3
000007aa c85eff00       2633 	andi	255,r8,r11
000007ae 06c8           2634 	mov	r6,r25
000007b0 633f0900       2635 	st.w	r7,8[sp]
000007b4 00ea           2636 	mov	0,r29
000007b6 435f0300       2637 	st.b	r11,3[sp]
                        2638 --	    .bf
                        2639 .LDW64:
                        2640 --930:     uint32_t Unit,
                        2641 --931:     r_tauj_Channel_t Channel,
                        2642 --932:     uint8_t IntAtStartUp)
                        2643 --933: {
                        2644 --934:     r_tauj_Error_t error_mode = R_TAUJ_ERR_OK;
000007ba 00d2           2645 	mov	0,r26
                        2646 --935:     uint32_t base_address = 0;
000007bc 00e2           2647 	mov	0,r28
                        2648 --936:     uint32_t offset_address = 0;
000007be 00da           2649 	mov	0,r27
                        2650 --937:     r_tauj_RegCmor_t r_tauj_RegCmor;
                        2651 --939:     /* check the instance is allowed */
                        2652 --940:     if ( Unit > (R_TAUJ_MACRO_NUM - 1)) 
000007c0 e0c9           2653 	cmp	zero,r25
000007c2 b305*          2654 	bnh	.L2589
                        2655 --941:     {
                        2656 --942:         /* instance too high */
                        2657 --943:         error_mode = R_TAUJ_ERR_INSTANCE;
                        2658 --line943
                        2659 ..lin.C.3A.5Cgit.5Crh850.5Csrc.5Capp.5Cgfx_apps.5Csimple_draw.5Ctarget.5Cd1mx_mango_ghs.5Cobj.5Cr_tauj_main.157::
                        2660 .LDWlin157:
000007c4 03d2           2661 	mov	3,r26
000007c6 8525*          2662 	br	.L2591
                        2663 .L2589:
                        2664 --944:     } 
                        2665 --945:     else 
                        2666 --946:     {
                        2667 --947:         /* ok, update the CMOR register value */
                        2668 --948:         base_address = R_TAUJ_Dev[Unit].BaseAddr;
                        2669 --line948
                        2670 ..lin.C.3A.5Cgit.5Crh850.5Csrc.5Capp.5Cgfx_apps.5Csimple_draw.5Ctarget.5Cd1mx_mango_ghs.5Cobj.5Cr_tauj_main.158::
                        2671 .LDWlin158:
000007c8 19f0           2672 	mov	r25,ep
000007ca fe00           2673 	sxh	ep
000007cc fef61400       2674 	mulhi	20,ep,ep
000007d0 2b0600000000*  2675 	mov	_R_TAUJ_Dev,r11
000007d6 cbf1           2676 	add	r11,ep
000007d8 00e5           2677 	sld.w	0[ep],r28
                        2678 --949:         offset_address = R_TAUJ0_CMOR0 + loc_GetChannelAddress(Channel);
000007da 23370900       2679 	ld.w	8[sp],r6
                        2680 	jarl	_loc_GetChannelAddress,lp
                        2680 <EXPANSION BEGIN>
                        2680 jarl22 _loc_GetChannelAddress , lp 
000007de bfff7af8*      2680 <EXPANSION END>

                                                                      Page 46
                                                              C:\Users\Frank\AppData\Local\Temp\gh_0000oso1.si
000007e2 0ade8000       2681 	addi	128,r10,r27
                        2682 --950:         r_tauj_RegCmor.Word = R_TAUJ_READ16(base_address + offset_address);
                        2683 --line950
                        2684 ..lin.C.3A.5Cgit.5Crh850.5Csrc.5Capp.5Cgfx_apps.5Csimple_draw.5Ctarget.5Cd1mx_mango_ghs.5Cobj.5Cr_tauj_main.159::
                        2685 .LDWlin159:
000007e6 1bf0           2686 	mov	r27,ep
000007e8 dcf1           2687 	add	r28,ep
000007ea 70e8           2688 	sld.hu	0[ep],r29
                        2689 --952:         /* timer interval */
                        2690 --953:         if ( IntAtStartUp == 1) 
000007ec a35f0300       2691 	ld.bu	3[sp],r11
000007f0 615a           2692 	cmp	1,r11
000007f2 ea05*          2693 	bne	.L2592
                        2694 --954:         {
                        2695 --955:             r_tauj_RegCmor.Bits.Md0 = 1;
                        2696 --line955
                        2697 ..lin.C.3A.5Cgit.5Crh850.5Csrc.5Capp.5Cgfx_apps.5Csimple_draw.5Ctarget.5Cd1mx_mango_ghs.5Cobj.5Cr_tauj_main.160::
                        2698 .LDWlin160:
000007f4 9d0e0100       2699 	ori	1,r29,r1
000007f8 c1eeffff       2700 	andi	65535,r1,r29
000007fc d505*          2701 	br	.L2591
                        2702 .L2592:
                        2703 --956:         } 
                        2704 --957:         else 
                        2705 --958:         {
                        2706 --959:             r_tauj_RegCmor.Bits.Md0 = 0;
                        2707 --line959
                        2708 ..lin.C.3A.5Cgit.5Crh850.5Csrc.5Capp.5Cgfx_apps.5Csimple_draw.5Ctarget.5Cd1mx_mango_ghs.5Cobj.5Cr_tauj_main.161::
                        2709 .LDWlin161:
000007fe dd0efeff       2710 	andi	65534,r29,r1
00000802 c1eeffff       2711 	andi	65535,r1,r29
                        2712 .L2591:
                        2713 --960:         }
                        2714 --961:     }
                        2715 --963:     /* if no error then update the register */
                        2716 --964:     if ( error_mode == R_TAUJ_ERR_OK) 
00000806 e0d1           2717 	cmp	zero,r26
00000808 ca1d*          2718 	bne	.L2595
                        2719 --965:     {
                        2720 --966:         /* update the CMOR Channel Mode OS Register */
                        2721 --967:         base_address = R_TAUJ_Dev[Unit].BaseAddr;
                        2722 --line967
                        2723 ..lin.C.3A.5Cgit.5Crh850.5Csrc.5Capp.5Cgfx_apps.5Csimple_draw.5Ctarget.5Cd1mx_mango_ghs.5Cobj.5Cr_tauj_main.162::
                        2724 .LDWlin162:
0000080a 19f0           2725 	mov	r25,ep
0000080c fe00           2726 	sxh	ep
0000080e fef61400       2727 	mulhi	20,ep,ep
00000812 2b0600000000*  2728 	mov	_R_TAUJ_Dev,r11
00000818 cbf1           2729 	add	r11,ep
0000081a 00e5           2730 	sld.w	0[ep],r28
                        2731 --968:         offset_address = R_TAUJ0_CMOR0 + loc_GetChannelAddress(Channel);
0000081c 23370900       2732 	ld.w	8[sp],r6
                        2733 	jarl	_loc_GetChannelAddress,lp
                        2733 <EXPANSION BEGIN>
                        2733 jarl22 _loc_GetChannelAddress , lp 
00000820 bfff38f8*      2733 <EXPANSION END>
00000824 0ade8000       2734 	addi	128,r10,r27
                        2735 --969:         R_TAUJ_WRITE16(base_address + offset_address, r_tauj_RegCmor.Word);
                        2736 --line969
                        2737 ..lin.C.3A.5Cgit.5Crh850.5Csrc.5Capp.5Cgfx_apps.5Csimple_draw.5Ctarget.5Cd1mx_mango_ghs.5Cobj.5Cr_tauj_main.163::
                        2738 .LDWlin163:

                                                                      Page 47
                                                              C:\Users\Frank\AppData\Local\Temp\gh_0000oso1.si
00000828 1bf0           2739 	mov	r27,ep
0000082a dcf1           2740 	add	r28,ep
0000082c 80ec           2741 	sst.h	r29,0[ep]
                        2742 --970:         /* check values! */
                        2743 --971:         while (R_TAUJ_READ16(base_address + offset_address) != r_tauj_RegCmor.Word) 
0000082e c505*          2744 	br	.L2597
                        2745 .L2599:
                        2746 --972:         {
                        2747 --973:             R_TAUJ_WRITE16(base_address + offset_address, r_tauj_RegCmor.Word);
                        2748 --line973
                        2749 ..lin.C.3A.5Cgit.5Crh850.5Csrc.5Capp.5Cgfx_apps.5Csimple_draw.5Ctarget.5Cd1mx_mango_ghs.5Cobj.5Cr_tauj_main.164::
                        2750 .LDWlin164:
00000830 1bf0           2751 	mov	r27,ep
00000832 dcf1           2752 	add	r28,ep
00000834 80ec           2753 	sst.h	r29,0[ep]
                        2754 .L2597:
00000836 1bf0           2755 	mov	r27,ep
00000838 dcf1           2756 	add	r28,ep
0000083a 7008           2757 	sld.hu	0[ep],r1
0000083c fd09           2758 	cmp	r29,r1
0000083e 9afd*          2759 	bne	.L2599
                        2760 .L2595:
                        2761 --974:         }           
                        2762 --975:     }
                        2763 --976:     return error_mode;
                        2764 --line976
                        2765 ..lin.C.3A.5Cgit.5Crh850.5Csrc.5Capp.5Cgfx_apps.5Csimple_draw.5Ctarget.5Cd1mx_mango_ghs.5Cobj.5Cr_tauj_main.165::
                        2766 .LDWlin165:
00000840 1a50           2767 	mov	r26,r10
                        2768 --	    .ef
                        2769 .LDW74:
00000842 4606ff70       2770 	dispose	3,{r25,r26,r27,r28,r29,r31},[lp]
                        2771 	.type	_R_TAUJ_EnableIntAtStartUp,@function
                        2772 	.size	_R_TAUJ_EnableIntAtStartUp,.-_R_TAUJ_EnableIntAtStartUp
                        2773 	.align	2
                        2774 .LDW84:
                        2775 --_error_mode	r26	local
                        2776 --_base_address	r28	local
                        2777 --_offset_address	r27	local
                        2778 --_r_tauj_RegCmor	r29	local
                        2779 
                        2780 --_Unit	r25	param
                        2781 --_Channel	8[sp]	param
                        2782 --_IntAtStartUp	3[sp]	param
                        2783 
                        2784 	.section ".bss","awb"
                        2785 .L2698:
                        2786 	.type	.L2698,@object
                        2787 	.size	.L2698,0
                        2788 	.data
                        2789 	.text
                        2790 
                        2791 --977: }
                        2792 
                        2793 --980: /***********************************************************
                        2794 --981:   Function: R_TAUJ_SetMaster
                        2795 --982: */
                        2796 --984: r_tauj_Error_t R_TAUJ_SetMaster(uint32_t Unit, r_tauj_Channel_t Channel, uint8_t Master) 
                        2797 	.align	2
                        2798 	.align	2
                        2799 	.global	_R_TAUJ_SetMaster

                                                                      Page 48
                                                              C:\Users\Frank\AppData\Local\Temp\gh_0000oso1.si
                        2800 _R_TAUJ_SetMaster:
00000846 8607e170       2801 	prepare	{r25,r26,r27,r28,r29,r31},3
0000084a c85eff00       2802 	andi	255,r8,r11
0000084e 06c8           2803 	mov	r6,r25
00000850 633f0900       2804 	st.w	r7,8[sp]
00000854 00ea           2805 	mov	0,r29
00000856 435f0300       2806 	st.b	r11,3[sp]
                        2807 --	    .bf
                        2808 .LDW94:
                        2809 --985: {
                        2810 --986:     r_tauj_Error_t error_mode = R_TAUJ_ERR_OK;
0000085a 00d2           2811 	mov	0,r26
                        2812 --987:     uint32_t base_address = 0;
0000085c 00e2           2813 	mov	0,r28
                        2814 --988:     uint32_t offset_address = 0;
0000085e 00da           2815 	mov	0,r27
                        2816 --989:     r_tauj_RegCmor_t r_tauj_RegCmor;
                        2817 --991:     /* check the instance is allowed */
                        2818 --992:     if ( Unit > (R_TAUJ_MACRO_NUM - 1)) 
00000860 e0c9           2819 	cmp	zero,r25
00000862 b305*          2820 	bnh	.L2769
                        2821 --993:     {
                        2822 --994:         /* instance too high */
                        2823 --995:         error_mode = R_TAUJ_ERR_INSTANCE;
                        2824 --line995
                        2825 ..lin.C.3A.5Cgit.5Crh850.5Csrc.5Capp.5Cgfx_apps.5Csimple_draw.5Ctarget.5Cd1mx_mango_ghs.5Cobj.5Cr_tauj_main.166::
                        2826 .LDWlin166:
00000864 03d2           2827 	mov	3,r26
00000866 8525*          2828 	br	.L2771
                        2829 .L2769:
                        2830 --996:     } 
                        2831 --997:     else 
                        2832 --998:     {
                        2833 --999:         /* ok, update the CMOR register value */
                        2834 --1000:         base_address = R_TAUJ_Dev[Unit].BaseAddr;
                        2835 --line1000
                        2836 ..lin.C.3A.5Cgit.5Crh850.5Csrc.5Capp.5Cgfx_apps.5Csimple_draw.5Ctarget.5Cd1mx_mango_ghs.5Cobj.5Cr_tauj_main.167::
                        2837 .LDWlin167:
00000868 19f0           2838 	mov	r25,ep
0000086a fe00           2839 	sxh	ep
0000086c fef61400       2840 	mulhi	20,ep,ep
00000870 2b0600000000*  2841 	mov	_R_TAUJ_Dev,r11
00000876 cbf1           2842 	add	r11,ep
00000878 00e5           2843 	sld.w	0[ep],r28
                        2844 --1001:         offset_address = R_TAUJ0_CMOR0 + loc_GetChannelAddress(Channel);
0000087a 23370900       2845 	ld.w	8[sp],r6
                        2846 	jarl	_loc_GetChannelAddress,lp
                        2846 <EXPANSION BEGIN>
                        2846 jarl22 _loc_GetChannelAddress , lp 
0000087e bfffdaf7*      2846 <EXPANSION END>
00000882 0ade8000       2847 	addi	128,r10,r27
                        2848 --1002:         r_tauj_RegCmor.Word = R_TAUJ_READ16(base_address + offset_address);
                        2849 --line1002
                        2850 ..lin.C.3A.5Cgit.5Crh850.5Csrc.5Capp.5Cgfx_apps.5Csimple_draw.5Ctarget.5Cd1mx_mango_ghs.5Cobj.5Cr_tauj_main.168::
                        2851 .LDWlin168:
00000886 1bf0           2852 	mov	r27,ep
00000888 dcf1           2853 	add	r28,ep
0000088a 70e8           2854 	sld.hu	0[ep],r29
                        2855 --1004:         /* timer interval */
                        2856 --1005:         if ( Master == 1) 
0000088c a35f0300       2857 	ld.bu	3[sp],r11

                                                                      Page 49
                                                              C:\Users\Frank\AppData\Local\Temp\gh_0000oso1.si
00000890 615a           2858 	cmp	1,r11
00000892 ea05*          2859 	bne	.L2772
                        2860 --1006:         {
                        2861 --1007:             r_tauj_RegCmor.Bits.Mas = 1;
                        2862 --line1007
                        2863 ..lin.C.3A.5Cgit.5Crh850.5Csrc.5Capp.5Cgfx_apps.5Csimple_draw.5Ctarget.5Cd1mx_mango_ghs.5Cobj.5Cr_tauj_main.169::
                        2864 .LDWlin169:
00000894 9d0e0008       2865 	ori	2048,r29,r1
00000898 c1eeffff       2866 	andi	65535,r1,r29
0000089c d505*          2867 	br	.L2771
                        2868 .L2772:
                        2869 --1008:         } 
                        2870 --1009:         else 
                        2871 --1010:         {
                        2872 --1011:             r_tauj_RegCmor.Bits.Mas = 0;
                        2873 --line1011
                        2874 ..lin.C.3A.5Cgit.5Crh850.5Csrc.5Capp.5Cgfx_apps.5Csimple_draw.5Ctarget.5Cd1mx_mango_ghs.5Cobj.5Cr_tauj_main.170::
                        2875 .LDWlin170:
0000089e dd0efff7       2876 	andi	63487,r29,r1
000008a2 c1eeffff       2877 	andi	65535,r1,r29
                        2878 .L2771:
                        2879 --1012:         }
                        2880 --1013:     }
                        2881 --1015:     /* if no error then update the register */
                        2882 --1016:     if ( error_mode == R_TAUJ_ERR_OK) 
000008a6 e0d1           2883 	cmp	zero,r26
000008a8 ca1d*          2884 	bne	.L2775
                        2885 --1017:     {
                        2886 --1018:         /* update the CMOR Channel Mode OS Register */
                        2887 --1019:         base_address = R_TAUJ_Dev[Unit].BaseAddr;
                        2888 --line1019
                        2889 ..lin.C.3A.5Cgit.5Crh850.5Csrc.5Capp.5Cgfx_apps.5Csimple_draw.5Ctarget.5Cd1mx_mango_ghs.5Cobj.5Cr_tauj_main.171::
                        2890 .LDWlin171:
000008aa 19f0           2891 	mov	r25,ep
000008ac fe00           2892 	sxh	ep
000008ae fef61400       2893 	mulhi	20,ep,ep
000008b2 2b0600000000*  2894 	mov	_R_TAUJ_Dev,r11
000008b8 cbf1           2895 	add	r11,ep
000008ba 00e5           2896 	sld.w	0[ep],r28
                        2897 --1020:         offset_address = R_TAUJ0_CMOR0 + loc_GetChannelAddress(Channel);
000008bc 23370900       2898 	ld.w	8[sp],r6
                        2899 	jarl	_loc_GetChannelAddress,lp
                        2899 <EXPANSION BEGIN>
                        2899 jarl22 _loc_GetChannelAddress , lp 
000008c0 bfff98f7*      2899 <EXPANSION END>
000008c4 0ade8000       2900 	addi	128,r10,r27
                        2901 --1021:         R_TAUJ_WRITE16(base_address + offset_address, r_tauj_RegCmor.Word);
                        2902 --line1021
                        2903 ..lin.C.3A.5Cgit.5Crh850.5Csrc.5Capp.5Cgfx_apps.5Csimple_draw.5Ctarget.5Cd1mx_mango_ghs.5Cobj.5Cr_tauj_main.172::
                        2904 .LDWlin172:
000008c8 1bf0           2905 	mov	r27,ep
000008ca dcf1           2906 	add	r28,ep
000008cc 80ec           2907 	sst.h	r29,0[ep]
                        2908 --1022:         /* check values! */
                        2909 --1023:         while (R_TAUJ_READ16(base_address + offset_address) != r_tauj_RegCmor.Word) 
000008ce c505*          2910 	br	.L2777
                        2911 .L2779:
                        2912 --1024:         {
                        2913 --1025:             R_TAUJ_WRITE16(base_address + offset_address, r_tauj_RegCmor.Word);
                        2914 --line1025
                        2915 ..lin.C.3A.5Cgit.5Crh850.5Csrc.5Capp.5Cgfx_apps.5Csimple_draw.5Ctarget.5Cd1mx_mango_ghs.5Cobj.5Cr_tauj_main.173::

                                                                      Page 50
                                                              C:\Users\Frank\AppData\Local\Temp\gh_0000oso1.si
                        2916 .LDWlin173:
000008d0 1bf0           2917 	mov	r27,ep
000008d2 dcf1           2918 	add	r28,ep
000008d4 80ec           2919 	sst.h	r29,0[ep]
                        2920 .L2777:
000008d6 1bf0           2921 	mov	r27,ep
000008d8 dcf1           2922 	add	r28,ep
000008da 7008           2923 	sld.hu	0[ep],r1
000008dc fd09           2924 	cmp	r29,r1
000008de 9afd*          2925 	bne	.L2779
                        2926 .L2775:
                        2927 --1026:         }           
                        2928 --1027:     }
                        2929 --1028:     return error_mode;
                        2930 --line1028
                        2931 ..lin.C.3A.5Cgit.5Crh850.5Csrc.5Capp.5Cgfx_apps.5Csimple_draw.5Ctarget.5Cd1mx_mango_ghs.5Cobj.5Cr_tauj_main.174::
                        2932 .LDWlin174:
000008e0 1a50           2933 	mov	r26,r10
                        2934 --	    .ef
                        2935 .LDW05:
000008e2 4606ff70       2936 	dispose	3,{r25,r26,r27,r28,r29,r31},[lp]
                        2937 	.type	_R_TAUJ_SetMaster,@function
                        2938 	.size	_R_TAUJ_SetMaster,.-_R_TAUJ_SetMaster
                        2939 	.align	2
                        2940 .LDW15:
                        2941 --_error_mode	r26	local
                        2942 --_base_address	r28	local
                        2943 --_offset_address	r27	local
                        2944 --_r_tauj_RegCmor	r29	local
                        2945 
                        2946 --_Unit	r25	param
                        2947 --_Channel	8[sp]	param
                        2948 --_Master	3[sp]	param
                        2949 
                        2950 	.section ".bss","awb"
                        2951 .L2874:
                        2952 	.type	.L2874,@object
                        2953 	.size	.L2874,0
                        2954 	.data
                        2955 	.text
                        2956 
                        2957 --1029: }
                        2958 
                        2959 --1032: /***********************************************************
                        2960 --1033:   Function: R_TAUJ_SetTrigger
                        2961 --1034: */
                        2962 --1036: r_tauj_Error_t R_TAUJ_SetTrigger(uint32_t Unit, r_tauj_Channel_t Channel, r_tauj_Trigger_t Trigger) 
                        2963 	.align	2
                        2964 	.align	2
                        2965 	.global	_R_TAUJ_SetTrigger
                        2966 _R_TAUJ_SetTrigger:
000008e6 8607e170       2967 	prepare	{r25,r26,r27,r28,r29,r31},3
000008ea 63370500       2968 	st.w	r6,4[sp]
000008ee 08d0           2969 	mov	r8,r26
000008f0 633f0900       2970 	st.w	r7,8[sp]
000008f4 00ea           2971 	mov	0,r29
                        2972 --	    .bf
                        2973 .LDW25:
                        2974 --1037: {
                        2975 --1038:     r_tauj_Error_t error_mode = R_TAUJ_ERR_OK;
000008f6 00ca           2976 	mov	0,r25

                                                                      Page 51
                                                              C:\Users\Frank\AppData\Local\Temp\gh_0000oso1.si
                        2977 --1039:     uint32_t base_address = 0;
000008f8 00e2           2978 	mov	0,r28
                        2979 --1040:     uint32_t offset_address = 0;
000008fa 00da           2980 	mov	0,r27
                        2981 --1041:     r_tauj_RegCmor_t r_tauj_RegCmor;
                        2982 --1043:     /* check the instance is allowed */
                        2983 --1044:     if ( Unit > (R_TAUJ_MACRO_NUM - 1)) 
000008fc 235f0500       2984 	ld.w	4[sp],r11
00000900 e059           2985 	cmp	zero,r11
00000902 b305*          2986 	bnh	.L2945
                        2987 --1045:     {
                        2988 --1046:         /* instance too high */
                        2989 --1047:         error_mode = R_TAUJ_ERR_INSTANCE;
                        2990 --line1047
                        2991 ..lin.C.3A.5Cgit.5Crh850.5Csrc.5Capp.5Cgfx_apps.5Csimple_draw.5Ctarget.5Cd1mx_mango_ghs.5Cobj.5Cr_tauj_main.175::
                        2992 .LDWlin175:
00000904 03ca           2993 	mov	3,r25
00000906 e55d*          2994 	br	.L2947
                        2995 .L2945:
                        2996 --1048:     } 
                        2997 --1049:     else 
                        2998 --1050:     {
                        2999 --1051:         /* ok, update the CMOR register value */
                        3000 --1052:         base_address = R_TAUJ_Dev[Unit].BaseAddr;
                        3001 --line1052
                        3002 ..lin.C.3A.5Cgit.5Crh850.5Csrc.5Capp.5Cgfx_apps.5Csimple_draw.5Ctarget.5Cd1mx_mango_ghs.5Cobj.5Cr_tauj_main.176::
                        3003 .LDWlin176:
00000908 235f0500       3004 	ld.w	4[sp],r11
0000090c 2c0600000000*  3005 	mov	_R_TAUJ_Dev,r12
00000912 0bf0           3006 	mov	r11,ep
00000914 fe00           3007 	sxh	ep
00000916 fef61400       3008 	mulhi	20,ep,ep
0000091a ccf1           3009 	add	r12,ep
0000091c 00e5           3010 	sld.w	0[ep],r28
                        3011 --1053:         offset_address = R_TAUJ0_CMOR0 + loc_GetChannelAddress(Channel);
0000091e 23370900       3012 	ld.w	8[sp],r6
                        3013 	jarl	_loc_GetChannelAddress,lp
                        3013 <EXPANSION BEGIN>
                        3013 jarl22 _loc_GetChannelAddress , lp 
00000922 bfff36f7*      3013 <EXPANSION END>
00000926 0ade8000       3014 	addi	128,r10,r27
                        3015 --1054:         r_tauj_RegCmor.Word = R_TAUJ_READ16(base_address + offset_address);
                        3016 --line1054
                        3017 ..lin.C.3A.5Cgit.5Crh850.5Csrc.5Capp.5Cgfx_apps.5Csimple_draw.5Ctarget.5Cd1mx_mango_ghs.5Cobj.5Cr_tauj_main.177::
                        3018 .LDWlin177:
0000092a 1bf0           3019 	mov	r27,ep
0000092c dcf1           3020 	add	r28,ep
0000092e 70e8           3021 	sld.hu	0[ep],r29
                        3022 --1056:         /* timer interval */
                        3023 --1057:         if ( Trigger == R_TAUJ_NONE) 
00000930 e0d1           3024 	cmp	zero,r26
00000932 ea05*          3025 	bne	.L2948
                        3026 --1058:         {
                        3027 --1059:             r_tauj_RegCmor.Bits.Sts = LOC_NONE;
                        3028 --line1059
                        3029 ..lin.C.3A.5Cgit.5Crh850.5Csrc.5Capp.5Cgfx_apps.5Csimple_draw.5Ctarget.5Cd1mx_mango_ghs.5Cobj.5Cr_tauj_main.178::
                        3030 .LDWlin178:
00000934 dd0efff8       3031 	andi	63743,r29,r1
00000938 c1eeffff       3032 	andi	65535,r1,r29
0000093c b545*          3033 	br	.L2947
                        3034 .L2948:

                                                                      Page 52
                                                              C:\Users\Frank\AppData\Local\Temp\gh_0000oso1.si
                        3035 --1060:         } 
                        3036 --1061:         else if ( Trigger == R_TAUJ_VALID_EDGE_TIN) 
                        3037 --line1061
                        3038 ..lin.C.3A.5Cgit.5Crh850.5Csrc.5Capp.5Cgfx_apps.5Csimple_draw.5Ctarget.5Cd1mx_mango_ghs.5Cobj.5Cr_tauj_main.179::
                        3039 .LDWlin179:
0000093e 61d2           3040 	cmp	1,r26
00000940 8a0d*          3041 	bne	.L2951
                        3042 --1062:         {
                        3043 --1063:             r_tauj_RegCmor.Bits.Sts = LOC_VALID_EDGE_TIN;
                        3044 --line1063
                        3045 ..lin.C.3A.5Cgit.5Crh850.5Csrc.5Capp.5Cgfx_apps.5Csimple_draw.5Ctarget.5Cd1mx_mango_ghs.5Cobj.5Cr_tauj_main.180::
                        3046 .LDWlin180:
00000942 1d08           3047 	mov	r29,r1
00000944 0172           3048 	mov	1,r14
00000946 ee0fd0a8       3049 	bins	r14,8,3,r1
0000094a c1eeffff       3050 	andi	65535,r1,r29
0000094e a53d*          3051 	br	.L2947
                        3052 .L2951:
                        3053 --1064:         } 
                        3054 --1065:         else if ( Trigger == R_TAUJ_VALID_EITHER_TIN) 
                        3055 --line1065
                        3056 ..lin.C.3A.5Cgit.5Crh850.5Csrc.5Capp.5Cgfx_apps.5Csimple_draw.5Ctarget.5Cd1mx_mango_ghs.5Cobj.5Cr_tauj_main.181::
                        3057 .LDWlin181:
00000950 62d2           3058 	cmp	2,r26
00000952 8a0d*          3059 	bne	.L2954
                        3060 --1066:         {
                        3061 --1067:             r_tauj_RegCmor.Bits.Sts = LOC_VALID_EITHER_TIN;
                        3062 --line1067
                        3063 ..lin.C.3A.5Cgit.5Crh850.5Csrc.5Capp.5Cgfx_apps.5Csimple_draw.5Ctarget.5Cd1mx_mango_ghs.5Cobj.5Cr_tauj_main.182::
                        3064 .LDWlin182:
00000954 1d08           3065 	mov	r29,r1
00000956 0272           3066 	mov	2,r14
00000958 ee0fd0a8       3067 	bins	r14,8,3,r1
0000095c c1eeffff       3068 	andi	65535,r1,r29
00000960 9535*          3069 	br	.L2947
                        3070 .L2954:
                        3071 --1068:         } 
                        3072 --1069:         else if ( Trigger == R_TAUJ_RFU_START_TRIG_FROM_MASTER) 
                        3073 --line1069
                        3074 ..lin.C.3A.5Cgit.5Crh850.5Csrc.5Capp.5Cgfx_apps.5Csimple_draw.5Ctarget.5Cd1mx_mango_ghs.5Cobj.5Cr_tauj_main.183::
                        3075 .LDWlin183:
00000962 63d2           3076 	cmp	3,r26
00000964 8a0d*          3077 	bne	.L2957
                        3078 --1070:         {
                        3079 --1071:             r_tauj_RegCmor.Bits.Sts = LOC_RFU_START_TRIG_FROM_MASTER;
                        3080 --line1071
                        3081 ..lin.C.3A.5Cgit.5Crh850.5Csrc.5Capp.5Cgfx_apps.5Csimple_draw.5Ctarget.5Cd1mx_mango_ghs.5Cobj.5Cr_tauj_main.184::
                        3082 .LDWlin184:
00000966 1d08           3083 	mov	r29,r1
00000968 0372           3084 	mov	3,r14
0000096a ee0fd0a8       3085 	bins	r14,8,3,r1
0000096e c1eeffff       3086 	andi	65535,r1,r29
00000972 852d*          3087 	br	.L2947
                        3088 .L2957:
                        3089 --1072:         } 
                        3090 --1073:         else if ( Trigger == R_TAUJ_INT_FROM_MASTER) 
                        3091 --line1073
                        3092 ..lin.C.3A.5Cgit.5Crh850.5Csrc.5Capp.5Cgfx_apps.5Csimple_draw.5Ctarget.5Cd1mx_mango_ghs.5Cobj.5Cr_tauj_main.185::
                        3093 .LDWlin185:
00000974 64d2           3094 	cmp	4,r26
00000976 8a0d*          3095 	bne	.L2960

                                                                      Page 53
                                                              C:\Users\Frank\AppData\Local\Temp\gh_0000oso1.si
                        3096 --1074:         {
                        3097 --1075:             r_tauj_RegCmor.Bits.Sts = LOC_INT_FROM_MASTER;
                        3098 --line1075
                        3099 ..lin.C.3A.5Cgit.5Crh850.5Csrc.5Capp.5Cgfx_apps.5Csimple_draw.5Ctarget.5Cd1mx_mango_ghs.5Cobj.5Cr_tauj_main.186::
                        3100 .LDWlin186:
00000978 1d08           3101 	mov	r29,r1
0000097a 0472           3102 	mov	4,r14
0000097c ee0fd0a8       3103 	bins	r14,8,3,r1
00000980 c1eeffff       3104 	andi	65535,r1,r29
00000984 f51d*          3105 	br	.L2947
                        3106 .L2960:
                        3107 --1076:         } 
                        3108 --1077:         else if ( Trigger == R_TAUJ_RFU_INT_FROM_UPPER) 
                        3109 --line1077
                        3110 ..lin.C.3A.5Cgit.5Crh850.5Csrc.5Capp.5Cgfx_apps.5Csimple_draw.5Ctarget.5Cd1mx_mango_ghs.5Cobj.5Cr_tauj_main.187::
                        3111 .LDWlin187:
00000986 65d2           3112 	cmp	5,r26
00000988 8a0d*          3113 	bne	.L2963
                        3114 --1078:         {
                        3115 --1079:             r_tauj_RegCmor.Bits.Sts = LOC_RFU_INT_FROM_UPPER;
                        3116 --line1079
                        3117 ..lin.C.3A.5Cgit.5Crh850.5Csrc.5Capp.5Cgfx_apps.5Csimple_draw.5Ctarget.5Cd1mx_mango_ghs.5Cobj.5Cr_tauj_main.188::
                        3118 .LDWlin188:
0000098a 1d08           3119 	mov	r29,r1
0000098c 0572           3120 	mov	5,r14
0000098e ee0fd0a8       3121 	bins	r14,8,3,r1
00000992 c1eeffff       3122 	andi	65535,r1,r29
00000996 e515*          3123 	br	.L2947
                        3124 .L2963:
                        3125 --1080:         } 
                        3126 --1081:         else if ( Trigger == R_TAUJ_RFU_TOUT_DEAD_TIME) 
                        3127 --line1081
                        3128 ..lin.C.3A.5Cgit.5Crh850.5Csrc.5Capp.5Cgfx_apps.5Csimple_draw.5Ctarget.5Cd1mx_mango_ghs.5Cobj.5Cr_tauj_main.189::
                        3129 .LDWlin189:
00000998 66d2           3130 	cmp	6,r26
0000099a 8a0d*          3131 	bne	.L2966
                        3132 --1082:         {
                        3133 --1083:             r_tauj_RegCmor.Bits.Sts = LOC_RFU_TOUT_DEAD_TIME;
                        3134 --line1083
                        3135 ..lin.C.3A.5Cgit.5Crh850.5Csrc.5Capp.5Cgfx_apps.5Csimple_draw.5Ctarget.5Cd1mx_mango_ghs.5Cobj.5Cr_tauj_main.190::
                        3136 .LDWlin190:
0000099c 1d08           3137 	mov	r29,r1
0000099e 0672           3138 	mov	6,r14
000009a0 ee0fd0a8       3139 	bins	r14,8,3,r1
000009a4 c1eeffff       3140 	andi	65535,r1,r29
000009a8 d50d*          3141 	br	.L2947
                        3142 .L2966:
                        3143 --1084:         } 
                        3144 --1085:         else if ( Trigger == R_TAUJ_RFU_UP_DOWN_FROM_MASTER) 
                        3145 --line1085
                        3146 ..lin.C.3A.5Cgit.5Crh850.5Csrc.5Capp.5Cgfx_apps.5Csimple_draw.5Ctarget.5Cd1mx_mango_ghs.5Cobj.5Cr_tauj_main.191::
                        3147 .LDWlin191:
000009aa 67d2           3148 	cmp	7,r26
000009ac ea05*          3149 	bne	.L2969
                        3150 --1086:         {
                        3151 --1087:             r_tauj_RegCmor.Bits.Sts = LOC_RFU_UP_DOWN_FROM_MASTER;
                        3152 --line1087
                        3153 ..lin.C.3A.5Cgit.5Crh850.5Csrc.5Capp.5Cgfx_apps.5Csimple_draw.5Ctarget.5Cd1mx_mango_ghs.5Cobj.5Cr_tauj_main.192::
                        3154 .LDWlin192:
000009ae 9d0e0007       3155 	ori	1792,r29,r1
000009b2 c1eeffff       3156 	andi	65535,r1,r29

                                                                      Page 54
                                                              C:\Users\Frank\AppData\Local\Temp\gh_0000oso1.si
000009b6 e505*          3157 	br	.L2947
                        3158 .L2969:
                        3159 --1088:         } 
                        3160 --1089:         else 
                        3161 --1090:         {
                        3162 --1091:             r_tauj_RegCmor.Bits.Sts = 0;
                        3163 --line1091
                        3164 ..lin.C.3A.5Cgit.5Crh850.5Csrc.5Capp.5Cgfx_apps.5Csimple_draw.5Ctarget.5Cd1mx_mango_ghs.5Cobj.5Cr_tauj_main.193::
                        3165 .LDWlin193:
000009b8 dd0efff8       3166 	andi	63743,r29,r1
000009bc c1eeffff       3167 	andi	65535,r1,r29
                        3168 --1092:             error_mode = R_TAUJ_ERR_RANGE;
000009c0 02ca           3169 	mov	2,r25
                        3170 .L2947:
                        3171 --1093:         }
                        3172 --1094:     }
                        3173 --1096:     /* if no error then update the register */
                        3174 --1097:     if ( error_mode == R_TAUJ_ERR_OK) 
000009c2 e0c9           3175 	cmp	zero,r25
000009c4 ea1d*          3176 	bne	.L2972
                        3177 --1098:     {
                        3178 --1099:         /* update the CMOR Channel Mode OS Register */
                        3179 --1100:         base_address = R_TAUJ_Dev[Unit].BaseAddr;
                        3180 --line1100
                        3181 ..lin.C.3A.5Cgit.5Crh850.5Csrc.5Capp.5Cgfx_apps.5Csimple_draw.5Ctarget.5Cd1mx_mango_ghs.5Cobj.5Cr_tauj_main.194::
                        3182 .LDWlin194:
000009c6 235f0500       3183 	ld.w	4[sp],r11
000009ca 2c0600000000*  3184 	mov	_R_TAUJ_Dev,r12
000009d0 0bf0           3185 	mov	r11,ep
000009d2 fe00           3186 	sxh	ep
000009d4 fef61400       3187 	mulhi	20,ep,ep
000009d8 ccf1           3188 	add	r12,ep
000009da 00e5           3189 	sld.w	0[ep],r28
                        3190 --1101:         offset_address = R_TAUJ0_CMOR0 + loc_GetChannelAddress(Channel);
000009dc 23370900       3191 	ld.w	8[sp],r6
                        3192 	jarl	_loc_GetChannelAddress,lp
                        3192 <EXPANSION BEGIN>
                        3192 jarl22 _loc_GetChannelAddress , lp 
000009e0 bfff78f6*      3192 <EXPANSION END>
000009e4 0ade8000       3193 	addi	128,r10,r27
                        3194 --1102:         R_TAUJ_WRITE16(base_address + offset_address, r_tauj_RegCmor.Word);
                        3195 --line1102
                        3196 ..lin.C.3A.5Cgit.5Crh850.5Csrc.5Capp.5Cgfx_apps.5Csimple_draw.5Ctarget.5Cd1mx_mango_ghs.5Cobj.5Cr_tauj_main.195::
                        3197 .LDWlin195:
000009e8 1bf0           3198 	mov	r27,ep
000009ea dcf1           3199 	add	r28,ep
000009ec 80ec           3200 	sst.h	r29,0[ep]
                        3201 --1103:         /* check values! */
                        3202 --1104:         while (R_TAUJ_READ16(base_address + offset_address) != r_tauj_RegCmor.Word) 
000009ee c505*          3203 	br	.L2974
                        3204 .L2976:
                        3205 --1105:         {
                        3206 --1106:             R_TAUJ_WRITE16(base_address + offset_address, r_tauj_RegCmor.Word);
                        3207 --line1106
                        3208 ..lin.C.3A.5Cgit.5Crh850.5Csrc.5Capp.5Cgfx_apps.5Csimple_draw.5Ctarget.5Cd1mx_mango_ghs.5Cobj.5Cr_tauj_main.196::
                        3209 .LDWlin196:
000009f0 1bf0           3210 	mov	r27,ep
000009f2 dcf1           3211 	add	r28,ep
000009f4 80ec           3212 	sst.h	r29,0[ep]
                        3213 .L2974:
000009f6 1bf0           3214 	mov	r27,ep

                                                                      Page 55
                                                              C:\Users\Frank\AppData\Local\Temp\gh_0000oso1.si
000009f8 dcf1           3215 	add	r28,ep
000009fa 7008           3216 	sld.hu	0[ep],r1
000009fc fd09           3217 	cmp	r29,r1
000009fe 9afd*          3218 	bne	.L2976
                        3219 .L2972:
                        3220 --1107:         }           
                        3221 --1108:     }
                        3222 --1109:     return error_mode;
                        3223 --line1109
                        3224 ..lin.C.3A.5Cgit.5Crh850.5Csrc.5Capp.5Cgfx_apps.5Csimple_draw.5Ctarget.5Cd1mx_mango_ghs.5Cobj.5Cr_tauj_main.197::
                        3225 .LDWlin197:
00000a00 1950           3226 	mov	r25,r10
                        3227 --	    .ef
                        3228 .LDW35:
00000a02 4606ff70       3229 	dispose	3,{r25,r26,r27,r28,r29,r31},[lp]
                        3230 	.type	_R_TAUJ_SetTrigger,@function
                        3231 	.size	_R_TAUJ_SetTrigger,.-_R_TAUJ_SetTrigger
                        3232 	.align	2
                        3233 .LDW45:
                        3234 --_error_mode	r25	local
                        3235 --_base_address	r28	local
                        3236 --_offset_address	r27	local
                        3237 --_r_tauj_RegCmor	r29	local
                        3238 
                        3239 --_Unit	4[sp]	param
                        3240 --_Channel	8[sp]	param
                        3241 --_Trigger	r26	param
                        3242 
                        3243 	.section ".bss","awb"
                        3244 .L3126:
                        3245 	.type	.L3126,@object
                        3246 	.size	.L3126,0
                        3247 	.data
                        3248 	.text
                        3249 
                        3250 --1110: }
                        3251 
                        3252 --1113: /***********************************************************
                        3253 --1114:   Function: R_TAUJ_EnableSimultaneousRewrite
                        3254 --1115: */
                        3255 --1117: r_tauj_Error_t R_TAUJ_EnableSimultaneousRewrite(
                        3256 	.align	2
                        3257 	.align	2
                        3258 	.global	_R_TAUJ_EnableSimultaneousRewrite
                        3259 _R_TAUJ_EnableSimultaneousRewrite:
00000a06 8607e170       3260 	prepare	{r25,r26,r27,r28,r29,r31},3
00000a0a 633f0500       3261 	st.w	r7,4[sp]
00000a0e 06c8           3262 	mov	r6,r25
00000a10 63470900       3263 	st.w	r8,8[sp]
                        3264 --	    .bf
                        3265 .LDW55:
                        3266 --1118:     uint32_t Unit,
                        3267 --1119:     r_tauj_Channel_t Channel,
                        3268 --1120:     r_tauj_SimultaneousTrigger_t SimultaneousTriggerSource)
                        3269 --1121: {
                        3270 --1122:     r_tauj_Error_t error_mode = R_TAUJ_ERR_OK;
00000a14 00da           3271 	mov	0,r27
                        3272 --1123:     uint32_t base_address = 0;
00000a16 00e2           3273 	mov	0,r28
                        3274 --1124:     uint16_t u16_RDE = 0;
00000a18 00ea           3275 	mov	0,r29

                                                                      Page 56
                                                              C:\Users\Frank\AppData\Local\Temp\gh_0000oso1.si
                        3276 --1125:     uint16_t u16_channel = 0;
00000a1a 00d2           3277 	mov	0,r26
                        3278 --1127:     /* check the instance is allowed */
                        3279 --1128:     if ( Unit > (R_TAUJ_MACRO_NUM - 1)) 
00000a1c e0c9           3280 	cmp	zero,r25
00000a1e b305*          3281 	bnh	.L3242
                        3282 --1129:     {
                        3283 --1130:         /* instance too high */
                        3284 --1131:         error_mode = R_TAUJ_ERR_INSTANCE;
                        3285 --line1131
                        3286 ..lin.C.3A.5Cgit.5Crh850.5Csrc.5Capp.5Cgfx_apps.5Csimple_draw.5Ctarget.5Cd1mx_mango_ghs.5Cobj.5Cr_tauj_main.198::
                        3287 .LDWlin198:
00000a20 03da           3288 	mov	3,r27
00000a22 d51d*          3289 	br	.L3244
                        3290 .L3242:
                        3291 --1132:     } 
                        3292 --1133:     else 
                        3293 --1134:     {
                        3294 --1135:         /* ok, update the Channel Reload Data Enable Register (RDE) */
                        3295 --1136:         base_address = R_TAUJ_Dev[Unit].BaseAddr;
                        3296 --line1136
                        3297 ..lin.C.3A.5Cgit.5Crh850.5Csrc.5Capp.5Cgfx_apps.5Csimple_draw.5Ctarget.5Cd1mx_mango_ghs.5Cobj.5Cr_tauj_main.199::
                        3298 .LDWlin199:
00000a24 19f0           3299 	mov	r25,ep
00000a26 fe00           3300 	sxh	ep
00000a28 fef61400       3301 	mulhi	20,ep,ep
00000a2c 2b0600000000*  3302 	mov	_R_TAUJ_Dev,r11
00000a32 cbf1           3303 	add	r11,ep
00000a34 00e5           3304 	sld.w	0[ep],r28
                        3305 --1137:         u16_RDE = R_TAUJ_READ16(base_address + R_TAUJ0_RDE);
00000a36 fcefa100       3306 	ld.hu	160[r28],r29
                        3307 --1139:         /* enable all channels */
                        3308 --1140:         if ( Channel == R_TAUJ_CHANNEL_ALL) 
00000a3a 235f0500       3309 	ld.w	4[sp],r11
00000a3e 645a           3310 	cmp	4,r11
00000a40 ba05*          3311 	bne	.L3245
                        3312 --1141:         {
                        3313 --1142:             u16_RDE = LOC_CHANNEL_ALL;
                        3314 --line1142
                        3315 ..lin.C.3A.5Cgit.5Crh850.5Csrc.5Capp.5Cgfx_apps.5Csimple_draw.5Ctarget.5Cd1mx_mango_ghs.5Cobj.5Cr_tauj_main.200::
                        3316 .LDWlin200:
00000a42 0fea           3317 	mov	15,r29
00000a44 c50d*          3318 	br	.L3244
                        3319 .L3245:
                        3320 --1143:         } 
                        3321 --1144:         else 
                        3322 --1145:         { /* just one channel */
                        3323 --1146:             u16_channel = loc_GetChannelID(Channel);
                        3324 --line1146
                        3325 ..lin.C.3A.5Cgit.5Crh850.5Csrc.5Capp.5Cgfx_apps.5Csimple_draw.5Ctarget.5Cd1mx_mango_ghs.5Cobj.5Cr_tauj_main.201::
                        3326 .LDWlin201:
00000a46 23370500       3327 	ld.w	4[sp],r6
                        3328 	jarl	_loc_GetChannelID,lp
                        3328 <EXPANSION BEGIN>
                        3328 jarl22 _loc_GetChannelID , lp 
00000a4a bfffe2f5*      3328 <EXPANSION END>
00000a4e 0ad0           3329 	mov	r10,r26
                        3330 --1147:             R_TAUJ_SET_BIT(u16_RDE, u16_channel);
                        3331 --line1147
                        3332 ..lin.C.3A.5Cgit.5Crh850.5Csrc.5Capp.5Cgfx_apps.5Csimple_draw.5Ctarget.5Cd1mx_mango_ghs.5Cobj.5Cr_tauj_main.202::
                        3333 .LDWlin202:

                                                                      Page 57
                                                              C:\Users\Frank\AppData\Local\Temp\gh_0000oso1.si
00000a50 010a           3334 	mov	1,r1
00000a52 fa0fc208       3335 	shl	r26,r1,r1
00000a56 c100           3336 	zxh	r1
00000a58 01e9           3337 	or	r1,r29
00000a5a dd00           3338 	zxh	r29
                        3339 .L3244:
                        3340 --1148:         }
                        3341 --1149:     }
                        3342 --1151:     /* if no error then update the register */
                        3343 --1152:     if (error_mode == R_TAUJ_ERR_OK) 
00000a5c e0d9           3344 	cmp	zero,r27
00000a5e ca0d*          3345 	bne	.L3248
                        3346 --1153:     {
                        3347 --1154:         /* update the CMOR Channel Mode OS Register */
                        3348 --1155:         base_address = R_TAUJ_Dev[Unit].BaseAddr;
                        3349 --line1155
                        3350 ..lin.C.3A.5Cgit.5Crh850.5Csrc.5Capp.5Cgfx_apps.5Csimple_draw.5Ctarget.5Cd1mx_mango_ghs.5Cobj.5Cr_tauj_main.203::
                        3351 .LDWlin203:
00000a60 19f0           3352 	mov	r25,ep
00000a62 fe00           3353 	sxh	ep
00000a64 fef61400       3354 	mulhi	20,ep,ep
00000a68 2b0600000000*  3355 	mov	_R_TAUJ_Dev,r11
00000a6e cbf1           3356 	add	r11,ep
00000a70 00e5           3357 	sld.w	0[ep],r28
                        3358 --1156:         R_TAUJ_WRITE16(base_address + R_TAUJ0_RDE, u16_RDE);
00000a72 7cefa000       3359 	st.h	r29,160[r28]
                        3360 .L3248:
                        3361 --1157:     }
                        3362 --1158:     return error_mode;
00000a76 1b50           3363 	mov	r27,r10
                        3364 --	    .ef
                        3365 .LDW65:
00000a78 4606ff70       3366 	dispose	3,{r25,r26,r27,r28,r29,r31},[lp]
                        3367 	.type	_R_TAUJ_EnableSimultaneousRewrite,@function
                        3368 	.size	_R_TAUJ_EnableSimultaneousRewrite,.-_R_TAUJ_EnableSimultaneousRewrite
                        3369 	.align	2
                        3370 .LDW75:
                        3371 --_error_mode	r27	local
                        3372 --_base_address	r28	local
                        3373 --_u16_RDE	r29	local
                        3374 --_u16_channel	r26	local
                        3375 
                        3376 --_Unit	r25	param
                        3377 --_Channel	4[sp]	param
                        3378 --_SimultaneousTriggerSource	8[sp]	param
                        3379 
                        3380 	.section ".bss","awb"
                        3381 .L3338:
                        3382 	.type	.L3338,@object
                        3383 	.size	.L3338,0
                        3384 	.data
                        3385 	.text
                        3386 
                        3387 --1159: }
                        3388 
                        3389 --1162: /***********************************************************
                        3390 --1163:   Function: R_TAUJ_EnableSynchronousChannelOperation
                        3391 --1164: */
                        3392 --1166: r_tauj_Error_t R_TAUJ_EnableSynchronousChannelOperation(uint32_t Unit, r_tauj_Channel_t Channel) 
                        3393 	.align	2
                        3394 	.align	2

                                                                      Page 58
                                                              C:\Users\Frank\AppData\Local\Temp\gh_0000oso1.si
                        3395 	.global	_R_TAUJ_EnableSynchronousChannelOperation
                        3396 _R_TAUJ_EnableSynchronousChannelOperation:
00000a7c 8207e170       3397 	prepare	{r25,r26,r27,r28,r29,r31},1
00000a80 633f0100       3398 	st.w	r7,0[sp]
00000a84 06c8           3399 	mov	r6,r25
                        3400 --	    .bf
                        3401 .LDW85:
                        3402 --1167: {
                        3403 --1168:     r_tauj_Error_t error_mode = R_TAUJ_ERR_OK;
00000a86 00e2           3404 	mov	0,r28
                        3405 --1169:     uint32_t base_address = 0;
00000a88 00da           3406 	mov	0,r27
                        3407 --1170:     uint16_t u16_temp = 0;
00000a8a 00ea           3408 	mov	0,r29
                        3409 --1171:     uint16_t u16_channel = 0;
00000a8c 00d2           3410 	mov	0,r26
                        3411 --1173:     /* check the instance is allowed */
                        3412 --1174:     if ( Unit > (R_TAUJ_MACRO_NUM - 1)) 
00000a8e e0c9           3413 	cmp	zero,r25
00000a90 b305*          3414 	bnh	.L3397
                        3415 --1175:     {
                        3416 --1176:         /* instance too high */
                        3417 --1177:         error_mode = R_TAUJ_ERR_INSTANCE;
                        3418 --line1177
                        3419 ..lin.C.3A.5Cgit.5Crh850.5Csrc.5Capp.5Cgfx_apps.5Csimple_draw.5Ctarget.5Cd1mx_mango_ghs.5Cobj.5Cr_tauj_main.204::
                        3420 .LDWlin204:
00000a92 03e2           3421 	mov	3,r28
00000a94 c525*          3422 	br	.L3399
                        3423 .L3397:
                        3424 --1178:     } 
                        3425 --1179:     else 
                        3426 --1180:     {
                        3427 --1181:         /* ok */
                        3428 --1182:         base_address = R_TAUJ_Dev[Unit].BaseAddr;
                        3429 --line1182
                        3430 ..lin.C.3A.5Cgit.5Crh850.5Csrc.5Capp.5Cgfx_apps.5Csimple_draw.5Ctarget.5Cd1mx_mango_ghs.5Cobj.5Cr_tauj_main.205::
                        3431 .LDWlin205:
00000a96 19f0           3432 	mov	r25,ep
00000a98 fe00           3433 	sxh	ep
00000a9a fef61400       3434 	mulhi	20,ep,ep
00000a9e 2e0600000000*  3435 	mov	_R_TAUJ_Dev,r14
00000aa4 cef1           3436 	add	r14,ep
00000aa6 00dd           3437 	sld.w	0[ep],r27
                        3438 --1183:         u16_temp = R_TAUJ_READ16(base_address + R_TAUJ0_TOM);
00000aa8 fbef9900       3439 	ld.hu	152[r27],r29
                        3440 --1185:         /* enable all channels */
                        3441 --1186:         if ( Channel == R_TAUJ_CHANNEL_ALL) 
00000aac 235f0100       3442 	ld.w	0[sp],r11
00000ab0 645a           3443 	cmp	4,r11
00000ab2 ba05*          3444 	bne	.L3400
                        3445 --1187:         {
                        3446 --1188:             u16_temp = LOC_CHANNEL_ALL;
                        3447 --line1188
                        3448 ..lin.C.3A.5Cgit.5Crh850.5Csrc.5Capp.5Cgfx_apps.5Csimple_draw.5Ctarget.5Cd1mx_mango_ghs.5Cobj.5Cr_tauj_main.206::
                        3449 .LDWlin206:
00000ab4 0fea           3450 	mov	15,r29
00000ab6 c50d*          3451 	br	.L3402
                        3452 .L3400:
                        3453 --1189:         } 
                        3454 --1190:         else 
                        3455 --1191:         { /* just one channel */

                                                                      Page 59
                                                              C:\Users\Frank\AppData\Local\Temp\gh_0000oso1.si
                        3456 --1192:             u16_channel = loc_GetChannelID(Channel);
                        3457 --line1192
                        3458 ..lin.C.3A.5Cgit.5Crh850.5Csrc.5Capp.5Cgfx_apps.5Csimple_draw.5Ctarget.5Cd1mx_mango_ghs.5Cobj.5Cr_tauj_main.207::
                        3459 .LDWlin207:
00000ab8 23370100       3460 	ld.w	0[sp],r6
                        3461 	jarl	_loc_GetChannelID,lp
                        3461 <EXPANSION BEGIN>
                        3461 jarl22 _loc_GetChannelID , lp 
00000abc bfff70f5*      3461 <EXPANSION END>
00000ac0 0ad0           3462 	mov	r10,r26
                        3463 --1193:             R_TAUJ_SET_BIT(u16_temp, u16_channel);
                        3464 --line1193
                        3465 ..lin.C.3A.5Cgit.5Crh850.5Csrc.5Capp.5Cgfx_apps.5Csimple_draw.5Ctarget.5Cd1mx_mango_ghs.5Cobj.5Cr_tauj_main.208::
                        3466 .LDWlin208:
00000ac2 010a           3467 	mov	1,r1
00000ac4 fa0fc208       3468 	shl	r26,r1,r1
00000ac8 c100           3469 	zxh	r1
00000aca 01e9           3470 	or	r1,r29
00000acc dd00           3471 	zxh	r29
                        3472 .L3402:
                        3473 --1194:         }
                        3474 --1196:         /* update the TOM */
                        3475 --1197:         R_TAUJ_WRITE16(base_address + R_TAUJ0_TOM, u16_temp);
00000ace 7bef9800       3476 	st.h	r29,152[r27]
                        3477 --1199:         /* verify the register write was succesfull */
                        3478 --1200:         if ( u16_temp != (R_TAUJ_READ16(base_address + R_TAUJ0_TOM))) 
00000ad2 fb0f9900       3479 	ld.hu	152[r27],r1
00000ad6 e1e9           3480 	cmp	r1,r29
00000ad8 a205*          3481 	be	.L3399
                        3482 --1201:         {
                        3483 --1202:             error_mode = R_TAUJ_ERR_REG_UPDATE_FAIL;
                        3484 --line1202
                        3485 ..lin.C.3A.5Cgit.5Crh850.5Csrc.5Capp.5Cgfx_apps.5Csimple_draw.5Ctarget.5Cd1mx_mango_ghs.5Cobj.5Cr_tauj_main.209::
                        3486 .LDWlin209:
00000ada 05e2           3487 	mov	5,r28
                        3488 .L3399:
                        3489 --1203:         }
                        3490 --1204:     }
                        3491 --1205:     return error_mode;
00000adc 1c50           3492 	mov	r28,r10
                        3493 --	    .ef
                        3494 .LDW95:
00000ade 4206ff70       3495 	dispose	1,{r25,r26,r27,r28,r29,r31},[lp]
                        3496 	.type	_R_TAUJ_EnableSynchronousChannelOperation,@function
                        3497 	.size	_R_TAUJ_EnableSynchronousChannelOperation,.-_R_TAUJ_EnableSynchronousChannelOperation
                        3498 	.align	2
                        3499 .LDW06:
                        3500 --_error_mode	r28	local
                        3501 --_base_address	r27	local
                        3502 --_u16_temp	r29	local
                        3503 --_u16_channel	r26	local
                        3504 
                        3505 --_Unit	r25	param
                        3506 --_Channel	0[sp]	param
                        3507 
                        3508 	.section ".bss","awb"
                        3509 .L3482:
                        3510 	.type	.L3482,@object
                        3511 	.size	.L3482,0
                        3512 	.data
                        3513 	.text

                                                                      Page 60
                                                              C:\Users\Frank\AppData\Local\Temp\gh_0000oso1.si
                        3514 
                        3515 --1206: }
                        3516 
                        3517 --1209: /***********************************************************
                        3518 --1210:   Function: R_TAUJ_SetCountClock
                        3519 --1211: */
                        3520 --1213: r_tauj_Error_t R_TAUJ_SetCountClock(
                        3521 	.align	2
                        3522 	.align	2
                        3523 	.global	_R_TAUJ_SetCountClock
                        3524 _R_TAUJ_SetCountClock:
00000ae2 8607e170       3525 	prepare	{r25,r26,r27,r28,r29,r31},3
00000ae6 63370500       3526 	st.w	r6,4[sp]
00000aea 08c8           3527 	mov	r8,r25
00000aec 633f0900       3528 	st.w	r7,8[sp]
00000af0 00ea           3529 	mov	0,r29
                        3530 --	    .bf
                        3531 .LDW16:
                        3532 --1214:     uint32_t Unit,
                        3533 --1215:     r_tauj_Channel_t Channel,
                        3534 --1216:     r_tauj_CountClock_t CountClock)
                        3535 --1217: {
                        3536 --1218:     r_tauj_Error_t error_mode = R_TAUJ_ERR_OK;
00000af2 00d2           3537 	mov	0,r26
                        3538 --1219:     uint32_t base_address = 0;
00000af4 00e2           3539 	mov	0,r28
                        3540 --1220:     uint32_t offset_address = 0;
00000af6 00da           3541 	mov	0,r27
                        3542 --1221:     r_tauj_RegCmor_t r_tauj_RegCmor;
                        3543 --1223:     /* check the instance is allowed */
                        3544 --1224:     if ( Unit > (R_TAUJ_MACRO_NUM - 1)) 
00000af8 235f0500       3545 	ld.w	4[sp],r11
00000afc e059           3546 	cmp	zero,r11
00000afe b305*          3547 	bnh	.L3541
                        3548 --1225:     {
                        3549 --1226:         /* instance too high */
                        3550 --1227:         error_mode = R_TAUJ_ERR_INSTANCE;
                        3551 --line1227
                        3552 ..lin.C.3A.5Cgit.5Crh850.5Csrc.5Capp.5Cgfx_apps.5Csimple_draw.5Ctarget.5Cd1mx_mango_ghs.5Cobj.5Cr_tauj_main.210::
                        3553 .LDWlin210:
00000b00 03d2           3554 	mov	3,r26
00000b02 e535*          3555 	br	.L3543
                        3556 .L3541:
                        3557 --1228:     } 
                        3558 --1229:     else 
                        3559 --1230:     {
                        3560 --1231:         /* ok, update the CMOR register value */
                        3561 --1232:         base_address = R_TAUJ_Dev[Unit].BaseAddr;
                        3562 --line1232
                        3563 ..lin.C.3A.5Cgit.5Crh850.5Csrc.5Capp.5Cgfx_apps.5Csimple_draw.5Ctarget.5Cd1mx_mango_ghs.5Cobj.5Cr_tauj_main.211::
                        3564 .LDWlin211:
00000b04 235f0500       3565 	ld.w	4[sp],r11
00000b08 2c0600000000*  3566 	mov	_R_TAUJ_Dev,r12
00000b0e 0bf0           3567 	mov	r11,ep
00000b10 fe00           3568 	sxh	ep
00000b12 fef61400       3569 	mulhi	20,ep,ep
00000b16 ccf1           3570 	add	r12,ep
00000b18 00e5           3571 	sld.w	0[ep],r28
                        3572 --1233:         offset_address = R_TAUJ0_CMOR0 + loc_GetChannelAddress(Channel);
00000b1a 23370900       3573 	ld.w	8[sp],r6
                        3574 	jarl	_loc_GetChannelAddress,lp

                                                                      Page 61
                                                              C:\Users\Frank\AppData\Local\Temp\gh_0000oso1.si
                        3574 <EXPANSION BEGIN>
                        3574 jarl22 _loc_GetChannelAddress , lp 
00000b1e bfff3af5*      3574 <EXPANSION END>
00000b22 0ade8000       3575 	addi	128,r10,r27
                        3576 --1234:         r_tauj_RegCmor.Word = R_TAUJ_READ16(base_address + offset_address);
                        3577 --line1234
                        3578 ..lin.C.3A.5Cgit.5Crh850.5Csrc.5Capp.5Cgfx_apps.5Csimple_draw.5Ctarget.5Cd1mx_mango_ghs.5Cobj.5Cr_tauj_main.212::
                        3579 .LDWlin212:
00000b26 1bf0           3580 	mov	r27,ep
00000b28 dcf1           3581 	add	r28,ep
00000b2a 70e8           3582 	sld.hu	0[ep],r29
                        3583 --1236:         /* timer interval */
                        3584 --1237:         if ( CountClock == R_TAUJ_COUNT_CLK_PRESCALER) 
00000b2c e0c9           3585 	cmp	zero,r25
00000b2e ea05*          3586 	bne	.L3544
                        3587 --1238:         {
                        3588 --1239:             r_tauj_RegCmor.Bits.Ccs = LOC_COUNT_CLK_PRESCALER;
                        3589 --line1239
                        3590 ..lin.C.3A.5Cgit.5Crh850.5Csrc.5Capp.5Cgfx_apps.5Csimple_draw.5Ctarget.5Cd1mx_mango_ghs.5Cobj.5Cr_tauj_main.213::
                        3591 .LDWlin213:
00000b30 dd0effcf       3592 	andi	53247,r29,r1
00000b34 c1eeffff       3593 	andi	65535,r1,r29
00000b38 b51d*          3594 	br	.L3543
                        3595 .L3544:
                        3596 --1240:         } 
                        3597 --1241:         else if ( CountClock == R_TAUJ_COUNT_CLK_TIN) 
                        3598 --line1241
                        3599 ..lin.C.3A.5Cgit.5Crh850.5Csrc.5Capp.5Cgfx_apps.5Csimple_draw.5Ctarget.5Cd1mx_mango_ghs.5Cobj.5Cr_tauj_main.214::
                        3600 .LDWlin214:
00000b3a 61ca           3601 	cmp	1,r25
00000b3c 8a0d*          3602 	bne	.L3547
                        3603 --1242:         {
                        3604 --1243:             r_tauj_RegCmor.Bits.Ccs = LOC_COUNT_CLK_TIN;
                        3605 --line1243
                        3606 ..lin.C.3A.5Cgit.5Crh850.5Csrc.5Capp.5Cgfx_apps.5Csimple_draw.5Ctarget.5Cd1mx_mango_ghs.5Cobj.5Cr_tauj_main.215::
                        3607 .LDWlin215:
00000b3e 1d08           3608 	mov	r29,r1
00000b40 0172           3609 	mov	1,r14
00000b42 ee0fd8d8       3610 	bins	r14,12,2,r1
00000b46 c1eeffff       3611 	andi	65535,r1,r29
00000b4a a515*          3612 	br	.L3543
                        3613 .L3547:
                        3614 --1244:         } 
                        3615 --1245:         else if ( CountClock == R_TAUJ_COUNT_CLK_RFU) 
                        3616 --line1245
                        3617 ..lin.C.3A.5Cgit.5Crh850.5Csrc.5Capp.5Cgfx_apps.5Csimple_draw.5Ctarget.5Cd1mx_mango_ghs.5Cobj.5Cr_tauj_main.216::
                        3618 .LDWlin216:
00000b4c 62ca           3619 	cmp	2,r25
00000b4e 8a0d*          3620 	bne	.L3550
                        3621 --1246:         {
                        3622 --1247:             r_tauj_RegCmor.Bits.Ccs = LOC_COUNT_CLK_RFU;
                        3623 --line1247
                        3624 ..lin.C.3A.5Cgit.5Crh850.5Csrc.5Capp.5Cgfx_apps.5Csimple_draw.5Ctarget.5Cd1mx_mango_ghs.5Cobj.5Cr_tauj_main.217::
                        3625 .LDWlin217:
00000b50 1d08           3626 	mov	r29,r1
00000b52 0272           3627 	mov	2,r14
00000b54 ee0fd8d8       3628 	bins	r14,12,2,r1
00000b58 c1eeffff       3629 	andi	65535,r1,r29
00000b5c 950d*          3630 	br	.L3543
                        3631 .L3550:
                        3632 --1248:         } 

                                                                      Page 62
                                                              C:\Users\Frank\AppData\Local\Temp\gh_0000oso1.si
                        3633 --1249:         else if ( CountClock == R_TAUJ_COUNT_CLK_MASTER_INT_RFU) 
                        3634 --line1249
                        3635 ..lin.C.3A.5Cgit.5Crh850.5Csrc.5Capp.5Cgfx_apps.5Csimple_draw.5Ctarget.5Cd1mx_mango_ghs.5Cobj.5Cr_tauj_main.218::
                        3636 .LDWlin218:
00000b5e 63ca           3637 	cmp	3,r25
00000b60 ea05*          3638 	bne	.L3553
                        3639 --1250:         {
                        3640 --1251:             r_tauj_RegCmor.Bits.Ccs = LOC_COUNT_CLK_MASTER_INT_RFU;
                        3641 --line1251
                        3642 ..lin.C.3A.5Cgit.5Crh850.5Csrc.5Capp.5Cgfx_apps.5Csimple_draw.5Ctarget.5Cd1mx_mango_ghs.5Cobj.5Cr_tauj_main.219::
                        3643 .LDWlin219:
00000b62 9d0e0030       3644 	ori	12288,r29,r1
00000b66 c1eeffff       3645 	andi	65535,r1,r29
00000b6a a505*          3646 	br	.L3543
                        3647 .L3553:
                        3648 --1252:         } 
                        3649 --1253:         else 
                        3650 --1254:         {
                        3651 --1255:             error_mode = R_TAUJ_ERR_RANGE;
                        3652 --line1255
                        3653 ..lin.C.3A.5Cgit.5Crh850.5Csrc.5Capp.5Cgfx_apps.5Csimple_draw.5Ctarget.5Cd1mx_mango_ghs.5Cobj.5Cr_tauj_main.220::
                        3654 .LDWlin220:
00000b6c 02d2           3655 	mov	2,r26
                        3656 .L3543:
                        3657 --1256:         }
                        3658 --1257:     }
                        3659 --1259:     /* if no error then update the register */
                        3660 --1260:     if ( error_mode == R_TAUJ_ERR_OK) 
00000b6e e0d1           3661 	cmp	zero,r26
00000b70 ea1d*          3662 	bne	.L3556
                        3663 --1261:     {
                        3664 --1262:         /* update the CMOR Channel Mode OS Register */
                        3665 --1263:         base_address = R_TAUJ_Dev[Unit].BaseAddr;
                        3666 --line1263
                        3667 ..lin.C.3A.5Cgit.5Crh850.5Csrc.5Capp.5Cgfx_apps.5Csimple_draw.5Ctarget.5Cd1mx_mango_ghs.5Cobj.5Cr_tauj_main.221::
                        3668 .LDWlin221:
00000b72 235f0500       3669 	ld.w	4[sp],r11
00000b76 2c0600000000*  3670 	mov	_R_TAUJ_Dev,r12
00000b7c 0bf0           3671 	mov	r11,ep
00000b7e fe00           3672 	sxh	ep
00000b80 fef61400       3673 	mulhi	20,ep,ep
00000b84 ccf1           3674 	add	r12,ep
00000b86 00e5           3675 	sld.w	0[ep],r28
                        3676 --1264:         offset_address = R_TAUJ0_CMOR0 + loc_GetChannelAddress(Channel);
00000b88 23370900       3677 	ld.w	8[sp],r6
                        3678 	jarl	_loc_GetChannelAddress,lp
                        3678 <EXPANSION BEGIN>
                        3678 jarl22 _loc_GetChannelAddress , lp 
00000b8c bfffccf4*      3678 <EXPANSION END>
00000b90 0ade8000       3679 	addi	128,r10,r27
                        3680 --1265:         R_TAUJ_WRITE16(base_address + offset_address, r_tauj_RegCmor.Word);
                        3681 --line1265
                        3682 ..lin.C.3A.5Cgit.5Crh850.5Csrc.5Capp.5Cgfx_apps.5Csimple_draw.5Ctarget.5Cd1mx_mango_ghs.5Cobj.5Cr_tauj_main.222::
                        3683 .LDWlin222:
00000b94 1bf0           3684 	mov	r27,ep
00000b96 dcf1           3685 	add	r28,ep
00000b98 80ec           3686 	sst.h	r29,0[ep]
                        3687 --1266:         /* check values! */
                        3688 --1267:         while (R_TAUJ_READ16(base_address + offset_address) != r_tauj_RegCmor.Word) 
00000b9a c505*          3689 	br	.L3558
                        3690 .L3560:

                                                                      Page 63
                                                              C:\Users\Frank\AppData\Local\Temp\gh_0000oso1.si
                        3691 --1268:         {
                        3692 --1269:             R_TAUJ_WRITE16(base_address + offset_address, r_tauj_RegCmor.Word);
                        3693 --line1269
                        3694 ..lin.C.3A.5Cgit.5Crh850.5Csrc.5Capp.5Cgfx_apps.5Csimple_draw.5Ctarget.5Cd1mx_mango_ghs.5Cobj.5Cr_tauj_main.223::
                        3695 .LDWlin223:
00000b9c 1bf0           3696 	mov	r27,ep
00000b9e dcf1           3697 	add	r28,ep
00000ba0 80ec           3698 	sst.h	r29,0[ep]
                        3699 .L3558:
00000ba2 1bf0           3700 	mov	r27,ep
00000ba4 dcf1           3701 	add	r28,ep
00000ba6 7008           3702 	sld.hu	0[ep],r1
00000ba8 fd09           3703 	cmp	r29,r1
00000baa 9afd*          3704 	bne	.L3560
                        3705 .L3556:
                        3706 --1270:         }           
                        3707 --1271:     }
                        3708 --1272:     return error_mode;
                        3709 --line1272
                        3710 ..lin.C.3A.5Cgit.5Crh850.5Csrc.5Capp.5Cgfx_apps.5Csimple_draw.5Ctarget.5Cd1mx_mango_ghs.5Cobj.5Cr_tauj_main.224::
                        3711 .LDWlin224:
00000bac 1a50           3712 	mov	r26,r10
                        3713 --	    .ef
                        3714 .LDW26:
00000bae 4606ff70       3715 	dispose	3,{r25,r26,r27,r28,r29,r31},[lp]
                        3716 	.type	_R_TAUJ_SetCountClock,@function
                        3717 	.size	_R_TAUJ_SetCountClock,.-_R_TAUJ_SetCountClock
                        3718 	.align	2
                        3719 .LDW36:
                        3720 --_error_mode	r26	local
                        3721 --_base_address	r28	local
                        3722 --_offset_address	r27	local
                        3723 --_r_tauj_RegCmor	r29	local
                        3724 
                        3725 --_Unit	4[sp]	param
                        3726 --_Channel	8[sp]	param
                        3727 --_CountClock	r25	param
                        3728 
                        3729 	.section ".bss","awb"
                        3730 .L3682:
                        3731 	.type	.L3682,@object
                        3732 	.size	.L3682,0
                        3733 	.data
                        3734 	.text
                        3735 
                        3736 --1273: }
                        3737 
                        3738 --1276: /***********************************************************
                        3739 --1277:   Function: R_TAUJ_SetTinEdge
                        3740 --1278: */
                        3741 --1280: r_tauj_Error_t R_TAUJ_SetTinEdge(uint32_t Unit, r_tauj_Channel_t Channel, r_tauj_TinEdge_t Edge) 
                        3742 	.align	2
                        3743 	.align	2
                        3744 	.global	_R_TAUJ_SetTinEdge
                        3745 _R_TAUJ_SetTinEdge:
00000bb2 8607e170       3746 	prepare	{r25,r26,r27,r28,r29,r31},3
00000bb6 63370500       3747 	st.w	r6,4[sp]
00000bba 08c8           3748 	mov	r8,r25
00000bbc 633f0900       3749 	st.w	r7,8[sp]
00000bc0 00ea           3750 	mov	0,r29
                        3751 --	    .bf

                                                                      Page 64
                                                              C:\Users\Frank\AppData\Local\Temp\gh_0000oso1.si
                        3752 .LDW46:
                        3753 --1281: {
                        3754 --1282:     r_tauj_Error_t error_mode = R_TAUJ_ERR_OK;
00000bc2 00d2           3755 	mov	0,r26
                        3756 --1283:     uint32_t base_address = 0;
00000bc4 00e2           3757 	mov	0,r28
                        3758 --1284:     uint32_t offset_address = 0;
00000bc6 00da           3759 	mov	0,r27
                        3760 --1285:     r_tauj_RegCmur_t r_tauj_RegCmur;
                        3761 --1287:     /* check the instance is allowed */
                        3762 --1288:     if ( Unit > (R_TAUJ_MACRO_NUM - 1)) 
00000bc8 235f0500       3763 	ld.w	4[sp],r11
00000bcc e059           3764 	cmp	zero,r11
00000bce b305*          3765 	bnh	.L3771
                        3766 --1289:     {
                        3767 --1290:         /* instance too high */
                        3768 --1291:         error_mode = R_TAUJ_ERR_INSTANCE;
                        3769 --line1291
                        3770 ..lin.C.3A.5Cgit.5Crh850.5Csrc.5Capp.5Cgfx_apps.5Csimple_draw.5Ctarget.5Cd1mx_mango_ghs.5Cobj.5Cr_tauj_main.225::
                        3771 .LDWlin225:
00000bd0 03d2           3772 	mov	3,r26
00000bd2 e535*          3773 	br	.L3773
                        3774 .L3771:
                        3775 --1292:     } 
                        3776 --1293:     else 
                        3777 --1294:     {
                        3778 --1295:         /* ok, update the CMOR register value */
                        3779 --1296:         base_address = R_TAUJ_Dev[Unit].BaseAddr;
                        3780 --line1296
                        3781 ..lin.C.3A.5Cgit.5Crh850.5Csrc.5Capp.5Cgfx_apps.5Csimple_draw.5Ctarget.5Cd1mx_mango_ghs.5Cobj.5Cr_tauj_main.226::
                        3782 .LDWlin226:
00000bd4 235f0500       3783 	ld.w	4[sp],r11
00000bd8 2c0600000000*  3784 	mov	_R_TAUJ_Dev,r12
00000bde 0bf0           3785 	mov	r11,ep
00000be0 fe00           3786 	sxh	ep
00000be2 fef61400       3787 	mulhi	20,ep,ep
00000be6 ccf1           3788 	add	r12,ep
00000be8 00e5           3789 	sld.w	0[ep],r28
                        3790 --1297:         offset_address = R_TAUJ0_CMUR0 + loc_GetChannelAddress(Channel);
00000bea 23370900       3791 	ld.w	8[sp],r6
                        3792 	jarl	_loc_GetChannelAddress,lp
                        3792 <EXPANSION BEGIN>
                        3792 jarl22 _loc_GetChannelAddress , lp 
00000bee bfff6af4*      3792 <EXPANSION END>
00000bf2 0ade2000       3793 	addi	32,r10,r27
                        3794 --1298:         r_tauj_RegCmur.Word = R_TAUJ_READ16(base_address + offset_address);
                        3795 --line1298
                        3796 ..lin.C.3A.5Cgit.5Crh850.5Csrc.5Capp.5Cgfx_apps.5Csimple_draw.5Ctarget.5Cd1mx_mango_ghs.5Cobj.5Cr_tauj_main.227::
                        3797 .LDWlin227:
00000bf6 1bf0           3798 	mov	r27,ep
00000bf8 dcf1           3799 	add	r28,ep
00000bfa 70e8           3800 	sld.hu	0[ep],r29
                        3801 --1300:         /* timer interval */
                        3802 --1301:         if ( Edge == R_TAUJ_FALLING_EDGE) 
00000bfc e0c9           3803 	cmp	zero,r25
00000bfe ea05*          3804 	bne	.L3774
                        3805 --1302:         {
                        3806 --1303:             r_tauj_RegCmur.Bits.Tis = LOC_FALLING_EDGE;
                        3807 --line1303
                        3808 ..lin.C.3A.5Cgit.5Crh850.5Csrc.5Capp.5Cgfx_apps.5Csimple_draw.5Ctarget.5Cd1mx_mango_ghs.5Cobj.5Cr_tauj_main.228::
                        3809 .LDWlin228:

                                                                      Page 65
                                                              C:\Users\Frank\AppData\Local\Temp\gh_0000oso1.si
00000c00 dd0efcff       3810 	andi	65532,r29,r1
00000c04 c1eeffff       3811 	andi	65535,r1,r29
00000c08 b51d*          3812 	br	.L3773
                        3813 .L3774:
                        3814 --1304:         } 
                        3815 --1305:         else if ( Edge == R_TAUJ_RISING_EDGE) 
                        3816 --line1305
                        3817 ..lin.C.3A.5Cgit.5Crh850.5Csrc.5Capp.5Cgfx_apps.5Csimple_draw.5Ctarget.5Cd1mx_mango_ghs.5Cobj.5Cr_tauj_main.229::
                        3818 .LDWlin229:
00000c0a 61ca           3819 	cmp	1,r25
00000c0c 8a0d*          3820 	bne	.L3777
                        3821 --1306:         {
                        3822 --1307:             r_tauj_RegCmur.Bits.Tis = LOC_RISING_EDGE;
                        3823 --line1307
                        3824 ..lin.C.3A.5Cgit.5Crh850.5Csrc.5Capp.5Cgfx_apps.5Csimple_draw.5Ctarget.5Cd1mx_mango_ghs.5Cobj.5Cr_tauj_main.230::
                        3825 .LDWlin230:
00000c0e 1d08           3826 	mov	r29,r1
00000c10 0172           3827 	mov	1,r14
00000c12 ee0fd010       3828 	bins	r14,0,2,r1
00000c16 c1eeffff       3829 	andi	65535,r1,r29
00000c1a a515*          3830 	br	.L3773
                        3831 .L3777:
                        3832 --1308:         } 
                        3833 --1309:         else if ( Edge == R_TAUJ_BOTH_LOW_WIDTH) 
                        3834 --line1309
                        3835 ..lin.C.3A.5Cgit.5Crh850.5Csrc.5Capp.5Cgfx_apps.5Csimple_draw.5Ctarget.5Cd1mx_mango_ghs.5Cobj.5Cr_tauj_main.231::
                        3836 .LDWlin231:
00000c1c 62ca           3837 	cmp	2,r25
00000c1e 8a0d*          3838 	bne	.L3780
                        3839 --1310:         {
                        3840 --1311:             r_tauj_RegCmur.Bits.Tis = LOC_BOTH_LOW_WIDTH;
                        3841 --line1311
                        3842 ..lin.C.3A.5Cgit.5Crh850.5Csrc.5Capp.5Cgfx_apps.5Csimple_draw.5Ctarget.5Cd1mx_mango_ghs.5Cobj.5Cr_tauj_main.232::
                        3843 .LDWlin232:
00000c20 1d08           3844 	mov	r29,r1
00000c22 0272           3845 	mov	2,r14
00000c24 ee0fd010       3846 	bins	r14,0,2,r1
00000c28 c1eeffff       3847 	andi	65535,r1,r29
00000c2c 950d*          3848 	br	.L3773
                        3849 .L3780:
                        3850 --1312:         } 
                        3851 --1313:         else if ( Edge == R_TAUJ_BOTH_HIGH_WIDTH) 
                        3852 --line1313
                        3853 ..lin.C.3A.5Cgit.5Crh850.5Csrc.5Capp.5Cgfx_apps.5Csimple_draw.5Ctarget.5Cd1mx_mango_ghs.5Cobj.5Cr_tauj_main.233::
                        3854 .LDWlin233:
00000c2e 63ca           3855 	cmp	3,r25
00000c30 ea05*          3856 	bne	.L3783
                        3857 --1314:         {
                        3858 --1315:             r_tauj_RegCmur.Bits.Tis = LOC_BOTH_HIGH_WIDTH;
                        3859 --line1315
                        3860 ..lin.C.3A.5Cgit.5Crh850.5Csrc.5Capp.5Cgfx_apps.5Csimple_draw.5Ctarget.5Cd1mx_mango_ghs.5Cobj.5Cr_tauj_main.234::
                        3861 .LDWlin234:
00000c32 9d0e0300       3862 	ori	3,r29,r1
00000c36 c1eeffff       3863 	andi	65535,r1,r29
00000c3a a505*          3864 	br	.L3773
                        3865 .L3783:
                        3866 --1316:         } 
                        3867 --1317:         else 
                        3868 --1318:         {
                        3869 --1319:             error_mode = R_TAUJ_ERR_RANGE;
                        3870 --line1319

                                                                      Page 66
                                                              C:\Users\Frank\AppData\Local\Temp\gh_0000oso1.si
                        3871 ..lin.C.3A.5Cgit.5Crh850.5Csrc.5Capp.5Cgfx_apps.5Csimple_draw.5Ctarget.5Cd1mx_mango_ghs.5Cobj.5Cr_tauj_main.235::
                        3872 .LDWlin235:
00000c3c 02d2           3873 	mov	2,r26
                        3874 .L3773:
                        3875 --1320:         }
                        3876 --1321:     }
                        3877 --1322:     /* if no error then update the register */
                        3878 --1323:     if ( error_mode == R_TAUJ_ERR_OK) 
00000c3e e0d1           3879 	cmp	zero,r26
00000c40 ea1d*          3880 	bne	.L3786
                        3881 --1324:     {
                        3882 --1325:         /* update the CMUR Channel Mode OS Register */
                        3883 --1326:         base_address = R_TAUJ_Dev[Unit].BaseAddr;
                        3884 --line1326
                        3885 ..lin.C.3A.5Cgit.5Crh850.5Csrc.5Capp.5Cgfx_apps.5Csimple_draw.5Ctarget.5Cd1mx_mango_ghs.5Cobj.5Cr_tauj_main.236::
                        3886 .LDWlin236:
00000c42 235f0500       3887 	ld.w	4[sp],r11
00000c46 2c0600000000*  3888 	mov	_R_TAUJ_Dev,r12
00000c4c 0bf0           3889 	mov	r11,ep
00000c4e fe00           3890 	sxh	ep
00000c50 fef61400       3891 	mulhi	20,ep,ep
00000c54 ccf1           3892 	add	r12,ep
00000c56 00e5           3893 	sld.w	0[ep],r28
                        3894 --1327:         offset_address = R_TAUJ0_CMUR0 + loc_GetChannelAddress(Channel);
00000c58 23370900       3895 	ld.w	8[sp],r6
                        3896 	jarl	_loc_GetChannelAddress,lp
                        3896 <EXPANSION BEGIN>
                        3896 jarl22 _loc_GetChannelAddress , lp 
00000c5c bffffcf3*      3896 <EXPANSION END>
00000c60 0ade2000       3897 	addi	32,r10,r27
                        3898 --1328:         R_TAUJ_WRITE16(base_address + offset_address, r_tauj_RegCmur.Word);
                        3899 --line1328
                        3900 ..lin.C.3A.5Cgit.5Crh850.5Csrc.5Capp.5Cgfx_apps.5Csimple_draw.5Ctarget.5Cd1mx_mango_ghs.5Cobj.5Cr_tauj_main.237::
                        3901 .LDWlin237:
00000c64 1bf0           3902 	mov	r27,ep
00000c66 dcf1           3903 	add	r28,ep
00000c68 80ec           3904 	sst.h	r29,0[ep]
                        3905 --1329:            /* check values! */
                        3906 --1330:         while (R_TAUJ_READ16(base_address + offset_address) != r_tauj_RegCmur.Word) 
00000c6a c505*          3907 	br	.L3788
                        3908 .L3790:
                        3909 --1331:         {
                        3910 --1332:             R_TAUJ_WRITE16(base_address + offset_address, r_tauj_RegCmur.Word);
                        3911 --line1332
                        3912 ..lin.C.3A.5Cgit.5Crh850.5Csrc.5Capp.5Cgfx_apps.5Csimple_draw.5Ctarget.5Cd1mx_mango_ghs.5Cobj.5Cr_tauj_main.238::
                        3913 .LDWlin238:
00000c6c 1bf0           3914 	mov	r27,ep
00000c6e dcf1           3915 	add	r28,ep
00000c70 80ec           3916 	sst.h	r29,0[ep]
                        3917 .L3788:
00000c72 1bf0           3918 	mov	r27,ep
00000c74 dcf1           3919 	add	r28,ep
00000c76 7008           3920 	sld.hu	0[ep],r1
00000c78 fd09           3921 	cmp	r29,r1
00000c7a 9afd*          3922 	bne	.L3790
                        3923 .L3786:
                        3924 --1333:         }           
                        3925 --1334:     }
                        3926 --1335:     return error_mode;
                        3927 --line1335
                        3928 ..lin.C.3A.5Cgit.5Crh850.5Csrc.5Capp.5Cgfx_apps.5Csimple_draw.5Ctarget.5Cd1mx_mango_ghs.5Cobj.5Cr_tauj_main.239::

                                                                      Page 67
                                                              C:\Users\Frank\AppData\Local\Temp\gh_0000oso1.si
                        3929 .LDWlin239:
00000c7c 1a50           3930 	mov	r26,r10
                        3931 --	    .ef
                        3932 .LDW56:
00000c7e 4606ff70       3933 	dispose	3,{r25,r26,r27,r28,r29,r31},[lp]
                        3934 	.type	_R_TAUJ_SetTinEdge,@function
                        3935 	.size	_R_TAUJ_SetTinEdge,.-_R_TAUJ_SetTinEdge
                        3936 	.align	2
                        3937 .LDW66:
                        3938 --_error_mode	r26	local
                        3939 --_base_address	r28	local
                        3940 --_offset_address	r27	local
                        3941 --_r_tauj_RegCmur	r29	local
                        3942 
                        3943 --_Unit	4[sp]	param
                        3944 --_Channel	8[sp]	param
                        3945 --_Edge	r25	param
                        3946 
                        3947 	.section ".bss","awb"
                        3948 .L3906:
                        3949 	.type	.L3906,@object
                        3950 	.size	.L3906,0
                        3951 	.data
                        3952 	.text
                        3953 
                        3954 --1336: }
                        3955 
                        3956 --1339: /***********************************************************
                        3957 --1340:   Function: R_TAUJ_SetPeriod
                        3958 --1341: */
                        3959 --1343: r_tauj_Error_t R_TAUJ_SetPeriod(uint32_t Unit, r_tauj_Channel_t Channel, uint32_t Period) 
                        3960 	.align	2
                        3961 	.align	2
                        3962 	.global	_R_TAUJ_SetPeriod
                        3963 _R_TAUJ_SetPeriod:
00000c82 8207e170       3964 	prepare	{r25,r26,r27,r28,r29,r31},1
00000c86 06d0           3965 	mov	r6,r26
00000c88 07c8           3966 	mov	r7,r25
00000c8a 63470100       3967 	st.w	r8,0[sp]
                        3968 --	    .bf
                        3969 .LDW76:
                        3970 --1344: {
                        3971 --1345:     r_tauj_Error_t error_mode = R_TAUJ_ERR_OK;
00000c8e 00ea           3972 	mov	0,r29
                        3973 --1346:     uint32_t base_address = 0;
00000c90 00e2           3974 	mov	0,r28
                        3975 --1347:     uint32_t offset_address = 0;
00000c92 00da           3976 	mov	0,r27
                        3977 --1349:     /* check the instance is allowed */
                        3978 --1350:     if ( Unit > (R_TAUJ_MACRO_NUM - 1)) 
00000c94 e0d1           3979 	cmp	zero,r26
00000c96 b305*          3980 	bnh	.L3995
                        3981 --1351:     {
                        3982 --1352:         /* instance too high */
                        3983 --1353:         error_mode = R_TAUJ_ERR_INSTANCE;
                        3984 --line1353
                        3985 ..lin.C.3A.5Cgit.5Crh850.5Csrc.5Capp.5Cgfx_apps.5Csimple_draw.5Ctarget.5Cd1mx_mango_ghs.5Cobj.5Cr_tauj_main.240::
                        3986 .LDWlin240:
00000c98 03ea           3987 	mov	3,r29
00000c9a b515*          3988 	br	.L3997
                        3989 .L3995:

                                                                      Page 68
                                                              C:\Users\Frank\AppData\Local\Temp\gh_0000oso1.si
                        3990 --1354:     } 
                        3991 --1355:     else 
                        3992 --1356:     {
                        3993 --1357:         /* ok, update the CDR register value */
                        3994 --1358:         base_address = R_TAUJ_Dev[Unit].BaseAddr;
                        3995 --line1358
                        3996 ..lin.C.3A.5Cgit.5Crh850.5Csrc.5Capp.5Cgfx_apps.5Csimple_draw.5Ctarget.5Cd1mx_mango_ghs.5Cobj.5Cr_tauj_main.241::
                        3997 .LDWlin241:
00000c9c 1af0           3998 	mov	r26,ep
00000c9e fe00           3999 	sxh	ep
00000ca0 fef61400       4000 	mulhi	20,ep,ep
00000ca4 2e0600000000*  4001 	mov	_R_TAUJ_Dev,r14
00000caa cef1           4002 	add	r14,ep
00000cac 00e5           4003 	sld.w	0[ep],r28
                        4004 --1359:         offset_address = R_TAUJ0_CDR0 + loc_GetChannelAddress(Channel);
00000cae 1930           4005 	mov	r25,r6
                        4006 	jarl	_loc_GetChannelAddress,lp
                        4006 <EXPANSION BEGIN>
                        4006 jarl22 _loc_GetChannelAddress , lp 
00000cb0 bfffa8f3*      4006 <EXPANSION END>
00000cb4 0ad8           4007 	mov	r10,r27
                        4008 --1360:         R_TAUJ_WRITE32(base_address + offset_address, Period);
                        4009 --line1360
                        4010 ..lin.C.3A.5Cgit.5Crh850.5Csrc.5Capp.5Cgfx_apps.5Csimple_draw.5Ctarget.5Cd1mx_mango_ghs.5Cobj.5Cr_tauj_main.242::
                        4011 .LDWlin242:
00000cb6 235f0100       4012 	ld.w	0[sp],r11
00000cba 1bf0           4013 	mov	r27,ep
00000cbc dcf1           4014 	add	r28,ep
00000cbe 015d           4015 	sst.w	r11,0[ep]
                        4016 .L3997:
                        4017 --1361:     }
                        4018 --1363:     return error_mode;
00000cc0 1d50           4019 	mov	r29,r10
                        4020 --	    .ef
                        4021 .LDW86:
00000cc2 4206ff70       4022 	dispose	1,{r25,r26,r27,r28,r29,r31},[lp]
                        4023 	.type	_R_TAUJ_SetPeriod,@function
                        4024 	.size	_R_TAUJ_SetPeriod,.-_R_TAUJ_SetPeriod
                        4025 	.align	2
                        4026 .LDW96:
                        4027 --_error_mode	r29	local
                        4028 --_base_address	r28	local
                        4029 --_offset_address	r27	local
                        4030 
                        4031 --_Unit	r26	param
                        4032 --_Channel	r25	param
                        4033 --_Period	0[sp]	param
                        4034 
                        4035 	.section ".bss","awb"
                        4036 .L4046:
                        4037 	.type	.L4046,@object
                        4038 	.size	.L4046,0
                        4039 	.data
                        4040 	.text
                        4041 
                        4042 --1364: }
                        4043 
                        4044 --1367: /***********************************************************
                        4045 --1368:   Function: R_TAUJ_Start
                        4046 --1369: */
                        4047 --1371: r_tauj_Error_t R_TAUJ_Start(uint32_t Unit, r_tauj_Channel_t Channel) 

                                                                      Page 69
                                                              C:\Users\Frank\AppData\Local\Temp\gh_0000oso1.si
                        4048 	.align	2
                        4049 	.align	2
                        4050 	.global	_R_TAUJ_Start
                        4051 _R_TAUJ_Start:
00000cc6 8207e170       4052 	prepare	{r25,r26,r27,r28,r29,r31},1
00000cca 63370100       4053 	st.w	r6,0[sp]
00000cce 07c8           4054 	mov	r7,r25
                        4055 --	    .bf
                        4056 .LDW07:
                        4057 --1372: {
                        4058 --1373:     r_tauj_Error_t error_mode = R_TAUJ_ERR_OK;
00000cd0 00e2           4059 	mov	0,r28
                        4060 --1374:     uint16_t u16_channel = 0;
00000cd2 00da           4061 	mov	0,r27
                        4062 --1375:     uint32_t base_address = 0;
00000cd4 00d2           4063 	mov	0,r26
                        4064 --1376:     uint16_t u16_temp = 0;
00000cd6 00ea           4065 	mov	0,r29
                        4066 --1378:     /* check the instance is allowed */
                        4067 --1379:     if ( Unit > (R_TAUJ_MACRO_NUM - 1)) 
00000cd8 235f0100       4068 	ld.w	0[sp],r11
00000cdc e059           4069 	cmp	zero,r11
00000cde b305*          4070 	bnh	.L4084
                        4071 --1380:     {
                        4072 --1381:         /* instance too high */
                        4073 --1382:         error_mode = R_TAUJ_ERR_INSTANCE;
                        4074 --line1382
                        4075 ..lin.C.3A.5Cgit.5Crh850.5Csrc.5Capp.5Cgfx_apps.5Csimple_draw.5Ctarget.5Cd1mx_mango_ghs.5Cobj.5Cr_tauj_main.243::
                        4076 .LDWlin243:
00000ce0 03e2           4077 	mov	3,r28
00000ce2 8525*          4078 	br	.L4086
                        4079 .L4084:
                        4080 --1383:     } 
                        4081 --1384:     else 
                        4082 --1385:     {
                        4083 --1386:         /* ok, update the TAUJ0TS: TAU Channel Start Trigger register */
                        4084 --1388:         /* check the range for the channels */
                        4085 --1389:         if ( Channel > R_TAUJ_CHANNEL_ALL) 
                        4086 --line1389
                        4087 ..lin.C.3A.5Cgit.5Crh850.5Csrc.5Capp.5Cgfx_apps.5Csimple_draw.5Ctarget.5Cd1mx_mango_ghs.5Cobj.5Cr_tauj_main.244::
                        4088 .LDWlin244:
00000ce4 64ca           4089 	cmp	4,r25
00000ce6 b305*          4090 	bnh	.L4087
                        4091 --1390:         {
                        4092 --1391:             error_mode = R_TAUJ_ERR_RANGE;
                        4093 --line1391
                        4094 ..lin.C.3A.5Cgit.5Crh850.5Csrc.5Capp.5Cgfx_apps.5Csimple_draw.5Ctarget.5Cd1mx_mango_ghs.5Cobj.5Cr_tauj_main.245::
                        4095 .LDWlin245:
00000ce8 02e2           4096 	mov	2,r28
00000cea c51d*          4097 	br	.L4086
                        4098 .L4087:
                        4099 --1392:         } 
                        4100 --1393:         else 
                        4101 --1394:         {
                        4102 --1395:             base_address = R_TAUJ_Dev[Unit].BaseAddr;
                        4103 --line1395
                        4104 ..lin.C.3A.5Cgit.5Crh850.5Csrc.5Capp.5Cgfx_apps.5Csimple_draw.5Ctarget.5Cd1mx_mango_ghs.5Cobj.5Cr_tauj_main.246::
                        4105 .LDWlin246:
00000cec 235f0100       4106 	ld.w	0[sp],r11
00000cf0 2e0600000000*  4107 	mov	_R_TAUJ_Dev,r14
00000cf6 0bf0           4108 	mov	r11,ep

                                                                      Page 70
                                                              C:\Users\Frank\AppData\Local\Temp\gh_0000oso1.si
00000cf8 fe00           4109 	sxh	ep
00000cfa fef61400       4110 	mulhi	20,ep,ep
00000cfe cef1           4111 	add	r14,ep
00000d00 00d5           4112 	sld.w	0[ep],r26
                        4113 --1397:             /* enable all channels */
                        4114 --1398:             if ( Channel == R_TAUJ_CHANNEL_ALL) 
00000d02 64ca           4115 	cmp	4,r25
00000d04 ba05*          4116 	bne	.L4090
                        4117 --1399:             {
                        4118 --1400:                 u16_temp = LOC_CHANNEL_ALL;
                        4119 --line1400
                        4120 ..lin.C.3A.5Cgit.5Crh850.5Csrc.5Capp.5Cgfx_apps.5Csimple_draw.5Ctarget.5Cd1mx_mango_ghs.5Cobj.5Cr_tauj_main.247::
                        4121 .LDWlin247:
00000d06 0fea           4122 	mov	15,r29
00000d08 b50d*          4123 	br	.L4092
                        4124 .L4090:
                        4125 --1401:             } 
                        4126 --1402:             else 
                        4127 --1403:             { /* just one channel */
                        4128 --1404:                 u16_channel = loc_GetChannelID(Channel);
                        4129 --line1404
                        4130 ..lin.C.3A.5Cgit.5Crh850.5Csrc.5Capp.5Cgfx_apps.5Csimple_draw.5Ctarget.5Cd1mx_mango_ghs.5Cobj.5Cr_tauj_main.248::
                        4131 .LDWlin248:
00000d0a 1930           4132 	mov	r25,r6
                        4133 	jarl	_loc_GetChannelID,lp
                        4133 <EXPANSION BEGIN>
                        4133 jarl22 _loc_GetChannelID , lp 
00000d0c bfff20f3*      4133 <EXPANSION END>
00000d10 0ad8           4134 	mov	r10,r27
                        4135 --1405:                 R_TAUJ_SET_BIT(u16_temp, u16_channel);
                        4136 --line1405
                        4137 ..lin.C.3A.5Cgit.5Crh850.5Csrc.5Capp.5Cgfx_apps.5Csimple_draw.5Ctarget.5Cd1mx_mango_ghs.5Cobj.5Cr_tauj_main.249::
                        4138 .LDWlin249:
00000d12 010a           4139 	mov	1,r1
00000d14 fb0fc208       4140 	shl	r27,r1,r1
00000d18 c100           4141 	zxh	r1
00000d1a 01e9           4142 	or	r1,r29
00000d1c dd00           4143 	zxh	r29
                        4144 .L4092:
                        4145 --1406:             }
                        4146 --1407:             /* update the TS Channel Start Trigger Register */
                        4147 --1408:             R_TAUJ_WRITE16(base_address + R_TAUJ0_TS, u16_temp);
00000d1e 7aef5400       4148 	st.h	r29,84[r26]
                        4149 .L4086:
                        4150 --1409:         }
                        4151 --1410:     }
                        4152 --1411:     return error_mode;
00000d22 1c50           4153 	mov	r28,r10
                        4154 --	    .ef
                        4155 .LDW17:
00000d24 4206ff70       4156 	dispose	1,{r25,r26,r27,r28,r29,r31},[lp]
                        4157 	.type	_R_TAUJ_Start,@function
                        4158 	.size	_R_TAUJ_Start,.-_R_TAUJ_Start
                        4159 	.align	2
                        4160 .LDW27:
                        4161 --_error_mode	r28	local
                        4162 --_u16_channel	r27	local
                        4163 --_base_address	r26	local
                        4164 --_u16_temp	r29	local
                        4165 
                        4166 --_Unit	0[sp]	param

                                                                      Page 71
                                                              C:\Users\Frank\AppData\Local\Temp\gh_0000oso1.si
                        4167 --_Channel	r25	param
                        4168 
                        4169 	.section ".bss","awb"
                        4170 .L4166:
                        4171 	.type	.L4166,@object
                        4172 	.size	.L4166,0
                        4173 	.data
                        4174 	.text
                        4175 
                        4176 --1412: }
                        4177 
                        4178 --1415: /***********************************************************
                        4179 --1416:   Function: R_TAUJ_Stop
                        4180 --1417: */
                        4181 --1419: r_tauj_Error_t R_TAUJ_Stop(uint32_t Unit, r_tauj_Channel_t Channel) 
                        4182 	.align	2
                        4183 	.align	2
                        4184 	.global	_R_TAUJ_Stop
                        4185 _R_TAUJ_Stop:
00000d28 8207e170       4186 	prepare	{r25,r26,r27,r28,r29,r31},1
00000d2c 63370100       4187 	st.w	r6,0[sp]
00000d30 07c8           4188 	mov	r7,r25
                        4189 --	    .bf
                        4190 .LDW37:
                        4191 --1420: {
                        4192 --1421:     uint16_t u16_channel = 0;
00000d32 00da           4193 	mov	0,r27
                        4194 --1422:     uint32_t base_address = 0;
00000d34 00d2           4195 	mov	0,r26
                        4196 --1423:     uint16_t u16_temp = 0;
00000d36 00ea           4197 	mov	0,r29
                        4198 --1425:     r_tauj_Error_t error_mode = R_TAUJ_ERR_OK;
00000d38 00e2           4199 	mov	0,r28
                        4200 --1427:     /* check the instance is allowed */
                        4201 --1428:     if ( Unit > (R_TAUJ_MACRO_NUM - 1)) 
00000d3a 235f0100       4202 	ld.w	0[sp],r11
00000d3e e059           4203 	cmp	zero,r11
00000d40 b305*          4204 	bnh	.L4222
                        4205 --1429:     {
                        4206 --1430:         /* instance too high */
                        4207 --1431:         error_mode = R_TAUJ_ERR_INSTANCE;
                        4208 --line1431
                        4209 ..lin.C.3A.5Cgit.5Crh850.5Csrc.5Capp.5Cgfx_apps.5Csimple_draw.5Ctarget.5Cd1mx_mango_ghs.5Cobj.5Cr_tauj_main.250::
                        4210 .LDWlin250:
00000d42 03e2           4211 	mov	3,r28
00000d44 8525*          4212 	br	.L4224
                        4213 .L4222:
                        4214 --1432:     } 
                        4215 --1433:     else 
                        4216 --1434:     {
                        4217 --1435:         /* set the channel to be stopped in the TAUJ0TT: TAU Channel Stop Trigger Register */
                        4218 --1437:         /* check the range for the channels */
                        4219 --1438:         if ( Channel > R_TAUJ_CHANNEL_ALL) 
                        4220 --line1438
                        4221 ..lin.C.3A.5Cgit.5Crh850.5Csrc.5Capp.5Cgfx_apps.5Csimple_draw.5Ctarget.5Cd1mx_mango_ghs.5Cobj.5Cr_tauj_main.251::
                        4222 .LDWlin251:
00000d46 64ca           4223 	cmp	4,r25
00000d48 b305*          4224 	bnh	.L4225
                        4225 --1439:         {
                        4226 --1440:             error_mode = R_TAUJ_ERR_RANGE;
                        4227 --line1440

                                                                      Page 72
                                                              C:\Users\Frank\AppData\Local\Temp\gh_0000oso1.si
                        4228 ..lin.C.3A.5Cgit.5Crh850.5Csrc.5Capp.5Cgfx_apps.5Csimple_draw.5Ctarget.5Cd1mx_mango_ghs.5Cobj.5Cr_tauj_main.252::
                        4229 .LDWlin252:
00000d4a 02e2           4230 	mov	2,r28
00000d4c c51d*          4231 	br	.L4224
                        4232 .L4225:
                        4233 --1441:         } 
                        4234 --1442:         else 
                        4235 --1443:         {
                        4236 --1444:             /* enable all channels */
                        4237 --1445:             if ( Channel == R_TAUJ_CHANNEL_ALL) 
                        4238 --line1445
                        4239 ..lin.C.3A.5Cgit.5Crh850.5Csrc.5Capp.5Cgfx_apps.5Csimple_draw.5Ctarget.5Cd1mx_mango_ghs.5Cobj.5Cr_tauj_main.253::
                        4240 .LDWlin253:
00000d4e 64ca           4241 	cmp	4,r25
00000d50 ba05*          4242 	bne	.L4228
                        4243 --1446:             {
                        4244 --1447:                 u16_temp = LOC_CHANNEL_ALL;
                        4245 --line1447
                        4246 ..lin.C.3A.5Cgit.5Crh850.5Csrc.5Capp.5Cgfx_apps.5Csimple_draw.5Ctarget.5Cd1mx_mango_ghs.5Cobj.5Cr_tauj_main.254::
                        4247 .LDWlin254:
00000d52 0fea           4248 	mov	15,r29
00000d54 b50d*          4249 	br	.L4230
                        4250 .L4228:
                        4251 --1448:             } 
                        4252 --1449:             else 
                        4253 --1450:             { /* just one channel */
                        4254 --1451:                 u16_channel = loc_GetChannelID(Channel);
                        4255 --line1451
                        4256 ..lin.C.3A.5Cgit.5Crh850.5Csrc.5Capp.5Cgfx_apps.5Csimple_draw.5Ctarget.5Cd1mx_mango_ghs.5Cobj.5Cr_tauj_main.255::
                        4257 .LDWlin255:
00000d56 1930           4258 	mov	r25,r6
                        4259 	jarl	_loc_GetChannelID,lp
                        4259 <EXPANSION BEGIN>
                        4259 jarl22 _loc_GetChannelID , lp 
00000d58 bfffd4f2*      4259 <EXPANSION END>
00000d5c 0ad8           4260 	mov	r10,r27
                        4261 --1452:                 R_TAUJ_SET_BIT(u16_temp, u16_channel);
                        4262 --line1452
                        4263 ..lin.C.3A.5Cgit.5Crh850.5Csrc.5Capp.5Cgfx_apps.5Csimple_draw.5Ctarget.5Cd1mx_mango_ghs.5Cobj.5Cr_tauj_main.256::
                        4264 .LDWlin256:
00000d5e 010a           4265 	mov	1,r1
00000d60 fb0fc208       4266 	shl	r27,r1,r1
00000d64 c100           4267 	zxh	r1
00000d66 01e9           4268 	or	r1,r29
00000d68 dd00           4269 	zxh	r29
                        4270 .L4230:
                        4271 --1453:             }
                        4272 --1455:             base_address = R_TAUJ_Dev[Unit].BaseAddr;
00000d6a 235f0100       4273 	ld.w	0[sp],r11
00000d6e 2e0600000000*  4274 	mov	_R_TAUJ_Dev,r14
00000d74 0bf0           4275 	mov	r11,ep
00000d76 fe00           4276 	sxh	ep
00000d78 fef61400       4277 	mulhi	20,ep,ep
00000d7c cef1           4278 	add	r14,ep
00000d7e 00d5           4279 	sld.w	0[ep],r26
                        4280 --1457:             /* update the TT Channel Stop Trigger Register (Write only) */
                        4281 --1458:             R_TAUJ_WRITE16(base_address + R_TAUJ0_TT, u16_temp);
00000d80 7aef5800       4282 	st.h	r29,88[r26]
                        4283 .L4224:
                        4284 --1459:         }
                        4285 --1460:     }

                                                                      Page 73
                                                              C:\Users\Frank\AppData\Local\Temp\gh_0000oso1.si
                        4286 --1461:     return error_mode;
00000d84 1c50           4287 	mov	r28,r10
                        4288 --	    .ef
                        4289 .LDW47:
00000d86 4206ff70       4290 	dispose	1,{r25,r26,r27,r28,r29,r31},[lp]
                        4291 	.type	_R_TAUJ_Stop,@function
                        4292 	.size	_R_TAUJ_Stop,.-_R_TAUJ_Stop
                        4293 	.align	2
                        4294 .LDW57:
                        4295 --_u16_channel	r27	local
                        4296 --_base_address	r26	local
                        4297 --_u16_temp	r29	local
                        4298 --_error_mode	r28	local
                        4299 
                        4300 --_Unit	0[sp]	param
                        4301 --_Channel	r25	param
                        4302 
                        4303 	.section ".bss","awb"
                        4304 .L4310:
                        4305 	.type	.L4310,@object
                        4306 	.size	.L4310,0
                        4307 	.data
                        4308 	.text
                        4309 
                        4310 --1462: }
                        4311 
                        4312 --1465: /***********************************************************
                        4313 --1466:   Function: R_TAUJ_ReloadDataTrigger
                        4314 --1467: */
                        4315 --1469: r_tauj_Error_t R_TAUJ_ReloadDataTrigger(uint32_t Unit, r_tauj_Channel_t Channel) 
                        4316 	.align	2
                        4317 	.align	2
                        4318 	.global	_R_TAUJ_ReloadDataTrigger
                        4319 _R_TAUJ_ReloadDataTrigger:
00000d8a 8207e170       4320 	prepare	{r25,r26,r27,r28,r29,r31},1
00000d8e 63370100       4321 	st.w	r6,0[sp]
00000d92 07c8           4322 	mov	r7,r25
                        4323 --	    .bf
                        4324 .LDW67:
                        4325 --1470: {
                        4326 --1471:     uint16_t u16_channel = 0;
00000d94 00da           4327 	mov	0,r27
                        4328 --1472:     uint32_t base_address = 0;
00000d96 00d2           4329 	mov	0,r26
                        4330 --1473:     uint16_t u16_temp = 0;
00000d98 00ea           4331 	mov	0,r29
                        4332 --1475:     r_tauj_Error_t error_mode = R_TAUJ_ERR_OK;
00000d9a 00e2           4333 	mov	0,r28
                        4334 --1477:     /* check the instance is allowed */
                        4335 --1478:     if (Unit > (R_TAUJ_MACRO_NUM - 1)) 
00000d9c 235f0100       4336 	ld.w	0[sp],r11
00000da0 e059           4337 	cmp	zero,r11
00000da2 b305*          4338 	bnh	.L4366
                        4339 --1479:     {
                        4340 --1480:         /* instance too high */
                        4341 --1481:         error_mode = R_TAUJ_ERR_INSTANCE;
                        4342 --line1481
                        4343 ..lin.C.3A.5Cgit.5Crh850.5Csrc.5Capp.5Cgfx_apps.5Csimple_draw.5Ctarget.5Cd1mx_mango_ghs.5Cobj.5Cr_tauj_main.257::
                        4344 .LDWlin257:
00000da4 03e2           4345 	mov	3,r28
00000da6 8525*          4346 	br	.L4368

                                                                      Page 74
                                                              C:\Users\Frank\AppData\Local\Temp\gh_0000oso1.si
                        4347 .L4366:
                        4348 --1482:     } 
                        4349 --1483:     else 
                        4350 --1484:     {
                        4351 --1485:         /* check the range for the channels */
                        4352 --1486:         if (Channel > R_TAUJ_CHANNEL_ALL) 
                        4353 --line1486
                        4354 ..lin.C.3A.5Cgit.5Crh850.5Csrc.5Capp.5Cgfx_apps.5Csimple_draw.5Ctarget.5Cd1mx_mango_ghs.5Cobj.5Cr_tauj_main.258::
                        4355 .LDWlin258:
00000da8 64ca           4356 	cmp	4,r25
00000daa b305*          4357 	bnh	.L4369
                        4358 --1487:         {
                        4359 --1488:             error_mode = R_TAUJ_ERR_RANGE;
                        4360 --line1488
                        4361 ..lin.C.3A.5Cgit.5Crh850.5Csrc.5Capp.5Cgfx_apps.5Csimple_draw.5Ctarget.5Cd1mx_mango_ghs.5Cobj.5Cr_tauj_main.259::
                        4362 .LDWlin259:
00000dac 02e2           4363 	mov	2,r28
00000dae c51d*          4364 	br	.L4368
                        4365 .L4369:
                        4366 --1489:         }
                        4367 --1490:         else 
                        4368 --1491:         { /* enable all channels */
                        4369 --1492:             if ( Channel == R_TAUJ_CHANNEL_ALL) 
                        4370 --line1492
                        4371 ..lin.C.3A.5Cgit.5Crh850.5Csrc.5Capp.5Cgfx_apps.5Csimple_draw.5Ctarget.5Cd1mx_mango_ghs.5Cobj.5Cr_tauj_main.260::
                        4372 .LDWlin260:
00000db0 64ca           4373 	cmp	4,r25
00000db2 ba05*          4374 	bne	.L4372
                        4375 --1493:             {
                        4376 --1494:                 u16_temp = LOC_CHANNEL_ALL;
                        4377 --line1494
                        4378 ..lin.C.3A.5Cgit.5Crh850.5Csrc.5Capp.5Cgfx_apps.5Csimple_draw.5Ctarget.5Cd1mx_mango_ghs.5Cobj.5Cr_tauj_main.261::
                        4379 .LDWlin261:
00000db4 0fea           4380 	mov	15,r29
00000db6 b50d*          4381 	br	.L4374
                        4382 .L4372:
                        4383 --1495:             } 
                        4384 --1496:             else 
                        4385 --1497:             { /* just one channel */
                        4386 --1498:                 u16_channel = loc_GetChannelID(Channel);
                        4387 --line1498
                        4388 ..lin.C.3A.5Cgit.5Crh850.5Csrc.5Capp.5Cgfx_apps.5Csimple_draw.5Ctarget.5Cd1mx_mango_ghs.5Cobj.5Cr_tauj_main.262::
                        4389 .LDWlin262:
00000db8 1930           4390 	mov	r25,r6
                        4391 	jarl	_loc_GetChannelID,lp
                        4391 <EXPANSION BEGIN>
                        4391 jarl22 _loc_GetChannelID , lp 
00000dba bfff72f2*      4391 <EXPANSION END>
00000dbe 0ad8           4392 	mov	r10,r27
                        4393 --1499:                 R_TAUJ_SET_BIT(u16_temp, u16_channel);
                        4394 --line1499
                        4395 ..lin.C.3A.5Cgit.5Crh850.5Csrc.5Capp.5Cgfx_apps.5Csimple_draw.5Ctarget.5Cd1mx_mango_ghs.5Cobj.5Cr_tauj_main.263::
                        4396 .LDWlin263:
00000dc0 010a           4397 	mov	1,r1
00000dc2 fb0fc208       4398 	shl	r27,r1,r1
00000dc6 c100           4399 	zxh	r1
00000dc8 01e9           4400 	or	r1,r29
00000dca dd00           4401 	zxh	r29
                        4402 .L4374:
                        4403 --1500:             }
                        4404 --1502:             base_address = R_TAUJ_Dev[Unit].BaseAddr;

                                                                      Page 75
                                                              C:\Users\Frank\AppData\Local\Temp\gh_0000oso1.si
00000dcc 235f0100       4405 	ld.w	0[sp],r11
00000dd0 2e0600000000*  4406 	mov	_R_TAUJ_Dev,r14
00000dd6 0bf0           4407 	mov	r11,ep
00000dd8 fe00           4408 	sxh	ep
00000dda fef61400       4409 	mulhi	20,ep,ep
00000dde cef1           4410 	add	r14,ep
00000de0 00d5           4411 	sld.w	0[ep],r26
                        4412 --1504:             /* update the RDT Channel Reload Data Trigger Register (Write only) */
                        4413 --1505:             R_TAUJ_WRITE16(base_address + R_TAUJ0_RDT, u16_temp);
00000de2 7aef6800       4414 	st.h	r29,104[r26]
                        4415 .L4368:
                        4416 --1506:         }
                        4417 --1507:     }
                        4418 --1508:     return error_mode;
00000de6 1c50           4419 	mov	r28,r10
                        4420 --	    .ef
                        4421 .LDW77:
00000de8 4206ff70       4422 	dispose	1,{r25,r26,r27,r28,r29,r31},[lp]
                        4423 	.type	_R_TAUJ_ReloadDataTrigger,@function
                        4424 	.size	_R_TAUJ_ReloadDataTrigger,.-_R_TAUJ_ReloadDataTrigger
                        4425 	.align	2
                        4426 .LDW87:
                        4427 --_u16_channel	r27	local
                        4428 --_base_address	r26	local
                        4429 --_u16_temp	r29	local
                        4430 --_error_mode	r28	local
                        4431 
                        4432 --_Unit	0[sp]	param
                        4433 --_Channel	r25	param
                        4434 
                        4435 	.section ".bss","awb"
                        4436 .L4454:
                        4437 	.type	.L4454,@object
                        4438 	.size	.L4454,0
                        4439 	.data
                        4440 	.text
                        4441 
                        4442 --1509: }
                        4443 
                        4444 --1512: /***********************************************************
                        4445 --1513:   Function: R_TAUJ_SetInvertOutputTOUT
                        4446 --1514: */
                        4447 --1516: r_tauj_Error_t R_TAUJ_SetInvertOutputTOUT(
                        4448 	.align	2
                        4449 	.align	2
                        4450 	.global	_R_TAUJ_SetInvertOutputTOUT
                        4451 _R_TAUJ_SetInvertOutputTOUT:
00000dec 8607e170       4452 	prepare	{r25,r26,r27,r28,r29,r31},3
00000df0 633f0900       4453 	st.w	r7,8[sp]
00000df4 c85eff00       4454 	andi	255,r8,r11
00000df8 435f0300       4455 	st.b	r11,3[sp]
00000dfc 06c8           4456 	mov	r6,r25
                        4457 --	    .bf
                        4458 .LDW97:
                        4459 --1517:     uint32_t Unit,
                        4460 --1518:     r_tauj_Channel_t Channel,
                        4461 --1519:     uint8_t InvertOutput)
                        4462 --1520: {
                        4463 --1521:     r_tauj_Error_t error_mode = R_TAUJ_ERR_OK;
00000dfe 00da           4464 	mov	0,r27
                        4465 --1522:     uint32_t base_address = 0;

                                                                      Page 76
                                                              C:\Users\Frank\AppData\Local\Temp\gh_0000oso1.si
00000e00 00e2           4466 	mov	0,r28
                        4467 --1523:     uint16_t u16_tol = 0;
00000e02 00ea           4468 	mov	0,r29
                        4469 --1524:     uint16_t u16_channel = 0;
00000e04 00d2           4470 	mov	0,r26
                        4471 --1526:     /* check the instance is allowed */
                        4472 --1527:     if ( Unit > (R_TAUJ_MACRO_NUM - 1)) 
00000e06 e0c9           4473 	cmp	zero,r25
00000e08 b305*          4474 	bnh	.L4510
                        4475 --1528:     {
                        4476 --1529:         /* instance too high */
                        4477 --1530:         error_mode = R_TAUJ_ERR_INSTANCE;
                        4478 --line1530
                        4479 ..lin.C.3A.5Cgit.5Crh850.5Csrc.5Capp.5Cgfx_apps.5Csimple_draw.5Ctarget.5Cd1mx_mango_ghs.5Cobj.5Cr_tauj_main.264::
                        4480 .LDWlin264:
00000e0a 03da           4481 	mov	3,r27
00000e0c 8535*          4482 	br	.L4512
                        4483 .L4510:
                        4484 --1531:     } 
                        4485 --1532:     else 
                        4486 --1533:     {
                        4487 --1534:         /* ok, invert the output of the TOUTn pin (TOL) */
                        4488 --1535:         base_address = R_TAUJ_Dev[Unit].BaseAddr;
                        4489 --line1535
                        4490 ..lin.C.3A.5Cgit.5Crh850.5Csrc.5Capp.5Cgfx_apps.5Csimple_draw.5Ctarget.5Cd1mx_mango_ghs.5Cobj.5Cr_tauj_main.265::
                        4491 .LDWlin265:
00000e0e 19f0           4492 	mov	r25,ep
00000e10 fe00           4493 	sxh	ep
00000e12 fef61400       4494 	mulhi	20,ep,ep
00000e16 2b0600000000*  4495 	mov	_R_TAUJ_Dev,r11
00000e1c cbf1           4496 	add	r11,ep
00000e1e 00e5           4497 	sld.w	0[ep],r28
                        4498 --1536:         u16_tol = R_TAUJ_READ16(base_address + R_TAUJ0_TOL);
00000e20 fcef6500       4499 	ld.hu	100[r28],r29
                        4500 --1538:         /* enable all channels */
                        4501 --1539:         if ( Channel == R_TAUJ_CHANNEL_ALL) 
00000e24 235f0900       4502 	ld.w	8[sp],r11
00000e28 645a           4503 	cmp	4,r11
00000e2a 9a0d*          4504 	bne	.L4513
                        4505 --1540:         {
                        4506 --1541:             if ( InvertOutput == 1) 
                        4507 --line1541
                        4508 ..lin.C.3A.5Cgit.5Crh850.5Csrc.5Capp.5Cgfx_apps.5Csimple_draw.5Ctarget.5Cd1mx_mango_ghs.5Cobj.5Cr_tauj_main.266::
                        4509 .LDWlin266:
00000e2c a35f0300       4510 	ld.bu	3[sp],r11
00000e30 615a           4511 	cmp	1,r11
00000e32 ba05*          4512 	bne	.L4515
                        4513 --1542:             {
                        4514 --1543:                 u16_tol = LOC_CHANNEL_ALL;
                        4515 --line1543
                        4516 ..lin.C.3A.5Cgit.5Crh850.5Csrc.5Capp.5Cgfx_apps.5Csimple_draw.5Ctarget.5Cd1mx_mango_ghs.5Cobj.5Cr_tauj_main.267::
                        4517 .LDWlin267:
00000e34 0fea           4518 	mov	15,r29
00000e36 b51d*          4519 	br	.L4512
                        4520 .L4515:
                        4521 --1544:             } 
                        4522 --1545:             else 
                        4523 --1546:             {
                        4524 --1547:                 u16_tol = 0;
                        4525 --line1547
                        4526 ..lin.C.3A.5Cgit.5Crh850.5Csrc.5Capp.5Cgfx_apps.5Csimple_draw.5Ctarget.5Cd1mx_mango_ghs.5Cobj.5Cr_tauj_main.268::

                                                                      Page 77
                                                              C:\Users\Frank\AppData\Local\Temp\gh_0000oso1.si
                        4527 .LDWlin268:
00000e38 00ea           4528 	mov	0,r29
00000e3a 951d*          4529 	br	.L4512
                        4530 .L4513:
                        4531 --1548:             }
                        4532 --1549:         }
                        4533 --1550:         else 
                        4534 --1551:         { /* just one channel */
                        4535 --1552:             u16_channel = loc_GetChannelID(Channel);
                        4536 --line1552
                        4537 ..lin.C.3A.5Cgit.5Crh850.5Csrc.5Capp.5Cgfx_apps.5Csimple_draw.5Ctarget.5Cd1mx_mango_ghs.5Cobj.5Cr_tauj_main.269::
                        4538 .LDWlin269:
00000e3c 23370900       4539 	ld.w	8[sp],r6
                        4540 	jarl	_loc_GetChannelID,lp
                        4540 <EXPANSION BEGIN>
                        4540 jarl22 _loc_GetChannelID , lp 
00000e40 bfffecf1*      4540 <EXPANSION END>
00000e44 0ad0           4541 	mov	r10,r26
                        4542 --1553:             if ( InvertOutput == 1) 
                        4543 --line1553
                        4544 ..lin.C.3A.5Cgit.5Crh850.5Csrc.5Capp.5Cgfx_apps.5Csimple_draw.5Ctarget.5Cd1mx_mango_ghs.5Cobj.5Cr_tauj_main.270::
                        4545 .LDWlin270:
00000e46 a35f0300       4546 	ld.bu	3[sp],r11
00000e4a 615a           4547 	cmp	1,r11
00000e4c 8a0d*          4548 	bne	.L4519
                        4549 --1554:             {
                        4550 --1555:                 R_TAUJ_SET_BIT(u16_tol, u16_channel);
                        4551 --line1555
                        4552 ..lin.C.3A.5Cgit.5Crh850.5Csrc.5Capp.5Cgfx_apps.5Csimple_draw.5Ctarget.5Cd1mx_mango_ghs.5Cobj.5Cr_tauj_main.271::
                        4553 .LDWlin271:
00000e4e 010a           4554 	mov	1,r1
00000e50 fa0fc208       4555 	shl	r26,r1,r1
00000e54 c100           4556 	zxh	r1
00000e56 01e9           4557 	or	r1,r29
00000e58 dd00           4558 	zxh	r29
00000e5a 950d*          4559 	br	.L4512
                        4560 .L4519:
                        4561 --1556:             } 
                        4562 --1557:             else 
                        4563 --1558:             {
                        4564 --1559:                 R_TAUJ_CLR_BIT(u16_tol, u16_channel);
                        4565 --line1559
                        4566 ..lin.C.3A.5Cgit.5Crh850.5Csrc.5Capp.5Cgfx_apps.5Csimple_draw.5Ctarget.5Cd1mx_mango_ghs.5Cobj.5Cr_tauj_main.272::
                        4567 .LDWlin272:
00000e5c 010a           4568 	mov	1,r1
00000e5e fa0fc208       4569 	shl	r26,r1,r1
00000e62 c100           4570 	zxh	r1
00000e64 2108           4571 	not	r1,r1
00000e66 c100           4572 	zxh	r1
00000e68 41e9           4573 	and	r1,r29
00000e6a dd00           4574 	zxh	r29
                        4575 .L4512:
                        4576 --1560:             }
                        4577 --1561:         }
                        4578 --1562:     }
                        4579 --1564:     /* if no error then update the register */
                        4580 --1565:     if ( error_mode == R_TAUJ_ERR_OK)
00000e6c e0d9           4581 	cmp	zero,r27
00000e6e ca0d*          4582 	bne	.L4522
                        4583 --1566:     {
                        4584 --1567:         /* update the Channel Output Level Register (TOL) */

                                                                      Page 78
                                                              C:\Users\Frank\AppData\Local\Temp\gh_0000oso1.si
                        4585 --1568:         base_address = R_TAUJ_Dev[Unit].BaseAddr;
                        4586 --line1568
                        4587 ..lin.C.3A.5Cgit.5Crh850.5Csrc.5Capp.5Cgfx_apps.5Csimple_draw.5Ctarget.5Cd1mx_mango_ghs.5Cobj.5Cr_tauj_main.273::
                        4588 .LDWlin273:
00000e70 19f0           4589 	mov	r25,ep
00000e72 fe00           4590 	sxh	ep
00000e74 fef61400       4591 	mulhi	20,ep,ep
00000e78 2b0600000000*  4592 	mov	_R_TAUJ_Dev,r11
00000e7e cbf1           4593 	add	r11,ep
00000e80 00e5           4594 	sld.w	0[ep],r28
                        4595 --1569:         R_TAUJ_WRITE16(base_address + R_TAUJ0_TOL, u16_tol);
00000e82 7cef6400       4596 	st.h	r29,100[r28]
                        4597 .L4522:
                        4598 --1570:     }
                        4599 --1572:     return error_mode;
00000e86 1b50           4600 	mov	r27,r10
                        4601 --	    .ef
                        4602 .LDW08:
00000e88 4606ff70       4603 	dispose	3,{r25,r26,r27,r28,r29,r31},[lp]
                        4604 	.type	_R_TAUJ_SetInvertOutputTOUT,@function
                        4605 	.size	_R_TAUJ_SetInvertOutputTOUT,.-_R_TAUJ_SetInvertOutputTOUT
                        4606 	.align	2
                        4607 .LDW18:
                        4608 --_error_mode	r27	local
                        4609 --_base_address	r28	local
                        4610 --_u16_tol	r29	local
                        4611 --_u16_channel	r26	local
                        4612 
                        4613 --_Unit	r25	param
                        4614 --_Channel	8[sp]	param
                        4615 --_InvertOutput	3[sp]	param
                        4616 
                        4617 	.section ".bss","awb"
                        4618 .L4618:
                        4619 	.type	.L4618,@object
                        4620 	.size	.L4618,0
                        4621 	.data
                        4622 	.text
                        4623 
                        4624 --1573: }
                        4625 
                        4626 --1576: /***********************************************************
                        4627 --1577:   Function: R_TAUJ_OutputEnable
                        4628 --1578: */
                        4629 --1580: r_tauj_Error_t R_TAUJ_OutputEnable(uint32_t Unit, r_tauj_Channel_t Channel) 
                        4630 	.align	2
                        4631 	.align	2
                        4632 	.global	_R_TAUJ_OutputEnable
                        4633 _R_TAUJ_OutputEnable:
00000e8c 8207e170       4634 	prepare	{r25,r26,r27,r28,r29,r31},1
00000e90 63370100       4635 	st.w	r6,0[sp]
00000e94 07c8           4636 	mov	r7,r25
                        4637 --	    .bf
                        4638 .LDW28:
                        4639 --1581: {
                        4640 --1582:     r_tauj_Error_t error_mode = R_TAUJ_ERR_OK;
00000e96 00e2           4641 	mov	0,r28
                        4642 --1583:     uint16_t u16_channel = 0;
00000e98 00d2           4643 	mov	0,r26
                        4644 --1584:     uint32_t base_address = 0;
00000e9a 00da           4645 	mov	0,r27

                                                                      Page 79
                                                              C:\Users\Frank\AppData\Local\Temp\gh_0000oso1.si
                        4646 --1585:     uint16_t u16_temp = 0;
00000e9c 00ea           4647 	mov	0,r29
                        4648 --1587:     /* check the instance is allowed */
                        4649 --1588:     if ( Unit > (R_TAUJ_MACRO_NUM - 1)) 
00000e9e 235f0100       4650 	ld.w	0[sp],r11
00000ea2 e059           4651 	cmp	zero,r11
00000ea4 b305*          4652 	bnh	.L4689
                        4653 --1589:     {
                        4654 --1590:         /* instance too high */
                        4655 --1591:         error_mode = R_TAUJ_ERR_INSTANCE;
                        4656 --line1591
                        4657 ..lin.C.3A.5Cgit.5Crh850.5Csrc.5Capp.5Cgfx_apps.5Csimple_draw.5Ctarget.5Cd1mx_mango_ghs.5Cobj.5Cr_tauj_main.274::
                        4658 .LDWlin274:
00000ea6 03e2           4659 	mov	3,r28
00000ea8 f525*          4660 	br	.L4691
                        4661 .L4689:
                        4662 --1592:     } 
                        4663 --1593:     else 
                        4664 --1594:     {
                        4665 --1595:         /* ok, update the TAUJ0TOE: TAU Channel Output Enable register */
                        4666 --1597:         /* check the range for the channels */
                        4667 --1598:         if ( Channel > R_TAUJ_CHANNEL_ALL) 
                        4668 --line1598
                        4669 ..lin.C.3A.5Cgit.5Crh850.5Csrc.5Capp.5Cgfx_apps.5Csimple_draw.5Ctarget.5Cd1mx_mango_ghs.5Cobj.5Cr_tauj_main.275::
                        4670 .LDWlin275:
00000eaa 64ca           4671 	cmp	4,r25
00000eac b305*          4672 	bnh	.L4692
                        4673 --1599:         {
                        4674 --1600:             error_mode = R_TAUJ_ERR_RANGE;
                        4675 --line1600
                        4676 ..lin.C.3A.5Cgit.5Crh850.5Csrc.5Capp.5Cgfx_apps.5Csimple_draw.5Ctarget.5Cd1mx_mango_ghs.5Cobj.5Cr_tauj_main.276::
                        4677 .LDWlin276:
00000eae 02e2           4678 	mov	2,r28
00000eb0 b525*          4679 	br	.L4691
                        4680 .L4692:
                        4681 --1601:         } 
                        4682 --1602:         else 
                        4683 --1603:         {
                        4684 --1604:             base_address = R_TAUJ_Dev[Unit].BaseAddr;
                        4685 --line1604
                        4686 ..lin.C.3A.5Cgit.5Crh850.5Csrc.5Capp.5Cgfx_apps.5Csimple_draw.5Ctarget.5Cd1mx_mango_ghs.5Cobj.5Cr_tauj_main.277::
                        4687 .LDWlin277:
00000eb2 235f0100       4688 	ld.w	0[sp],r11
00000eb6 2e0600000000*  4689 	mov	_R_TAUJ_Dev,r14
00000ebc 0bf0           4690 	mov	r11,ep
00000ebe fe00           4691 	sxh	ep
00000ec0 fef61400       4692 	mulhi	20,ep,ep
00000ec4 cef1           4693 	add	r14,ep
00000ec6 00dd           4694 	sld.w	0[ep],r27
                        4695 --1605:             u16_temp = R_TAUJ_READ16(base_address + R_TAUJ0_TOE);
00000ec8 fbef6100       4696 	ld.hu	96[r27],r29
                        4697 --1607:             /* enable all channels */
                        4698 --1608:             if ( Channel == R_TAUJ_CHANNEL_ALL) 
00000ecc 64ca           4699 	cmp	4,r25
00000ece ba05*          4700 	bne	.L4695
                        4701 --1609:             {
                        4702 --1610:                 u16_temp = LOC_CHANNEL_ALL;
                        4703 --line1610
                        4704 ..lin.C.3A.5Cgit.5Crh850.5Csrc.5Capp.5Cgfx_apps.5Csimple_draw.5Ctarget.5Cd1mx_mango_ghs.5Cobj.5Cr_tauj_main.278::
                        4705 .LDWlin278:
00000ed0 0fea           4706 	mov	15,r29

                                                                      Page 80
                                                              C:\Users\Frank\AppData\Local\Temp\gh_0000oso1.si
00000ed2 b50d*          4707 	br	.L4697
                        4708 .L4695:
                        4709 --1611:             } 
                        4710 --1612:             else 
                        4711 --1613:             { /* just one channel */
                        4712 --1614:                 u16_channel = loc_GetChannelID(Channel);
                        4713 --line1614
                        4714 ..lin.C.3A.5Cgit.5Crh850.5Csrc.5Capp.5Cgfx_apps.5Csimple_draw.5Ctarget.5Cd1mx_mango_ghs.5Cobj.5Cr_tauj_main.279::
                        4715 .LDWlin279:
00000ed4 1930           4716 	mov	r25,r6
                        4717 	jarl	_loc_GetChannelID,lp
                        4717 <EXPANSION BEGIN>
                        4717 jarl22 _loc_GetChannelID , lp 
00000ed6 bfff56f1*      4717 <EXPANSION END>
00000eda 0ad0           4718 	mov	r10,r26
                        4719 --1615:                 R_TAUJ_SET_BIT(u16_temp, u16_channel);
                        4720 --line1615
                        4721 ..lin.C.3A.5Cgit.5Crh850.5Csrc.5Capp.5Cgfx_apps.5Csimple_draw.5Ctarget.5Cd1mx_mango_ghs.5Cobj.5Cr_tauj_main.280::
                        4722 .LDWlin280:
00000edc 010a           4723 	mov	1,r1
00000ede fa0fc208       4724 	shl	r26,r1,r1
00000ee2 c100           4725 	zxh	r1
00000ee4 01e9           4726 	or	r1,r29
00000ee6 dd00           4727 	zxh	r29
                        4728 .L4697:
                        4729 --1616:             }
                        4730 --1618:             /* update the TOE */
                        4731 --1619:             R_TAUJ_WRITE16(base_address + R_TAUJ0_TOE, u16_temp);
00000ee8 7bef6000       4732 	st.h	r29,96[r27]
                        4733 --1621:             /* verify the register write was succesfull */
                        4734 --1622:             if ( u16_temp != (R_TAUJ_READ16(base_address + R_TAUJ0_TOE))) 
00000eec fb0f6100       4735 	ld.hu	96[r27],r1
00000ef0 e1e9           4736 	cmp	r1,r29
00000ef2 a205*          4737 	be	.L4691
                        4738 --1623:             {
                        4739 --1624:                 error_mode = R_TAUJ_ERR_REG_UPDATE_FAIL;
                        4740 --line1624
                        4741 ..lin.C.3A.5Cgit.5Crh850.5Csrc.5Capp.5Cgfx_apps.5Csimple_draw.5Ctarget.5Cd1mx_mango_ghs.5Cobj.5Cr_tauj_main.281::
                        4742 .LDWlin281:
00000ef4 05e2           4743 	mov	5,r28
                        4744 .L4691:
                        4745 --1625:             }
                        4746 --1626:         }
                        4747 --1627:     }
                        4748 --1628:     return error_mode;
00000ef6 1c50           4749 	mov	r28,r10
                        4750 --	    .ef
                        4751 .LDW38:
00000ef8 4206ff70       4752 	dispose	1,{r25,r26,r27,r28,r29,r31},[lp]
                        4753 	.type	_R_TAUJ_OutputEnable,@function
                        4754 	.size	_R_TAUJ_OutputEnable,.-_R_TAUJ_OutputEnable
                        4755 	.align	2
                        4756 .LDW48:
                        4757 --_error_mode	r28	local
                        4758 --_u16_channel	r26	local
                        4759 --_base_address	r27	local
                        4760 --_u16_temp	r29	local
                        4761 
                        4762 --_Unit	0[sp]	param
                        4763 --_Channel	r25	param
                        4764 

                                                                      Page 81
                                                              C:\Users\Frank\AppData\Local\Temp\gh_0000oso1.si
                        4765 	.section ".bss","awb"
                        4766 .L4786:
                        4767 	.type	.L4786,@object
                        4768 	.size	.L4786,0
                        4769 	.data
                        4770 	.text
                        4771 
                        4772 --1629: }
                        4773 
                        4774 --1632: /***********************************************************
                        4775 --1633:   Function: R_TAUJ_OutputWrite
                        4776 --1634: */
                        4777 --1636: r_tauj_Error_t R_TAUJ_OutputWrite(uint32_t Unit, r_tauj_Channel_t Channel, uint8_t Value) {
                        4778 	.align	2
                        4779 	.align	2
                        4780 	.global	_R_TAUJ_OutputWrite
                        4781 _R_TAUJ_OutputWrite:
00000efc 8407e170       4782 	prepare	{r25,r26,r27,r28,r29,r31},2
00000f00 63370500       4783 	st.w	r6,4[sp]
00000f04 c85eff00       4784 	andi	255,r8,r11
00000f08 435f0300       4785 	st.b	r11,3[sp]
00000f0c 07c8           4786 	mov	r7,r25
                        4787 --	    .bf
                        4788 .LDW58:
                        4789 --1637:     r_tauj_Error_t error_mode = R_TAUJ_ERR_OK;
00000f0e 00e2           4790 	mov	0,r28
                        4791 --1638:     uint16_t u16_channel = 0;
00000f10 00da           4792 	mov	0,r27
                        4793 --1639:     uint32_t base_address = 0;
00000f12 00d2           4794 	mov	0,r26
                        4795 --1640:     uint16_t u16_temp = 0;
00000f14 00ea           4796 	mov	0,r29
                        4797 --1642:     /* check the instance is allowed */
                        4798 --1643:     if(Unit > (R_TAUJ_MACRO_NUM - 1)) 
00000f16 235f0500       4799 	ld.w	4[sp],r11
00000f1a e059           4800 	cmp	zero,r11
00000f1c b305*          4801 	bnh	.L4851
                        4802 --1644:     {
                        4803 --1645:         /* instance too high */
                        4804 --1646:         error_mode = R_TAUJ_ERR_INSTANCE;
                        4805 --line1646
                        4806 ..lin.C.3A.5Cgit.5Crh850.5Csrc.5Capp.5Cgfx_apps.5Csimple_draw.5Ctarget.5Cd1mx_mango_ghs.5Cobj.5Cr_tauj_main.282::
                        4807 .LDWlin282:
00000f1e 03e2           4808 	mov	3,r28
00000f20 e535*          4809 	br	.L4853
                        4810 .L4851:
                        4811 --1647:     } 
                        4812 --1648:     else 
                        4813 --1649:     {
                        4814 --1650:         /* ok, update the TAUJ0TO: TAU Channel Output register */
                        4815 --1652:         /* check the range for the channels */
                        4816 --1653:         if(Channel > R_TAUJ_CHANNEL_ALL) 
                        4817 --line1653
                        4818 ..lin.C.3A.5Cgit.5Crh850.5Csrc.5Capp.5Cgfx_apps.5Csimple_draw.5Ctarget.5Cd1mx_mango_ghs.5Cobj.5Cr_tauj_main.283::
                        4819 .LDWlin283:
00000f22 64ca           4820 	cmp	4,r25
00000f24 b305*          4821 	bnh	.L4854
                        4822 --1654:         {
                        4823 --1655:             error_mode = R_TAUJ_ERR_RANGE;
                        4824 --line1655
                        4825 ..lin.C.3A.5Cgit.5Crh850.5Csrc.5Capp.5Cgfx_apps.5Csimple_draw.5Ctarget.5Cd1mx_mango_ghs.5Cobj.5Cr_tauj_main.284::

                                                                      Page 82
                                                              C:\Users\Frank\AppData\Local\Temp\gh_0000oso1.si
                        4826 .LDWlin284:
00000f26 02e2           4827 	mov	2,r28
00000f28 a535*          4828 	br	.L4853
                        4829 .L4854:
                        4830 --1656:         } 
                        4831 --1657:         else 
                        4832 --1658:         {
                        4833 --1659:             base_address = R_TAUJ_Dev[Unit].BaseAddr;
                        4834 --line1659
                        4835 ..lin.C.3A.5Cgit.5Crh850.5Csrc.5Capp.5Cgfx_apps.5Csimple_draw.5Ctarget.5Cd1mx_mango_ghs.5Cobj.5Cr_tauj_main.285::
                        4836 .LDWlin285:
00000f2a 235f0500       4837 	ld.w	4[sp],r11
00000f2e 2e0600000000*  4838 	mov	_R_TAUJ_Dev,r14
00000f34 0bf0           4839 	mov	r11,ep
00000f36 fe00           4840 	sxh	ep
00000f38 fef61400       4841 	mulhi	20,ep,ep
00000f3c cef1           4842 	add	r14,ep
00000f3e 00d5           4843 	sld.w	0[ep],r26
                        4844 --1661:             /* enable all channels */
                        4845 --1662:             if (Channel == R_TAUJ_CHANNEL_ALL) 
00000f40 64ca           4846 	cmp	4,r25
00000f42 aa0d*          4847 	bne	.L4857
                        4848 --1663:             {
                        4849 --1664: 				if (Value == 1) 
                        4850 --line1664
                        4851 ..lin.C.3A.5Cgit.5Crh850.5Csrc.5Capp.5Cgfx_apps.5Csimple_draw.5Ctarget.5Cd1mx_mango_ghs.5Cobj.5Cr_tauj_main.286::
                        4852 .LDWlin286:
00000f44 a35f0300       4853 	ld.bu	3[sp],r11
00000f48 615a           4854 	cmp	1,r11
00000f4a ca05*          4855 	bne	.L4859
                        4856 --1665:                 {
                        4857 --1666: 	                u16_temp = 0xFFFF;
                        4858 --line1666
                        4859 ..lin.C.3A.5Cgit.5Crh850.5Csrc.5Capp.5Cgfx_apps.5Csimple_draw.5Ctarget.5Cd1mx_mango_ghs.5Cobj.5Cr_tauj_main.287::
                        4860 .LDWlin287:
00000f4c 80eeffff       4861 	ori	65535,zero,r29
00000f50 c51d*          4862 	br	.L4862
                        4863 .L4859:
                        4864 --1667: 				} 
                        4865 --1668:                 else 
                        4866 --1669:                 {
                        4867 --1670: 	                u16_temp = 0x0000;
                        4868 --line1670
                        4869 ..lin.C.3A.5Cgit.5Crh850.5Csrc.5Capp.5Cgfx_apps.5Csimple_draw.5Ctarget.5Cd1mx_mango_ghs.5Cobj.5Cr_tauj_main.288::
                        4870 .LDWlin288:
00000f52 00ea           4871 	mov	0,r29
00000f54 a51d*          4872 	br	.L4862
                        4873 .L4857:
                        4874 --1671: 				}
                        4875 --1672:             } 
                        4876 --1673:             else 
                        4877 --1674:             { /* just one channel */
                        4878 --1675:                 u16_channel = loc_GetChannelID(Channel);
                        4879 --line1675
                        4880 ..lin.C.3A.5Cgit.5Crh850.5Csrc.5Capp.5Cgfx_apps.5Csimple_draw.5Ctarget.5Cd1mx_mango_ghs.5Cobj.5Cr_tauj_main.289::
                        4881 .LDWlin289:
00000f56 1930           4882 	mov	r25,r6
                        4883 	jarl	_loc_GetChannelID,lp
                        4883 <EXPANSION BEGIN>
                        4883 jarl22 _loc_GetChannelID , lp 
00000f58 bfffd4f0*      4883 <EXPANSION END>

                                                                      Page 83
                                                              C:\Users\Frank\AppData\Local\Temp\gh_0000oso1.si
00000f5c 0ad8           4884 	mov	r10,r27
                        4885 --1676: 	            u16_temp = R_TAUJ_READ16(base_address + R_TAUJ0_TO);
                        4886 --line1676
                        4887 ..lin.C.3A.5Cgit.5Crh850.5Csrc.5Capp.5Cgfx_apps.5Csimple_draw.5Ctarget.5Cd1mx_mango_ghs.5Cobj.5Cr_tauj_main.290::
                        4888 .LDWlin290:
00000f5e faef5d00       4889 	ld.hu	92[r26],r29
                        4890 --1677: 				if (Value == 1) 
00000f62 a35f0300       4891 	ld.bu	3[sp],r11
00000f66 615a           4892 	cmp	1,r11
00000f68 8a0d*          4893 	bne	.L4863
                        4894 --1678:                 {
                        4895 --1679: 	                R_TAUJ_SET_BIT(u16_temp, u16_channel);
                        4896 --line1679
                        4897 ..lin.C.3A.5Cgit.5Crh850.5Csrc.5Capp.5Cgfx_apps.5Csimple_draw.5Ctarget.5Cd1mx_mango_ghs.5Cobj.5Cr_tauj_main.291::
                        4898 .LDWlin291:
00000f6a 010a           4899 	mov	1,r1
00000f6c fb0fc208       4900 	shl	r27,r1,r1
00000f70 c100           4901 	zxh	r1
00000f72 01e9           4902 	or	r1,r29
00000f74 dd00           4903 	zxh	r29
00000f76 950d*          4904 	br	.L4862
                        4905 .L4863:
                        4906 --1680: 				} 
                        4907 --1681:                 else 
                        4908 --1682:                 {
                        4909 --1683: 	                R_TAUJ_CLR_BIT(u16_temp, u16_channel);
                        4910 --line1683
                        4911 ..lin.C.3A.5Cgit.5Crh850.5Csrc.5Capp.5Cgfx_apps.5Csimple_draw.5Ctarget.5Cd1mx_mango_ghs.5Cobj.5Cr_tauj_main.292::
                        4912 .LDWlin292:
00000f78 010a           4913 	mov	1,r1
00000f7a fb0fc208       4914 	shl	r27,r1,r1
00000f7e c100           4915 	zxh	r1
00000f80 2108           4916 	not	r1,r1
00000f82 c100           4917 	zxh	r1
00000f84 41e9           4918 	and	r1,r29
00000f86 dd00           4919 	zxh	r29
                        4920 .L4862:
                        4921 --1684: 				}
                        4922 --1685:             }
                        4923 --1686:             /* update the TOE */
                        4924 --1687:             R_TAUJ_WRITE16(base_address + R_TAUJ0_TO, u16_temp);
00000f88 7aef5c00       4925 	st.h	r29,92[r26]
                        4926 .L4853:
                        4927 --1688:         }
                        4928 --1689:     }
                        4929 --1690:     return error_mode;
00000f8c 1c50           4930 	mov	r28,r10
                        4931 --	    .ef
                        4932 .LDW68:
00000f8e 4406ff70       4933 	dispose	2,{r25,r26,r27,r28,r29,r31},[lp]
                        4934 	.type	_R_TAUJ_OutputWrite,@function
                        4935 	.size	_R_TAUJ_OutputWrite,.-_R_TAUJ_OutputWrite
                        4936 	.align	2
                        4937 .LDW78:
                        4938 --_error_mode	r28	local
                        4939 --_u16_channel	r27	local
                        4940 --_base_address	r26	local
                        4941 --_u16_temp	r29	local
                        4942 
                        4943 --_Unit	4[sp]	param
                        4944 --_Channel	r25	param

                                                                      Page 84
                                                              C:\Users\Frank\AppData\Local\Temp\gh_0000oso1.si
                        4945 --_Value	3[sp]	param
                        4946 
                        4947 	.section ".bss","awb"
                        4948 .L4970:
                        4949 	.type	.L4970,@object
                        4950 	.size	.L4970,0
                        4951 	.data
                        4952 	.text
                        4953 
                        4954 --1691: }
                        4955 
                        4956 --1694: /***********************************************************
                        4957 --1695:   Function: R_TAUJ_OutputDisable
                        4958 --1696: */
                        4959 --1698: r_tauj_Error_t R_TAUJ_OutputDisable(uint32_t Unit, r_tauj_Channel_t Channel) 
                        4960 	.align	2
                        4961 	.align	2
                        4962 	.global	_R_TAUJ_OutputDisable
                        4963 _R_TAUJ_OutputDisable:
00000f92 8207e170       4964 	prepare	{r25,r26,r27,r28,r29,r31},1
00000f96 63370100       4965 	st.w	r6,0[sp]
00000f9a 07c8           4966 	mov	r7,r25
                        4967 --	    .bf
                        4968 .LDW88:
                        4969 --1699: {
                        4970 --1700:     r_tauj_Error_t error_mode = R_TAUJ_ERR_OK;
00000f9c 00e2           4971 	mov	0,r28
                        4972 --1701:     uint16_t u16_channel = 0;
00000f9e 00d2           4973 	mov	0,r26
                        4974 --1702:     uint32_t base_address = 0;
00000fa0 00da           4975 	mov	0,r27
                        4976 --1703:     uint16_t u16_temp = 0;
00000fa2 00ea           4977 	mov	0,r29
                        4978 --1705:     /* check the instance is allowed */
                        4979 --1706:     if ( Unit > (R_TAUJ_MACRO_NUM - 1)) 
00000fa4 235f0100       4980 	ld.w	0[sp],r11
00000fa8 e059           4981 	cmp	zero,r11
00000faa b305*          4982 	bnh	.L5041
                        4983 --1707:     {
                        4984 --1708:         /* instance too high */
                        4985 --1709:         error_mode = R_TAUJ_ERR_INSTANCE;
                        4986 --line1709
                        4987 ..lin.C.3A.5Cgit.5Crh850.5Csrc.5Capp.5Cgfx_apps.5Csimple_draw.5Ctarget.5Cd1mx_mango_ghs.5Cobj.5Cr_tauj_main.293::
                        4988 .LDWlin293:
00000fac 03e2           4989 	mov	3,r28
00000fae c525*          4990 	br	.L5043
                        4991 .L5041:
                        4992 --1710:     } 
                        4993 --1711:     else 
                        4994 --1712:     {
                        4995 --1713:         /* ok, update the TAUJ0TOE: TAU Channel Output Enable register */
                        4996 --1715:         /* check the range for the channels */
                        4997 --1716:         if ( Channel > R_TAUJ_CHANNEL_ALL) 
                        4998 --line1716
                        4999 ..lin.C.3A.5Cgit.5Crh850.5Csrc.5Capp.5Cgfx_apps.5Csimple_draw.5Ctarget.5Cd1mx_mango_ghs.5Cobj.5Cr_tauj_main.294::
                        5000 .LDWlin294:
00000fb0 64ca           5001 	cmp	4,r25
00000fb2 b305*          5002 	bnh	.L5044
                        5003 --1717:         {
                        5004 --1718:             error_mode = R_TAUJ_ERR_RANGE;
                        5005 --line1718

                                                                      Page 85
                                                              C:\Users\Frank\AppData\Local\Temp\gh_0000oso1.si
                        5006 ..lin.C.3A.5Cgit.5Crh850.5Csrc.5Capp.5Cgfx_apps.5Csimple_draw.5Ctarget.5Cd1mx_mango_ghs.5Cobj.5Cr_tauj_main.295::
                        5007 .LDWlin295:
00000fb4 02e2           5008 	mov	2,r28
00000fb6 8525*          5009 	br	.L5043
                        5010 .L5044:
                        5011 --1719:         } 
                        5012 --1720:         else 
                        5013 --1721:         {
                        5014 --1722:             base_address = R_TAUJ_Dev[Unit].BaseAddr;
                        5015 --line1722
                        5016 ..lin.C.3A.5Cgit.5Crh850.5Csrc.5Capp.5Cgfx_apps.5Csimple_draw.5Ctarget.5Cd1mx_mango_ghs.5Cobj.5Cr_tauj_main.296::
                        5017 .LDWlin296:
00000fb8 235f0100       5018 	ld.w	0[sp],r11
00000fbc 2e0600000000*  5019 	mov	_R_TAUJ_Dev,r14
00000fc2 0bf0           5020 	mov	r11,ep
00000fc4 fe00           5021 	sxh	ep
00000fc6 fef61400       5022 	mulhi	20,ep,ep
00000fca cef1           5023 	add	r14,ep
00000fcc 00dd           5024 	sld.w	0[ep],r27
                        5025 --1723:             u16_temp = R_TAUJ_READ16(base_address + R_TAUJ0_TOE);
00000fce fbef6100       5026 	ld.hu	96[r27],r29
                        5027 --1725:             /* enable all channels */
                        5028 --1726:             if ( Channel == R_TAUJ_CHANNEL_ALL) 
00000fd2 64ca           5029 	cmp	4,r25
00000fd4 ba05*          5030 	bne	.L5047
                        5031 --1727:             {
                        5032 --1728:                 u16_temp = 0;
                        5033 --line1728
                        5034 ..lin.C.3A.5Cgit.5Crh850.5Csrc.5Capp.5Cgfx_apps.5Csimple_draw.5Ctarget.5Cd1mx_mango_ghs.5Cobj.5Cr_tauj_main.297::
                        5035 .LDWlin297:
00000fd6 00ea           5036 	mov	0,r29
00000fd8 d50d*          5037 	br	.L5049
                        5038 .L5047:
                        5039 --1729:             } 
                        5040 --1730:             else 
                        5041 --1731:             { /* just one channel */
                        5042 --1732:                 u16_channel = loc_GetChannelID(Channel);
                        5043 --line1732
                        5044 ..lin.C.3A.5Cgit.5Crh850.5Csrc.5Capp.5Cgfx_apps.5Csimple_draw.5Ctarget.5Cd1mx_mango_ghs.5Cobj.5Cr_tauj_main.298::
                        5045 .LDWlin298:
00000fda 1930           5046 	mov	r25,r6
                        5047 	jarl	_loc_GetChannelID,lp
                        5047 <EXPANSION BEGIN>
                        5047 jarl22 _loc_GetChannelID , lp 
00000fdc bfff50f0*      5047 <EXPANSION END>
00000fe0 0ad0           5048 	mov	r10,r26
                        5049 --1733:                 R_TAUJ_CLR_BIT(u16_temp, u16_channel);
                        5050 --line1733
                        5051 ..lin.C.3A.5Cgit.5Crh850.5Csrc.5Capp.5Cgfx_apps.5Csimple_draw.5Ctarget.5Cd1mx_mango_ghs.5Cobj.5Cr_tauj_main.299::
                        5052 .LDWlin299:
00000fe2 010a           5053 	mov	1,r1
00000fe4 fa0fc208       5054 	shl	r26,r1,r1
00000fe8 c100           5055 	zxh	r1
00000fea 2108           5056 	not	r1,r1
00000fec c100           5057 	zxh	r1
00000fee 41e9           5058 	and	r1,r29
00000ff0 dd00           5059 	zxh	r29
                        5060 .L5049:
                        5061 --1734:             }
                        5062 --1736:             /* update the TOE */
                        5063 --1737:             R_TAUJ_WRITE16(base_address + R_TAUJ0_TOE, u16_temp);

                                                                      Page 86
                                                              C:\Users\Frank\AppData\Local\Temp\gh_0000oso1.si
00000ff2 7bef6000       5064 	st.h	r29,96[r27]
                        5065 .L5043:
                        5066 --1738:         }
                        5067 --1739:     }
                        5068 --1741:     return error_mode;
00000ff6 1c50           5069 	mov	r28,r10
                        5070 --	    .ef
                        5071 .LDW98:
00000ff8 4206ff70       5072 	dispose	1,{r25,r26,r27,r28,r29,r31},[lp]
                        5073 	.type	_R_TAUJ_OutputDisable,@function
                        5074 	.size	_R_TAUJ_OutputDisable,.-_R_TAUJ_OutputDisable
                        5075 	.align	2
                        5076 .LDW09:
                        5077 --_error_mode	r28	local
                        5078 --_u16_channel	r26	local
                        5079 --_base_address	r27	local
                        5080 --_u16_temp	r29	local
                        5081 
                        5082 --_Unit	0[sp]	param
                        5083 --_Channel	r25	param
                        5084 
                        5085 	.section ".bss","awb"
                        5086 .L5130:
                        5087 	.type	.L5130,@object
                        5088 	.size	.L5130,0
                        5089 	.data
                        5090 	.text
                        5091 
                        5092 --1742: }
                        5093 
                        5094 --1745: /***********************************************************
                        5095 --1746:   Function: R_TAUJ_GetCaptureData
                        5096 --1747: */
                        5097 --1749: uint32_t R_TAUJ_GetCaptureData(uint32_t Unit, r_tauj_Channel_t Channel) 
                        5098 	.align	2
                        5099 	.align	2
                        5100 	.global	_R_TAUJ_GetCaptureData
                        5101 _R_TAUJ_GetCaptureData:
00000ffc 8007e170       5102 	prepare	{r25,r26,r27,r28,r29,r31},0
00001000 06d0           5103 	mov	r6,r26
00001002 07c8           5104 	mov	r7,r25
                        5105 --	    .bf
                        5106 .LDW19:
                        5107 --1750: {
                        5108 --1751:     uint32_t u32_temp = 0;
00001004 00ea           5109 	mov	0,r29
                        5110 --1752:     uint32_t base_address = 0;
00001006 00e2           5111 	mov	0,r28
                        5112 --1753:     uint32_t offset_address = 0;
00001008 00da           5113 	mov	0,r27
                        5114 --1755:     base_address = R_TAUJ_Dev[Unit].BaseAddr;
0000100a 1af0           5115 	mov	r26,ep
0000100c fe00           5116 	sxh	ep
0000100e fef61400       5117 	mulhi	20,ep,ep
00001012 2e0600000000*  5118 	mov	_R_TAUJ_Dev,r14
00001018 cef1           5119 	add	r14,ep
0000101a 00e5           5120 	sld.w	0[ep],r28
                        5121 --1757:     /* read the CDR Channel Counter Register */
                        5122 --1758:     offset_address = R_TAUJ0_CDR0 + loc_GetChannelAddress(Channel);
0000101c 1930           5123 	mov	r25,r6
                        5124 	jarl	_loc_GetChannelAddress,lp

                                                                      Page 87
                                                              C:\Users\Frank\AppData\Local\Temp\gh_0000oso1.si
                        5124 <EXPANSION BEGIN>
                        5124 jarl22 _loc_GetChannelAddress , lp 
0000101e bfff3af0*      5124 <EXPANSION END>
00001022 0ad8           5125 	mov	r10,r27
                        5126 --1759:     u32_temp = R_TAUJ_READ32(base_address + offset_address);
                        5127 --line1759
                        5128 ..lin.C.3A.5Cgit.5Crh850.5Csrc.5Capp.5Cgfx_apps.5Csimple_draw.5Ctarget.5Cd1mx_mango_ghs.5Cobj.5Cr_tauj_main.300::
                        5129 .LDWlin300:
00001024 1bf0           5130 	mov	r27,ep
00001026 dcf1           5131 	add	r28,ep
00001028 00ed           5132 	sld.w	0[ep],r29
                        5133 --1761:     return u32_temp;
0000102a 1d50           5134 	mov	r29,r10
                        5135 --	    .ef
                        5136 .LDW29:
0000102c 4006ff70       5137 	dispose	0,{r25,r26,r27,r28,r29,r31},[lp]
                        5138 	.type	_R_TAUJ_GetCaptureData,@function
                        5139 	.size	_R_TAUJ_GetCaptureData,.-_R_TAUJ_GetCaptureData
                        5140 	.align	2
                        5141 .LDW39:
                        5142 --_u32_temp	r29	local
                        5143 --_base_address	r28	local
                        5144 --_offset_address	r27	local
                        5145 
                        5146 --_Unit	r26	param
                        5147 --_Channel	r25	param
                        5148 
                        5149 	.section ".bss","awb"
                        5150 .L5238:
                        5151 	.type	.L5238,@object
                        5152 	.size	.L5238,0
                        5153 	.data
                        5154 	.text
                        5155 
                        5156 --1762: }
                        5157 
                        5158 --1765: /***********************************************************
                        5159 --1766:   Function: R_TAUJ_GetCntData
                        5160 --1767: */
                        5161 --1769: uint32_t R_TAUJ_GetCntData(uint32_t Unit, r_tauj_Channel_t Channel) 
                        5162 	.align	2
                        5163 	.align	2
                        5164 	.global	_R_TAUJ_GetCntData
                        5165 _R_TAUJ_GetCntData:
00001030 8007e170       5166 	prepare	{r25,r26,r27,r28,r29,r31},0
00001034 06d0           5167 	mov	r6,r26
00001036 07c8           5168 	mov	r7,r25
                        5169 --	    .bf
                        5170 .LDW49:
                        5171 --1770: {
                        5172 --1771:     uint32_t u32_temp = 0;
00001038 00ea           5173 	mov	0,r29
                        5174 --1772:     uint32_t base_address = 0;
0000103a 00e2           5175 	mov	0,r28
                        5176 --1773:     uint32_t offset_address = 0;
0000103c 00da           5177 	mov	0,r27
                        5178 --1775:     base_address = R_TAUJ_Dev[Unit].BaseAddr;
0000103e 1af0           5179 	mov	r26,ep
00001040 fe00           5180 	sxh	ep
00001042 fef61400       5181 	mulhi	20,ep,ep
00001046 2e0600000000*  5182 	mov	_R_TAUJ_Dev,r14

                                                                      Page 88
                                                              C:\Users\Frank\AppData\Local\Temp\gh_0000oso1.si
0000104c cef1           5183 	add	r14,ep
0000104e 00e5           5184 	sld.w	0[ep],r28
                        5185 --1777:     /* update the CNT Channel Counter Register */
                        5186 --1778:     offset_address = R_TAUJ0_CNT0 + loc_GetChannelAddress(Channel);
00001050 1930           5187 	mov	r25,r6
                        5188 	jarl	_loc_GetChannelAddress,lp
                        5188 <EXPANSION BEGIN>
                        5188 jarl22 _loc_GetChannelAddress , lp 
00001052 bfff06f0*      5188 <EXPANSION END>
00001056 0ade1000       5189 	addi	16,r10,r27
                        5190 --1779:     u32_temp = R_TAUJ_READ32(base_address + offset_address);
                        5191 --line1779
                        5192 ..lin.C.3A.5Cgit.5Crh850.5Csrc.5Capp.5Cgfx_apps.5Csimple_draw.5Ctarget.5Cd1mx_mango_ghs.5Cobj.5Cr_tauj_main.301::
                        5193 .LDWlin301:
0000105a 1bf0           5194 	mov	r27,ep
0000105c dcf1           5195 	add	r28,ep
0000105e 00ed           5196 	sld.w	0[ep],r29
                        5197 --1781:     return u32_temp;
00001060 1d50           5198 	mov	r29,r10
                        5199 --	    .ef
                        5200 .LDW59:
00001062 4006ff70       5201 	dispose	0,{r25,r26,r27,r28,r29,r31},[lp]
                        5202 	.type	_R_TAUJ_GetCntData,@function
                        5203 	.size	_R_TAUJ_GetCntData,.-_R_TAUJ_GetCntData
                        5204 	.align	2
                        5205 .LDW69:
                        5206 --_u32_temp	r29	local
                        5207 --_base_address	r28	local
                        5208 --_offset_address	r27	local
                        5209 
                        5210 --_Unit	r26	param
                        5211 --_Channel	r25	param
                        5212 
                        5213 	.section ".bss","awb"
                        5214 .L5318:
                        5215 	.type	.L5318,@object
                        5216 	.size	.L5318,0
                        5217 	.data
                        5218 	.text
                        5219 
                        5220 --1782: }
                        5221 
                        5222 --1785: /***********************************************************
                        5223 --1786:   Function: R_TAUJ_ReadReg
                        5224 --1787: */
                        5225 --1789: uint16_t R_TAUJ_ReadReg(uint32_t Unit, uint32_t Offset) 
                        5226 	.align	2
                        5227 	.align	2
                        5228 	.global	_R_TAUJ_ReadReg
                        5229 _R_TAUJ_ReadReg:
00001066 0660           5230 	mov	r6,r12
00001068 0758           5231 	mov	r7,r11
                        5232 --	    .bf
                        5233 .LDW79:
                        5234 --1790: {
                        5235 --1791:     uint16_t u16_temp = 0;
0000106a 000a           5236 	mov	0,r1
                        5237 --1792:     uint32_t base_address = 0;
0000106c 0072           5238 	mov	0,r14
                        5239 --1793:     uint32_t offset_address = 0;
0000106e 006a           5240 	mov	0,r13

                                                                      Page 89
                                                              C:\Users\Frank\AppData\Local\Temp\gh_0000oso1.si
                        5241 --1795:     base_address = R_TAUJ_Dev[Unit].BaseAddr;
00001070 0cf0           5242 	mov	r12,ep
00001072 fe00           5243 	sxh	ep
00001074 fef61400       5244 	mulhi	20,ep,ep
00001078 290600000000*  5245 	mov	_R_TAUJ_Dev,r9
0000107e c9f1           5246 	add	r9,ep
00001080 0075           5247 	sld.w	0[ep],r14
                        5248 --1797:     offset_address = Offset;
00001082 0b68           5249 	mov	r11,r13
                        5250 --1798:     u16_temp = R_TAUJ_READ16(base_address + offset_address);
00001084 0df0           5251 	mov	r13,ep
00001086 cef1           5252 	add	r14,ep
00001088 7008           5253 	sld.hu	0[ep],r1
                        5254 --1800:     return u16_temp;
0000108a 0150           5255 	mov	r1,r10
                        5256 --	    .ef
                        5257 .LDW89:
0000108c 7f00           5258 	jmp	[lp]
                        5259 	.type	_R_TAUJ_ReadReg,@function
                        5260 	.size	_R_TAUJ_ReadReg,.-_R_TAUJ_ReadReg
                        5261 	.align	2
                        5262 .LDW99:
                        5263 --_u16_temp	r1	local
                        5264 --_base_address	r14	local
                        5265 --_offset_address	r13	local
                        5266 
                        5267 --_Unit	r12	param
                        5268 --_Offset	r11	param
                        5269 
                        5270 	.section ".bss","awb"
                        5271 .L5398:
                        5272 	.type	.L5398,@object
                        5273 	.size	.L5398,0
                        5274 	.data
                        5275 	.text
                        5276 
                        5277 --1801: }
                        5278 
                        5279 --1804: /***********************************************************
                        5280 --1805:   Function: R_TAUJ_WriteReg
                        5281 --1806: */
                        5282 --1808: void R_TAUJ_WriteReg(uint32_t Unit, uint32_t Offset, uint16_t Data) 
                        5283 	.align	2
                        5284 	.align	2
                        5285 	.global	_R_TAUJ_WriteReg
                        5286 _R_TAUJ_WriteReg:
0000108e 0668           5287 	mov	r6,r13
00001090 0760           5288 	mov	r7,r12
00001092 c85effff       5289 	andi	65535,r8,r11
                        5290 --	    .bf
                        5291 .LDW001:
                        5292 --1809: {
                        5293 --1810:     uint32_t base_address = 0;
00001096 000a           5294 	mov	0,r1
                        5295 --1811:     uint32_t offset_address = 0;
00001098 0072           5296 	mov	0,r14
                        5297 --1813:     base_address = R_TAUJ_Dev[Unit].BaseAddr;
0000109a 0df0           5298 	mov	r13,ep
0000109c fe00           5299 	sxh	ep
0000109e fef61400       5300 	mulhi	20,ep,ep
000010a2 290600000000*  5301 	mov	_R_TAUJ_Dev,r9

                                                                      Page 90
                                                              C:\Users\Frank\AppData\Local\Temp\gh_0000oso1.si
000010a8 c9f1           5302 	add	r9,ep
000010aa 000d           5303 	sld.w	0[ep],r1
                        5304 --1815:     offset_address = Offset;
000010ac 0c70           5305 	mov	r12,r14
                        5306 --1816:     R_TAUJ_WRITE16(base_address + offset_address, Data);
000010ae 0ef0           5307 	mov	r14,ep
000010b0 c1f1           5308 	add	r1,ep
000010b2 805c           5309 	sst.h	r11,0[ep]
                        5310 --1817: }
                        5311 --	    .ef
                        5312 .LDW101:
000010b4 7f00           5313 	jmp	[lp]
                        5314 	.type	_R_TAUJ_WriteReg,@function
                        5315 	.size	_R_TAUJ_WriteReg,.-_R_TAUJ_WriteReg
                        5316 	.align	2
                        5317 .LDW201:
                        5318 --_base_address	r1	local
                        5319 --_offset_address	r14	local
                        5320 
                        5321 --_Unit	r13	param
                        5322 --_Offset	r12	param
                        5323 --_Data	r11	param
                        5324 
                        5325 	.section ".bss","awb"
                        5326 .L5474:
                        5327 	.type	.L5474,@object
                        5328 	.size	.L5474,0
                        5329 	.data
                        5330 	.text
                        5331 
                        5332 
                        5333 --1820: /***********************************************************
                        5334 --1821:   Function: R_TAUJ_SetErrorCallback
                        5335 --1823: */
                        5336 --1825: void R_TAUJ_SetErrorCallback(void ( *ErrorCallback )(uint32_t Unit, uint32_t Error)) 
                        5337 	.align	2
                        5338 	.align	2
                        5339 	.global	_R_TAUJ_SetErrorCallback
                        5340 _R_TAUJ_SetErrorCallback:
000010b6 0670           5341 	mov	r6,r14
000010b8 210600000000*  5342 	mov	__UserErrorHandler,r1
                        5343 --	    .bf
                        5344 .LDW301:
                        5345 --1826: {
                        5346 --1827:     _UserErrorHandler = ErrorCallback;
000010be 2b0600000000*  5347 	mov	__UserErrorHandler,r11
000010c4 6b770100       5348 	st.w	r14,0[r11]
                        5349 --1828: }
                        5350 --	    .ef
                        5351 .LDW401:
000010c8 7f00           5352 	jmp	[lp]
                        5353 	.type	_R_TAUJ_SetErrorCallback,@function
                        5354 	.size	_R_TAUJ_SetErrorCallback,.-_R_TAUJ_SetErrorCallback
                        5355 	.align	2
                        5356 .LDW501:
                        5357 
                        5358 --_ErrorCallback	r14	param
                        5359 
                        5360 	.data
                        5361 	.text
                        5362 

                                                                      Page 91
                                                              C:\Users\Frank\AppData\Local\Temp\gh_0000oso1.si
                        5363 
                        5364 --1831: /***********************************************************
                        5365 --1832:   Function: R_TAUJ_GetClock
                        5366 --1833: */
                        5367 --1835: uint32_t R_TAUJ_GetClock(uint32_t Unit) 
                        5368 	.align	2
                        5369 	.align	2
                        5370 	.global	_R_TAUJ_GetClock
                        5371 _R_TAUJ_GetClock:
000010ca 80076100       5372 	prepare	{r29,r31},0
000010ce 06e8           5373 	mov	r6,r29
                        5374 --	    .bf
                        5375 .LDW601:
                        5376 --1836: {
                        5377 --1837:     return R_TAUJ_Sys_GetClock(Unit);
000010d0 1d30           5378 	mov	r29,r6
                        5379 	jarl	_R_TAUJ_Sys_GetClock,lp
                        5379 <EXPANSION BEGIN>
                        5379 jarl22 _R_TAUJ_Sys_GetClock , lp 
000010d2 80ff0000*      5379 <EXPANSION END>
                        5380 --	    .ef
                        5381 .LDW701:
                        5382 --line1838
                        5383 ..lin.C.3A.5Cgit.5Crh850.5Csrc.5Capp.5Cgfx_apps.5Csimple_draw.5Ctarget.5Cd1mx_mango_ghs.5Cobj.5Cr_tauj_main.302::
                        5384 .LDWlin302:
000010d6 40067f00       5385 	dispose	0,{r29,r31},[lp]
                        5386 	.type	_R_TAUJ_GetClock,@function
                        5387 	.size	_R_TAUJ_GetClock,.-_R_TAUJ_GetClock
                        5388 	.align	2
                        5389 .LDW801:
                        5390 
                        5391 --_Unit	r29	param
                        5392 
                        5393 	.section ".bss","awb"
                        5394 .L5566:
                        5395 	.type	.L5566,@object
                        5396 	.size	.L5566,0
                        5397 	.data
                        5398 	.text
                        5399 
                        5400 --1838: }
                        5401 
                        5402 --1841: /***********************************************************
                        5403 --1842:   Function: R_TAUJ_SetFilterBypass
                        5404 --1843: */
                        5405 --1845: uint32_t R_TAUJ_SetFilterBypass(uint32_t Unit) 
                        5406 	.align	2
                        5407 	.align	2
                        5408 	.global	_R_TAUJ_SetFilterBypass
                        5409 _R_TAUJ_SetFilterBypass:
000010da 80076100       5410 	prepare	{r29,r31},0
000010de 06e8           5411 	mov	r6,r29
                        5412 --	    .bf
                        5413 .LDW901:
                        5414 --1846: {
                        5415 --1847:     return R_TAUJ_Sys_SetFilterBypass(Unit);
000010e0 1d30           5416 	mov	r29,r6
                        5417 	jarl	_R_TAUJ_Sys_SetFilterBypass,lp
                        5417 <EXPANSION BEGIN>
                        5417 jarl22 _R_TAUJ_Sys_SetFilterBypass , lp 
000010e2 80ff0000*      5417 <EXPANSION END>

                                                                      Page 92
                                                              C:\Users\Frank\AppData\Local\Temp\gh_0000oso1.si
                        5418 --	    .ef
                        5419 .LDW011:
                        5420 --line1848
                        5421 ..lin.C.3A.5Cgit.5Crh850.5Csrc.5Capp.5Cgfx_apps.5Csimple_draw.5Ctarget.5Cd1mx_mango_ghs.5Cobj.5Cr_tauj_main.303::
                        5422 .LDWlin303:
000010e6 40067f00       5423 	dispose	0,{r29,r31},[lp]
                        5424 	.type	_R_TAUJ_SetFilterBypass,@function
                        5425 	.size	_R_TAUJ_SetFilterBypass,.-_R_TAUJ_SetFilterBypass
                        5426 	.align	2
                        5427 .LDW111:
                        5428 
                        5429 --_Unit	r29	param
                        5430 
                        5431 	.section ".bss","awb"
                        5432 .L5598:
                        5433 	.type	.L5598,@object
                        5434 	.size	.L5598,0
                        5435 	.data
                        5436 	.text
                        5437 
                        5438 --1848: }
                        5439 	.align	2
                        5440 --__UserErrorHandler	__UserErrorHandler	static
                        5441 
                        5442 	.data
                        5443 	.section ".bss","awb"
                        5444 	.align	4
                        5445 	.align	4
                        5446 	.global	_R_TAUJ_Dev
00000000 000000000000   5447 _R_TAUJ_Dev:	.space	20
00000006 000000000000 
0000000c 000000000000 
00000012 0000 
                        5448 	.type	_R_TAUJ_Dev,@object
                        5449 	.size	_R_TAUJ_Dev,20
                        5450 	.data
                        5451 	.ghsnote version,15
                        5452 	.ghsnote tools,3
                        5453 	.ghsnote options,144
                        5454 	.text
                        5455 	.align	2
                        5456 ..eof.C.3A.5Cgit.5Crh850.5Csrc.5Capp.5Cgfx_apps.5Csimple_draw.5Ctarget.5Cd1mx_mango_ghs.5Cobj.5Cr_tauj_main...43.3A.5Cgit.5Crh850.5Csrc.5Capp.5Cgfx_apps.5Csimple_draw.5Ctarget.5Cd1mx_mango_ghs..5BC5D027..0::
                        5457 .rh850_flags REGMODE22,DATA_ALIGN8,GP_FIX,EP_NONFIX,TP_FIX,REG2_RESERVE,G3M
