                                                                      Page 1
                                                              C:\Users\Frank\AppData\Local\Temp\gh_0000pbg1.si
Command Line: C:\GHS\V800.V2014.1.7\comp_201417\ease850.exe -w -elf -b0 -I../../../../../app/common/dhd -I../../../../../app/gfx_apps/simple_draw/src -I../../../../../app/gfx_apps/simple_draw/lib -I../../../../../bsp/board//config -I../../../../../bsp/board//src/gfx -I../../../../../bsp/board//src/hmi -I../../../../../bsp/board//src/stdio -I../../../../../bsp/board/d1mx_mango/config -I../../../../../bsp/board/d1mx_mango/src -I../../../../../bsp/board/d1mx_mango/src/gfx -I../../../../../bsp/board/d1mx_mango/src/hmi -I../../../../../bsp/board/d1mx_mango/src/stdio -I../../../../../bsp/gfx/lib -I../../../../../bsp/gfx/src -I../../../../../bsp/hmi/lib -I../../../../../bsp/hmi/src -I../../../../../bsp/lib -I../../../../../bsp/stdio/lib -I../../../../../bsp/stdio/src -I../../../../../cdi/lib -I../../../../../cdi/src -I../../../../../compiler/rh850_ghs/inc -I../../../../../device/d1mx/lib -I../../../../../device/d1mx/macro_cfg -I../../../../../device/d1mx/macro_cfg/csisw -I../../../../../device/d1mx/macro_cfg/davehd -I../../../../../device/d1mx/macro_cfg/ddb -I../../../../../device/d1mx/macro_cfg/drw2d -I../../../../../device/d1mx/macro_cfg/gfxbus -I../../../../../device/d1mx/macro_cfg/gpio -I../../../../../device/d1mx/macro_cfg/hypb -I../../../../../device/d1mx/macro_cfg/hypdb -I../../../../../device/d1mx/macro_cfg/jcua -I../../../../../device/d1mx/macro_cfg/nfmabare -I../../../../../device/d1mx/macro_cfg/octa -I../../../../../device/d1mx/macro_cfg/octacdb -I../../../../../device/d1mx/macro_cfg/ostm -I../../../../../device/d1mx/macro_cfg/pbg -I../../../../../device/d1mx/macro_cfg/riic -I../../../../../device/d1mx/macro_cfg/sfcdb -I../../../../../device/d1mx/macro_cfg/sfma -I../../../../../device/d1mx/macro_cfg/spea -I../../../../../device/d1mx/macro_cfg/tauj -I../../../../../device/d1mx/macro_cfg/tick -I../../../../../device/d1mx/macro_cfg/vdce -I../../../../../device/d1mx/macro_cfg/vowe -I../../../../../device/d1mx/macro_cfg/wm -I../../../../../device/d1mx/macro_cfg/xbus -I../../../../../device/d1mx/src/dev -I../../../../../device/d1mx/src/dhd -I../../../../../device/d1mx/src/hypb -I../../../../../device/d1mx/src/jcua -I../../../../../device/d1mx/src/nfmabare -I../../../../../device/d1mx/src/octa -I../../../../../device/d1mx/src/rh850_ghs -I../../../../../device/d1mx/src/vowe -I../../../../../device/d1x_common/macro_cfg -I../../../../../device/d1x_common/macro_cfg/csisw -I../../../../../device/d1x_common/macro_cfg/davehd -I../../../../../device/d1x_common/macro_cfg/ddb -I../../../../../device/d1x_common/macro_cfg/drw2d -I../../../../../device/d1x_common/macro_cfg/gfxbus -I../../../../../device/d1x_common/macro_cfg/gpio -I../../../../../device/d1x_common/macro_cfg/hypb -I../../../../../device/d1x_common/macro_cfg/hypdb -I../../../../../device/d1x_common/macro_cfg/jcua -I../../../../../device/d1x_common/macro_cfg/nfmabare -I../../../../../device/d1x_common/macro_cfg/octa -I../../../../../device/d1x_common/macro_cfg/octacdb -I../../../../../device/d1x_common/macro_cfg/ostm -I../../../../../device/d1x_common/macro_cfg/pbg -I../../../../../device/d1x_common/macro_cfg/riic -I../../../../../device/d1x_common/macro_cfg/sfcdb -I../../../../../device/d1x_common/macro_cfg/sfma -I../../../../../device/d1x_common/macro_cfg/spea -I../../../../../device/d1x_common/macro_cfg/tauj -I../../../../../device/d1x_common/macro_cfg/tick -I../../../../../device/d1x_common/macro_cfg/vdce -I../../../../../device/d1x_common/macro_cfg/vowe -I../../../../../device/d1x_common/macro_cfg/wm -I../../../../../device/d1x_common/macro_cfg/xbus -I../../../../../device/d1x_common/src/csisw -I../../../../../device/d1x_common/src/ddb -I../../../../../device/d1x_common/src/dev -I../../../../../device/d1x_common/src/gfxbus -I../../../../../device/d1x_common/src/gpio -I../../../../../device/d1x_common/src/ostm -I../../../../../device/d1x_common/src/pbg -I../../../../../device/d1x_common/src/riic -I../../../../../device/d1x_common/src/sfma -I../../../../../device/d1x_common/src/spea -I../../../../../device/d1x_common/src/tauj -I../../../../../device/d1x_common/src/tick -I../../../../../device/d1x_common/src/vdce -I../../../../../device/d1x_common/src/wm -I../../../../../device/d1x_common/src/xbus -I../../../../../device/lib -I../../../../../macro/bus/pbg/lib -I../../../../../macro/bus/pbg/src -I../../../../../macro/csi/csisw/lib -I../../../../../macro/csi/csisw/src -I../../../../../macro/drw2d/lib -I../../../../../macro/drw2d/platform/davehd -I../../../../../macro/drw2d/platform/os/no_os -I../../../../../macro/drw2d/src -I../../../../../macro/flashc/hypb/lib -I../../../../../macro/flashc/hypb/src -I../../../../../macro/flashc/hypdb/lib -I../../../../../macro/flashc/hypdb/src -I../../../../../macro/flashc/nfmabare/lib -I../../../../../macro/flashc/nfmabare/src -I../../../../../macro/flashc/octa/lib -I../../../../../macro/flashc/octa/src -I../../../../../macro/flashc/octacdb/lib -I../../../../../macro/flashc/octacdb/src -I../../../../../macro/flashc/sfcdb/lib -I../../../../../macro/flashc/sfcdb/src -I../../../../../macro/flashc/sfma/lib -I../../../../../macro/flashc/sfma/src -I../../../../../macro/gfxbus/lib -I../../../../../macro/gfxbus/src -I../../../../../macro/gfxbus/xbus/lib -I../../../../../macro/gfxbus/xbus/src -I../../../../../macro/gpio/lib -I../../../../../macro/gpio/src -I../../../../../macro/gpu/davehd/common/inc -I../../../../../macro/gpu/davehd/common/inc/platform -I../../../../../macro/gpu/davehd/common/inc/platform/d1mx -I../../../../../macro/gpu/davehd/docs -I../../../../../macro/gpu/davehd/kernel/inc -I../../../../../macro/gpu/davehd/kernel/platform/d1mx -I../../../../../macro/gpu/davehd/kernel/platform/d1mx/bridge -I../../../../../macro/gpu/davehd/kernel/platform/d1mx/non_threaded -I../../../../../macro/gpu/davehd/kernel/platform/ree -I../../../../../macro/gpu/davehd/kernel/src -I../../../../../macro/gpu/davehd/user/inc -I../../../../../macro/gpu/davehd/user/platform/d1mx/no_os -I../../../../../macro/gpu/davehd/user/src -I../../../../../macro/gpu/jcua/lib -I../../../../../macro/gpu/jcua/src -I../../../../../macro/i2c/riic/lib -I../../../../../macro/i2c/riic/src -I../../../../../macro/tick/lib -I../../../../../macro/tick/src -I../../../../../macro/timer/ostm/lib -I../../../../../macro/timer/ostm/src -I../../../../../macro/timer/tauj/lib -I../../../../../macro/timer/tauj/src -I../../../../../macro/vdce/lib -I../../../../../macro/vdce/src -I../../../../../macro/vo/ddb/lib -I../../../../../macro/vo/ddb/src -I../../../../../macro/vo/spea/lib -I../../../../../macro/vo/spea/src -I../../../../../macro/vo/vowe/lib -I../../../../../macro/vo/vowe/src -I../../../../../macro/wm/lib -I../../../../../macro/wm/src -I../../../../../macro/pwm/lib -I../../../../../macro/reset/lib -I../../../../../macro/rscan/lib -I../../../../../macro/uart/rlin3/lib -I../../../../../macro/uart/rlin3/src -I../../../../../device/d1x_common/macro_cfg/rlin3 -I../../../../../macro/stbc/lib -I../../../../../macro/adc/lib -I../../../../../device/d1x_common/macro_cfg/adc7010 -IC:\GHS\V800.V2014.1.7\comp_201417\lib\rh850_22 -cg_underscore -cpu=rh850g3m -no_v850_simd -rh850_fpsimd=none -nomacro -patch_dbo=C:\git\rh850\src\app\gfx_apps\simple_draw\target\d1mx_mango_ghs\obj\saa71xx_main.dbo -source=saa71xx_main.c -o .\obj\gh_0000pbg1.o -list=.\obj\saa71xx_main.lst C:\Users\Frank\AppData\Local\Temp\gh_0000pbg1.si 
Original File: C:\Users\Frank\AppData\Local\Temp\gh_0000pbg1.si
Source File: saa71xx_main.c
Directory: C:\git\rh850\src\app\gfx_apps\simple_draw\target\d1mx_mango_ghs
Host OS: Windows
EASE: Copyright (C) 1983-2014 Green Hills Software.  All Rights Reversed.
Release: Compiler v2014.1.7
Build Directory: [Directory] BTOWINBOX:c:/build_2014_1_bto/2014-09-04.2200-2014_1_bto/win32-comp-ecom
Revision: [VCInfo] http://toolsvc/branches/release-branch-2014-1-bto/src@515859 (built by build)
Revision Date: Fri Sep 05 14:05:06 2014

Release Date: Fri Sep 05 14:43:29 2014

                           1 --Driver Command: ccv850 -c -MD -I../../../../../app/common/dhd
                           2 --		-I../../../../../app/gfx_apps/simple_draw/src
                           3 --		-I../../../../../app/gfx_apps/simple_draw/lib
                           4 --		-I../../../../../bsp/board//config
                           5 --		-I../../../../../bsp/board//src/gfx
                           6 --		-I../../../../../bsp/board//src/hmi
                           7 --		-I../../../../../bsp/board//src/stdio
                           8 --		-I../../../../../bsp/board/d1mx_mango/config
                           9 --		-I../../../../../bsp/board/d1mx_mango/src
                          10 --		-I../../../../../bsp/board/d1mx_mango/src/gfx
                          11 --		-I../../../../../bsp/board/d1mx_mango/src/hmi
                          12 --		-I../../../../../bsp/board/d1mx_mango/src/stdio
                          13 --		-I../../../../../bsp/gfx/lib -I../../../../../bsp/gfx/src
                          14 --		-I../../../../../bsp/hmi/lib -I../../../../../bsp/hmi/src
                          15 --		-I../../../../../bsp/lib -I../../../../../bsp/stdio/lib
                          16 --		-I../../../../../bsp/stdio/src -I../../../../../cdi/lib
                          17 --		-I../../../../../cdi/src -I../../../../../compiler/rh850_ghs/inc
                          18 --		-I../../../../../device/d1mx/lib
                          19 --		-I../../../../../device/d1mx/macro_cfg
                          20 --		-I../../../../../device/d1mx/macro_cfg/csisw
                          21 --		-I../../../../../device/d1mx/macro_cfg/davehd
                          22 --		-I../../../../../device/d1mx/macro_cfg/ddb
                          23 --		-I../../../../../device/d1mx/macro_cfg/drw2d
                          24 --		-I../../../../../device/d1mx/macro_cfg/gfxbus
                          25 --		-I../../../../../device/d1mx/macro_cfg/gpio
                          26 --		-I../../../../../device/d1mx/macro_cfg/hypb
                          27 --		-I../../../../../device/d1mx/macro_cfg/hypdb
                          28 --		-I../../../../../device/d1mx/macro_cfg/jcua
                          29 --		-I../../../../../device/d1mx/macro_cfg/nfmabare
                          30 --		-I../../../../../device/d1mx/macro_cfg/octa
                          31 --		-I../../../../../device/d1mx/macro_cfg/octacdb
                          32 --		-I../../../../../device/d1mx/macro_cfg/ostm
                          33 --		-I../../../../../device/d1mx/macro_cfg/pbg
                          34 --		-I../../../../../device/d1mx/macro_cfg/riic
                          35 --		-I../../../../../device/d1mx/macro_cfg/sfcdb
                          36 --		-I../../../../../device/d1mx/macro_cfg/sfma
                          37 --		-I../../../../../device/d1mx/macro_cfg/spea
                          38 --		-I../../../../../device/d1mx/macro_cfg/tauj
                          39 --		-I../../../../../device/d1mx/macro_cfg/tick
                          40 --		-I../../../../../device/d1mx/macro_cfg/vdce
                          41 --		-I../../../../../device/d1mx/macro_cfg/vowe
                          42 --		-I../../../../../device/d1mx/macro_cfg/wm
                          43 --		-I../../../../../device/d1mx/macro_cfg/xbus
                          44 --		-I../../../../../device/d1mx/src/dev
                          45 --		-I../../../../../device/d1mx/src/dhd
                          46 --		-I../../../../../device/d1mx/src/hypb
                          47 --		-I../../../../../device/d1mx/src/jcua
                          48 --		-I../../../../../device/d1mx/src/nfmabare
                          49 --		-I../../../../../device/d1mx/src/octa
                          50 --		-I../../../../../device/d1mx/src/rh850_ghs

                                                                      Page 2
                                                              C:\Users\Frank\AppData\Local\Temp\gh_0000pbg1.si
                          51 --		-I../../../../../device/d1mx/src/vowe
                          52 --		-I../../../../../device/d1x_common/macro_cfg
                          53 --		-I../../../../../device/d1x_common/macro_cfg/csisw
                          54 --		-I../../../../../device/d1x_common/macro_cfg/davehd
                          55 --		-I../../../../../device/d1x_common/macro_cfg/ddb
                          56 --		-I../../../../../device/d1x_common/macro_cfg/drw2d
                          57 --		-I../../../../../device/d1x_common/macro_cfg/gfxbus
                          58 --		-I../../../../../device/d1x_common/macro_cfg/gpio
                          59 --		-I../../../../../device/d1x_common/macro_cfg/hypb
                          60 --		-I../../../../../device/d1x_common/macro_cfg/hypdb
                          61 --		-I../../../../../device/d1x_common/macro_cfg/jcua
                          62 --		-I../../../../../device/d1x_common/macro_cfg/nfmabare
                          63 --		-I../../../../../device/d1x_common/macro_cfg/octa
                          64 --		-I../../../../../device/d1x_common/macro_cfg/octacdb
                          65 --		-I../../../../../device/d1x_common/macro_cfg/ostm
                          66 --		-I../../../../../device/d1x_common/macro_cfg/pbg
                          67 --		-I../../../../../device/d1x_common/macro_cfg/riic
                          68 --		-I../../../../../device/d1x_common/macro_cfg/sfcdb
                          69 --		-I../../../../../device/d1x_common/macro_cfg/sfma
                          70 --		-I../../../../../device/d1x_common/macro_cfg/spea
                          71 --		-I../../../../../device/d1x_common/macro_cfg/tauj
                          72 --		-I../../../../../device/d1x_common/macro_cfg/tick
                          73 --		-I../../../../../device/d1x_common/macro_cfg/vdce
                          74 --		-I../../../../../device/d1x_common/macro_cfg/vowe
                          75 --		-I../../../../../device/d1x_common/macro_cfg/wm
                          76 --		-I../../../../../device/d1x_common/macro_cfg/xbus
                          77 --		-I../../../../../device/d1x_common/src/csisw
                          78 --		-I../../../../../device/d1x_common/src/ddb
                          79 --		-I../../../../../device/d1x_common/src/dev
                          80 --		-I../../../../../device/d1x_common/src/gfxbus
                          81 --		-I../../../../../device/d1x_common/src/gpio
                          82 --		-I../../../../../device/d1x_common/src/ostm
                          83 --		-I../../../../../device/d1x_common/src/pbg
                          84 --		-I../../../../../device/d1x_common/src/riic
                          85 --		-I../../../../../device/d1x_common/src/sfma
                          86 --		-I../../../../../device/d1x_common/src/spea
                          87 --		-I../../../../../device/d1x_common/src/tauj
                          88 --		-I../../../../../device/d1x_common/src/tick
                          89 --		-I../../../../../device/d1x_common/src/vdce
                          90 --		-I../../../../../device/d1x_common/src/wm
                          91 --		-I../../../../../device/d1x_common/src/xbus
                          92 --		-I../../../../../device/lib -I../../../../../macro/bus/pbg/lib
                          93 --		-I../../../../../macro/bus/pbg/src
                          94 --		-I../../../../../macro/csi/csisw/lib
                          95 --		-I../../../../../macro/csi/csisw/src
                          96 --		-I../../../../../macro/drw2d/lib
                          97 --		-I../../../../../macro/drw2d/platform/davehd
                          98 --		-I../../../../../macro/drw2d/platform/os/no_os
                          99 --		-I../../../../../macro/drw2d/src
                         100 --		-I../../../../../macro/flashc/hypb/lib
                         101 --		-I../../../../../macro/flashc/hypb/src
                         102 --		-I../../../../../macro/flashc/hypdb/lib
                         103 --		-I../../../../../macro/flashc/hypdb/src
                         104 --		-I../../../../../macro/flashc/nfmabare/lib
                         105 --		-I../../../../../macro/flashc/nfmabare/src
                         106 --		-I../../../../../macro/flashc/octa/lib
                         107 --		-I../../../../../macro/flashc/octa/src
                         108 --		-I../../../../../macro/flashc/octacdb/lib
                         109 --		-I../../../../../macro/flashc/octacdb/src
                         110 --		-I../../../../../macro/flashc/sfcdb/lib
                         111 --		-I../../../../../macro/flashc/sfcdb/src

                                                                      Page 3
                                                              C:\Users\Frank\AppData\Local\Temp\gh_0000pbg1.si
                         112 --		-I../../../../../macro/flashc/sfma/lib
                         113 --		-I../../../../../macro/flashc/sfma/src
                         114 --		-I../../../../../macro/gfxbus/lib
                         115 --		-I../../../../../macro/gfxbus/src
                         116 --		-I../../../../../macro/gfxbus/xbus/lib
                         117 --		-I../../../../../macro/gfxbus/xbus/src
                         118 --		-I../../../../../macro/gpio/lib -I../../../../../macro/gpio/src
                         119 --		-I../../../../../macro/gpu/davehd/common/inc
                         120 --		-I../../../../../macro/gpu/davehd/common/inc/platform
                         121 --		-I../../../../../macro/gpu/davehd/common/inc/platform/d1mx
                         122 --		-I../../../../../macro/gpu/davehd/docs
                         123 --		-I../../../../../macro/gpu/davehd/kernel/inc
                         124 --		-I../../../../../macro/gpu/davehd/kernel/platform/d1mx
                         125 --		-I../../../../../macro/gpu/davehd/kernel/platform/d1mx/bridge
                         126 --		-I../../../../../macro/gpu/davehd/kernel/platform/d1mx/non_threaded
                         127 --		-I../../../../../macro/gpu/davehd/kernel/platform/ree
                         128 --		-I../../../../../macro/gpu/davehd/kernel/src
                         129 --		-I../../../../../macro/gpu/davehd/user/inc
                         130 --		-I../../../../../macro/gpu/davehd/user/platform/d1mx/no_os
                         131 --		-I../../../../../macro/gpu/davehd/user/src
                         132 --		-I../../../../../macro/gpu/jcua/lib
                         133 --		-I../../../../../macro/gpu/jcua/src
                         134 --		-I../../../../../macro/i2c/riic/lib
                         135 --		-I../../../../../macro/i2c/riic/src
                         136 --		-I../../../../../macro/tick/lib -I../../../../../macro/tick/src
                         137 --		-I../../../../../macro/timer/ostm/lib
                         138 --		-I../../../../../macro/timer/ostm/src
                         139 --		-I../../../../../macro/timer/tauj/lib
                         140 --		-I../../../../../macro/timer/tauj/src
                         141 --		-I../../../../../macro/vdce/lib -I../../../../../macro/vdce/src
                         142 --		-I../../../../../macro/vo/ddb/lib
                         143 --		-I../../../../../macro/vo/ddb/src
                         144 --		-I../../../../../macro/vo/spea/lib
                         145 --		-I../../../../../macro/vo/spea/src
                         146 --		-I../../../../../macro/vo/vowe/lib
                         147 --		-I../../../../../macro/vo/vowe/src -I../../../../../macro/wm/lib
                         148 --		-I../../../../../macro/wm/src -I../../../../../macro/pwm/lib
                         149 --		-I../../../../../macro/i2c/riic/lib
                         150 --		-I../../../../../macro/reset/lib -I../../../../../macro/rscan/lib
                         151 --		-I../../../../../macro/uart/rlin3/lib
                         152 --		-I../../../../../macro/uart/rlin3/src
                         153 --		-I../../../../../device/d1x_common/macro_cfg/rlin3
                         154 --		-I../../../../../macro/stbc/lib
                         155 --		-I../../../../../app/gfx_apps/simple_draw/lib
                         156 --		-I../../../../../macro/adc/lib
                         157 --		-I../../../../../device/d1x_common/macro_cfg/adc7010 -G
                         158 --		--no_commons --no_implicit_include --prototype_errors
                         159 --		-DRENESAS_D1X -DR_DRW2D_OS_NO_OS -DR_DRW2D_SYS_DHD
                         160 --		-DUSED_CPU=RH850G3M -DUSE_BSP_GFX -DUSE_BSP_HMI -DUSE_BSP_STDIO
                         161 --		-DUSE_CDI -DUSE_CSISW -DUSE_DAVEHD -DUSE_DDB -DUSE_DRW2D
                         162 --		-DUSE_GFXBUS -DUSE_GPIO -DUSE_HYPB -DUSE_HYPDB -DUSE_JCUA
                         163 --		-DUSE_NFMABARE -DUSE_OCTA -DUSE_OCTACDB -DUSE_OSTM -DUSE_PBG
                         164 --		-DUSE_RIIC -DUSE_SFCDB -DUSE_SFMA -DUSE_SPEA -DUSE_TAUJ
                         165 --		-DUSE_TICK -DUSE_VDCE -DUSE_WM -DUSE_XBUS -DMAG -MD -Zuse1bit
                         166 --		-allocate_ep -cpu=rh850g3m -large_sda -list -no_callt -notda
                         167 --		-passsource -preprocess_assembly_files -registermode=22
                         168 --		-reserve_r2 --diag_warning 1 -object_dir=./obj -DUSE_VDCE_OPENLDI
                         169 --		-gnu99 -filetype.c
                         170 --		..\..\..\..\..\bsp\board\d1mx_mango\src\gfx\saa71xx_main.c -o
                         171 --		.\obj\saa71xx_main.o
                         172 --Source File:   ..\..\..\..\..\bsp\board\d1mx_mango\src\gfx\saa71xx_main.c

                                                                      Page 4
                                                              C:\Users\Frank\AppData\Local\Temp\gh_0000pbg1.si
                         173 --Directory:     
                         174 --		C:\git\rh850\src\app\gfx_apps\simple_draw\target\d1mx_mango_ghs
                         175 --Compile Date:  Tue Oct 16 19:48:53 2018
                         176 --Host OS:       Win32
                         177 --Version:       C-RH850 2014.1.7 RELEASE VERSION
                         178 --Release:       Compiler v2014.1.7
                         179 --Revision Date: Fri Sep 05 14:10:46 2014
                         180 --Release Date:  Fri Sep 05 14:44:23 2014
                         181 -- ecom  -g -w
                         182 
                         183 --1: /*
                         184 --2: ****************************************************************************
                         185 --3: PROJECT : BSP - GFX - VI SAA71XX driver
                         186 --4: FILE    : $Id: saa71xx_main.c 4988 2015-03-30 13:06:17Z golczewskim $
                         187 --5: ============================================================================
                         188 --6: DESCRIPTION
                         189 --7: BSP Implementation D1M2(H) MANGO Board
                         190 --8: SAA71XX driver (main module)
                         191 --9: ============================================================================
                         192 --10:                             C O P Y R I G H T
                         193 --11: ============================================================================
                         194 --12:                            Copyright (c) 2014
                         195 --13:                                   by
                         196 --14:                     Renesas Electronics (Europe) GmbH. 
                         197 --15:                            Arcadiastrasse 10
                         198 --16:                           D-40472 Duesseldorf
                         199 --17:                                Germany
                         200 --18:                           All rights reserved.
                         201 --19: ============================================================================
                         202 --20: Purpose: only for testing
                         203 --22: DISCLAIMER                                                                   
                         204 --23: This software is supplied by Renesas Electronics Corporation and is only     
                         205 --24: intended for use with Renesas products. No other uses are authorized. This   
                         206 --25: software is owned by Renesas Electronics Corporation and is protected under  
                         207 --26: all applicable laws, including copyright laws.                               
                         208 --27: THIS SOFTWARE IS PROVIDED "AS IS" AND RENESAS MAKES NO WARRANTIES REGARDING  
                         209 --28: THIS SOFTWARE, WHETHER EXPRESS, IMPLIED OR STATUTORY, INCLUDING BUT NOT      
                         210 --29: LIMITED TO WARRANTIES OF MERCHANTABILITY, FITNESS FOR A PARTICULAR PURPOSE   
                         211 --30: AND NON-INFRINGEMENT. ALL SUCH WARRANTIES ARE EXPRESSLY DISCLAIMED.          
                         212 --31: TO THE MAXIMUM EXTENT PERMITTED NOT PROHIBITED BY LAW, NEITHER RENESAS       
                         213 --32: ELECTRONICS CORPORATION NOR ANY OF ITS AFFILIATED COMPANIES SHALL BE LIABLE  
                         214 --33: FOR ANY DIRECT, INDIRECT, SPECIAL, INCIDENTAL OR CONSEQUENTIAL DAMAGES FOR   
                         215 --34: ANY REASON RELATED TO THIS SOFTWARE, EVEN IF RENESAS OR ITS AFFILIATES HAVE  
                         216 --35: BEEN ADVISED OF THE POSSIBILITY OF SUCH DAMAGES.                             
                         217 --36: Renesas reserves the right, without notice, to make changes to this software 
                         218 --37: and to discontinue the availability of this software. By using this software,
                         219 --38: you agree to the additional terms and conditions found by accessing the      
                         220 --39: following link:                                                              
                         221 --40: http://www.renesas.com/disclaimer *                                          
                         222 --41: Copyright (C) 2011 Renesas Electronics Corporation. All rights reserved.     
                         223 --43: ****************************************************************************
                         224 --44: */
                         225 --47: /***********************************************************
                         226 --48:   Title: Main Module
                         227 --50:   Implementation of the API and other global functions.
                         228 --51: */
                         229 --53: /***********************************************************
                         230 --54:   Section: Includes
                         231 --55: */
                         232 --57: #include "r_typedefs.h"     /* Renesas basic types, e.g. uint32_t */
                         233 --58: #include "saa71xx_api.h"

                                                                      Page 5
                                                              C:\Users\Frank\AppData\Local\Temp\gh_0000pbg1.si
                         234 --59: #include "saa71xx_sys.h"
                         235 --60: #define _SAA71XX_MAIN_GLOBALS_
                         236 --61: #include "saa71xx_main.h"
                         237 --64: /***********************************************************
                         238 --65:   Section: Local Variables
                         239 --66: */
                         240 --69: static const uint8_t loc_R_SAA7113_InitCVBS[][2] = {
                         241 --70:     {0x01,0x08},
                         242 --71:     {0x02,0xc0},          /* for CVBS input AI11 */
                         243 --72:     {0x03,0x33},
                         244 --73:     {0x04,0x00},
                         245 --74:     {0x05,0x00},
                         246 --75:     {0x06,0xe9}, 
                         247 --76:     {0x07,0x0d},
                         248 --77:     {0x08,0x98},
                         249 --78:     {0x09,0x01},	  /* chrominance trap active (default for CVBS) */
                         250 --79:     {0x0a,0x80},
                         251 --80:     {0x0b,0x47},
                         252 --81:     {0x0c,0x40},
                         253 --82:     {0x0d,0x00},
                         254 --83:     {0x0e,0x03},
                         255 --84:     {0x0f,0x0f},    /* enable automatic chrominance gain control */
                         256 --85:     {0x10,0x40},
                         257 --86:     {0x11,0x0d},
                         258 --87:     {0x12,0x7b},
                         259 --88:     {0x13,0x00},
                         260 --89:     {0x14,0x00},
                         261 --90:     {0x15,0x00},
                         262 --91:     {0x16,0x00},
                         263 --92:     {0x17,0x00},
                         264 --93:     {0x18,0x00},
                         265 --94:     {0x19,0x00},
                         266 --95:     {0x1d,0x00},
                         267 --96:     {0x1e,0x00},
                         268 --97: };
                         269 --100: static const uint8_t loc_R_SAA7113_InitSVIDEO[][2] = {
                         270 --101:     {0x01,0x08},
                         271 --102:     {0x02,0xc8},        /* for s-video input */
                         272 --103:     {0x03,0x33},
                         273 --104:     {0x04,0x00},
                         274 --105:     {0x05,0x00},
                         275 --106:     {0x06,0xe9}, 
                         276 --107:     {0x07,0x0d},
                         277 --108:     {0x08,0x98},
                         278 --109:     {0x09,0x81},	/* chrominance trap bypassed (default for s-video) */
                         279 --110:     {0x0a,0x80},
                         280 --111:     {0x0b,0x47},
                         281 --112:     {0x0c,0x40},
                         282 --113:     {0x0d,0x00},
                         283 --114:     {0x0e,0x03},
                         284 --115:     {0x0f,0x0f},    /* enable automatic chrominance gain control */
                         285 --116:     {0x10,0x40},
                         286 --117:     {0x11,0x0d},
                         287 --118:     {0x12,0x7b},
                         288 --119:     {0x13,0x00},
                         289 --120:     {0x14,0x00},
                         290 --121:     {0x15,0x00},
                         291 --122:     {0x16,0x00},
                         292 --123:     {0x17,0x00},
                         293 --124:     {0x18,0x00},
                         294 --125:     {0x19,0x00},

                                                                      Page 6
                                                              C:\Users\Frank\AppData\Local\Temp\gh_0000pbg1.si
                         295 --126:     {0x1d,0x00},
                         296 --127:     {0x1e,0x00},
                         297 --128: };
                         298 --131: static const uint8_t loc_R_SAA7118_InitCVBS[][2] = {
                         299 --132:     {0x01,0x47},
                         300 --133:     {0x02,0xC0},
                         301 --134:     {0x03,0x33},
                         302 --135:     {0x04,0x00},
                         303 --136:     {0x05,0x00},
                         304 --137:     {0x06,0xEB},
                         305 --138:     {0x07,0xE0},
                         306 --139:     {0x08,0x98},
                         307 --140:     {0x09,0x40}, /* 0x01 in saa7113 config */
                         308 --141:     {0x0a,0x80},
                         309 --142:     {0x0b,0x44},
                         310 --143:     {0x0c,0x40},
                         311 --144:     {0x0d,0x00},
                         312 --145:     {0x0e,0x43},
                         313 --146:     {0x0f,0x00},
                         314 --147:     {0x10,0x06},
                         315 --148:     {0x11,0x00},
                         316 --149:     {0x12,0x8d}, /* hblank and vblank=rts0/1 */
                         317 --150:     {0x13,0x10},
                         318 --151:     {0x14,0x00},
                         319 --152:     {0x15,0x11},
                         320 --153:     {0x16,0xFE},
                         321 --154:     {0x17,0x18},
                         322 --155:     {0x18,0x40},
                         323 --156:     {0x19,0x80},
                         324 --157:     {0x1a,0x00},
                         325 --158:     {0x1b,0x00},
                         326 --159:     {0x1c,0x00},
                         327 --160:     {0x1d,0x00},
                         328 --161:     {0x20,0x00},
                         329 --162:     {0x21,0x00},
                         330 --163:     {0x22,0x00},
                         331 --164:     {0x23,0x00},
                         332 --165:     {0x24,0x90},
                         333 --166:     {0x25,0x90},
                         334 --167:     {0x26,0x00},
                         335 --168:     {0x27,0x00},
                         336 --169:     {0x28,0x00},
                         337 --170:     {0x29,0x00},
                         338 --171:     {0x2a,0x80},
                         339 --172:     {0x2b,0x40},
                         340 --173:     {0x2c,0x47},
                         341 --174:     {0x2d,0x00},
                         342 --175:     {0x2e,0x00},
                         343 --176:     {0x2f,0x00},
                         344 --177:     {0x80,0x10},
                         345 --178:     {0x81,0x00},
                         346 --179:     {0x82,0x00},
                         347 --180:     {0x83,0x01},
                         348 --181:     {0x84,0xa0},
                         349 --182:     {0x85,0x10},
                         350 --183:     {0x86,0xc5},
                         351 --184:     {0x87,0x01},
                         352 --185:     {0x88,0xf0},
                         353 --186:     {0x89,0x00},
                         354 --187:     {0x8a,0x00},
                         355 --188:     {0x8b,0x00},

                                                                      Page 7
                                                              C:\Users\Frank\AppData\Local\Temp\gh_0000pbg1.si
                         356 --189:     {0x8c,0x00},
                         357 --190:     {0x8d,0x00},
                         358 --191:     {0x8e,0x00},
                         359 --192:     {0x90,0x00},
                         360 --193:     {0x91,0x08},
                         361 --194:     {0x92,0x10},
                         362 --195:     {0x93,0x80},
                         363 --196:     {0x94,0x02},
                         364 --197:     {0x95,0x00},
                         365 --198:     {0x96,0xd0},
                         366 --199:     {0x97,0x02},
                         367 --200:     {0x98,0x10},
                         368 --201:     {0x99,0x00},
                         369 --202:     {0x9a,0x22},
                         370 --203:     {0x9b,0x01},
                         371 --204:     {0x9c,0xd0},
                         372 --205:     {0x9d,0x02},
                         373 --206:     {0x9e,0x20},
                         374 --207:     {0x9f,0x01},
                         375 --208:     {0xa0,0x01},
                         376 --209:     {0xa1,0x00},
                         377 --210:     {0xa2,0x00},
                         378 --211:     {0xa3,0x00},
                         379 --212:     {0xa4,0x80},
                         380 --213:     {0xa5,0x40},
                         381 --214:     {0xa6,0x40},
                         382 --215:     {0xa7,0x00},
                         383 --216:     {0xa8,0x00},
                         384 --217:     {0xa9,0x04},
                         385 --218:     {0xaa,0x00},
                         386 --219:     {0xab,0x00},
                         387 --220:     {0xac,0x00},
                         388 --221:     {0xad,0x02},
                         389 --222:     {0xae,0x00},
                         390 --223:     {0xaf,0x00},
                         391 --224:     {0xb0,0x00},
                         392 --225:     {0xb1,0x04},
                         393 --226:     {0xb2,0x00},
                         394 --227:     {0xb3,0x04},
                         395 --228:     {0xb4,0x00},
                         396 --229:     {0xb5,0x00},
                         397 --230:     {0xb6,0x00},
                         398 --231:     {0xb7,0x00},
                         399 --232:     {0xb8,0x00},
                         400 --233:     {0xb9,0x00},
                         401 --234:     {0xba,0x00},
                         402 --235:     {0xbb,0x00},
                         403 --236:     {0xbc,0x00},
                         404 --237:     {0xbd,0x00},
                         405 --238:     {0xbe,0x00},
                         406 --239:     {0xbf,0x00},
                         407 --240:     {0x88,0x00},
                         408 --241:     {0x88,0x30}
                         409 --242: };
                         410 --245: static const uint8_t loc_R_SAA7118_InitSVIDEO[][2] = {
                         411 --246:     {0x01,0x47},
                         412 --247:     {0x02,0xC8},
                         413 --248:     {0x03,0x33},
                         414 --249:     {0x04,0x00},
                         415 --250:     {0x05,0x00},
                         416 --251:     {0x06,0xEB},

                                                                      Page 8
                                                              C:\Users\Frank\AppData\Local\Temp\gh_0000pbg1.si
                         417 --252:     {0x07,0xE0},
                         418 --253:     {0x08,0x98},
                         419 --254:     {0x09,0xc0}, /* 0x81 in saa7113 config */
                         420 --255:     {0x0a,0x80},
                         421 --256:     {0x0b,0x44},
                         422 --257:     {0x0c,0x40},
                         423 --258:     {0x0d,0x00},
                         424 --259:     {0x0e,0x43},
                         425 --260:     {0x0f,0x00},
                         426 --261:     {0x10,0x06},
                         427 --262:     {0x11,0x00},
                         428 --263:     {0x12,0x8d}, /* hblank and vblank=rts0/1 */
                         429 --264:     {0x13,0x10},
                         430 --265:     {0x14,0x00},
                         431 --266:     {0x15,0x11},
                         432 --267:     {0x16,0xFE},
                         433 --268:     {0x17,0x18},
                         434 --269:     {0x18,0x40},
                         435 --270:     {0x19,0x80},
                         436 --271:     {0x1a,0x00},
                         437 --272:     {0x1b,0x00},
                         438 --273:     {0x1c,0x00},
                         439 --274:     {0x1d,0x00},
                         440 --275:     {0x20,0x00},
                         441 --276:     {0x21,0x00},
                         442 --277:     {0x22,0x00},
                         443 --278:     {0x23,0x00},
                         444 --279:     {0x24,0x90},
                         445 --280:     {0x25,0x90},
                         446 --281:     {0x26,0x00},
                         447 --282:     {0x27,0x00},
                         448 --283:     {0x28,0x00},
                         449 --284:     {0x29,0x00},
                         450 --285:     {0x2a,0x80},
                         451 --286:     {0x2b,0x40},
                         452 --287:     {0x2c,0x47},
                         453 --288:     {0x2d,0x00},
                         454 --289:     {0x2e,0x00},
                         455 --290:     {0x2f,0x00},
                         456 --291:     {0x80,0x10},
                         457 --292:     {0x81,0x00},
                         458 --293:     {0x82,0x00},
                         459 --294:     {0x83,0x01},
                         460 --295:     {0x84,0xa0},
                         461 --296:     {0x85,0x10},
                         462 --297:     {0x86,0xc5},
                         463 --298:     {0x87,0x01},
                         464 --299:     {0x88,0xf0},
                         465 --300:     {0x89,0x00},
                         466 --301:     {0x8a,0x00},
                         467 --302:     {0x8b,0x00},
                         468 --303:     {0x8c,0x00},
                         469 --304:     {0x8d,0x00},
                         470 --305:     {0x8e,0x00},
                         471 --306:     {0x90,0x00},
                         472 --307:     {0x91,0x08},
                         473 --308:     {0x92,0x10},
                         474 --309:     {0x93,0x80},
                         475 --310:     {0x94,0x02},
                         476 --311:     {0x95,0x00},
                         477 --312:     {0x96,0xd0},

                                                                      Page 9
                                                              C:\Users\Frank\AppData\Local\Temp\gh_0000pbg1.si
                         478 --313:     {0x97,0x02},
                         479 --314:     {0x98,0x10},
                         480 --315:     {0x99,0x00},
                         481 --316:     {0x9a,0x22},
                         482 --317:     {0x9b,0x01},
                         483 --318:     {0x9c,0xd0},
                         484 --319:     {0x9d,0x02},
                         485 --320:     {0x9e,0x20},
                         486 --321:     {0x9f,0x01},
                         487 --322:     {0xa0,0x01},
                         488 --323:     {0xa1,0x00},
                         489 --324:     {0xa2,0x00},
                         490 --325:     {0xa3,0x00},
                         491 --326:     {0xa4,0x80},
                         492 --327:     {0xa5,0x40},
                         493 --328:     {0xa6,0x40},
                         494 --329:     {0xa7,0x00},
                         495 --330:     {0xa8,0x00},
                         496 --331:     {0xa9,0x04},
                         497 --332:     {0xaa,0x00},
                         498 --333:     {0xab,0x00},
                         499 --334:     {0xac,0x00},
                         500 --335:     {0xad,0x02},
                         501 --336:     {0xae,0x00},
                         502 --337:     {0xaf,0x00},
                         503 --338:     {0xb0,0x00},
                         504 --339:     {0xb1,0x04},
                         505 --340:     {0xb2,0x00},
                         506 --341:     {0xb3,0x04},
                         507 --342:     {0xb4,0x00},
                         508 --343:     {0xb5,0x00},
                         509 --344:     {0xb6,0x00},
                         510 --345:     {0xb7,0x00},
                         511 --346:     {0xb8,0x00},
                         512 --347:     {0xb9,0x00},
                         513 --348:     {0xba,0x00},
                         514 --349:     {0xbb,0x00},
                         515 --350:     {0xbc,0x00},
                         516 --351:     {0xbd,0x00},
                         517 --352:     {0xbe,0x00},
                         518 --353:     {0xbf,0x00},
                         519 --354:     {0x88,0x00},
                         520 --355:     {0x88,0x30}
                         521 --356: };
                         522 --359: static R_SAA71xx_Probe_t loc_R_SAA71xx_Probe[] = {
                         523 --360:     {
                         524 --361:         (unsigned char *)loc_R_SAA7113_InitSVIDEO,
                         525 --362:         sizeof(loc_R_SAA7113_InitSVIDEO) /
                         526 --363:         sizeof(loc_R_SAA7113_InitSVIDEO[0]) /
                         527 --364:         sizeof(loc_R_SAA7113_InitSVIDEO[0][0]),
                         528 --365:         (uint8_t *)"saa7113",
                         529 --366:         {0x48,0x4a}
                         530 --367:     },
                         531 --368:     {
                         532 --369:         (unsigned char *)loc_R_SAA7118_InitSVIDEO,
                         533 --370:         sizeof(loc_R_SAA7118_InitSVIDEO) /
                         534 --371:         sizeof(loc_R_SAA7118_InitSVIDEO[0]) /
                         535 --372:         sizeof(loc_R_SAA7118_InitSVIDEO[0][0]),
                         536 --373:         (uint8_t *)"saa7118",
                         537 --374:         {0x42,0x40}
                         538 --375:     }

                                                                      Page 10
                                                              C:\Users\Frank\AppData\Local\Temp\gh_0000pbg1.si
                         539 --376: };
                         540 --378: static const int loc_R_SA711xx_ProbeCnt = sizeof(loc_R_SAA71xx_Probe) /
                         541 --379:     sizeof(loc_R_SAA71xx_Probe[0]);
                         542 --382: /***********************************************************
                         543 --383:   Variable: _UserErrorHandler
                         544 --385:   A function pointer to a user callback (Applications error handler)  
                         545 --386:   
                         546 --387:   The value is assigned by the application using the driver 
                         547 --388: */
                         548 --390: static void (*_UserErrorHandler)(uint32_t Unit, uint32_t Error) = R_NULL;
                         549 --393: /***********************************************************
                         550 --394:   Section: Global Functions
                         551 --395: */
                         552 --397: /***********************************************************
                         553 --398:   Function: R_SAA71xx_ErrorHandler
                         554 --399: */
                         555 --401: void R_SAA71xx_ErrorHandler(uint32_t Unit, R_SAA71xx_Error_t Error)
                         556 	.text
                         557 ..bof.C.3A.5Cgit.5Crh850.5Csrc.5Capp.5Cgfx_apps.5Csimple_draw.5Ctarget.5Cd1mx_mango_ghs.5Cobj.5Csaa71xx_main...43.3A.5Cgit.5Crh850.5Csrc.5Capp.5Cgfx_apps.5Csimple_draw.5Ctarget.5Cd1mx_mango_ghs..5BC5D025..0::
                         558 	.align	2
                         559 	.global	_R_SAA71xx_ErrorHandler
                         560 _R_SAA71xx_ErrorHandler:
00000000 8007e170        561 	prepare	{r25,r26,r27,r28,r29,r31},0
00000004 3d0600000000*   562 	mov	.L46,r29
0000000a 06e0            563 	mov	r6,r28
0000000c 07d8            564 	mov	r7,r27
0000000e 1dd0            565 	mov	r29,r26
                         566 --	    .bf
                         567 .LDW01:
                         568 --402: {
                         569 --403:     if (_UserErrorHandler != R_NULL)   /* we've got a registered error handler here ...*/
00000010 3d0f0100        570 	ld.w	0[r29],r1
00000014 e009            571 	cmp	zero,r1
00000016 820d*           572 	be	.L4
                         573 --404:     {
                         574 --405:         _UserErrorHandler(Unit, Error);   /* ... and we gonna use it!*/
                         575 --line405
                         576 ..lin.C.3A.5Cgit.5Crh850.5Csrc.5Capp.5Cgfx_apps.5Csimple_draw.5Ctarget.5Cd1mx_mango_ghs.5Cobj.5Csaa71xx_main.1::
                         577 .LDWlin1:
00000018 3dcf0100        578 	ld.w	0[r29],r25
0000001c 1c30            579 	mov	r28,r6
0000001e 1b38            580 	mov	r27,r7
00000020 f9c760f9        581 	jarl	[r25],lp
00000024 b505*           582 	br	.L6
                         583 .L4:
                         584 --406:     } else {                              /* we don't have a handler */
                         585 --407:         while(1)
                         586 --line407
                         587 ..lin.C.3A.5Cgit.5Crh850.5Csrc.5Capp.5Cgfx_apps.5Csimple_draw.5Ctarget.5Cd1mx_mango_ghs.5Cobj.5Csaa71xx_main.2::
                         588 .LDWlin2:
00000026 0000            589 	nop
                         590 .L9:
                         591 --408:         {
00000028 8505*           592 	br	.L9
                         593 .L6:
                         594 --409:             /* nothing */
                         595 --410:         }
                         596 --411:     }
                         597 --412: }
                         598 --	    .ef
                         599 .LDW11:

                                                                      Page 11
                                                              C:\Users\Frank\AppData\Local\Temp\gh_0000pbg1.si
                         600 --line412
                         601 ..lin.C.3A.5Cgit.5Crh850.5Csrc.5Capp.5Cgfx_apps.5Csimple_draw.5Ctarget.5Cd1mx_mango_ghs.5Cobj.5Csaa71xx_main.3::
                         602 .LDWlin3:
0000002a 4006ff70        603 	dispose	0,{r25,r26,r27,r28,r29,r31},[lp]
                         604 	.type	_R_SAA71xx_ErrorHandler,@function
                         605 	.size	_R_SAA71xx_ErrorHandler,.-_R_SAA71xx_ErrorHandler
                         606 	.align	2
                         607 .LDW21:
                         608 
                         609 --_Unit	r28	param
                         610 --_Error	r27	param
                         611 
                         612 	.data
                         613 	.align	4
                         614 .L46:
                         615 	.type	.L46,@object
                         616 	.size	.L46,0
                         617 	.section ".rodata","a"
                         618 .L56:--	"saa7113"
00000000 73616137        619 	.byte	115,97,97,55
00000004 31313300        620 	.byte	49,49,51,0
                         621 	.type	.L56,@object
                         622 	.size	.L56,8
                         623 .L57:--	"saa7118"
00000008 73616137        624 	.byte	115,97,97,55
0000000c 31313800        625 	.byte	49,49,56,0
                         626 	.type	.L57,@object
                         627 	.size	.L57,8
                         628 	.data
                         629 	.global	__UserErrorHandler..C.3A.5Cgit.5Crh850.5Csrc.5Capp.5Cgfx_apps.5Csimple_draw.5Ctarget.5Cd1mx_mango_ghs.5Cobj.5Csaa71xx_main.
                         630 __UserErrorHandler..C.3A.5Cgit.5Crh850.5Csrc.5Capp.5Cgfx_apps.5Csimple_draw.5Ctarget.5Cd1mx_mango_ghs.5Cobj.5Csaa71xx_main.:
00000000 00000000        631 __UserErrorHandler:	.byte	0,0,0,0
                         632 	.type	__UserErrorHandler..C.3A.5Cgit.5Crh850.5Csrc.5Capp.5Cgfx_apps.5Csimple_draw.5Ctarget.5Cd1mx_mango_ghs.5Cobj.5Csaa71xx_main.,@object
                         633 	.size	__UserErrorHandler..C.3A.5Cgit.5Crh850.5Csrc.5Capp.5Cgfx_apps.5Csimple_draw.5Ctarget.5Cd1mx_mango_ghs.5Cobj.5Csaa71xx_main.,4
                         634 	.type	__UserErrorHandler,@object
                         635 	.size	__UserErrorHandler,4
                         636 	.global	_loc_R_SAA71xx_Probe..C.3A.5Cgit.5Crh850.5Csrc.5Capp.5Cgfx_apps.5Csimple_draw.5Ctarget.5Cd1mx_mango_ghs.5Cobj.5Csaa71xx_main.
                         637 _loc_R_SAA71xx_Probe..C.3A.5Cgit.5Crh850.5Csrc.5Capp.5Cgfx_apps.5Csimple_draw.5Ctarget.5Cd1mx_mango_ghs.5Cobj.5Csaa71xx_main.:
00000004 00000000*       638 _loc_R_SAA71xx_Probe:	.word	_loc_R_SAA7113_InitSVIDEO
00000008 1b000000        639 	.byte	27,0,0,0
0000000c 00000000*       640 	.word	.L56
00000010 48000000        641 	.byte	72,0,0,0
00000014 4a000000        642 	.byte	74,0,0,0
00000018 00000000*       643 	.word	_loc_R_SAA7118_InitSVIDEO
0000001c 6e000000        644 	.byte	110,0,0,0
00000020 00000000*       645 	.word	.L57
00000024 42000000        646 	.byte	66,0,0,0
00000028 40000000        647 	.byte	64,0,0,0
                         648 	.type	_loc_R_SAA71xx_Probe..C.3A.5Cgit.5Crh850.5Csrc.5Capp.5Cgfx_apps.5Csimple_draw.5Ctarget.5Cd1mx_mango_ghs.5Cobj.5Csaa71xx_main.,@object
                         649 	.size	_loc_R_SAA71xx_Probe..C.3A.5Cgit.5Crh850.5Csrc.5Capp.5Cgfx_apps.5Csimple_draw.5Ctarget.5Cd1mx_mango_ghs.5Cobj.5Csaa71xx_main.,40
                         650 	.type	_loc_R_SAA71xx_Probe,@object
                         651 	.size	_loc_R_SAA71xx_Probe,40
                         652 	.section ".rodata","a"
                         653 	.global	_loc_R_SAA7113_InitCVBS..C.3A.5Cgit.5Crh850.5Csrc.5Capp.5Cgfx_apps.5Csimple_draw.5Ctarget.5Cd1mx_mango_ghs.5Cobj.5Csaa71xx_main.
                         654 _loc_R_SAA7113_InitCVBS..C.3A.5Cgit.5Crh850.5Csrc.5Capp.5Cgfx_apps.5Csimple_draw.5Ctarget.5Cd1mx_mango_ghs.5Cobj.5Csaa71xx_main.:
00000010 0108            655 _loc_R_SAA7113_InitCVBS:	.byte	1,8
00000012 02c0            656 	.byte	2,192
00000014 0333            657 	.byte	3,51
00000016 04              658 	.byte	4
00000017 00              659 	.space	1
00000018 05              660 	.byte	5

                                                                      Page 12
                                                              C:\Users\Frank\AppData\Local\Temp\gh_0000pbg1.si
00000019 00              661 	.space	1
0000001a 06e9            662 	.byte	6,233
0000001c 070d            663 	.byte	7,13
0000001e 0898            664 	.byte	8,152
00000020 0901            665 	.byte	9,1
00000022 0a80            666 	.byte	10,128
00000024 0b47            667 	.byte	11,71
00000026 0c40            668 	.byte	12,64
00000028 0d              669 	.byte	13
00000029 00              670 	.space	1
0000002a 0e03            671 	.byte	14,3
0000002c 0f0f            672 	.byte	15,15
0000002e 1040            673 	.byte	16,64
00000030 110d            674 	.byte	17,13
00000032 127b            675 	.byte	18,123
00000034 13              676 	.byte	19
00000035 00              677 	.space	1
00000036 14              678 	.byte	20
00000037 00              679 	.space	1
00000038 15              680 	.byte	21
00000039 00              681 	.space	1
0000003a 16              682 	.byte	22
0000003b 00              683 	.space	1
0000003c 17              684 	.byte	23
0000003d 00              685 	.space	1
0000003e 18              686 	.byte	24
0000003f 00              687 	.space	1
00000040 19              688 	.byte	25
00000041 00              689 	.space	1
00000042 1d              690 	.byte	29
00000043 00              691 	.space	1
00000044 1e              692 	.byte	30
00000045 00              693 	.space	1
                         694 	.type	_loc_R_SAA7113_InitCVBS..C.3A.5Cgit.5Crh850.5Csrc.5Capp.5Cgfx_apps.5Csimple_draw.5Ctarget.5Cd1mx_mango_ghs.5Cobj.5Csaa71xx_main.,@object
                         695 	.size	_loc_R_SAA7113_InitCVBS..C.3A.5Cgit.5Crh850.5Csrc.5Capp.5Cgfx_apps.5Csimple_draw.5Ctarget.5Cd1mx_mango_ghs.5Cobj.5Csaa71xx_main.,54
                         696 	.type	_loc_R_SAA7113_InitCVBS,@object
                         697 	.size	_loc_R_SAA7113_InitCVBS,54
                         698 	.global	_loc_R_SAA7113_InitSVIDEO..C.3A.5Cgit.5Crh850.5Csrc.5Capp.5Cgfx_apps.5Csimple_draw.5Ctarget.5Cd1mx_mango_ghs.5Cobj.5Csaa71xx_main.
                         699 _loc_R_SAA7113_InitSVIDEO..C.3A.5Cgit.5Crh850.5Csrc.5Capp.5Cgfx_apps.5Csimple_draw.5Ctarget.5Cd1mx_mango_ghs.5Cobj.5Csaa71xx_main.:
00000046 0108            700 _loc_R_SAA7113_InitSVIDEO:	.byte	1,8
00000048 02c8            701 	.byte	2,200
0000004a 0333            702 	.byte	3,51
0000004c 04              703 	.byte	4
0000004d 00              704 	.space	1
0000004e 05              705 	.byte	5
0000004f 00              706 	.space	1
00000050 06e9            707 	.byte	6,233
00000052 070d            708 	.byte	7,13
00000054 0898            709 	.byte	8,152
00000056 0981            710 	.byte	9,129
00000058 0a80            711 	.byte	10,128
0000005a 0b47            712 	.byte	11,71
0000005c 0c40            713 	.byte	12,64
0000005e 0d              714 	.byte	13
0000005f 00              715 	.space	1
00000060 0e03            716 	.byte	14,3
00000062 0f0f            717 	.byte	15,15
00000064 1040            718 	.byte	16,64
00000066 110d            719 	.byte	17,13
00000068 127b            720 	.byte	18,123
0000006a 13              721 	.byte	19

                                                                      Page 13
                                                              C:\Users\Frank\AppData\Local\Temp\gh_0000pbg1.si
0000006b 00              722 	.space	1
0000006c 14              723 	.byte	20
0000006d 00              724 	.space	1
0000006e 15              725 	.byte	21
0000006f 00              726 	.space	1
00000070 16              727 	.byte	22
00000071 00              728 	.space	1
00000072 17              729 	.byte	23
00000073 00              730 	.space	1
00000074 18              731 	.byte	24
00000075 00              732 	.space	1
00000076 19              733 	.byte	25
00000077 00              734 	.space	1
00000078 1d              735 	.byte	29
00000079 00              736 	.space	1
0000007a 1e              737 	.byte	30
0000007b 00              738 	.space	1
                         739 	.type	_loc_R_SAA7113_InitSVIDEO..C.3A.5Cgit.5Crh850.5Csrc.5Capp.5Cgfx_apps.5Csimple_draw.5Ctarget.5Cd1mx_mango_ghs.5Cobj.5Csaa71xx_main.,@object
                         740 	.size	_loc_R_SAA7113_InitSVIDEO..C.3A.5Cgit.5Crh850.5Csrc.5Capp.5Cgfx_apps.5Csimple_draw.5Ctarget.5Cd1mx_mango_ghs.5Cobj.5Csaa71xx_main.,54
                         741 	.type	_loc_R_SAA7113_InitSVIDEO,@object
                         742 	.size	_loc_R_SAA7113_InitSVIDEO,54
                         743 	.global	_loc_R_SAA7118_InitCVBS..C.3A.5Cgit.5Crh850.5Csrc.5Capp.5Cgfx_apps.5Csimple_draw.5Ctarget.5Cd1mx_mango_ghs.5Cobj.5Csaa71xx_main.
                         744 _loc_R_SAA7118_InitCVBS..C.3A.5Cgit.5Crh850.5Csrc.5Capp.5Cgfx_apps.5Csimple_draw.5Ctarget.5Cd1mx_mango_ghs.5Cobj.5Csaa71xx_main.:
0000007c 0147            745 _loc_R_SAA7118_InitCVBS:	.byte	1,71
0000007e 02c0            746 	.byte	2,192
00000080 0333            747 	.byte	3,51
00000082 04              748 	.byte	4
00000083 00              749 	.space	1
00000084 05              750 	.byte	5
00000085 00              751 	.space	1
00000086 06eb            752 	.byte	6,235
00000088 07e0            753 	.byte	7,224
0000008a 0898            754 	.byte	8,152
0000008c 0940            755 	.byte	9,64
0000008e 0a80            756 	.byte	10,128
00000090 0b44            757 	.byte	11,68
00000092 0c40            758 	.byte	12,64
00000094 0d              759 	.byte	13
00000095 00              760 	.space	1
00000096 0e43            761 	.byte	14,67
00000098 0f              762 	.byte	15
00000099 00              763 	.space	1
0000009a 1006            764 	.byte	16,6
0000009c 11              765 	.byte	17
0000009d 00              766 	.space	1
0000009e 128d            767 	.byte	18,141
000000a0 1310            768 	.byte	19,16
000000a2 14              769 	.byte	20
000000a3 00              770 	.space	1
000000a4 1511            771 	.byte	21,17
000000a6 16fe            772 	.byte	22,254
000000a8 1718            773 	.byte	23,24
000000aa 1840            774 	.byte	24,64
000000ac 1980            775 	.byte	25,128
000000ae 1a              776 	.byte	26
000000af 00              777 	.space	1
000000b0 1b              778 	.byte	27
000000b1 00              779 	.space	1
000000b2 1c              780 	.byte	28
000000b3 00              781 	.space	1
000000b4 1d              782 	.byte	29

                                                                      Page 14
                                                              C:\Users\Frank\AppData\Local\Temp\gh_0000pbg1.si
000000b5 00              783 	.space	1
000000b6 20              784 	.byte	32
000000b7 00              785 	.space	1
000000b8 21              786 	.byte	33
000000b9 00              787 	.space	1
000000ba 22              788 	.byte	34
000000bb 00              789 	.space	1
000000bc 23              790 	.byte	35
000000bd 00              791 	.space	1
000000be 2490            792 	.byte	36,144
000000c0 2590            793 	.byte	37,144
000000c2 26              794 	.byte	38
000000c3 00              795 	.space	1
000000c4 27              796 	.byte	39
000000c5 00              797 	.space	1
000000c6 28              798 	.byte	40
000000c7 00              799 	.space	1
000000c8 29              800 	.byte	41
000000c9 00              801 	.space	1
000000ca 2a80            802 	.byte	42,128
000000cc 2b40            803 	.byte	43,64
000000ce 2c47            804 	.byte	44,71
000000d0 2d              805 	.byte	45
000000d1 00              806 	.space	1
000000d2 2e              807 	.byte	46
000000d3 00              808 	.space	1
000000d4 2f              809 	.byte	47
000000d5 00              810 	.space	1
000000d6 8010            811 	.byte	128,16
000000d8 81              812 	.byte	129
000000d9 00              813 	.space	1
000000da 82              814 	.byte	130
000000db 00              815 	.space	1
000000dc 8301            816 	.byte	131,1
000000de 84a0            817 	.byte	132,160
000000e0 8510            818 	.byte	133,16
000000e2 86c5            819 	.byte	134,197
000000e4 8701            820 	.byte	135,1
000000e6 88f0            821 	.byte	136,240
000000e8 89              822 	.byte	137
000000e9 00              823 	.space	1
000000ea 8a              824 	.byte	138
000000eb 00              825 	.space	1
000000ec 8b              826 	.byte	139
000000ed 00              827 	.space	1
000000ee 8c              828 	.byte	140
000000ef 00              829 	.space	1
000000f0 8d              830 	.byte	141
000000f1 00              831 	.space	1
000000f2 8e              832 	.byte	142
000000f3 00              833 	.space	1
000000f4 90              834 	.byte	144
000000f5 00              835 	.space	1
000000f6 9108            836 	.byte	145,8
000000f8 9210            837 	.byte	146,16
000000fa 9380            838 	.byte	147,128
000000fc 9402            839 	.byte	148,2
000000fe 95              840 	.byte	149
000000ff 00              841 	.space	1
00000100 96d0            842 	.byte	150,208
00000102 9702            843 	.byte	151,2

                                                                      Page 15
                                                              C:\Users\Frank\AppData\Local\Temp\gh_0000pbg1.si
00000104 9810            844 	.byte	152,16
00000106 99              845 	.byte	153
00000107 00              846 	.space	1
00000108 9a22            847 	.byte	154,34
0000010a 9b01            848 	.byte	155,1
0000010c 9cd0            849 	.byte	156,208
0000010e 9d02            850 	.byte	157,2
00000110 9e20            851 	.byte	158,32
00000112 9f01            852 	.byte	159,1
00000114 a001            853 	.byte	160,1
00000116 a1              854 	.byte	161
00000117 00              855 	.space	1
00000118 a2              856 	.byte	162
00000119 00              857 	.space	1
0000011a a3              858 	.byte	163
0000011b 00              859 	.space	1
0000011c a480            860 	.byte	164,128
0000011e a540            861 	.byte	165,64
00000120 a640            862 	.byte	166,64
00000122 a7              863 	.byte	167
00000123 00              864 	.space	1
00000124 a8              865 	.byte	168
00000125 00              866 	.space	1
00000126 a904            867 	.byte	169,4
00000128 aa              868 	.byte	170
00000129 00              869 	.space	1
0000012a ab              870 	.byte	171
0000012b 00              871 	.space	1
0000012c ac              872 	.byte	172
0000012d 00              873 	.space	1
0000012e ad02            874 	.byte	173,2
00000130 ae              875 	.byte	174
00000131 00              876 	.space	1
00000132 af              877 	.byte	175
00000133 00              878 	.space	1
00000134 b0              879 	.byte	176
00000135 00              880 	.space	1
00000136 b104            881 	.byte	177,4
00000138 b2              882 	.byte	178
00000139 00              883 	.space	1
0000013a b304            884 	.byte	179,4
0000013c b4              885 	.byte	180
0000013d 00              886 	.space	1
0000013e b5              887 	.byte	181
0000013f 00              888 	.space	1
00000140 b6              889 	.byte	182
00000141 00              890 	.space	1
00000142 b7              891 	.byte	183
00000143 00              892 	.space	1
00000144 b8              893 	.byte	184
00000145 00              894 	.space	1
00000146 b9              895 	.byte	185
00000147 00              896 	.space	1
00000148 ba              897 	.byte	186
00000149 00              898 	.space	1
0000014a bb              899 	.byte	187
0000014b 00              900 	.space	1
0000014c bc              901 	.byte	188
0000014d 00              902 	.space	1
0000014e bd              903 	.byte	189
0000014f 00              904 	.space	1

                                                                      Page 16
                                                              C:\Users\Frank\AppData\Local\Temp\gh_0000pbg1.si
00000150 be              905 	.byte	190
00000151 00              906 	.space	1
00000152 bf              907 	.byte	191
00000153 00              908 	.space	1
00000154 88              909 	.byte	136
00000155 00              910 	.space	1
00000156 8830            911 	.byte	136,48
                         912 	.type	_loc_R_SAA7118_InitCVBS..C.3A.5Cgit.5Crh850.5Csrc.5Capp.5Cgfx_apps.5Csimple_draw.5Ctarget.5Cd1mx_mango_ghs.5Cobj.5Csaa71xx_main.,@object
                         913 	.size	_loc_R_SAA7118_InitCVBS..C.3A.5Cgit.5Crh850.5Csrc.5Capp.5Cgfx_apps.5Csimple_draw.5Ctarget.5Cd1mx_mango_ghs.5Cobj.5Csaa71xx_main.,220
                         914 	.type	_loc_R_SAA7118_InitCVBS,@object
                         915 	.size	_loc_R_SAA7118_InitCVBS,220
                         916 	.global	_loc_R_SAA7118_InitSVIDEO..C.3A.5Cgit.5Crh850.5Csrc.5Capp.5Cgfx_apps.5Csimple_draw.5Ctarget.5Cd1mx_mango_ghs.5Cobj.5Csaa71xx_main.
                         917 _loc_R_SAA7118_InitSVIDEO..C.3A.5Cgit.5Crh850.5Csrc.5Capp.5Cgfx_apps.5Csimple_draw.5Ctarget.5Cd1mx_mango_ghs.5Cobj.5Csaa71xx_main.:
00000158 0147            918 _loc_R_SAA7118_InitSVIDEO:	.byte	1,71
0000015a 02c8            919 	.byte	2,200
0000015c 0333            920 	.byte	3,51
0000015e 04              921 	.byte	4
0000015f 00              922 	.space	1
00000160 05              923 	.byte	5
00000161 00              924 	.space	1
00000162 06eb            925 	.byte	6,235
00000164 07e0            926 	.byte	7,224
00000166 0898            927 	.byte	8,152
00000168 09c0            928 	.byte	9,192
0000016a 0a80            929 	.byte	10,128
0000016c 0b44            930 	.byte	11,68
0000016e 0c40            931 	.byte	12,64
00000170 0d              932 	.byte	13
00000171 00              933 	.space	1
00000172 0e43            934 	.byte	14,67
00000174 0f              935 	.byte	15
00000175 00              936 	.space	1
00000176 1006            937 	.byte	16,6
00000178 11              938 	.byte	17
00000179 00              939 	.space	1
0000017a 128d            940 	.byte	18,141
0000017c 1310            941 	.byte	19,16
0000017e 14              942 	.byte	20
0000017f 00              943 	.space	1
00000180 1511            944 	.byte	21,17
00000182 16fe            945 	.byte	22,254
00000184 1718            946 	.byte	23,24
00000186 1840            947 	.byte	24,64
00000188 1980            948 	.byte	25,128
0000018a 1a              949 	.byte	26
0000018b 00              950 	.space	1
0000018c 1b              951 	.byte	27
0000018d 00              952 	.space	1
0000018e 1c              953 	.byte	28
0000018f 00              954 	.space	1
00000190 1d              955 	.byte	29
00000191 00              956 	.space	1
00000192 20              957 	.byte	32
00000193 00              958 	.space	1
00000194 21              959 	.byte	33
00000195 00              960 	.space	1
00000196 22              961 	.byte	34
00000197 00              962 	.space	1
00000198 23              963 	.byte	35
00000199 00              964 	.space	1
0000019a 2490            965 	.byte	36,144

                                                                      Page 17
                                                              C:\Users\Frank\AppData\Local\Temp\gh_0000pbg1.si
0000019c 2590            966 	.byte	37,144
0000019e 26              967 	.byte	38
0000019f 00              968 	.space	1
000001a0 27              969 	.byte	39
000001a1 00              970 	.space	1
000001a2 28              971 	.byte	40
000001a3 00              972 	.space	1
000001a4 29              973 	.byte	41
000001a5 00              974 	.space	1
000001a6 2a80            975 	.byte	42,128
000001a8 2b40            976 	.byte	43,64
000001aa 2c47            977 	.byte	44,71
000001ac 2d              978 	.byte	45
000001ad 00              979 	.space	1
000001ae 2e              980 	.byte	46
000001af 00              981 	.space	1
000001b0 2f              982 	.byte	47
000001b1 00              983 	.space	1
000001b2 8010            984 	.byte	128,16
000001b4 81              985 	.byte	129
000001b5 00              986 	.space	1
000001b6 82              987 	.byte	130
000001b7 00              988 	.space	1
000001b8 8301            989 	.byte	131,1
000001ba 84a0            990 	.byte	132,160
000001bc 8510            991 	.byte	133,16
000001be 86c5            992 	.byte	134,197
000001c0 8701            993 	.byte	135,1
000001c2 88f0            994 	.byte	136,240
000001c4 89              995 	.byte	137
000001c5 00              996 	.space	1
000001c6 8a              997 	.byte	138
000001c7 00              998 	.space	1
000001c8 8b              999 	.byte	139
000001c9 00             1000 	.space	1
000001ca 8c             1001 	.byte	140
000001cb 00             1002 	.space	1
000001cc 8d             1003 	.byte	141
000001cd 00             1004 	.space	1
000001ce 8e             1005 	.byte	142
000001cf 00             1006 	.space	1
000001d0 90             1007 	.byte	144
000001d1 00             1008 	.space	1
000001d2 9108           1009 	.byte	145,8
000001d4 9210           1010 	.byte	146,16
000001d6 9380           1011 	.byte	147,128
000001d8 9402           1012 	.byte	148,2
000001da 95             1013 	.byte	149
000001db 00             1014 	.space	1
000001dc 96d0           1015 	.byte	150,208
000001de 9702           1016 	.byte	151,2
000001e0 9810           1017 	.byte	152,16
000001e2 99             1018 	.byte	153
000001e3 00             1019 	.space	1
000001e4 9a22           1020 	.byte	154,34
000001e6 9b01           1021 	.byte	155,1
000001e8 9cd0           1022 	.byte	156,208
000001ea 9d02           1023 	.byte	157,2
000001ec 9e20           1024 	.byte	158,32
000001ee 9f01           1025 	.byte	159,1
000001f0 a001           1026 	.byte	160,1

                                                                      Page 18
                                                              C:\Users\Frank\AppData\Local\Temp\gh_0000pbg1.si
000001f2 a1             1027 	.byte	161
000001f3 00             1028 	.space	1
000001f4 a2             1029 	.byte	162
000001f5 00             1030 	.space	1
000001f6 a3             1031 	.byte	163
000001f7 00             1032 	.space	1
000001f8 a480           1033 	.byte	164,128
000001fa a540           1034 	.byte	165,64
000001fc a640           1035 	.byte	166,64
000001fe a7             1036 	.byte	167
000001ff 00             1037 	.space	1
00000200 a8             1038 	.byte	168
00000201 00             1039 	.space	1
00000202 a904           1040 	.byte	169,4
00000204 aa             1041 	.byte	170
00000205 00             1042 	.space	1
00000206 ab             1043 	.byte	171
00000207 00             1044 	.space	1
00000208 ac             1045 	.byte	172
00000209 00             1046 	.space	1
0000020a ad02           1047 	.byte	173,2
0000020c ae             1048 	.byte	174
0000020d 00             1049 	.space	1
0000020e af             1050 	.byte	175
0000020f 00             1051 	.space	1
00000210 b0             1052 	.byte	176
00000211 00             1053 	.space	1
00000212 b104           1054 	.byte	177,4
00000214 b2             1055 	.byte	178
00000215 00             1056 	.space	1
00000216 b304           1057 	.byte	179,4
00000218 b4             1058 	.byte	180
00000219 00             1059 	.space	1
0000021a b5             1060 	.byte	181
0000021b 00             1061 	.space	1
0000021c b6             1062 	.byte	182
0000021d 00             1063 	.space	1
0000021e b7             1064 	.byte	183
0000021f 00             1065 	.space	1
00000220 b8             1066 	.byte	184
00000221 00             1067 	.space	1
00000222 b9             1068 	.byte	185
00000223 00             1069 	.space	1
00000224 ba             1070 	.byte	186
00000225 00             1071 	.space	1
00000226 bb             1072 	.byte	187
00000227 00             1073 	.space	1
00000228 bc             1074 	.byte	188
00000229 00             1075 	.space	1
0000022a bd             1076 	.byte	189
0000022b 00             1077 	.space	1
0000022c be             1078 	.byte	190
0000022d 00             1079 	.space	1
0000022e bf             1080 	.byte	191
0000022f 00             1081 	.space	1
00000230 88             1082 	.byte	136
00000231 00             1083 	.space	1
00000232 8830           1084 	.byte	136,48
                        1085 	.type	_loc_R_SAA7118_InitSVIDEO..C.3A.5Cgit.5Crh850.5Csrc.5Capp.5Cgfx_apps.5Csimple_draw.5Ctarget.5Cd1mx_mango_ghs.5Cobj.5Csaa71xx_main.,@object
                        1086 	.size	_loc_R_SAA7118_InitSVIDEO..C.3A.5Cgit.5Crh850.5Csrc.5Capp.5Cgfx_apps.5Csimple_draw.5Ctarget.5Cd1mx_mango_ghs.5Cobj.5Csaa71xx_main.,220
                        1087 	.type	_loc_R_SAA7118_InitSVIDEO,@object

                                                                      Page 19
                                                              C:\Users\Frank\AppData\Local\Temp\gh_0000pbg1.si
                        1088 	.size	_loc_R_SAA7118_InitSVIDEO,220
                        1089 	.data
                        1090 	.text
                        1091 
                        1092 
                        1093 --415: /***********************************************************
                        1094 --416:   Section: Global API Functions
                        1095 --417: */
                        1096 --419: /***********************************************************
                        1097 --420:   Function: R_SAA71xx_SwitchMode
                        1098 --421: */
                        1099 --423: R_SAA71xx_Error_t R_SAA71xx_SwitchMode(uint32_t Unit, R_SAA71xx_VideoMode_t Mode)
                        1100 	.align	2
                        1101 	.align	2
                        1102 	.global	_R_SAA71xx_SwitchMode
                        1103 _R_SAA71xx_SwitchMode:
0000002e 210600000000*  1104 	mov	_loc_R_SAA71xx_Probe,r1
00000034 0660           1105 	mov	r6,r12
00000036 0770           1106 	mov	r7,r14
00000038 0168           1107 	mov	r1,r13
                        1108 --	    .bf
                        1109 .LDW31:
                        1110 --424: {
                        1111 --425:     if (Mode == R_SAA71XX_CVBS)
0000003a e071           1112 	cmp	zero,r14
0000003c ca15*          1113 	bne	.L74
                        1114 --426:     {
                        1115 --427:         loc_R_SAA71xx_Probe[0].DataTable = (uint8_t*)loc_R_SAA7113_InitCVBS;
                        1116 --line427
                        1117 ..lin.C.3A.5Cgit.5Crh850.5Csrc.5Capp.5Cgfx_apps.5Csimple_draw.5Ctarget.5Cd1mx_mango_ghs.5Cobj.5Csaa71xx_main.4::
                        1118 .LDWlin4:
0000003e 2b0600000000*  1119 	mov	_loc_R_SAA7113_InitCVBS,r11
00000044 615f0100       1120 	st.w	r11,0[r1]
                        1121 --428:         loc_R_SAA71xx_Probe[0].Size      = sizeof(loc_R_SAA7113_InitCVBS) /
00000048 205e1b00       1122 	movea	27,zero,r11
0000004c 615f0500       1123 	st.w	r11,4[r1]
                        1124 --429:             sizeof(loc_R_SAA7113_InitCVBS[0]) / 
                        1125 --430:             sizeof(loc_R_SAA7113_InitCVBS[0][0]);
                        1126 --431:         loc_R_SAA71xx_Probe[1].DataTable = (uint8_t*)loc_R_SAA7118_InitCVBS;
00000050 2b0600000000*  1127 	mov	_loc_R_SAA7118_InitCVBS,r11
00000056 615f1500       1128 	st.w	r11,20[r1]
                        1129 --432:         loc_R_SAA71xx_Probe[1].Size      = sizeof(loc_R_SAA7118_InitCVBS) /
0000005a 205e6e00       1130 	movea	110,zero,r11
0000005e 615f1900       1131 	st.w	r11,24[r1]
00000062 b515*          1132 	br	.L76
                        1133 .L74:
                        1134 --433:             sizeof(loc_R_SAA7118_InitCVBS[0]) / 
                        1135 --434:             sizeof(loc_R_SAA7118_InitCVBS[0][0]);
                        1136 --435:     } else {
                        1137 --436:         loc_R_SAA71xx_Probe[0].DataTable  = (uint8_t*)loc_R_SAA7113_InitSVIDEO;
                        1138 --line436
                        1139 ..lin.C.3A.5Cgit.5Crh850.5Csrc.5Capp.5Cgfx_apps.5Csimple_draw.5Ctarget.5Cd1mx_mango_ghs.5Cobj.5Csaa71xx_main.5::
                        1140 .LDWlin5:
00000064 2b0600000000*  1141 	mov	_loc_R_SAA7113_InitSVIDEO,r11
0000006a 615f0100       1142 	st.w	r11,0[r1]
                        1143 --437:         loc_R_SAA71xx_Probe[0].Size       = sizeof(loc_R_SAA7113_InitSVIDEO) /
0000006e 205e1b00       1144 	movea	27,zero,r11
00000072 615f0500       1145 	st.w	r11,4[r1]
                        1146 --438:             sizeof(loc_R_SAA7113_InitSVIDEO[0]) /
                        1147 --439:             sizeof(loc_R_SAA7113_InitSVIDEO[0][0]);
                        1148 --440:         loc_R_SAA71xx_Probe[1].DataTable  = (uint8_t*)loc_R_SAA7118_InitSVIDEO;

                                                                      Page 20
                                                              C:\Users\Frank\AppData\Local\Temp\gh_0000pbg1.si
00000076 2b0600000000*  1149 	mov	_loc_R_SAA7118_InitSVIDEO,r11
0000007c 615f1500       1150 	st.w	r11,20[r1]
                        1151 --441:         loc_R_SAA71xx_Probe[1].Size       = sizeof(loc_R_SAA7118_InitSVIDEO) /
00000080 205e6e00       1152 	movea	110,zero,r11
00000084 615f1900       1153 	st.w	r11,24[r1]
                        1154 .L76:
                        1155 --442:             sizeof(loc_R_SAA7113_InitSVIDEO[0]) /
                        1156 --443:             sizeof(loc_R_SAA7113_InitSVIDEO[0][0]);
                        1157 --444:     }
                        1158 --445:     return R_SAA71XX_ERR_OK;
00000088 0052           1159 	mov	0,r10
                        1160 --	    .ef
                        1161 .LDW41:
0000008a 7f00           1162 	jmp	[lp]
                        1163 	.type	_R_SAA71xx_SwitchMode,@function
                        1164 	.size	_R_SAA71xx_SwitchMode,.-_R_SAA71xx_SwitchMode
                        1165 	.align	2
                        1166 .LDW51:
                        1167 
                        1168 --_Unit	r12	param
                        1169 --_Mode	r14	param
                        1170 
                        1171 	.data
                        1172 	.text
                        1173 
                        1174 --446: }
                        1175 
                        1176 --449: /***********************************************************
                        1177 --450:   Function: R_SAA71xx_Init
                        1178 --451: */
                        1179 --453: R_SAA71xx_Error_t R_SAA71xx_Init(uint32_t Unit)
                        1180 	.align	2
                        1181 	.align	2
                        1182 	.global	_R_SAA71xx_Init
                        1183 _R_SAA71xx_Init:
0000008c 8807e170       1184 	prepare	{r25,r26,r27,r28,r29,r31},4
00000090 06e8           1185 	mov	r6,r29
00000092 3b0600000000*  1186 	mov	_R_SAA71xx_Dev,r27
                        1187 --	    .bf
                        1188 .LDW61:
                        1189 --454: {
                        1190 --455:     R_SAA71xx_Error_t     err;
                        1191 --456:     R_SAA71xx_VideoMode_t vmode;
                        1192 --457:     int32_t                   i;
                        1193 --458:     int32_t                   j;
                        1194 --459:     int32_t                   offset;
                        1195 --460:     int32_t                   data;
                        1196 --461:     int32_t                   dataBack;
                        1197 --463:     err = R_SAA71xx_Sys_PortInit(Unit);
00000098 1d30           1198 	mov	r29,r6
                        1199 	jarl	_R_SAA71xx_Sys_PortInit,lp
                        1199 <EXPANSION BEGIN>
                        1199 jarl22 _R_SAA71xx_Sys_PortInit , lp 
0000009a 80ff0000*      1199 <EXPANSION END>
0000009e 0ad0           1200 	mov	r10,r26
                        1201 --464:     if (err)
                        1202 --line464
                        1203 ..lin.C.3A.5Cgit.5Crh850.5Csrc.5Capp.5Cgfx_apps.5Csimple_draw.5Ctarget.5Cd1mx_mango_ghs.5Cobj.5Csaa71xx_main.6::
                        1204 .LDWlin6:
000000a0 e0d1           1205 	cmp	zero,r26
000000a2 820d*          1206 	be	.L170

                                                                      Page 21
                                                              C:\Users\Frank\AppData\Local\Temp\gh_0000pbg1.si
                        1207 --465:     {
                        1208 --466:         R_SAA71xx_ErrorHandler(Unit, R_SAA71XX_ERR_PORTINIT);
                        1209 --line466
                        1210 ..lin.C.3A.5Cgit.5Crh850.5Csrc.5Capp.5Cgfx_apps.5Csimple_draw.5Ctarget.5Cd1mx_mango_ghs.5Cobj.5Csaa71xx_main.7::
                        1211 .LDWlin7:
000000a4 1d30           1212 	mov	r29,r6
000000a6 023a           1213 	mov	2,r7
                        1214 	jarl	_R_SAA71xx_ErrorHandler,lp
                        1214 <EXPANSION BEGIN>
                        1214 jarl22 _R_SAA71xx_ErrorHandler , lp 
000000a8 bfff58ff*      1214 <EXPANSION END>
                        1215 --467:         return err; 
                        1216 --line467
                        1217 ..lin.C.3A.5Cgit.5Crh850.5Csrc.5Capp.5Cgfx_apps.5Csimple_draw.5Ctarget.5Cd1mx_mango_ghs.5Cobj.5Csaa71xx_main.8::
                        1218 .LDWlin8:
000000ac 1a50           1219 	mov	r26,r10
000000ae 80078201*      1220 	br	.L168
                        1221 .L170:
                        1222 --468:     }
                        1223 --469:     err = R_SAA71xx_Sys_I2CInit(Unit);
                        1224 --line469
                        1225 ..lin.C.3A.5Cgit.5Crh850.5Csrc.5Capp.5Cgfx_apps.5Csimple_draw.5Ctarget.5Cd1mx_mango_ghs.5Cobj.5Csaa71xx_main.9::
                        1226 .LDWlin9:
000000b2 1d30           1227 	mov	r29,r6
                        1228 	jarl	_R_SAA71xx_Sys_I2CInit,lp
                        1228 <EXPANSION BEGIN>
                        1228 jarl22 _R_SAA71xx_Sys_I2CInit , lp 
000000b4 80ff0000*      1228 <EXPANSION END>
000000b8 0ad0           1229 	mov	r10,r26
                        1230 --470:     if (err)
                        1231 --line470
                        1232 ..lin.C.3A.5Cgit.5Crh850.5Csrc.5Capp.5Cgfx_apps.5Csimple_draw.5Ctarget.5Cd1mx_mango_ghs.5Cobj.5Csaa71xx_main.10::
                        1233 .LDWlin10:
000000ba e0d1           1234 	cmp	zero,r26
000000bc 820d*          1235 	be	.L173
                        1236 --471:     {
                        1237 --472:         R_SAA71xx_ErrorHandler(Unit, err);
                        1238 --line472
                        1239 ..lin.C.3A.5Cgit.5Crh850.5Csrc.5Capp.5Cgfx_apps.5Csimple_draw.5Ctarget.5Cd1mx_mango_ghs.5Cobj.5Csaa71xx_main.11::
                        1240 .LDWlin11:
000000be 1d30           1241 	mov	r29,r6
000000c0 1a38           1242 	mov	r26,r7
                        1243 	jarl	_R_SAA71xx_ErrorHandler,lp
                        1243 <EXPANSION BEGIN>
                        1243 jarl22 _R_SAA71xx_ErrorHandler , lp 
000000c2 bfff3eff*      1243 <EXPANSION END>
                        1244 --473:         return err; 
                        1245 --line473
                        1246 ..lin.C.3A.5Cgit.5Crh850.5Csrc.5Capp.5Cgfx_apps.5Csimple_draw.5Ctarget.5Cd1mx_mango_ghs.5Cobj.5Csaa71xx_main.12::
                        1247 .LDWlin12:
000000c6 1a50           1248 	mov	r26,r10
000000c8 80076801*      1249 	br	.L168
                        1250 .L173:
                        1251 --474:     }
                        1252 --475:     
                        1253 --476:     vmode = R_SAA71xx_Sys_CvbsSel(Unit);
                        1254 --line476
                        1255 ..lin.C.3A.5Cgit.5Crh850.5Csrc.5Capp.5Cgfx_apps.5Csimple_draw.5Ctarget.5Cd1mx_mango_ghs.5Cobj.5Csaa71xx_main.13::
                        1256 .LDWlin13:
000000cc 1d30           1257 	mov	r29,r6
                        1258 	jarl	_R_SAA71xx_Sys_CvbsSel,lp

                                                                      Page 22
                                                              C:\Users\Frank\AppData\Local\Temp\gh_0000pbg1.si
                        1258 <EXPANSION BEGIN>
                        1258 jarl22 _R_SAA71xx_Sys_CvbsSel , lp 
000000ce 80ff0000*      1258 <EXPANSION END>
000000d2 63570d00       1259 	st.w	r10,12[sp]
                        1260 --477:     R_SAA71xx_SwitchMode(Unit, vmode);
                        1261 --line477
                        1262 ..lin.C.3A.5Cgit.5Crh850.5Csrc.5Capp.5Cgfx_apps.5Csimple_draw.5Ctarget.5Cd1mx_mango_ghs.5Cobj.5Csaa71xx_main.14::
                        1263 .LDWlin14:
000000d6 233f0d00       1264 	ld.w	12[sp],r7
000000da 1d30           1265 	mov	r29,r6
                        1266 	jarl	_R_SAA71xx_SwitchMode,lp
                        1266 <EXPANSION BEGIN>
                        1266 jarl22 _R_SAA71xx_SwitchMode , lp 
000000dc bfff52ff*      1266 <EXPANSION END>
                        1267 --478:     
                        1268 --479:     R_SAA71xx_Dev[Unit].Type = R_SAA71XX_NONE;
                        1269 --line479
                        1270 ..lin.C.3A.5Cgit.5Crh850.5Csrc.5Capp.5Cgfx_apps.5Csimple_draw.5Ctarget.5Cd1mx_mango_ghs.5Cobj.5Csaa71xx_main.15::
                        1271 .LDWlin15:
000000e0 1df0           1272 	mov	r29,ep
000000e2 fe00           1273 	sxh	ep
000000e4 fef60c00       1274 	mulhi	12,ep,ep
000000e8 200eff00       1275 	movea	255,zero,r1
000000ec dbf1           1276 	add	r27,ep
000000ee 010d           1277 	sst.w	r1,0[ep]
                        1278 --480:     for(i = 0; i < loc_R_SA711xx_ProbeCnt; i++)
000000f0 00e2           1279 	mov	0,r28
000000f2 0000           1280 	nop
                        1281 .L178:
                        1282 --481:     {
                        1283 --482:         if (R_SAA71xx_Dev[Unit].Type != R_SAA71XX_NONE)
000000f4 1df0           1284 	mov	r29,ep
000000f6 fe00           1285 	sxh	ep
000000f8 fef60c00       1286 	mulhi	12,ep,ep
000000fc dbf1           1287 	add	r27,ep
000000fe 000d           1288 	sld.w	0[ep],r1
00000100 010601ff       1289 	addi	-255,r1,zero
00000104 a205*          1290 	be	.L179
                        1291 --483:         {
                        1292 --484:             break;
                        1293 --line484
                        1294 ..lin.C.3A.5Cgit.5Crh850.5Csrc.5Capp.5Cgfx_apps.5Csimple_draw.5Ctarget.5Cd1mx_mango_ghs.5Cobj.5Csaa71xx_main.16::
                        1295 .LDWlin16:
00000106 953d*          1296 	br	.L181
                        1297 .L179:
                        1298 --485:         }
                        1299 --486:         R_SAA71xx_Dev[Unit].Current = loc_R_SAA71xx_Probe + i;
                        1300 --line486
                        1301 ..lin.C.3A.5Cgit.5Crh850.5Csrc.5Capp.5Cgfx_apps.5Csimple_draw.5Ctarget.5Cd1mx_mango_ghs.5Cobj.5Csaa71xx_main.17::
                        1302 .LDWlin17:
00000108 1df0           1303 	mov	r29,ep
0000010a 1c08           1304 	mov	r28,r1
0000010c fe00           1305 	sxh	ep
0000010e fef60c00       1306 	mulhi	12,ep,ep
00000112 e100           1307 	sxh	r1
00000114 e10e1400       1308 	mulhi	20,r1,r1
00000118 2e0600000000*  1309 	mov	_loc_R_SAA71xx_Probe,r14
0000011e dbf1           1310 	add	r27,ep
00000120 ce09           1311 	add	r14,r1
00000122 050d           1312 	sst.w	r1,8[ep]
                        1313 --487:         for(j = 0; j < 2; j++)

                                                                      Page 23
                                                              C:\Users\Frank\AppData\Local\Temp\gh_0000pbg1.si
00000124 00ca           1314 	mov	0,r25
00000126 0000           1315 	nop
                        1316 .L185:
                        1317 --488:         {
                        1318 --489:             R_SAA71xx_Dev[Unit].Address = 
00000128 1d08           1319 	mov	r29,r1
0000012a e100           1320 	sxh	r1
0000012c e10e0c00       1321 	mulhi	12,r1,r1
00000130 01f0           1322 	mov	r1,ep
00000132 dbf1           1323 	add	r27,ep
00000134 046d           1324 	sld.w	8[ep],r13
00000136 db09           1325 	add	r27,r1
00000138 19f0           1326 	mov	r25,ep
0000013a c2f2           1327 	shl	2,ep
0000013c 4c6a           1328 	add	12,r13
0000013e cdf1           1329 	add	r13,ep
00000140 0075           1330 	sld.w	0[ep],r14
00000142 61770500       1331 	st.w	r14,4[r1]
                        1332 --490:                 R_SAA71xx_Dev[Unit].Current->Address[j];
                        1333 --491:             err = R_SAA71xx_Sys_I2CProbe(Unit, R_SAA71xx_Dev[Unit].Address);
00000146 1df0           1334 	mov	r29,ep
00000148 fe00           1335 	sxh	ep
0000014a fef60c00       1336 	mulhi	12,ep,ep
0000014e 1d30           1337 	mov	r29,r6
00000150 dbf1           1338 	add	r27,ep
00000152 023d           1339 	sld.w	4[ep],r7
                        1340 	jarl	_R_SAA71xx_Sys_I2CProbe,lp
                        1340 <EXPANSION BEGIN>
                        1340 jarl22 _R_SAA71xx_Sys_I2CProbe , lp 
00000154 80ff0000*      1340 <EXPANSION END>
00000158 0ad0           1341 	mov	r10,r26
                        1342 --492:             if (err == R_SAA71XX_ERR_OK)
                        1343 --line492
                        1344 ..lin.C.3A.5Cgit.5Crh850.5Csrc.5Capp.5Cgfx_apps.5Csimple_draw.5Ctarget.5Cd1mx_mango_ghs.5Cobj.5Csaa71xx_main.18::
                        1345 .LDWlin18:
0000015a e0d1           1346 	cmp	zero,r26
0000015c 8a0d*          1347 	bne	.L186
                        1348 --493:             {
                        1349 --494:                 R_SAA71xx_Dev[Unit].Type=(R_SAA71xx_Type_t)i;
                        1350 --line494
                        1351 ..lin.C.3A.5Cgit.5Crh850.5Csrc.5Capp.5Cgfx_apps.5Csimple_draw.5Ctarget.5Cd1mx_mango_ghs.5Cobj.5Csaa71xx_main.19::
                        1352 .LDWlin19:
0000015e 1df0           1353 	mov	r29,ep
00000160 fe00           1354 	sxh	ep
00000162 fef60c00       1355 	mulhi	12,ep,ep
00000166 dbf1           1356 	add	r27,ep
00000168 01e5           1357 	sst.w	r28,0[ep]
                        1358 --495:                 break;
0000016a c505*          1359 	br	.L188
                        1360 .L186:
                        1361 --line487
                        1362 ..lin.C.3A.5Cgit.5Crh850.5Csrc.5Capp.5Cgfx_apps.5Csimple_draw.5Ctarget.5Cd1mx_mango_ghs.5Cobj.5Csaa71xx_main.20::
                        1363 .LDWlin20:
0000016c 41ca           1364 	add	1,r25
0000016e 62ca           1365 	cmp	2,r25
00000170 c6dd*          1366 	blt	.L185
                        1367 .L188:
                        1368 --line480
                        1369 ..lin.C.3A.5Cgit.5Crh850.5Csrc.5Capp.5Cgfx_apps.5Csimple_draw.5Ctarget.5Cd1mx_mango_ghs.5Cobj.5Csaa71xx_main.21::
                        1370 .LDWlin21:
00000172 41e2           1371 	add	1,r28

                                                                      Page 24
                                                              C:\Users\Frank\AppData\Local\Temp\gh_0000pbg1.si
00000174 62e2           1372 	cmp	2,r28
00000176 f6bd*          1373 	blt	.L178
                        1374 .L181:
                        1375 --496:             }
                        1376 --497:         }        
                        1377 --498:     }
                        1378 --499:     if (R_SAA71xx_Dev[Unit].Type == R_SAA71XX_NONE)
                        1379 --line499
                        1380 ..lin.C.3A.5Cgit.5Crh850.5Csrc.5Capp.5Cgfx_apps.5Csimple_draw.5Ctarget.5Cd1mx_mango_ghs.5Cobj.5Csaa71xx_main.22::
                        1381 .LDWlin22:
00000178 1df0           1382 	mov	r29,ep
0000017a fe00           1383 	sxh	ep
0000017c fef60c00       1384 	mulhi	12,ep,ep
00000180 dbf1           1385 	add	r27,ep
00000182 000d           1386 	sld.w	0[ep],r1
00000184 010601ff       1387 	addi	-255,r1,zero
00000188 ba05*          1388 	bne	.L190
                        1389 --500:     {
                        1390 --501:         return R_SAA71XX_ERR_NG;
                        1391 --line501
                        1392 ..lin.C.3A.5Cgit.5Crh850.5Csrc.5Capp.5Cgfx_apps.5Csimple_draw.5Ctarget.5Cd1mx_mango_ghs.5Cobj.5Csaa71xx_main.23::
                        1393 .LDWlin23:
0000018a 0152           1394 	mov	1,r10
0000018c a555*          1395 	br	.L168
                        1396 .L190:
                        1397 --502:     }
                        1398 --503:     
                        1399 --504:     for(i = 0; i< R_SAA71xx_Dev[Unit].Current->Size; i++)
                        1400 --line504
                        1401 ..lin.C.3A.5Cgit.5Crh850.5Csrc.5Capp.5Cgfx_apps.5Csimple_draw.5Ctarget.5Cd1mx_mango_ghs.5Cobj.5Csaa71xx_main.24::
                        1402 .LDWlin24:
0000018e 00e2           1403 	mov	0,r28
00000190 e545*          1404 	br	.L196
                        1405 .L195:
                        1406 --505:     {
                        1407 --506:         offset = R_SAA71xx_Dev[Unit].Current->DataTable[(i << 1) + 0];
                        1408 --line506
                        1409 ..lin.C.3A.5Cgit.5Crh850.5Csrc.5Capp.5Cgfx_apps.5Csimple_draw.5Ctarget.5Cd1mx_mango_ghs.5Cobj.5Csaa71xx_main.25::
                        1410 .LDWlin25:
00000192 1df0           1411 	mov	r29,ep
00000194 fe00           1412 	sxh	ep
00000196 fef60c00       1413 	mulhi	12,ep,ep
0000019a 1c08           1414 	mov	r28,r1
0000019c c10a           1415 	shl	1,r1
0000019e dbf1           1416 	add	r27,ep
000001a0 04f5           1417 	sld.w	8[ep],ep
000001a2 00f5           1418 	sld.w	0[ep],ep
000001a4 c1f1           1419 	add	r1,ep
000001a6 6058           1420 	sld.bu	0[ep],r11
000001a8 635f0500       1421 	st.w	r11,4[sp]
                        1422 --507:         data   = R_SAA71xx_Dev[Unit].Current->DataTable[(i <<1 ) + 1];
000001ac 1df0           1423 	mov	r29,ep
000001ae fe00           1424 	sxh	ep
000001b0 fef60c00       1425 	mulhi	12,ep,ep
000001b4 1c08           1426 	mov	r28,r1
000001b6 c10a           1427 	shl	1,r1
000001b8 410a           1428 	add	1,r1
000001ba dbf1           1429 	add	r27,ep
000001bc 04f5           1430 	sld.w	8[ep],ep
000001be 00f5           1431 	sld.w	0[ep],ep
000001c0 c1f1           1432 	add	r1,ep

                                                                      Page 25
                                                              C:\Users\Frank\AppData\Local\Temp\gh_0000pbg1.si
000001c2 6058           1433 	sld.bu	0[ep],r11
000001c4 635f0900       1434 	st.w	r11,8[sp]
                        1435 --508:         
                        1436 --509:         /* Write to one SAA71xx register, read back the written value.
                        1437 --510:            Repeat, if read back value does not equals to written register value. */
                        1438 --511:         do {
000001c8 0000           1439 	nop
                        1440 .L199:
                        1441 --512:             R_SAA71xx_Sys_I2CWrite(Unit, R_SAA71xx_Dev[Unit].Address,
000001ca 1df0           1442 	mov	r29,ep
000001cc fe00           1443 	sxh	ep
000001ce fef60c00       1444 	mulhi	12,ep,ep
000001d2 1d30           1445 	mov	r29,r6
000001d4 23470500       1446 	ld.w	4[sp],r8
000001d8 234f0900       1447 	ld.w	8[sp],r9
000001dc dbf1           1448 	add	r27,ep
000001de 023d           1449 	sld.w	4[ep],r7
                        1450 	jarl	_R_SAA71xx_Sys_I2CWrite,lp
                        1450 <EXPANSION BEGIN>
                        1450 jarl22 _R_SAA71xx_Sys_I2CWrite , lp 
000001e0 80ff0000*      1450 <EXPANSION END>
                        1451 --513:                                    offset, data);
                        1452 --514:             /* read back the written value */
                        1453 --515:             dataBack = R_SAA71xx_Sys_I2CRead(Unit, R_SAA71xx_Dev[Unit].Address,
                        1454 --line515
                        1455 ..lin.C.3A.5Cgit.5Crh850.5Csrc.5Capp.5Cgfx_apps.5Csimple_draw.5Ctarget.5Cd1mx_mango_ghs.5Cobj.5Csaa71xx_main.26::
                        1456 .LDWlin26:
000001e4 1df0           1457 	mov	r29,ep
000001e6 fe00           1458 	sxh	ep
000001e8 fef60c00       1459 	mulhi	12,ep,ep
000001ec 1d30           1460 	mov	r29,r6
000001ee 23470500       1461 	ld.w	4[sp],r8
000001f2 dbf1           1462 	add	r27,ep
000001f4 023d           1463 	sld.w	4[ep],r7
                        1464 	jarl	_R_SAA71xx_Sys_I2CRead,lp
                        1464 <EXPANSION BEGIN>
                        1464 jarl22 _R_SAA71xx_Sys_I2CRead , lp 
000001f6 80ff0000*      1464 <EXPANSION END>
000001fa 63570100       1465 	st.w	r10,0[sp]
                        1466 --516:                                    offset);
                        1467 --518:             /* In case of Chrominance gain control register (subaddress 0xF)
                        1468 --519:                skip the check for correct readBack value.
                        1469 --520:                Reason is that in automatic gain control mode the
                        1470 --521:                read back value is the gain set by the SAA71xx device,
                        1471 --522:                not the dummy gain set by register writing.
                        1472 --523:             */
                        1473 --524:             if (R_SAA71xx_REG_CHROMGAINCTL == offset)
                        1474 --line524
                        1475 ..lin.C.3A.5Cgit.5Crh850.5Csrc.5Capp.5Cgfx_apps.5Csimple_draw.5Ctarget.5Cd1mx_mango_ghs.5Cobj.5Csaa71xx_main.27::
                        1476 .LDWlin27:
000001fe 235f0500       1477 	ld.w	4[sp],r11
00000202 6f5a           1478 	cmp	15,r11
00000204 da05*          1479 	bne	.L198
                        1480 --525:             {
                        1481 --526:                 dataBack = data;    /* Skip check, by set dataBack to same than data */
                        1482 --line526
                        1483 ..lin.C.3A.5Cgit.5Crh850.5Csrc.5Capp.5Cgfx_apps.5Csimple_draw.5Ctarget.5Cd1mx_mango_ghs.5Cobj.5Csaa71xx_main.28::
                        1484 .LDWlin28:
00000206 235f0900       1485 	ld.w	8[sp],r11
0000020a 635f0100       1486 	st.w	r11,0[sp]
                        1487 .L198:

                                                                      Page 26
                                                              C:\Users\Frank\AppData\Local\Temp\gh_0000pbg1.si
0000020e 235f0100       1488 	ld.w	0[sp],r11
00000212 23670900       1489 	ld.w	8[sp],r12
00000216 eb61           1490 	cmp	r11,r12
00000218 9add*          1491 	bne	.L199
                        1492 --line504
                        1493 ..lin.C.3A.5Cgit.5Crh850.5Csrc.5Capp.5Cgfx_apps.5Csimple_draw.5Ctarget.5Cd1mx_mango_ghs.5Cobj.5Csaa71xx_main.29::
                        1494 .LDWlin29:
0000021a 41e2           1495 	add	1,r28
                        1496 .L196:
0000021c 1df0           1497 	mov	r29,ep
0000021e fe00           1498 	sxh	ep
00000220 fef60c00       1499 	mulhi	12,ep,ep
00000224 dbf1           1500 	add	r27,ep
00000226 04f5           1501 	sld.w	8[ep],ep
00000228 020d           1502 	sld.w	4[ep],r1
0000022a e1e1           1503 	cmp	r1,r28
0000022c b6b5*          1504 	blt	.L195
                        1505 --527:             }
                        1506 --528:         } while (data != dataBack);
                        1507 --529:     }
                        1508 --530:     return R_SAA71XX_ERR_OK;
                        1509 --line530
                        1510 ..lin.C.3A.5Cgit.5Crh850.5Csrc.5Capp.5Cgfx_apps.5Csimple_draw.5Ctarget.5Cd1mx_mango_ghs.5Cobj.5Csaa71xx_main.30::
                        1511 .LDWlin30:
0000022e 0052           1512 	mov	0,r10
                        1513 .L168:
                        1514 --	    .ef
                        1515 .LDW71:
00000230 4806ff70       1516 	dispose	4,{r25,r26,r27,r28,r29,r31},[lp]
                        1517 	.type	_R_SAA71xx_Init,@function
                        1518 	.size	_R_SAA71xx_Init,.-_R_SAA71xx_Init
                        1519 	.align	2
                        1520 .LDW81:
                        1521 --_err	r26	local
                        1522 --_vmode	12[sp]	local
                        1523 --_i	r28	local
                        1524 --_j	r25	local
                        1525 --_offset	4[sp]	local
                        1526 --_data	8[sp]	local
                        1527 --_dataBack	0[sp]	local
                        1528 
                        1529 --_Unit	r29	param
                        1530 
                        1531 	.section ".bss","awb"
                        1532 .L386:
                        1533 	.type	.L386,@object
                        1534 	.size	.L386,0
                        1535 	.data
                        1536 	.text
                        1537 
                        1538 --531: }
                        1539 
                        1540 --534: /***********************************************************
                        1541 --535:   Function: R_SAA71xx_SwitchChannel
                        1542 --536: */
                        1543 --538: R_SAA71xx_Error_t R_SAA71xx_SwitchChannel(uint32_t Unit, uint32_t Channel)
                        1544 	.align	2
                        1545 	.align	2
                        1546 	.global	_R_SAA71xx_SwitchChannel
                        1547 _R_SAA71xx_SwitchChannel:
00000234 8007e110       1548 	prepare	{r27,r28,r29,r31},0

                                                                      Page 27
                                                              C:\Users\Frank\AppData\Local\Temp\gh_0000pbg1.si
00000238 06e8           1549 	mov	r6,r29
0000023a 07d8           1550 	mov	r7,r27
0000023c 3c0600000000*  1551 	mov	_R_SAA71xx_Dev,r28
                        1552 --	    .bf
                        1553 .LDW91:
                        1554 --539: {
                        1555 --540:     switch(Channel)
00000242 1b08           1556 	mov	r27,r1
00000244 610a           1557 	cmp	1,r1
00000246 c205*          1558 	be	.L525
00000248 620a           1559 	cmp	2,r1
0000024a ca1d*          1560 	bne	.L527
0000024c e50d*          1561 	br	.L526
                        1562 .L525:
                        1563 --541:     {
                        1564 --542:     case 1:
                        1565 --543:         R_SAA71xx_Sys_I2CWrite(Unit, R_SAA71xx_Dev[Unit].Address, 0x2u, 0xc0u);
                        1566 --line543
                        1567 ..lin.C.3A.5Cgit.5Crh850.5Csrc.5Capp.5Cgfx_apps.5Csimple_draw.5Ctarget.5Cd1mx_mango_ghs.5Cobj.5Csaa71xx_main.31::
                        1568 .LDWlin31:
0000024e 1df0           1569 	mov	r29,ep
00000250 fe00           1570 	sxh	ep
00000252 fef60c00       1571 	mulhi	12,ep,ep
00000256 1d30           1572 	mov	r29,r6
00000258 0242           1573 	mov	2,r8
0000025a 204ec000       1574 	movea	192,zero,r9
0000025e dcf1           1575 	add	r28,ep
00000260 023d           1576 	sld.w	4[ep],r7
                        1577 	jarl	_R_SAA71xx_Sys_I2CWrite,lp
                        1577 <EXPANSION BEGIN>
                        1577 jarl22 _R_SAA71xx_Sys_I2CWrite , lp 
00000262 80ff0000*      1577 <EXPANSION END>
                        1578 --line544
                        1579 ..lin.C.3A.5Cgit.5Crh850.5Csrc.5Capp.5Cgfx_apps.5Csimple_draw.5Ctarget.5Cd1mx_mango_ghs.5Cobj.5Csaa71xx_main.32::
                        1580 .LDWlin32:
00000266 8515*          1581 	br	.L523
                        1582 .L526:
                        1583 --544:         break;
                        1584 --545:     case 2:
                        1585 --546:         R_SAA71xx_Sys_I2CWrite(Unit, R_SAA71xx_Dev[Unit].Address, 0x2u, 0xc2u);
                        1586 --line546
                        1587 ..lin.C.3A.5Cgit.5Crh850.5Csrc.5Capp.5Cgfx_apps.5Csimple_draw.5Ctarget.5Cd1mx_mango_ghs.5Cobj.5Csaa71xx_main.33::
                        1588 .LDWlin33:
00000268 1df0           1589 	mov	r29,ep
0000026a fe00           1590 	sxh	ep
0000026c fef60c00       1591 	mulhi	12,ep,ep
00000270 1d30           1592 	mov	r29,r6
00000272 0242           1593 	mov	2,r8
00000274 204ec200       1594 	movea	194,zero,r9
00000278 dcf1           1595 	add	r28,ep
0000027a 023d           1596 	sld.w	4[ep],r7
                        1597 	jarl	_R_SAA71xx_Sys_I2CWrite,lp
                        1597 <EXPANSION BEGIN>
                        1597 jarl22 _R_SAA71xx_Sys_I2CWrite , lp 
0000027c 80ff0000*      1597 <EXPANSION END>
                        1598 --line547
                        1599 ..lin.C.3A.5Cgit.5Crh850.5Csrc.5Capp.5Cgfx_apps.5Csimple_draw.5Ctarget.5Cd1mx_mango_ghs.5Cobj.5Csaa71xx_main.34::
                        1600 .LDWlin34:
00000280 b505*          1601 	br	.L523
                        1602 .L527:
                        1603 --547:         break;

                                                                      Page 28
                                                              C:\Users\Frank\AppData\Local\Temp\gh_0000pbg1.si
                        1604 --548:     default:
                        1605 --549:         return R_SAA71XX_ERR_OK;
                        1606 --line549
                        1607 ..lin.C.3A.5Cgit.5Crh850.5Csrc.5Capp.5Cgfx_apps.5Csimple_draw.5Ctarget.5Cd1mx_mango_ghs.5Cobj.5Csaa71xx_main.35::
                        1608 .LDWlin35:
00000282 0052           1609 	mov	0,r10
00000284 a505*          1610 	br	.L521
                        1611 .L523:
                        1612 --550:     }
                        1613 --551:     return R_SAA71XX_ERR_OK;
                        1614 --line551
                        1615 ..lin.C.3A.5Cgit.5Crh850.5Csrc.5Capp.5Cgfx_apps.5Csimple_draw.5Ctarget.5Cd1mx_mango_ghs.5Cobj.5Csaa71xx_main.36::
                        1616 .LDWlin36:
00000286 0052           1617 	mov	0,r10
                        1618 .L521:
                        1619 --	    .ef
                        1620 .LDW02:
00000288 4006ff10       1621 	dispose	0,{r27,r28,r29,r31},[lp]
                        1622 	.type	_R_SAA71xx_SwitchChannel,@function
                        1623 	.size	_R_SAA71xx_SwitchChannel,.-_R_SAA71xx_SwitchChannel
                        1624 	.align	2
                        1625 .LDW12:
                        1626 
                        1627 --_Unit	r29	param
                        1628 --_Channel	r27	param
                        1629 
                        1630 	.section ".bss","awb"
                        1631 .L566:
                        1632 	.type	.L566,@object
                        1633 	.size	.L566,0
                        1634 	.data
                        1635 	.text
                        1636 
                        1637 --552: }
                        1638 
                        1639 --555: /***********************************************************
                        1640 --556:   Function: R_SAA71xx_GetInfo
                        1641 --557: */
                        1642 --559: R_SAA71xx_Error_t R_SAA71xx_GetInfo(
                        1643 	.align	2
                        1644 	.align	2
                        1645 	.global	_R_SAA71xx_GetInfo
                        1646 _R_SAA71xx_GetInfo:
0000028c 8407e170       1647 	prepare	{r25,r26,r27,r28,r29,r31},2
00000290 06e8           1648 	mov	r6,r29
00000292 07c8           1649 	mov	r7,r25
00000294 3c0600000000*  1650 	mov	_R_SAA71xx_Dev,r28
                        1651 --	    .bf
                        1652 .LDW22:
                        1653 --560:     uint32_t               Unit, 
                        1654 --561:     R_SAA71xx_Info_t *Info) 
                        1655 --562: {
                        1656 --563:     R_SAA71xx_Error_t     err;
                        1657 --564:     uint32_t                i;
                        1658 --565:     uint32_t                j;    
                        1659 --567:     R_SAA71xx_Dev[Unit].Type = R_SAA71XX_NONE;
0000029a 1df0           1660 	mov	r29,ep
0000029c fe00           1661 	sxh	ep
0000029e fef60c00       1662 	mulhi	12,ep,ep
000002a2 200eff00       1663 	movea	255,zero,r1
000002a6 dcf1           1664 	add	r28,ep

                                                                      Page 29
                                                              C:\Users\Frank\AppData\Local\Temp\gh_0000pbg1.si
000002a8 010d           1665 	sst.w	r1,0[ep]
                        1666 --568:     for(i = 0; i < loc_R_SA711xx_ProbeCnt; i++)
000002aa 00da           1667 	mov	0,r27
000002ac 0000           1668 	nop
                        1669 .L607:
                        1670 --569:     {
                        1671 --570:         if (R_SAA71xx_Dev[Unit].Type != R_SAA71XX_NONE)
000002ae 1df0           1672 	mov	r29,ep
000002b0 fe00           1673 	sxh	ep
000002b2 fef60c00       1674 	mulhi	12,ep,ep
000002b6 dcf1           1675 	add	r28,ep
000002b8 000d           1676 	sld.w	0[ep],r1
000002ba 010601ff       1677 	addi	-255,r1,zero
000002be a205*          1678 	be	.L608
                        1679 --571:         {
                        1680 --572:             break;
                        1681 --line572
                        1682 ..lin.C.3A.5Cgit.5Crh850.5Csrc.5Capp.5Cgfx_apps.5Csimple_draw.5Ctarget.5Cd1mx_mango_ghs.5Cobj.5Csaa71xx_main.37::
                        1683 .LDWlin37:
000002c0 c53d*          1684 	br	.L610
                        1685 .L608:
                        1686 --573:         }
                        1687 --574:         R_SAA71xx_Dev[Unit].Current = loc_R_SAA71xx_Probe + i;
                        1688 --line574
                        1689 ..lin.C.3A.5Cgit.5Crh850.5Csrc.5Capp.5Cgfx_apps.5Csimple_draw.5Ctarget.5Cd1mx_mango_ghs.5Cobj.5Csaa71xx_main.38::
                        1690 .LDWlin38:
000002c2 1df0           1691 	mov	r29,ep
000002c4 1b08           1692 	mov	r27,r1
000002c6 fe00           1693 	sxh	ep
000002c8 fef60c00       1694 	mulhi	12,ep,ep
000002cc e100           1695 	sxh	r1
000002ce e10e1400       1696 	mulhi	20,r1,r1
000002d2 2b0600000000*  1697 	mov	_loc_R_SAA71xx_Probe,r11
000002d8 dcf1           1698 	add	r28,ep
000002da cb09           1699 	add	r11,r1
000002dc 050d           1700 	sst.w	r1,8[ep]
                        1701 --575:         for(j = 0; j < 2; j++)
000002de 00d2           1702 	mov	0,r26
000002e0 0000           1703 	nop
                        1704 .L614:
                        1705 --576:         {
                        1706 --577:             R_SAA71xx_Dev[Unit].Address = 
000002e2 1d08           1707 	mov	r29,r1
000002e4 e100           1708 	sxh	r1
000002e6 e10e0c00       1709 	mulhi	12,r1,r1
000002ea 01f0           1710 	mov	r1,ep
000002ec dcf1           1711 	add	r28,ep
000002ee 046d           1712 	sld.w	8[ep],r13
000002f0 dc09           1713 	add	r28,r1
000002f2 1af0           1714 	mov	r26,ep
000002f4 c2f2           1715 	shl	2,ep
000002f6 4c6a           1716 	add	12,r13
000002f8 cdf1           1717 	add	r13,ep
000002fa 0075           1718 	sld.w	0[ep],r14
000002fc 61770500       1719 	st.w	r14,4[r1]
                        1720 --578:                 R_SAA71xx_Dev[Unit].Current->Address[j];
                        1721 --579:             err = R_SAA71xx_Sys_I2CProbe(Unit, R_SAA71xx_Dev[Unit].Address);
00000300 1df0           1722 	mov	r29,ep
00000302 fe00           1723 	sxh	ep
00000304 fef60c00       1724 	mulhi	12,ep,ep
00000308 1d30           1725 	mov	r29,r6

                                                                      Page 30
                                                              C:\Users\Frank\AppData\Local\Temp\gh_0000pbg1.si
0000030a dcf1           1726 	add	r28,ep
0000030c 023d           1727 	sld.w	4[ep],r7
                        1728 	jarl	_R_SAA71xx_Sys_I2CProbe,lp
                        1728 <EXPANSION BEGIN>
                        1728 jarl22 _R_SAA71xx_Sys_I2CProbe , lp 
0000030e 80ff0000*      1728 <EXPANSION END>
00000312 63570100       1729 	st.w	r10,0[sp]
                        1730 --580:             if (err == R_SAA71XX_ERR_OK)
                        1731 --line580
                        1732 ..lin.C.3A.5Cgit.5Crh850.5Csrc.5Capp.5Cgfx_apps.5Csimple_draw.5Ctarget.5Cd1mx_mango_ghs.5Cobj.5Csaa71xx_main.39::
                        1733 .LDWlin39:
00000316 235f0100       1734 	ld.w	0[sp],r11
0000031a e059           1735 	cmp	zero,r11
0000031c 8a0d*          1736 	bne	.L615
                        1737 --581:             {
                        1738 --582:                 R_SAA71xx_Dev[Unit].Type=(R_SAA71xx_Type_t)i;
                        1739 --line582
                        1740 ..lin.C.3A.5Cgit.5Crh850.5Csrc.5Capp.5Cgfx_apps.5Csimple_draw.5Ctarget.5Cd1mx_mango_ghs.5Cobj.5Csaa71xx_main.40::
                        1741 .LDWlin40:
0000031e 1df0           1742 	mov	r29,ep
00000320 fe00           1743 	sxh	ep
00000322 fef60c00       1744 	mulhi	12,ep,ep
00000326 dcf1           1745 	add	r28,ep
00000328 01dd           1746 	sst.w	r27,0[ep]
                        1747 --583:                 break;
0000032a c505*          1748 	br	.L617
                        1749 .L615:
                        1750 --line575
                        1751 ..lin.C.3A.5Cgit.5Crh850.5Csrc.5Capp.5Cgfx_apps.5Csimple_draw.5Ctarget.5Cd1mx_mango_ghs.5Cobj.5Csaa71xx_main.41::
                        1752 .LDWlin41:
0000032c 41d2           1753 	add	1,r26
0000032e 62d2           1754 	cmp	2,r26
00000330 91dd*          1755 	bl	.L614
                        1756 .L617:
                        1757 --line568
                        1758 ..lin.C.3A.5Cgit.5Crh850.5Csrc.5Capp.5Cgfx_apps.5Csimple_draw.5Ctarget.5Cd1mx_mango_ghs.5Cobj.5Csaa71xx_main.42::
                        1759 .LDWlin42:
00000332 41da           1760 	add	1,r27
00000334 62da           1761 	cmp	2,r27
00000336 c1bd*          1762 	bl	.L607
                        1763 .L610:
                        1764 --584:             }
                        1765 --585:         }        
                        1766 --586:     }
                        1767 --587:     if (R_SAA71xx_Dev[Unit].Type == R_SAA71XX_NONE)
                        1768 --line587
                        1769 ..lin.C.3A.5Cgit.5Crh850.5Csrc.5Capp.5Cgfx_apps.5Csimple_draw.5Ctarget.5Cd1mx_mango_ghs.5Cobj.5Csaa71xx_main.43::
                        1770 .LDWlin43:
00000338 1df0           1771 	mov	r29,ep
0000033a fe00           1772 	sxh	ep
0000033c fef60c00       1773 	mulhi	12,ep,ep
00000340 dcf1           1774 	add	r28,ep
00000342 000d           1775 	sld.w	0[ep],r1
00000344 010601ff       1776 	addi	-255,r1,zero
00000348 ba05*          1777 	bne	.L619
                        1778 --588:     {
                        1779 --589:         return R_SAA71XX_ERR_NG;
                        1780 --line589
                        1781 ..lin.C.3A.5Cgit.5Crh850.5Csrc.5Capp.5Cgfx_apps.5Csimple_draw.5Ctarget.5Cd1mx_mango_ghs.5Cobj.5Csaa71xx_main.44::
                        1782 .LDWlin44:
0000034a 0152           1783 	mov	1,r10

                                                                      Page 31
                                                              C:\Users\Frank\AppData\Local\Temp\gh_0000pbg1.si
0000034c 9525*          1784 	br	.L603
                        1785 .L619:
                        1786 --590:     }
                        1787 --591:     Info->Addr = R_SAA71xx_Dev[Unit].Address;
                        1788 --line591
                        1789 ..lin.C.3A.5Cgit.5Crh850.5Csrc.5Capp.5Cgfx_apps.5Csimple_draw.5Ctarget.5Cd1mx_mango_ghs.5Cobj.5Csaa71xx_main.45::
                        1790 .LDWlin45:
0000034e 1df0           1791 	mov	r29,ep
00000350 fe00           1792 	sxh	ep
00000352 fef60c00       1793 	mulhi	12,ep,ep
00000356 dcf1           1794 	add	r28,ep
00000358 020d           1795 	sld.w	4[ep],r1
0000035a 790f0100       1796 	st.w	r1,0[r25]
                        1797 --592:     Info->Type = R_SAA71xx_Dev[Unit].Type;
0000035e 1df0           1798 	mov	r29,ep
00000360 fe00           1799 	sxh	ep
00000362 fef60c00       1800 	mulhi	12,ep,ep
00000366 dcf1           1801 	add	r28,ep
00000368 000d           1802 	sld.w	0[ep],r1
0000036a 790f0500       1803 	st.w	r1,4[r25]
                        1804 --593:     Info->Name = loc_R_SAA71xx_Probe[R_SAA71xx_Dev[Unit].Type].Name;
0000036e 1df0           1805 	mov	r29,ep
00000370 fe00           1806 	sxh	ep
00000372 fef60c00       1807 	mulhi	12,ep,ep
00000376 2b0600000000*  1808 	mov	_loc_R_SAA71xx_Probe,r11
0000037c dcf1           1809 	add	r28,ep
0000037e 000c           1810 	sld.h	0[ep],r1
00000380 e1f61400       1811 	mulhi	20,r1,ep
00000384 cbf1           1812 	add	r11,ep
00000386 040d           1813 	sld.w	8[ep],r1
00000388 790f0900       1814 	st.w	r1,8[r25]
                        1815 --594:     return R_SAA71XX_ERR_OK;
0000038c 0052           1816 	mov	0,r10
                        1817 .L603:
                        1818 --	    .ef
                        1819 .LDW32:
0000038e 4406ff70       1820 	dispose	2,{r25,r26,r27,r28,r29,r31},[lp]
                        1821 	.type	_R_SAA71xx_GetInfo,@function
                        1822 	.size	_R_SAA71xx_GetInfo,.-_R_SAA71xx_GetInfo
                        1823 	.align	2
                        1824 .LDW42:
                        1825 --_err	0[sp]	local
                        1826 --_i	r27	local
                        1827 --_j	r26	local
                        1828 
                        1829 --_Unit	r29	param
                        1830 --_Info	r25	param
                        1831 
                        1832 	.section ".bss","awb"
                        1833 .L726:
                        1834 	.type	.L726,@object
                        1835 	.size	.L726,0
                        1836 	.data
                        1837 	.text
                        1838 
                        1839 --595: }
                        1840 
                        1841 --598: /***********************************************************
                        1842 --599:   Function: R_SAA71xx_Disable
                        1843 --600: */
                        1844 --602: R_SAA71xx_Error_t R_SAA71xx_Disable(uint32_t Unit)

                                                                      Page 32
                                                              C:\Users\Frank\AppData\Local\Temp\gh_0000pbg1.si
                        1845 	.align	2
                        1846 	.align	2
                        1847 	.global	_R_SAA71xx_Disable
                        1848 _R_SAA71xx_Disable:
00000392 8607e100       1849 	prepare	{r28,r29,r31},3
00000396 06e8           1850 	mov	r6,r29
                        1851 --	    .bf
                        1852 .LDW52:
                        1853 --603: {
                        1854 --604:     R_SAA71xx_Error_t err;
                        1855 --605:     R_SAA71xx_Info_t  saa_info;
                        1856 --607:     err = R_SAA71xx_GetInfo(Unit, &saa_info);
00000398 1d30           1857 	mov	r29,r6
0000039a 233e0000       1858 	movea	0,sp,r7
                        1859 	jarl	_R_SAA71xx_GetInfo,lp
                        1859 <EXPANSION BEGIN>
                        1859 jarl22 _R_SAA71xx_GetInfo , lp 
0000039e bfffeefe*      1859 <EXPANSION END>
000003a2 0ae0           1860 	mov	r10,r28
                        1861 --608:     if (err != R_SAA71XX_ERR_OK)
                        1862 --line608
                        1863 ..lin.C.3A.5Cgit.5Crh850.5Csrc.5Capp.5Cgfx_apps.5Csimple_draw.5Ctarget.5Cd1mx_mango_ghs.5Cobj.5Csaa71xx_main.46::
                        1864 .LDWlin46:
000003a4 e0e1           1865 	cmp	zero,r28
000003a6 b205*          1866 	be	.L806
                        1867 --609:     {
                        1868 --610:         return R_SAA71XX_ERR_NG;
                        1869 --line610
                        1870 ..lin.C.3A.5Cgit.5Crh850.5Csrc.5Capp.5Cgfx_apps.5Csimple_draw.5Ctarget.5Cd1mx_mango_ghs.5Cobj.5Csaa71xx_main.47::
                        1871 .LDWlin47:
000003a8 0152           1872 	mov	1,r10
000003aa e51d*          1873 	br	.L804
                        1874 .L806:
                        1875 --611:     }
                        1876 --612:     if (saa_info.Type == R_SAA71XX_7113)
                        1877 --line612
                        1878 ..lin.C.3A.5Cgit.5Crh850.5Csrc.5Capp.5Cgfx_apps.5Csimple_draw.5Ctarget.5Cd1mx_mango_ghs.5Cobj.5Csaa71xx_main.48::
                        1879 .LDWlin48:
000003ac 230f0500       1880 	ld.w	4[sp],r1
000003b0 e009           1881 	cmp	zero,r1
000003b2 ba0d*          1882 	bne	.L809
                        1883 --613:     {
                        1884 --614:         /* stop data on VID from SAA7113 */
                        1885 --615:         R_SAA71xx_Sys_I2CWrite(Unit, saa_info.Addr, 0x11, 0x00);
                        1886 --line615
                        1887 ..lin.C.3A.5Cgit.5Crh850.5Csrc.5Capp.5Cgfx_apps.5Csimple_draw.5Ctarget.5Cd1mx_mango_ghs.5Cobj.5Csaa71xx_main.49::
                        1888 .LDWlin49:
000003b4 233f0100       1889 	ld.w	0[sp],r7
000003b8 1d30           1890 	mov	r29,r6
000003ba 20461100       1891 	movea	17,zero,r8
000003be 004a           1892 	mov	0,r9
                        1893 	jarl	_R_SAA71xx_Sys_I2CWrite,lp
                        1893 <EXPANSION BEGIN>
                        1893 jarl22 _R_SAA71xx_Sys_I2CWrite , lp 
000003c0 80ff0000*      1893 <EXPANSION END>
                        1894 --616:         return R_SAA71XX_ERR_OK;
                        1895 --line616
                        1896 ..lin.C.3A.5Cgit.5Crh850.5Csrc.5Capp.5Cgfx_apps.5Csimple_draw.5Ctarget.5Cd1mx_mango_ghs.5Cobj.5Csaa71xx_main.50::
                        1897 .LDWlin50:
000003c4 0052           1898 	mov	0,r10
000003c6 8515*          1899 	br	.L804

                                                                      Page 33
                                                              C:\Users\Frank\AppData\Local\Temp\gh_0000pbg1.si
                        1900 .L809:
                        1901 --617:     }
                        1902 --618:     if (saa_info.Type == R_SAA71XX_7118)
                        1903 --line618
                        1904 ..lin.C.3A.5Cgit.5Crh850.5Csrc.5Capp.5Cgfx_apps.5Csimple_draw.5Ctarget.5Cd1mx_mango_ghs.5Cobj.5Csaa71xx_main.51::
                        1905 .LDWlin51:
000003c8 230f0500       1906 	ld.w	4[sp],r1
000003cc 610a           1907 	cmp	1,r1
000003ce ba0d*          1908 	bne	.L812
                        1909 --619:     {
                        1910 --620:         /* stop data on VID from SAA7118 */
                        1911 --621:         R_SAA71xx_Sys_I2CWrite(Unit, saa_info.Addr, 0x88, 0x00);
                        1912 --line621
                        1913 ..lin.C.3A.5Cgit.5Crh850.5Csrc.5Capp.5Cgfx_apps.5Csimple_draw.5Ctarget.5Cd1mx_mango_ghs.5Cobj.5Csaa71xx_main.52::
                        1914 .LDWlin52:
000003d0 233f0100       1915 	ld.w	0[sp],r7
000003d4 1d30           1916 	mov	r29,r6
000003d6 20468800       1917 	movea	136,zero,r8
000003da 004a           1918 	mov	0,r9
                        1919 	jarl	_R_SAA71xx_Sys_I2CWrite,lp
                        1919 <EXPANSION BEGIN>
                        1919 jarl22 _R_SAA71xx_Sys_I2CWrite , lp 
000003dc 80ff0000*      1919 <EXPANSION END>
                        1920 --622:         return R_SAA71XX_ERR_OK;
                        1921 --line622
                        1922 ..lin.C.3A.5Cgit.5Crh850.5Csrc.5Capp.5Cgfx_apps.5Csimple_draw.5Ctarget.5Cd1mx_mango_ghs.5Cobj.5Csaa71xx_main.53::
                        1923 .LDWlin53:
000003e0 0052           1924 	mov	0,r10
000003e2 a505*          1925 	br	.L804
                        1926 .L812:
                        1927 --623:     }
                        1928 --624:     return R_SAA71XX_ERR_NG;
                        1929 --line624
                        1930 ..lin.C.3A.5Cgit.5Crh850.5Csrc.5Capp.5Cgfx_apps.5Csimple_draw.5Ctarget.5Cd1mx_mango_ghs.5Cobj.5Csaa71xx_main.54::
                        1931 .LDWlin54:
000003e4 0152           1932 	mov	1,r10
                        1933 .L804:
                        1934 --	    .ef
                        1935 .LDW62:
000003e6 4606ff00       1936 	dispose	3,{r28,r29,r31},[lp]
                        1937 	.type	_R_SAA71xx_Disable,@function
                        1938 	.size	_R_SAA71xx_Disable,.-_R_SAA71xx_Disable
                        1939 	.align	2
                        1940 .LDW72:
                        1941 --_err	r28	local
                        1942 --_saa_info	0[sp]	local
                        1943 
                        1944 --_Unit	r29	param
                        1945 
                        1946 	.section ".bss","awb"
                        1947 .L866:
                        1948 	.type	.L866,@object
                        1949 	.size	.L866,0
                        1950 	.data
                        1951 	.text
                        1952 
                        1953 --625: }
                        1954 
                        1955 --628: /***********************************************************
                        1956 --629:   Function: R_SAA71xx_DeInit
                        1957 --630: */

                                                                      Page 34
                                                              C:\Users\Frank\AppData\Local\Temp\gh_0000pbg1.si
                        1958 --632: R_SAA71xx_Error_t R_SAA71xx_DeInit(uint32_t Unit)
                        1959 	.align	2
                        1960 	.align	2
                        1961 	.global	_R_SAA71xx_DeInit
                        1962 _R_SAA71xx_DeInit:
000003ea 8007e100       1963 	prepare	{r28,r29,r31},0
000003ee 06e0           1964 	mov	r6,r28
                        1965 --	    .bf
                        1966 .LDW82:
                        1967 --633: {
                        1968 --634:     R_SAA71xx_Error_t err;
                        1969 --635:     
                        1970 --636:     err = R_SAA71xx_Sys_PortDeInit(Unit);
000003f0 1c30           1971 	mov	r28,r6
                        1972 	jarl	_R_SAA71xx_Sys_PortDeInit,lp
                        1972 <EXPANSION BEGIN>
                        1972 jarl22 _R_SAA71xx_Sys_PortDeInit , lp 
000003f2 80ff0000*      1972 <EXPANSION END>
000003f6 0ae8           1973 	mov	r10,r29
                        1974 --637:     if (err)
                        1975 --line637
                        1976 ..lin.C.3A.5Cgit.5Crh850.5Csrc.5Capp.5Cgfx_apps.5Csimple_draw.5Ctarget.5Cd1mx_mango_ghs.5Cobj.5Csaa71xx_main.55::
                        1977 .LDWlin55:
000003f8 e0e9           1978 	cmp	zero,r29
000003fa f205*          1979 	be	.L907
                        1980 --638:     {
                        1981 --639:         R_SAA71xx_ErrorHandler(Unit, R_SAA71XX_ERR_PORTINIT);
                        1982 --line639
                        1983 ..lin.C.3A.5Cgit.5Crh850.5Csrc.5Capp.5Cgfx_apps.5Csimple_draw.5Ctarget.5Cd1mx_mango_ghs.5Cobj.5Csaa71xx_main.56::
                        1984 .LDWlin56:
000003fc 1c30           1985 	mov	r28,r6
000003fe 023a           1986 	mov	2,r7
                        1987 	jarl	_R_SAA71xx_ErrorHandler,lp
                        1987 <EXPANSION BEGIN>
                        1987 jarl22 _R_SAA71xx_ErrorHandler , lp 
00000400 bfff00fc*      1987 <EXPANSION END>
                        1988 --640:         return err;
                        1989 --line640
                        1990 ..lin.C.3A.5Cgit.5Crh850.5Csrc.5Capp.5Cgfx_apps.5Csimple_draw.5Ctarget.5Cd1mx_mango_ghs.5Cobj.5Csaa71xx_main.57::
                        1991 .LDWlin57:
00000404 1d50           1992 	mov	r29,r10
00000406 a505*          1993 	br	.L905
                        1994 .L907:
                        1995 --641:     }
                        1996 --642:     return R_SAA71XX_ERR_OK;
                        1997 --line642
                        1998 ..lin.C.3A.5Cgit.5Crh850.5Csrc.5Capp.5Cgfx_apps.5Csimple_draw.5Ctarget.5Cd1mx_mango_ghs.5Cobj.5Csaa71xx_main.58::
                        1999 .LDWlin58:
00000408 0052           2000 	mov	0,r10
                        2001 .L905:
                        2002 --	    .ef
                        2003 .LDW92:
0000040a 4006ff00       2004 	dispose	0,{r28,r29,r31},[lp]
                        2005 	.type	_R_SAA71xx_DeInit,@function
                        2006 	.size	_R_SAA71xx_DeInit,.-_R_SAA71xx_DeInit
                        2007 	.align	2
                        2008 .LDW03:
                        2009 --_err	r29	local
                        2010 
                        2011 --_Unit	r28	param
                        2012 

                                                                      Page 35
                                                              C:\Users\Frank\AppData\Local\Temp\gh_0000pbg1.si
                        2013 	.section ".bss","awb"
                        2014 .L942:
                        2015 	.type	.L942,@object
                        2016 	.size	.L942,0
                        2017 	.data
                        2018 	.text
                        2019 
                        2020 --643: }
                        2021 
                        2022 --645: /***********************************************************
                        2023 --646:   Function: R_SAA71xx_SetErrorCallback
                        2024 --647: */
                        2025 --649: void R_SAA71xx_SetErrorCallback(void (*ErrorCallback)(uint32_t Unit, uint32_t Error))
                        2026 	.align	2
                        2027 	.align	2
                        2028 	.global	_R_SAA71xx_SetErrorCallback
                        2029 _R_SAA71xx_SetErrorCallback:
0000040e 0670           2030 	mov	r6,r14
00000410 210600000000*  2031 	mov	__UserErrorHandler,r1
                        2032 --	    .bf
                        2033 .LDW13:
                        2034 --650: {
                        2035 --651:     _UserErrorHandler    = ErrorCallback; 
00000416 2b0600000000*  2036 	mov	__UserErrorHandler,r11
0000041c 6b770100       2037 	st.w	r14,0[r11]
                        2038 --652: }
                        2039 --	    .ef
                        2040 .LDW23:
00000420 7f00           2041 	jmp	[lp]
                        2042 	.type	_R_SAA71xx_SetErrorCallback,@function
                        2043 	.size	_R_SAA71xx_SetErrorCallback,.-_R_SAA71xx_SetErrorCallback
                        2044 	.align	2
                        2045 .LDW33:
                        2046 
                        2047 --_ErrorCallback	r14	param
                        2048 
                        2049 	.data
                        2050 	.text
                        2051 
                        2052 	.align	2
                        2053 --_loc_R_SAA7113_InitCVBS	_loc_R_SAA7113_InitCVBS	static
                        2054 --_loc_R_SAA7113_InitSVIDEO	_loc_R_SAA7113_InitSVIDEO	static
                        2055 --_loc_R_SAA7118_InitCVBS	_loc_R_SAA7118_InitCVBS	static
                        2056 --_loc_R_SAA7118_InitSVIDEO	_loc_R_SAA7118_InitSVIDEO	static
                        2057 --_loc_R_SAA71xx_Probe	_loc_R_SAA71xx_Probe	static
                        2058 --__UserErrorHandler	__UserErrorHandler	static
                        2059 
                        2060 	.data
                        2061 	.section ".bss","awb"
                        2062 	.align	4
                        2063 	.align	4
                        2064 	.global	_R_SAA71xx_Dev
00000000 000000000000   2065 _R_SAA71xx_Dev:	.space	12
00000006 000000000000 
                        2066 	.type	_R_SAA71xx_Dev,@object
                        2067 	.size	_R_SAA71xx_Dev,12
                        2068 	.data
                        2069 	.ghsnote version,15
                        2070 	.ghsnote tools,3
                        2071 	.ghsnote options,144
                        2072 	.text

                                                                      Page 36
                                                              C:\Users\Frank\AppData\Local\Temp\gh_0000pbg1.si
                        2073 	.align	2
                        2074 ..eof.C.3A.5Cgit.5Crh850.5Csrc.5Capp.5Cgfx_apps.5Csimple_draw.5Ctarget.5Cd1mx_mango_ghs.5Cobj.5Csaa71xx_main...43.3A.5Cgit.5Crh850.5Csrc.5Capp.5Cgfx_apps.5Csimple_draw.5Ctarget.5Cd1mx_mango_ghs..5BC5D025..0::
                        2075 .rh850_flags REGMODE22,DATA_ALIGN8,GP_FIX,EP_NONFIX,TP_FIX,REG2_RESERVE,G3M
