                                                                      Page 1
                                                              C:\Users\Frank\AppData\Local\Temp\gh_00003so1.si
Command Line: C:\GHS\V800.V2014.1.7\comp_201417\ease850.exe -w -elf -b0 -I../../../../../app/common/dhd -I../../../../../app/gfx_apps/simple_draw/src -I../../../../../app/gfx_apps/simple_draw/lib -I../../../../../bsp/board//config -I../../../../../bsp/board//src/gfx -I../../../../../bsp/board//src/hmi -I../../../../../bsp/board//src/stdio -I../../../../../bsp/board/d1mx_mango/config -I../../../../../bsp/board/d1mx_mango/src -I../../../../../bsp/board/d1mx_mango/src/gfx -I../../../../../bsp/board/d1mx_mango/src/hmi -I../../../../../bsp/board/d1mx_mango/src/stdio -I../../../../../bsp/gfx/lib -I../../../../../bsp/gfx/src -I../../../../../bsp/hmi/lib -I../../../../../bsp/hmi/src -I../../../../../bsp/lib -I../../../../../bsp/stdio/lib -I../../../../../bsp/stdio/src -I../../../../../cdi/lib -I../../../../../cdi/src -I../../../../../compiler/rh850_ghs/inc -I../../../../../device/d1mx/lib -I../../../../../device/d1mx/macro_cfg -I../../../../../device/d1mx/macro_cfg/csisw -I../../../../../device/d1mx/macro_cfg/davehd -I../../../../../device/d1mx/macro_cfg/ddb -I../../../../../device/d1mx/macro_cfg/drw2d -I../../../../../device/d1mx/macro_cfg/gfxbus -I../../../../../device/d1mx/macro_cfg/gpio -I../../../../../device/d1mx/macro_cfg/hypb -I../../../../../device/d1mx/macro_cfg/hypdb -I../../../../../device/d1mx/macro_cfg/jcua -I../../../../../device/d1mx/macro_cfg/nfmabare -I../../../../../device/d1mx/macro_cfg/octa -I../../../../../device/d1mx/macro_cfg/octacdb -I../../../../../device/d1mx/macro_cfg/ostm -I../../../../../device/d1mx/macro_cfg/pbg -I../../../../../device/d1mx/macro_cfg/riic -I../../../../../device/d1mx/macro_cfg/sfcdb -I../../../../../device/d1mx/macro_cfg/sfma -I../../../../../device/d1mx/macro_cfg/spea -I../../../../../device/d1mx/macro_cfg/tauj -I../../../../../device/d1mx/macro_cfg/tick -I../../../../../device/d1mx/macro_cfg/vdce -I../../../../../device/d1mx/macro_cfg/vowe -I../../../../../device/d1mx/macro_cfg/wm -I../../../../../device/d1mx/macro_cfg/xbus -I../../../../../device/d1mx/src/dev -I../../../../../device/d1mx/src/dhd -I../../../../../device/d1mx/src/hypb -I../../../../../device/d1mx/src/jcua -I../../../../../device/d1mx/src/nfmabare -I../../../../../device/d1mx/src/octa -I../../../../../device/d1mx/src/rh850_ghs -I../../../../../device/d1mx/src/vowe -I../../../../../device/d1x_common/macro_cfg -I../../../../../device/d1x_common/macro_cfg/csisw -I../../../../../device/d1x_common/macro_cfg/davehd -I../../../../../device/d1x_common/macro_cfg/ddb -I../../../../../device/d1x_common/macro_cfg/drw2d -I../../../../../device/d1x_common/macro_cfg/gfxbus -I../../../../../device/d1x_common/macro_cfg/gpio -I../../../../../device/d1x_common/macro_cfg/hypb -I../../../../../device/d1x_common/macro_cfg/hypdb -I../../../../../device/d1x_common/macro_cfg/jcua -I../../../../../device/d1x_common/macro_cfg/nfmabare -I../../../../../device/d1x_common/macro_cfg/octa -I../../../../../device/d1x_common/macro_cfg/octacdb -I../../../../../device/d1x_common/macro_cfg/ostm -I../../../../../device/d1x_common/macro_cfg/pbg -I../../../../../device/d1x_common/macro_cfg/riic -I../../../../../device/d1x_common/macro_cfg/sfcdb -I../../../../../device/d1x_common/macro_cfg/sfma -I../../../../../device/d1x_common/macro_cfg/spea -I../../../../../device/d1x_common/macro_cfg/tauj -I../../../../../device/d1x_common/macro_cfg/tick -I../../../../../device/d1x_common/macro_cfg/vdce -I../../../../../device/d1x_common/macro_cfg/vowe -I../../../../../device/d1x_common/macro_cfg/wm -I../../../../../device/d1x_common/macro_cfg/xbus -I../../../../../device/d1x_common/src/csisw -I../../../../../device/d1x_common/src/ddb -I../../../../../device/d1x_common/src/dev -I../../../../../device/d1x_common/src/gfxbus -I../../../../../device/d1x_common/src/gpio -I../../../../../device/d1x_common/src/ostm -I../../../../../device/d1x_common/src/pbg -I../../../../../device/d1x_common/src/riic -I../../../../../device/d1x_common/src/sfma -I../../../../../device/d1x_common/src/spea -I../../../../../device/d1x_common/src/tauj -I../../../../../device/d1x_common/src/tick -I../../../../../device/d1x_common/src/vdce -I../../../../../device/d1x_common/src/wm -I../../../../../device/d1x_common/src/xbus -I../../../../../device/lib -I../../../../../macro/bus/pbg/lib -I../../../../../macro/bus/pbg/src -I../../../../../macro/csi/csisw/lib -I../../../../../macro/csi/csisw/src -I../../../../../macro/drw2d/lib -I../../../../../macro/drw2d/platform/davehd -I../../../../../macro/drw2d/platform/os/no_os -I../../../../../macro/drw2d/src -I../../../../../macro/flashc/hypb/lib -I../../../../../macro/flashc/hypb/src -I../../../../../macro/flashc/hypdb/lib -I../../../../../macro/flashc/hypdb/src -I../../../../../macro/flashc/nfmabare/lib -I../../../../../macro/flashc/nfmabare/src -I../../../../../macro/flashc/octa/lib -I../../../../../macro/flashc/octa/src -I../../../../../macro/flashc/octacdb/lib -I../../../../../macro/flashc/octacdb/src -I../../../../../macro/flashc/sfcdb/lib -I../../../../../macro/flashc/sfcdb/src -I../../../../../macro/flashc/sfma/lib -I../../../../../macro/flashc/sfma/src -I../../../../../macro/gfxbus/lib -I../../../../../macro/gfxbus/src -I../../../../../macro/gfxbus/xbus/lib -I../../../../../macro/gfxbus/xbus/src -I../../../../../macro/gpio/lib -I../../../../../macro/gpio/src -I../../../../../macro/gpu/davehd/common/inc -I../../../../../macro/gpu/davehd/common/inc/platform -I../../../../../macro/gpu/davehd/common/inc/platform/d1mx -I../../../../../macro/gpu/davehd/docs -I../../../../../macro/gpu/davehd/kernel/inc -I../../../../../macro/gpu/davehd/kernel/platform/d1mx -I../../../../../macro/gpu/davehd/kernel/platform/d1mx/bridge -I../../../../../macro/gpu/davehd/kernel/platform/d1mx/non_threaded -I../../../../../macro/gpu/davehd/kernel/platform/ree -I../../../../../macro/gpu/davehd/kernel/src -I../../../../../macro/gpu/davehd/user/inc -I../../../../../macro/gpu/davehd/user/platform/d1mx/no_os -I../../../../../macro/gpu/davehd/user/src -I../../../../../macro/gpu/jcua/lib -I../../../../../macro/gpu/jcua/src -I../../../../../macro/i2c/riic/lib -I../../../../../macro/i2c/riic/src -I../../../../../macro/tick/lib -I../../../../../macro/tick/src -I../../../../../macro/timer/ostm/lib -I../../../../../macro/timer/ostm/src -I../../../../../macro/timer/tauj/lib -I../../../../../macro/timer/tauj/src -I../../../../../macro/vdce/lib -I../../../../../macro/vdce/src -I../../../../../macro/vo/ddb/lib -I../../../../../macro/vo/ddb/src -I../../../../../macro/vo/spea/lib -I../../../../../macro/vo/spea/src -I../../../../../macro/vo/vowe/lib -I../../../../../macro/vo/vowe/src -I../../../../../macro/wm/lib -I../../../../../macro/wm/src -I../../../../../macro/pwm/lib -I../../../../../macro/reset/lib -I../../../../../macro/rscan/lib -I../../../../../macro/uart/rlin3/lib -I../../../../../macro/uart/rlin3/src -I../../../../../device/d1x_common/macro_cfg/rlin3 -I../../../../../macro/stbc/lib -I../../../../../macro/adc/lib -I../../../../../device/d1x_common/macro_cfg/adc7010 -IC:\GHS\V800.V2014.1.7\comp_201417\lib\rh850_22 -cg_underscore -cpu=rh850g3m -no_v850_simd -rh850_fpsimd=none -nomacro -patch_dbo=C:\git\rh850\src\app\gfx_apps\simple_draw\target\d1mx_mango_ghs\obj\w_cluster_task.dbo -source=w_cluster_task.c -o .\obj\gh_00003so1.o -list=.\obj\w_cluster_task.lst C:\Users\Frank\AppData\Local\Temp\gh_00003so1.si 
Original File: C:\Users\Frank\AppData\Local\Temp\gh_00003so1.si
Source File: w_cluster_task.c
Directory: C:\git\rh850\src\app\gfx_apps\simple_draw\target\d1mx_mango_ghs
Host OS: Windows
EASE: Copyright (C) 1983-2014 Green Hills Software.  All Rights Reversed.
Release: Compiler v2014.1.7
Build Directory: [Directory] BTOWINBOX:c:/build_2014_1_bto/2014-09-04.2200-2014_1_bto/win32-comp-ecom
Revision: [VCInfo] http://toolsvc/branches/release-branch-2014-1-bto/src@515859 (built by build)
Revision Date: Fri Sep 05 14:05:06 2014

Release Date: Fri Sep 05 14:43:29 2014

                           1 --Driver Command: ccv850 -c -MD -I../../../../../app/common/dhd
                           2 --		-I../../../../../app/gfx_apps/simple_draw/src
                           3 --		-I../../../../../app/gfx_apps/simple_draw/lib
                           4 --		-I../../../../../bsp/board//config
                           5 --		-I../../../../../bsp/board//src/gfx
                           6 --		-I../../../../../bsp/board//src/hmi
                           7 --		-I../../../../../bsp/board//src/stdio
                           8 --		-I../../../../../bsp/board/d1mx_mango/config
                           9 --		-I../../../../../bsp/board/d1mx_mango/src
                          10 --		-I../../../../../bsp/board/d1mx_mango/src/gfx
                          11 --		-I../../../../../bsp/board/d1mx_mango/src/hmi
                          12 --		-I../../../../../bsp/board/d1mx_mango/src/stdio
                          13 --		-I../../../../../bsp/gfx/lib -I../../../../../bsp/gfx/src
                          14 --		-I../../../../../bsp/hmi/lib -I../../../../../bsp/hmi/src
                          15 --		-I../../../../../bsp/lib -I../../../../../bsp/stdio/lib
                          16 --		-I../../../../../bsp/stdio/src -I../../../../../cdi/lib
                          17 --		-I../../../../../cdi/src -I../../../../../compiler/rh850_ghs/inc
                          18 --		-I../../../../../device/d1mx/lib
                          19 --		-I../../../../../device/d1mx/macro_cfg
                          20 --		-I../../../../../device/d1mx/macro_cfg/csisw
                          21 --		-I../../../../../device/d1mx/macro_cfg/davehd
                          22 --		-I../../../../../device/d1mx/macro_cfg/ddb
                          23 --		-I../../../../../device/d1mx/macro_cfg/drw2d
                          24 --		-I../../../../../device/d1mx/macro_cfg/gfxbus
                          25 --		-I../../../../../device/d1mx/macro_cfg/gpio
                          26 --		-I../../../../../device/d1mx/macro_cfg/hypb
                          27 --		-I../../../../../device/d1mx/macro_cfg/hypdb
                          28 --		-I../../../../../device/d1mx/macro_cfg/jcua
                          29 --		-I../../../../../device/d1mx/macro_cfg/nfmabare
                          30 --		-I../../../../../device/d1mx/macro_cfg/octa
                          31 --		-I../../../../../device/d1mx/macro_cfg/octacdb
                          32 --		-I../../../../../device/d1mx/macro_cfg/ostm
                          33 --		-I../../../../../device/d1mx/macro_cfg/pbg
                          34 --		-I../../../../../device/d1mx/macro_cfg/riic
                          35 --		-I../../../../../device/d1mx/macro_cfg/sfcdb
                          36 --		-I../../../../../device/d1mx/macro_cfg/sfma
                          37 --		-I../../../../../device/d1mx/macro_cfg/spea
                          38 --		-I../../../../../device/d1mx/macro_cfg/tauj
                          39 --		-I../../../../../device/d1mx/macro_cfg/tick
                          40 --		-I../../../../../device/d1mx/macro_cfg/vdce
                          41 --		-I../../../../../device/d1mx/macro_cfg/vowe
                          42 --		-I../../../../../device/d1mx/macro_cfg/wm
                          43 --		-I../../../../../device/d1mx/macro_cfg/xbus
                          44 --		-I../../../../../device/d1mx/src/dev
                          45 --		-I../../../../../device/d1mx/src/dhd
                          46 --		-I../../../../../device/d1mx/src/hypb
                          47 --		-I../../../../../device/d1mx/src/jcua
                          48 --		-I../../../../../device/d1mx/src/nfmabare
                          49 --		-I../../../../../device/d1mx/src/octa
                          50 --		-I../../../../../device/d1mx/src/rh850_ghs

                                                                      Page 2
                                                              C:\Users\Frank\AppData\Local\Temp\gh_00003so1.si
                          51 --		-I../../../../../device/d1mx/src/vowe
                          52 --		-I../../../../../device/d1x_common/macro_cfg
                          53 --		-I../../../../../device/d1x_common/macro_cfg/csisw
                          54 --		-I../../../../../device/d1x_common/macro_cfg/davehd
                          55 --		-I../../../../../device/d1x_common/macro_cfg/ddb
                          56 --		-I../../../../../device/d1x_common/macro_cfg/drw2d
                          57 --		-I../../../../../device/d1x_common/macro_cfg/gfxbus
                          58 --		-I../../../../../device/d1x_common/macro_cfg/gpio
                          59 --		-I../../../../../device/d1x_common/macro_cfg/hypb
                          60 --		-I../../../../../device/d1x_common/macro_cfg/hypdb
                          61 --		-I../../../../../device/d1x_common/macro_cfg/jcua
                          62 --		-I../../../../../device/d1x_common/macro_cfg/nfmabare
                          63 --		-I../../../../../device/d1x_common/macro_cfg/octa
                          64 --		-I../../../../../device/d1x_common/macro_cfg/octacdb
                          65 --		-I../../../../../device/d1x_common/macro_cfg/ostm
                          66 --		-I../../../../../device/d1x_common/macro_cfg/pbg
                          67 --		-I../../../../../device/d1x_common/macro_cfg/riic
                          68 --		-I../../../../../device/d1x_common/macro_cfg/sfcdb
                          69 --		-I../../../../../device/d1x_common/macro_cfg/sfma
                          70 --		-I../../../../../device/d1x_common/macro_cfg/spea
                          71 --		-I../../../../../device/d1x_common/macro_cfg/tauj
                          72 --		-I../../../../../device/d1x_common/macro_cfg/tick
                          73 --		-I../../../../../device/d1x_common/macro_cfg/vdce
                          74 --		-I../../../../../device/d1x_common/macro_cfg/vowe
                          75 --		-I../../../../../device/d1x_common/macro_cfg/wm
                          76 --		-I../../../../../device/d1x_common/macro_cfg/xbus
                          77 --		-I../../../../../device/d1x_common/src/csisw
                          78 --		-I../../../../../device/d1x_common/src/ddb
                          79 --		-I../../../../../device/d1x_common/src/dev
                          80 --		-I../../../../../device/d1x_common/src/gfxbus
                          81 --		-I../../../../../device/d1x_common/src/gpio
                          82 --		-I../../../../../device/d1x_common/src/ostm
                          83 --		-I../../../../../device/d1x_common/src/pbg
                          84 --		-I../../../../../device/d1x_common/src/riic
                          85 --		-I../../../../../device/d1x_common/src/sfma
                          86 --		-I../../../../../device/d1x_common/src/spea
                          87 --		-I../../../../../device/d1x_common/src/tauj
                          88 --		-I../../../../../device/d1x_common/src/tick
                          89 --		-I../../../../../device/d1x_common/src/vdce
                          90 --		-I../../../../../device/d1x_common/src/wm
                          91 --		-I../../../../../device/d1x_common/src/xbus
                          92 --		-I../../../../../device/lib -I../../../../../macro/bus/pbg/lib
                          93 --		-I../../../../../macro/bus/pbg/src
                          94 --		-I../../../../../macro/csi/csisw/lib
                          95 --		-I../../../../../macro/csi/csisw/src
                          96 --		-I../../../../../macro/drw2d/lib
                          97 --		-I../../../../../macro/drw2d/platform/davehd
                          98 --		-I../../../../../macro/drw2d/platform/os/no_os
                          99 --		-I../../../../../macro/drw2d/src
                         100 --		-I../../../../../macro/flashc/hypb/lib
                         101 --		-I../../../../../macro/flashc/hypb/src
                         102 --		-I../../../../../macro/flashc/hypdb/lib
                         103 --		-I../../../../../macro/flashc/hypdb/src
                         104 --		-I../../../../../macro/flashc/nfmabare/lib
                         105 --		-I../../../../../macro/flashc/nfmabare/src
                         106 --		-I../../../../../macro/flashc/octa/lib
                         107 --		-I../../../../../macro/flashc/octa/src
                         108 --		-I../../../../../macro/flashc/octacdb/lib
                         109 --		-I../../../../../macro/flashc/octacdb/src
                         110 --		-I../../../../../macro/flashc/sfcdb/lib
                         111 --		-I../../../../../macro/flashc/sfcdb/src

                                                                      Page 3
                                                              C:\Users\Frank\AppData\Local\Temp\gh_00003so1.si
                         112 --		-I../../../../../macro/flashc/sfma/lib
                         113 --		-I../../../../../macro/flashc/sfma/src
                         114 --		-I../../../../../macro/gfxbus/lib
                         115 --		-I../../../../../macro/gfxbus/src
                         116 --		-I../../../../../macro/gfxbus/xbus/lib
                         117 --		-I../../../../../macro/gfxbus/xbus/src
                         118 --		-I../../../../../macro/gpio/lib -I../../../../../macro/gpio/src
                         119 --		-I../../../../../macro/gpu/davehd/common/inc
                         120 --		-I../../../../../macro/gpu/davehd/common/inc/platform
                         121 --		-I../../../../../macro/gpu/davehd/common/inc/platform/d1mx
                         122 --		-I../../../../../macro/gpu/davehd/docs
                         123 --		-I../../../../../macro/gpu/davehd/kernel/inc
                         124 --		-I../../../../../macro/gpu/davehd/kernel/platform/d1mx
                         125 --		-I../../../../../macro/gpu/davehd/kernel/platform/d1mx/bridge
                         126 --		-I../../../../../macro/gpu/davehd/kernel/platform/d1mx/non_threaded
                         127 --		-I../../../../../macro/gpu/davehd/kernel/platform/ree
                         128 --		-I../../../../../macro/gpu/davehd/kernel/src
                         129 --		-I../../../../../macro/gpu/davehd/user/inc
                         130 --		-I../../../../../macro/gpu/davehd/user/platform/d1mx/no_os
                         131 --		-I../../../../../macro/gpu/davehd/user/src
                         132 --		-I../../../../../macro/gpu/jcua/lib
                         133 --		-I../../../../../macro/gpu/jcua/src
                         134 --		-I../../../../../macro/i2c/riic/lib
                         135 --		-I../../../../../macro/i2c/riic/src
                         136 --		-I../../../../../macro/tick/lib -I../../../../../macro/tick/src
                         137 --		-I../../../../../macro/timer/ostm/lib
                         138 --		-I../../../../../macro/timer/ostm/src
                         139 --		-I../../../../../macro/timer/tauj/lib
                         140 --		-I../../../../../macro/timer/tauj/src
                         141 --		-I../../../../../macro/vdce/lib -I../../../../../macro/vdce/src
                         142 --		-I../../../../../macro/vo/ddb/lib
                         143 --		-I../../../../../macro/vo/ddb/src
                         144 --		-I../../../../../macro/vo/spea/lib
                         145 --		-I../../../../../macro/vo/spea/src
                         146 --		-I../../../../../macro/vo/vowe/lib
                         147 --		-I../../../../../macro/vo/vowe/src -I../../../../../macro/wm/lib
                         148 --		-I../../../../../macro/wm/src -I../../../../../macro/pwm/lib
                         149 --		-I../../../../../macro/i2c/riic/lib
                         150 --		-I../../../../../macro/reset/lib -I../../../../../macro/rscan/lib
                         151 --		-I../../../../../macro/uart/rlin3/lib
                         152 --		-I../../../../../macro/uart/rlin3/src
                         153 --		-I../../../../../device/d1x_common/macro_cfg/rlin3
                         154 --		-I../../../../../macro/stbc/lib
                         155 --		-I../../../../../app/gfx_apps/simple_draw/lib
                         156 --		-I../../../../../macro/adc/lib
                         157 --		-I../../../../../device/d1x_common/macro_cfg/adc7010 -G
                         158 --		--no_commons --no_implicit_include --prototype_errors
                         159 --		-DRENESAS_D1X -DR_DRW2D_OS_NO_OS -DR_DRW2D_SYS_DHD
                         160 --		-DUSED_CPU=RH850G3M -DUSE_BSP_GFX -DUSE_BSP_HMI -DUSE_BSP_STDIO
                         161 --		-DUSE_CDI -DUSE_CSISW -DUSE_DAVEHD -DUSE_DDB -DUSE_DRW2D
                         162 --		-DUSE_GFXBUS -DUSE_GPIO -DUSE_HYPB -DUSE_HYPDB -DUSE_JCUA
                         163 --		-DUSE_NFMABARE -DUSE_OCTA -DUSE_OCTACDB -DUSE_OSTM -DUSE_PBG
                         164 --		-DUSE_RIIC -DUSE_SFCDB -DUSE_SFMA -DUSE_SPEA -DUSE_TAUJ
                         165 --		-DUSE_TICK -DUSE_VDCE -DUSE_WM -DUSE_XBUS -DMAG -MD -Zuse1bit
                         166 --		-allocate_ep -cpu=rh850g3m -large_sda -list -no_callt -notda
                         167 --		-passsource -preprocess_assembly_files -registermode=22
                         168 --		-reserve_r2 --diag_warning 1 -object_dir=./obj -DUSE_VDCE_OPENLDI
                         169 --		-gnu99 -filetype.c
                         170 --		..\..\..\..\gfx_apps\simple_draw\src\w_cluster_task.c -o
                         171 --		.\obj\w_cluster_task.o
                         172 --Source File:   ..\..\..\..\gfx_apps\simple_draw\src\w_cluster_task.c

                                                                      Page 4
                                                              C:\Users\Frank\AppData\Local\Temp\gh_00003so1.si
                         173 --Directory:     
                         174 --		C:\git\rh850\src\app\gfx_apps\simple_draw\target\d1mx_mango_ghs
                         175 --Compile Date:  Tue Oct 16 19:48:57 2018
                         176 --Host OS:       Win32
                         177 --Version:       C-RH850 2014.1.7 RELEASE VERSION
                         178 --Release:       Compiler v2014.1.7
                         179 --Revision Date: Fri Sep 05 14:10:46 2014
                         180 --Release Date:  Fri Sep 05 14:44:23 2014
                         181 -- ecom  -g -w
                         182 
                         183 --1: /*============================================================================
                         184 --2:  Includes
                         185 --3: ============================================================================*/
                         186 --4: #include "r_dev_api.h"
                         187 --5: #include "w_system.h"
                         188 --6: #include "nios.h"
                         189 --7: #include "r_bsp_gfx_sys.h"
                         190 --8: #include "mem_init.h"
                         191 --9: #include "davehd_types.h"
                         192 --10: #include "davehd_debug.h"
                         193 --11: #include "r_cdi_api.h"
                         194 --12: #include "r_util_dhd.h"
                         195 --13: #include "config.h"
                         196 --14: #include "r_ddb_api.h"
                         197 --15: #include "r_wm_api.h"
                         198 --16: #include "wm.h"
                         199 --17: #include "r_config_d1x.h"
                         200 --18: #include "r_drw2d_os.h"
                         201 --19: #include "r_drw2d_api.h"
                         202 --20: #include "r_config_drw2d.h"
                         203 --21: #include "r_drw2d_ctx_dhd.h"
                         204 --22: #include "r_bsp_stdio_api.h"
                         205 --23: #include "w_mag.h"
                         206 --24: #include "w_cluster_task.h"
                         207 --25: #include "main.h"
                         208 --27: extern mars_info_def        gtmars_info;
                         209 --28: extern queue_task_def       gtqueue_manager;
                         210 --29: extern task_recorder_def    gttask_recorder[_TASK_NUM];
                         211 --30: extern uint8_t u8cluster_demo_iconflag;
                         212 --31: extern uint32_t u32_Sys_Timer_Count;
                         213 --32: extern uint32_t u32_FPS_Count;
                         214 --34: //============================================================================================================
                         215 --35: // Table defines
                         216 --36: //============================================================================================================
                         217 --37: void (*const Cluster_State_Machine[_MAX_CLUSTER_ST_NO])(void) = 
                         218 --38: {W_Cluster_Init, W_Cluster_Display, W_Cluster_Error};
                         219 --40: //----------------------------------------------------------------------------------------------------------------------------
                         220 --41: void W_Cluster_Init(void)
                         221 	.text
                         222 ..bof.C.3A.5Cgit.5Crh850.5Csrc.5Capp.5Cgfx_apps.5Csimple_draw.5Ctarget.5Cd1mx_mango_ghs.5Cobj.5Cw_cluster_task...43.3A.5Cgit.5Crh850.5Csrc.5Capp.5Cgfx_apps.5Csimple_draw.5Ctarget.5Cd1mx_mango_ghs..5BC5D029..0::
                         223 	.align	2
                         224 	.global	_W_Cluster_Init
                         225 _W_Cluster_Init:
00000000 80072100        226 	prepare	{r31},0
                         227 --	    .bf
                         228 .LDW01:
                         229 --42: {
                         230 --43:     W_MAG_Init();
                         231 	jarl	_W_MAG_Init,lp
                         231 <EXPANSION BEGIN>
                         231 jarl22 _W_MAG_Init , lp 

                                                                      Page 5
                                                              C:\Users\Frank\AppData\Local\Temp\gh_00003so1.si
00000004 80ff0000*       231 <EXPANSION END>
                         232 --44:     gtmars_info.tcluster_info.u16timer1 = _TIME_5000ms;
                         233 --line44
                         234 ..lin.C.3A.5Cgit.5Crh850.5Csrc.5Capp.5Cgfx_apps.5Csimple_draw.5Ctarget.5Cd1mx_mango_ghs.5Cobj.5Cw_cluster_task.1::
                         235 .LDWlin1:
00000008 200ef401        236 	movea	500,zero,r1
0000000c 2b0600000000*   237 	mov	_gtmars_info,r11
00000012 6b0f0000        238 	st.h	r1,0[r11]
                         239 --45:     W_Task_ChangeState(_TYPE_CLUSTER, _LEVEL5, _STATE_CLUSTER_DISPLAY, Cluster_State_Machine[_STATE_CLUSTER_DISPLAY]);
00000016 290600000000*   240 	mov	_Cluster_State_Machine+4,r9
0000001c 294f0100        241 	ld.w	0[r9],r9
00000020 2036b000        242 	movea	176,zero,r6
00000024 053a            243 	mov	5,r7
00000026 0142            244 	mov	1,r8
                         245 	jarl	_W_Task_ChangeState,lp
                         245 <EXPANSION BEGIN>
                         245 jarl22 _W_Task_ChangeState , lp 
00000028 80ff0000*       245 <EXPANSION END>
                         246 --46:     Task_Done(gtqueue_manager.u8current_point);
                         247 --line46
                         248 ..lin.C.3A.5Cgit.5Crh850.5Csrc.5Capp.5Cgfx_apps.5Csimple_draw.5Ctarget.5Cd1mx_mango_ghs.5Cobj.5Cw_cluster_task.2::
                         249 .LDWlin2:
0000002c 260600000000*   250 	mov	_gtqueue_manager+24,r6
00000032 86370100        251 	ld.bu	0[r6],r6
                         252 	jarl	_Task_Done,lp
                         252 <EXPANSION BEGIN>
                         252 jarl22 _Task_Done , lp 
00000036 80ff0000*       252 <EXPANSION END>
                         253 --47: }
                         254 --	    .ef
                         255 .LDW11:
                         256 --line47
                         257 ..lin.C.3A.5Cgit.5Crh850.5Csrc.5Capp.5Cgfx_apps.5Csimple_draw.5Ctarget.5Cd1mx_mango_ghs.5Cobj.5Cw_cluster_task.3::
                         258 .LDWlin3:
0000003a 40063f00        259 	dispose	0,{r31},[lp]
                         260 	.type	_W_Cluster_Init,@function
                         261 	.size	_W_Cluster_Init,.-_W_Cluster_Init
                         262 	.align	2
                         263 .LDW21:
                         264 
                         265 	.section ".bss","awb"
                         266 .L46:
                         267 	.type	.L46,@object
                         268 	.size	.L46,0
                         269 	.data
                         270 	.text
                         271 
                         272 
                         273 --48: //----------------------------------------------------------------------------------------------------------------------------
                         274 --49: void W_Cluster_Display(void)
                         275 	.align	2
                         276 	.align	2
                         277 	.global	_W_Cluster_Display
                         278 _W_Cluster_Display:
0000003e 8007e100        279 	prepare	{r28,r29,r31},0
00000042 3d0600000000*   280 	mov	_gtqueue_manager,r29
                         281 --	    .bf
                         282 .LDW31:
                         283 --50: {
                         284 --51:     uint8_t u8event = gtqueue_manager.ttask[gtqueue_manager.u8current_point].u8event;
00000048 9d0f1900        285 	ld.bu	24[r29],r1

                                                                      Page 6
                                                              C:\Users\Frank\AppData\Local\Temp\gh_00003so1.si
0000004c c30a            286 	shl	3,r1
0000004e 01f0            287 	mov	r1,ep
00000050 ddf1            288 	add	r29,ep
00000052 62e0            289 	sld.bu	2[ep],r28
                         290 --53:     switch(u8event)
00000054 1c08            291 	mov	r28,r1
00000056 610a            292 	cmp	1,r1
00000058 9145*           293 	bl	.L86
0000005a f205*           294 	be	.L74
0000005c 630a            295 	cmp	3,r1
0000005e b125*           296 	bl	.L82
00000060 d22d*           297 	be	.L84
00000062 670a            298 	cmp	7,r1
00000064 ba3d*           299 	bne	.L86
00000066 e505*           300 	br	.L76
                         301 .L74:
                         302 --54:     {
                         303 --55:         case _EVENT_FIRST:
                         304 --56:             W_MAG_Logo_Disp();
                         305 --line56
                         306 ..lin.C.3A.5Cgit.5Crh850.5Csrc.5Capp.5Cgfx_apps.5Csimple_draw.5Ctarget.5Cd1mx_mango_ghs.5Cobj.5Cw_cluster_task.4::
                         307 .LDWlin4:
                         308 	jarl	_W_MAG_Logo_Disp,lp
                         308 <EXPANSION BEGIN>
                         308 jarl22 _W_MAG_Logo_Disp , lp 
00000068 80ff0000*       308 <EXPANSION END>
                         309 --57:             W_MAG_WindowSwap();
                         310 --line57
                         311 ..lin.C.3A.5Cgit.5Crh850.5Csrc.5Capp.5Cgfx_apps.5Csimple_draw.5Ctarget.5Cd1mx_mango_ghs.5Cobj.5Cw_cluster_task.5::
                         312 .LDWlin5:
                         313 	jarl	_W_MAG_WindowSwap,lp
                         313 <EXPANSION BEGIN>
                         313 jarl22 _W_MAG_WindowSwap , lp 
0000006c 80ff0000*       313 <EXPANSION END>
                         314 --58:             return;
                         315 --line58
                         316 ..lin.C.3A.5Cgit.5Crh850.5Csrc.5Capp.5Cgfx_apps.5Csimple_draw.5Ctarget.5Cd1mx_mango_ghs.5Cobj.5Cw_cluster_task.6::
                         317 .LDWlin6:
00000070 a53d*           318 	br	.L70
                         319 .L76:
                         320 --59:         case _EVENT_LOOP:
                         321 --60:             if(gtmars_info.tcar_info.tcar_power_light_info.tcar_power_info.acc_status == _G_TRUE)
                         322 --line60
                         323 ..lin.C.3A.5Cgit.5Crh850.5Csrc.5Capp.5Cgfx_apps.5Csimple_draw.5Ctarget.5Cd1mx_mango_ghs.5Cobj.5Cw_cluster_task.7::
                         324 .LDWlin7:
00000072 210600000000*   325 	mov	_gtmars_info+70,r1
00000078 810f0100        326 	ld.bu	0[r1],r1
0000007c 830a            327 	shr	3,r1
0000007e a905*           328 	bnl	.L77
                         329 --61:                 break;
                         330 --line61
                         331 ..lin.C.3A.5Cgit.5Crh850.5Csrc.5Capp.5Cgfx_apps.5Csimple_draw.5Ctarget.5Cd1mx_mango_ghs.5Cobj.5Cw_cluster_task.8::
                         332 .LDWlin8:
00000080 e52d*           333 	br	.L79
                         334 .L77:
                         335 --62:             W_SYS_Main_Entry(); //TODO: one third 1/3
                         336 --line62
                         337 ..lin.C.3A.5Cgit.5Crh850.5Csrc.5Capp.5Cgfx_apps.5Csimple_draw.5Ctarget.5Cd1mx_mango_ghs.5Cobj.5Cw_cluster_task.9::
                         338 .LDWlin9:
                         339 	jarl	_W_SYS_Main_Entry,lp
                         339 <EXPANSION BEGIN>

                                                                      Page 7
                                                              C:\Users\Frank\AppData\Local\Temp\gh_00003so1.si
                         339 jarl22 _W_SYS_Main_Entry , lp 
00000082 80ff0000*       339 <EXPANSION END>
                         340 --63:             W_MAG_Draw2D_Process();
                         341 --line63
                         342 ..lin.C.3A.5Cgit.5Crh850.5Csrc.5Capp.5Cgfx_apps.5Csimple_draw.5Ctarget.5Cd1mx_mango_ghs.5Cobj.5Cw_cluster_task.10::
                         343 .LDWlin10:
                         344 	jarl	_W_MAG_Draw2D_Process,lp
                         344 <EXPANSION BEGIN>
                         344 jarl22 _W_MAG_Draw2D_Process , lp 
00000086 80ff0000*       344 <EXPANSION END>
                         345 --64:             W_MAG_WindowSwap();
                         346 --line64
                         347 ..lin.C.3A.5Cgit.5Crh850.5Csrc.5Capp.5Cgfx_apps.5Csimple_draw.5Ctarget.5Cd1mx_mango_ghs.5Cobj.5Cw_cluster_task.11::
                         348 .LDWlin11:
                         349 	jarl	_W_MAG_WindowSwap,lp
                         349 <EXPANSION BEGIN>
                         349 jarl22 _W_MAG_WindowSwap , lp 
0000008a 80ff0000*       349 <EXPANSION END>
                         350 --65:             Task_Done(gtqueue_manager.u8current_point);
                         351 --line65
                         352 ..lin.C.3A.5Cgit.5Crh850.5Csrc.5Capp.5Cgfx_apps.5Csimple_draw.5Ctarget.5Cd1mx_mango_ghs.5Cobj.5Cw_cluster_task.12::
                         353 .LDWlin12:
0000008e 9d371900        354 	ld.bu	24[r29],r6
                         355 	jarl	_Task_Done,lp
                         355 <EXPANSION BEGIN>
                         355 jarl22 _Task_Done , lp 
00000092 80ff0000*       355 <EXPANSION END>
                         356 --66:             W_Task_ChangeEvent(_TYPE_CLUSTER, _LEVEL4, _EVENT_LOOP);
                         357 --line66
                         358 ..lin.C.3A.5Cgit.5Crh850.5Csrc.5Capp.5Cgfx_apps.5Csimple_draw.5Ctarget.5Cd1mx_mango_ghs.5Cobj.5Cw_cluster_task.13::
                         359 .LDWlin13:
00000096 2036b000        360 	movea	176,zero,r6
0000009a 043a            361 	mov	4,r7
0000009c 0742            362 	mov	7,r8
                         363 	jarl	_W_Task_ChangeEvent,lp
                         363 <EXPANSION BEGIN>
                         363 jarl22 _W_Task_ChangeEvent , lp 
0000009e 80ff0000*       363 <EXPANSION END>
                         364 --67:             return;
                         365 --line67
                         366 ..lin.C.3A.5Cgit.5Crh850.5Csrc.5Capp.5Cgfx_apps.5Csimple_draw.5Ctarget.5Cd1mx_mango_ghs.5Cobj.5Cw_cluster_task.14::
                         367 .LDWlin14:
000000a2 9525*           368 	br	.L70
                         369 .L82:
                         370 --68:         case _EVENT_DATA:
                         371 --69:             Task_Done(gtqueue_manager.u8current_point);
                         372 --line69
                         373 ..lin.C.3A.5Cgit.5Crh850.5Csrc.5Capp.5Cgfx_apps.5Csimple_draw.5Ctarget.5Cd1mx_mango_ghs.5Cobj.5Cw_cluster_task.15::
                         374 .LDWlin15:
000000a4 9d371900        375 	ld.bu	24[r29],r6
                         376 	jarl	_Task_Done,lp
                         376 <EXPANSION BEGIN>
                         376 jarl22 _Task_Done , lp 
000000a8 80ff0000*       376 <EXPANSION END>
                         377 --70:             W_Task_ChangeEvent(_TYPE_CLUSTER, _LEVEL4, _EVENT_LOOP);
                         378 --line70
                         379 ..lin.C.3A.5Cgit.5Crh850.5Csrc.5Capp.5Cgfx_apps.5Csimple_draw.5Ctarget.5Cd1mx_mango_ghs.5Cobj.5Cw_cluster_task.16::
                         380 .LDWlin16:
000000ac 2036b000        381 	movea	176,zero,r6
000000b0 043a            382 	mov	4,r7
000000b2 0742            383 	mov	7,r8

                                                                      Page 8
                                                              C:\Users\Frank\AppData\Local\Temp\gh_00003so1.si
                         384 	jarl	_W_Task_ChangeEvent,lp
                         384 <EXPANSION BEGIN>
                         384 jarl22 _W_Task_ChangeEvent , lp 
000000b4 80ff0000*       384 <EXPANSION END>
                         385 --71:             return;
                         386 --line71
                         387 ..lin.C.3A.5Cgit.5Crh850.5Csrc.5Capp.5Cgfx_apps.5Csimple_draw.5Ctarget.5Cd1mx_mango_ghs.5Cobj.5Cw_cluster_task.17::
                         388 .LDWlin17:
000000b8 e515*           389 	br	.L70
                         390 .L84:
                         391 --72:         case _EVENT_TIMER1:
                         392 --73: //            W_Cluster_IconClose();
                         393 --74: //            u8cluter_icon_init = 1;
                         394 --75:             u8cluster_demo_iconflag = 0;
                         395 --line75
                         396 ..lin.C.3A.5Cgit.5Crh850.5Csrc.5Capp.5Cgfx_apps.5Csimple_draw.5Ctarget.5Cd1mx_mango_ghs.5Cobj.5Cw_cluster_task.18::
                         397 .LDWlin18:
000000ba 2b0600000000*   398 	mov	_u8cluster_demo_iconflag,r11
000000c0 4b070000        399 	st.b	zero,0[r11]
                         400 --76:             Task_Done(gtqueue_manager.u8current_point);
000000c4 9d371900        401 	ld.bu	24[r29],r6
                         402 	jarl	_Task_Done,lp
                         402 <EXPANSION BEGIN>
                         402 jarl22 _Task_Done , lp 
000000c8 80ff0000*       402 <EXPANSION END>
                         403 --77:             W_Task_ChangeEvent(_TYPE_CLUSTER, _LEVEL4, _EVENT_LOOP);
                         404 --line77
                         405 ..lin.C.3A.5Cgit.5Crh850.5Csrc.5Capp.5Cgfx_apps.5Csimple_draw.5Ctarget.5Cd1mx_mango_ghs.5Cobj.5Cw_cluster_task.19::
                         406 .LDWlin19:
000000cc 2036b000        407 	movea	176,zero,r6
000000d0 043a            408 	mov	4,r7
000000d2 0742            409 	mov	7,r8
                         410 	jarl	_W_Task_ChangeEvent,lp
                         410 <EXPANSION BEGIN>
                         410 jarl22 _W_Task_ChangeEvent , lp 
000000d4 80ff0000*       410 <EXPANSION END>
                         411 --78:             return;
                         412 --line78
                         413 ..lin.C.3A.5Cgit.5Crh850.5Csrc.5Capp.5Cgfx_apps.5Csimple_draw.5Ctarget.5Cd1mx_mango_ghs.5Cobj.5Cw_cluster_task.20::
                         414 .LDWlin20:
000000d8 e505*           415 	br	.L70
                         416 .L86:
                         417 --line80
                         418 ..lin.C.3A.5Cgit.5Crh850.5Csrc.5Capp.5Cgfx_apps.5Csimple_draw.5Ctarget.5Cd1mx_mango_ghs.5Cobj.5Cw_cluster_task.21::
                         419 .LDWlin21:
000000da 0000            420 	nop
                         421 .L79:
                         422 --79:         default:
                         423 --80:             break;
                         424 --81:     }
                         425 --82:     Task_Done(gtqueue_manager.u8current_point);
000000dc 9d371900        426 	ld.bu	24[r29],r6
                         427 	jarl	_Task_Done,lp
                         427 <EXPANSION BEGIN>
                         427 jarl22 _Task_Done , lp 
000000e0 80ff0000*       427 <EXPANSION END>
                         428 --83: }
                         429 .L70:
                         430 --	    .ef
                         431 .LDW41:
                         432 --line83

                                                                      Page 9
                                                              C:\Users\Frank\AppData\Local\Temp\gh_00003so1.si
                         433 ..lin.C.3A.5Cgit.5Crh850.5Csrc.5Capp.5Cgfx_apps.5Csimple_draw.5Ctarget.5Cd1mx_mango_ghs.5Cobj.5Cw_cluster_task.22::
                         434 .LDWlin22:
000000e4 4006ff00        435 	dispose	0,{r28,r29,r31},[lp]
                         436 	.type	_W_Cluster_Display,@function
                         437 	.size	_W_Cluster_Display,.-_W_Cluster_Display
                         438 	.align	2
                         439 .LDW51:
                         440 --_u8event	r28	local
                         441 
                         442 	.section ".bss","awb"
                         443 .L198:
                         444 	.type	.L198,@object
                         445 	.size	.L198,0
                         446 	.data
                         447 	.text
                         448 
                         449 
                         450 --84: //----------------------------------------------------------------------------------------------------------------------------
                         451 --85: void W_Cluster_Error(void)
                         452 	.align	2
                         453 	.align	2
                         454 	.global	_W_Cluster_Error
                         455 _W_Cluster_Error:
000000e8 8007e100        456 	prepare	{r28,r29,r31},0
000000ec 3d0600000000*   457 	mov	_gtqueue_manager,r29
                         458 --	    .bf
                         459 .LDW61:
                         460 --86: {
                         461 --87:     uint8_t u8event = gtqueue_manager.ttask[gtqueue_manager.u8current_point].u8event;
000000f2 9d0f1900        462 	ld.bu	24[r29],r1
000000f6 c30a            463 	shl	3,r1
000000f8 01f0            464 	mov	r1,ep
000000fa ddf1            465 	add	r29,ep
000000fc 62e0            466 	sld.bu	2[ep],r28
                         467 --89:     switch(u8event)
000000fe 1c08            468 	mov	r28,r1
00000100 610a            469 	cmp	1,r1
00000102 c205*           470 	be	.L291
00000104 630a            471 	cmp	3,r1
00000106 ea15*           472 	bne	.L289
00000108 950d*           473 	br	.L292
                         474 .L291:
                         475 --90:     {
                         476 --91:         case _EVENT_FIRST:
                         477 --92:             gtmars_info.tcluster_info.u16timer1 = _TIME_5000ms;
                         478 --line92
                         479 ..lin.C.3A.5Cgit.5Crh850.5Csrc.5Capp.5Cgfx_apps.5Csimple_draw.5Ctarget.5Cd1mx_mango_ghs.5Cobj.5Cw_cluster_task.23::
                         480 .LDWlin23:
0000010a 200ef401        481 	movea	500,zero,r1
0000010e 2b0600000000*   482 	mov	_gtmars_info,r11
00000114 6b0f0000        483 	st.h	r1,0[r11]
00000118 d50d*           484 	br	.L289
                         485 .L292:
                         486 --93:             break;
                         487 --94:         case _EVENT_TIMER1:
                         488 --95:             W_Task_ChangeState(_TYPE_CLUSTER, _LEVEL5, _STATE_CLUSTER_INIT, Cluster_State_Machine[_STATE_CLUSTER_INIT]);
                         489 --line95
                         490 ..lin.C.3A.5Cgit.5Crh850.5Csrc.5Capp.5Cgfx_apps.5Csimple_draw.5Ctarget.5Cd1mx_mango_ghs.5Cobj.5Cw_cluster_task.24::
                         491 .LDWlin24:
0000011a 290600000000*   492 	mov	_Cluster_State_Machine,r9
00000120 294f0100        493 	ld.w	0[r9],r9

                                                                      Page 10
                                                              C:\Users\Frank\AppData\Local\Temp\gh_00003so1.si
00000124 2036b000        494 	movea	176,zero,r6
00000128 053a            495 	mov	5,r7
0000012a 0042            496 	mov	0,r8
                         497 	jarl	_W_Task_ChangeState,lp
                         497 <EXPANSION BEGIN>
                         497 jarl22 _W_Task_ChangeState , lp 
0000012c 80ff0000*       497 <EXPANSION END>
                         498 --line96
                         499 ..lin.C.3A.5Cgit.5Crh850.5Csrc.5Capp.5Cgfx_apps.5Csimple_draw.5Ctarget.5Cd1mx_mango_ghs.5Cobj.5Cw_cluster_task.25::
                         500 .LDWlin25:
00000130 0000            501 	nop
                         502 .L289:
                         503 --96:             break;
                         504 --97:     }
                         505 --98:     Task_Done(gtqueue_manager.u8current_point);
00000132 9d371900        506 	ld.bu	24[r29],r6
                         507 	jarl	_Task_Done,lp
                         507 <EXPANSION BEGIN>
                         507 jarl22 _Task_Done , lp 
00000136 80ff0000*       507 <EXPANSION END>
                         508 --99: }
                         509 --	    .ef
                         510 .LDW71:
                         511 --line99
                         512 ..lin.C.3A.5Cgit.5Crh850.5Csrc.5Capp.5Cgfx_apps.5Csimple_draw.5Ctarget.5Cd1mx_mango_ghs.5Cobj.5Cw_cluster_task.26::
                         513 .LDWlin26:
0000013a 4006ff00        514 	dispose	0,{r28,r29,r31},[lp]
                         515 	.type	_W_Cluster_Error,@function
                         516 	.size	_W_Cluster_Error,.-_W_Cluster_Error
                         517 	.align	2
                         518 .LDW81:
                         519 --_u8event	r28	local
                         520 
                         521 	.section ".bss","awb"
                         522 .L346:
                         523 	.type	.L346,@object
                         524 	.size	.L346,0
                         525 	.data
                         526 	.text
                         527 
                         528 
                         529 --101: void W_FPS_Count() 
                         530 	.align	2
                         531 	.align	2
                         532 	.global	_W_FPS_Count
                         533 _W_FPS_Count:
0000013e 8007e100        534 	prepare	{r28,r29,r31},0
00000142 3d0600000000*   535 	mov	_u32_Sys_Timer_Count,r29
00000148 3c0600000000*   536 	mov	_u32_FPS_Count,r28
                         537 --	    .bf
                         538 .LDW91:
                         539 --102: {
                         540 --103:     //FPS Count
                         541 --104:     if (u32_Sys_Timer_Count > 1000) {
0000014e 3d0f0100        542 	ld.w	0[r29],r1
00000152 010617fc        543 	addi	-1001,r1,zero
00000156 c90d*           544 	bnl	.L388
                         545 --105:         R_BSP_STDIO_Printf("FPS_Count:%d\n", u32_FPS_Count);
                         546 --line105
                         547 ..lin.C.3A.5Cgit.5Crh850.5Csrc.5Capp.5Cgfx_apps.5Csimple_draw.5Ctarget.5Cd1mx_mango_ghs.5Cobj.5Cw_cluster_task.27::
                         548 .LDWlin27:

                                                                      Page 11
                                                              C:\Users\Frank\AppData\Local\Temp\gh_00003so1.si
00000158 3c3f0100        549 	ld.w	0[r28],r7
0000015c 260600000000*   550 	mov	.L454,r6
                         551 	jarl	_R_BSP_STDIO_Printf,lp
                         551 <EXPANSION BEGIN>
                         551 jarl22 _R_BSP_STDIO_Printf , lp 
00000162 80ff0000*       551 <EXPANSION END>
                         552 --106:         u32_FPS_Count = 0;
                         553 --line106
                         554 ..lin.C.3A.5Cgit.5Crh850.5Csrc.5Capp.5Cgfx_apps.5Csimple_draw.5Ctarget.5Cd1mx_mango_ghs.5Cobj.5Cw_cluster_task.28::
                         555 .LDWlin28:
00000166 7c070100        556 	st.w	zero,0[r28]
                         557 --107:         u32_Sys_Timer_Count = 0;
0000016a 7d070100        558 	st.w	zero,0[r29]
                         559 .L388:
                         560 --108:     }
                         561 --109:     u32_Sys_Timer_Count++;
0000016e 3d0f0100        562 	ld.w	0[r29],r1
00000172 410a            563 	add	1,r1
00000174 7d0f0100        564 	st.w	r1,0[r29]
                         565 --110: }
                         566 --	    .ef
                         567 .LDW02:
00000178 4006ff00        568 	dispose	0,{r28,r29,r31},[lp]
                         569 	.type	_W_FPS_Count,@function
                         570 	.size	_W_FPS_Count,.-_W_FPS_Count
                         571 	.align	2
                         572 .LDW12:
                         573 --.L435	.L454	static
                         574 
                         575 	.section ".bss","awb"
                         576 .L434:
                         577 	.type	.L434,@object
                         578 	.size	.L434,0
                         579 	.section ".rodata","a"
                         580 .L454:--	"FPS_Count:%d\n"
00000000 4650535f        581 	.byte	70,80,83,95
00000004 436f756e        582 	.byte	67,111,117,110
00000008 743a2564        583 	.byte	116,58,37,100
0000000c 0a00            584 	.byte	10,0
                         585 	.type	.L454,@object
                         586 	.size	.L454,14
                         587 	.data
                         588 	.text
                         589 
                         590 
                         591 --112: // Timer
                         592 --113: //----------------------------------------------------------------------------------------------------------------------------
                         593 --114: void W_Cluster_Timer1(void)
                         594 	.align	2
                         595 	.align	2
                         596 	.global	_W_Cluster_Timer1
                         597 _W_Cluster_Timer1:
0000017c 80076100        598 	prepare	{r29,r31},0
00000180 3d0600000000*   599 	mov	_gtmars_info,r29
                         600 --	    .bf
                         601 .LDW22:
                         602 --115: {
                         603 --116:     if(gtmars_info.tcluster_info.u16timer1 == _TIME_DISABLE)
00000186 fd0f0100        604 	ld.hu	0[r29],r1
0000018a e009            605 	cmp	zero,r1
0000018c aa05*           606 	bne	.L465

                                                                      Page 12
                                                              C:\Users\Frank\AppData\Local\Temp\gh_00003so1.si
                         607 --117:         return;
                         608 --line117
                         609 ..lin.C.3A.5Cgit.5Crh850.5Csrc.5Capp.5Cgfx_apps.5Csimple_draw.5Ctarget.5Cd1mx_mango_ghs.5Cobj.5Cw_cluster_task.29::
                         610 .LDWlin29:
0000018e 8515*           611 	br	.L463
                         612 .L465:
                         613 --118:     else
                         614 --119:     {
                         615 --120:         if(gtmars_info.tcluster_info.u16timer1 == _TIME_10ms)
                         616 --line120
                         617 ..lin.C.3A.5Cgit.5Crh850.5Csrc.5Capp.5Cgfx_apps.5Csimple_draw.5Ctarget.5Cd1mx_mango_ghs.5Cobj.5Cw_cluster_task.30::
                         618 .LDWlin30:
00000190 fd0f0100        619 	ld.hu	0[r29],r1
00000194 610a            620 	cmp	1,r1
00000196 fa05*           621 	bne	.L469
                         622 --121:             W_Task_ChangeEvent(_TYPE_CLUSTER, _LEVEL3, _EVENT_TIMER1);
                         623 --line121
                         624 ..lin.C.3A.5Cgit.5Crh850.5Csrc.5Capp.5Cgfx_apps.5Csimple_draw.5Ctarget.5Cd1mx_mango_ghs.5Cobj.5Cw_cluster_task.31::
                         625 .LDWlin31:
00000198 2036b000        626 	movea	176,zero,r6
0000019c 033a            627 	mov	3,r7
0000019e 0342            628 	mov	3,r8
                         629 	jarl	_W_Task_ChangeEvent,lp
                         629 <EXPANSION BEGIN>
                         629 jarl22 _W_Task_ChangeEvent , lp 
000001a0 80ff0000*       629 <EXPANSION END>
                         630 .L469:
                         631 --122:         gtmars_info.tcluster_info.u16timer1--;
                         632 --line122
                         633 ..lin.C.3A.5Cgit.5Crh850.5Csrc.5Capp.5Cgfx_apps.5Csimple_draw.5Ctarget.5Cd1mx_mango_ghs.5Cobj.5Cw_cluster_task.32::
                         634 .LDWlin32:
000001a4 fd0f0100        635 	ld.hu	0[r29],r1
000001a8 5f0a            636 	add	-1,r1
000001aa 7d0f0000        637 	st.h	r1,0[r29]
                         638 --123:     }
                         639 --125: }
                         640 .L463:
                         641 --	    .ef
                         642 .LDW32:
000001ae 40067f00        643 	dispose	0,{r29,r31},[lp]
                         644 	.type	_W_Cluster_Timer1,@function
                         645 	.size	_W_Cluster_Timer1,.-_W_Cluster_Timer1
                         646 	.align	2
                         647 .LDW42:
                         648 
                         649 	.section ".bss","awb"
                         650 .L514:
                         651 	.type	.L514,@object
                         652 	.size	.L514,0
                         653 	.data
                         654 	.text
                         655 
                         656 
                         657 --126: //----------------------------------------------------------------------------------------------------------------------------
                         658 --127: void W_Cluster_Timer2(void)
                         659 	.align	2
                         660 	.align	2
                         661 	.global	_W_Cluster_Timer2
                         662 _W_Cluster_Timer2:
000001b2 3e0600000000*   663 	mov	_gtmars_info,ep
                         664 --	    .bf

                                                                      Page 13
                                                              C:\Users\Frank\AppData\Local\Temp\gh_00003so1.si
                         665 .LDW52:
                         666 --128: {
                         667 --129:     if(gtmars_info.tcluster_info.u16timer2 == _TIME_DISABLE)
000001b8 7108            668 	sld.hu	2[ep],r1
000001ba e009            669 	cmp	zero,r1
000001bc aa05*           670 	bne	.L543
                         671 --130:         return;
                         672 --line130
                         673 ..lin.C.3A.5Cgit.5Crh850.5Csrc.5Capp.5Cgfx_apps.5Csimple_draw.5Ctarget.5Cd1mx_mango_ghs.5Cobj.5Cw_cluster_task.33::
                         674 .LDWlin33:
000001be 950d*           675 	br	.L541
                         676 .L543:
                         677 --131:     else
                         678 --132:     {
                         679 --133:         if(gtmars_info.tcluster_info.u16timer2 == _TIME_10ms)
                         680 --line133
                         681 ..lin.C.3A.5Cgit.5Crh850.5Csrc.5Capp.5Cgfx_apps.5Csimple_draw.5Ctarget.5Cd1mx_mango_ghs.5Cobj.5Cw_cluster_task.34::
                         682 .LDWlin34:
000001c0 7108            683 	sld.hu	2[ep],r1
000001c2 610a            684 	cmp	1,r1
000001c4 ba05*           685 	bne	.L547
                         686 --134:             gtmars_info.tcluster_info.u8acc_on_check_over = _G_TRUE;
                         687 --line134
                         688 ..lin.C.3A.5Cgit.5Crh850.5Csrc.5Capp.5Cgfx_apps.5Csimple_draw.5Ctarget.5Cd1mx_mango_ghs.5Cobj.5Cw_cluster_task.35::
                         689 .LDWlin35:
000001c6 010a            690 	mov	1,r1
000001c8 840b            691 	sst.b	r1,4[ep]
                         692 .L547:
                         693 --135:         gtmars_info.tcluster_info.u16timer2--;
000001ca 7108            694 	sld.hu	2[ep],r1
000001cc 5f0a            695 	add	-1,r1
000001ce 810c            696 	sst.h	r1,2[ep]
                         697 --137:     }
                         698 --139: }
                         699 .L541:
                         700 --	    .ef
                         701 .LDW62:
000001d0 7f00            702 	jmp	[lp]
                         703 	.type	_W_Cluster_Timer2,@function
                         704 	.size	_W_Cluster_Timer2,.-_W_Cluster_Timer2
                         705 	.align	2
                         706 .LDW72:
                         707 
                         708 	.section ".bss","awb"
                         709 .L594:
                         710 	.type	.L594,@object
                         711 	.size	.L594,0
                         712 	.data
                         713 	.text
                         714 
                         715 
                         716 --140: //----------------------------------------------------------------------------------------------------------------------------
                         717 --141: void W_Cluster_AllTimer(void)
                         718 	.align	2
                         719 	.align	2
                         720 	.global	_W_Cluster_AllTimer
                         721 _W_Cluster_AllTimer:
000001d2 80072100        722 	prepare	{r31},0
                         723 --	    .bf
                         724 .LDW82:
                         725 --142: {

                                                                      Page 14
                                                              C:\Users\Frank\AppData\Local\Temp\gh_00003so1.si
                         726 --143:     W_Cluster_Timer1();
                         727 	jarl	_W_Cluster_Timer1,lp
                         727 <EXPANSION BEGIN>
                         727 jarl22 _W_Cluster_Timer1 , lp 
000001d6 bfffa6ff*       727 <EXPANSION END>
                         728 --144:     W_Cluster_Timer2();
                         729 --line144
                         730 ..lin.C.3A.5Cgit.5Crh850.5Csrc.5Capp.5Cgfx_apps.5Csimple_draw.5Ctarget.5Cd1mx_mango_ghs.5Cobj.5Cw_cluster_task.36::
                         731 .LDWlin36:
                         732 	jarl	_W_Cluster_Timer2,lp
                         732 <EXPANSION BEGIN>
                         732 jarl22 _W_Cluster_Timer2 , lp 
000001da bfffd8ff*       732 <EXPANSION END>
                         733 --145:     W_FPS_Count();
                         734 --line145
                         735 ..lin.C.3A.5Cgit.5Crh850.5Csrc.5Capp.5Cgfx_apps.5Csimple_draw.5Ctarget.5Cd1mx_mango_ghs.5Cobj.5Cw_cluster_task.37::
                         736 .LDWlin37:
                         737 	jarl	_W_FPS_Count,lp
                         737 <EXPANSION BEGIN>
                         737 jarl22 _W_FPS_Count , lp 
000001de bfff60ff*       737 <EXPANSION END>
                         738 --146: }
                         739 --	    .ef
                         740 .LDW92:
                         741 --line146
                         742 ..lin.C.3A.5Cgit.5Crh850.5Csrc.5Capp.5Cgfx_apps.5Csimple_draw.5Ctarget.5Cd1mx_mango_ghs.5Cobj.5Cw_cluster_task.38::
                         743 .LDWlin38:
000001e2 40063f00        744 	dispose	0,{r31},[lp]
                         745 	.type	_W_Cluster_AllTimer,@function
                         746 	.size	_W_Cluster_AllTimer,.-_W_Cluster_AllTimer
                         747 	.align	2
                         748 .LDW03:
                         749 
                         750 	.section ".bss","awb"
                         751 .L650:
                         752 	.type	.L650,@object
                         753 	.size	.L650,0
                         754 	.data
                         755 	.text
                         756 
                         757 	.align	2
                         758 --_gtmars_info	_gtmars_info	import
                         759 --_gtqueue_manager	_gtqueue_manager	import
                         760 --_u8cluster_demo_iconflag	_u8cluster_demo_iconflag	import
                         761 --_u32_Sys_Timer_Count	_u32_Sys_Timer_Count	import
                         762 --_u32_FPS_Count	_u32_FPS_Count	import
                         763 
                         764 	.section ".rodata","a"
0000000e 0000            765 	.space	2
                         766 	.align	4
                         767 	.global	_Cluster_State_Machine
00000010 00000000*       768 _Cluster_State_Machine:	.word	_W_Cluster_Init
00000014 00000000*       769 	.word	_W_Cluster_Display
00000018 00000000*       770 	.word	_W_Cluster_Error
0000001c 00000000        771 	.space	4
                         772 	.type	_Cluster_State_Machine,@object
                         773 	.size	_Cluster_State_Machine,16
                         774 	.data
                         775 	.ghsnote version,15
                         776 	.ghsnote tools,3
                         777 	.ghsnote options,144

                                                                      Page 15
                                                              C:\Users\Frank\AppData\Local\Temp\gh_00003so1.si
                         778 	.text
                         779 	.align	2
                         780 ..eof.C.3A.5Cgit.5Crh850.5Csrc.5Capp.5Cgfx_apps.5Csimple_draw.5Ctarget.5Cd1mx_mango_ghs.5Cobj.5Cw_cluster_task...43.3A.5Cgit.5Crh850.5Csrc.5Capp.5Cgfx_apps.5Csimple_draw.5Ctarget.5Cd1mx_mango_ghs..5BC5D029..0::
                         781 .rh850_flags REGMODE22,DATA_ALIGN8,GP_FIX,EP_NONFIX,TP_FIX,REG2_RESERVE,G3M
