                                                                      Page 1
                                                              C:\Users\Frank\AppData\Local\Temp\gh_0000p3g1.si
Command Line: C:\GHS\V800.V2014.1.7\comp_201417\ease850.exe -w -elf -b0 -I../../../../../app/common/dhd -I../../../../../app/gfx_apps/simple_draw/src -I../../../../../app/gfx_apps/simple_draw/lib -I../../../../../bsp/board//config -I../../../../../bsp/board//src/gfx -I../../../../../bsp/board//src/hmi -I../../../../../bsp/board//src/stdio -I../../../../../bsp/board/d1mx_mango/config -I../../../../../bsp/board/d1mx_mango/src -I../../../../../bsp/board/d1mx_mango/src/gfx -I../../../../../bsp/board/d1mx_mango/src/hmi -I../../../../../bsp/board/d1mx_mango/src/stdio -I../../../../../bsp/gfx/lib -I../../../../../bsp/gfx/src -I../../../../../bsp/hmi/lib -I../../../../../bsp/hmi/src -I../../../../../bsp/lib -I../../../../../bsp/stdio/lib -I../../../../../bsp/stdio/src -I../../../../../cdi/lib -I../../../../../cdi/src -I../../../../../compiler/rh850_ghs/inc -I../../../../../device/d1mx/lib -I../../../../../device/d1mx/macro_cfg -I../../../../../device/d1mx/macro_cfg/csisw -I../../../../../device/d1mx/macro_cfg/davehd -I../../../../../device/d1mx/macro_cfg/ddb -I../../../../../device/d1mx/macro_cfg/drw2d -I../../../../../device/d1mx/macro_cfg/gfxbus -I../../../../../device/d1mx/macro_cfg/gpio -I../../../../../device/d1mx/macro_cfg/hypb -I../../../../../device/d1mx/macro_cfg/hypdb -I../../../../../device/d1mx/macro_cfg/jcua -I../../../../../device/d1mx/macro_cfg/nfmabare -I../../../../../device/d1mx/macro_cfg/octa -I../../../../../device/d1mx/macro_cfg/octacdb -I../../../../../device/d1mx/macro_cfg/ostm -I../../../../../device/d1mx/macro_cfg/pbg -I../../../../../device/d1mx/macro_cfg/riic -I../../../../../device/d1mx/macro_cfg/sfcdb -I../../../../../device/d1mx/macro_cfg/sfma -I../../../../../device/d1mx/macro_cfg/spea -I../../../../../device/d1mx/macro_cfg/tauj -I../../../../../device/d1mx/macro_cfg/tick -I../../../../../device/d1mx/macro_cfg/vdce -I../../../../../device/d1mx/macro_cfg/vowe -I../../../../../device/d1mx/macro_cfg/wm -I../../../../../device/d1mx/macro_cfg/xbus -I../../../../../device/d1mx/src/dev -I../../../../../device/d1mx/src/dhd -I../../../../../device/d1mx/src/hypb -I../../../../../device/d1mx/src/jcua -I../../../../../device/d1mx/src/nfmabare -I../../../../../device/d1mx/src/octa -I../../../../../device/d1mx/src/rh850_ghs -I../../../../../device/d1mx/src/vowe -I../../../../../device/d1x_common/macro_cfg -I../../../../../device/d1x_common/macro_cfg/csisw -I../../../../../device/d1x_common/macro_cfg/davehd -I../../../../../device/d1x_common/macro_cfg/ddb -I../../../../../device/d1x_common/macro_cfg/drw2d -I../../../../../device/d1x_common/macro_cfg/gfxbus -I../../../../../device/d1x_common/macro_cfg/gpio -I../../../../../device/d1x_common/macro_cfg/hypb -I../../../../../device/d1x_common/macro_cfg/hypdb -I../../../../../device/d1x_common/macro_cfg/jcua -I../../../../../device/d1x_common/macro_cfg/nfmabare -I../../../../../device/d1x_common/macro_cfg/octa -I../../../../../device/d1x_common/macro_cfg/octacdb -I../../../../../device/d1x_common/macro_cfg/ostm -I../../../../../device/d1x_common/macro_cfg/pbg -I../../../../../device/d1x_common/macro_cfg/riic -I../../../../../device/d1x_common/macro_cfg/sfcdb -I../../../../../device/d1x_common/macro_cfg/sfma -I../../../../../device/d1x_common/macro_cfg/spea -I../../../../../device/d1x_common/macro_cfg/tauj -I../../../../../device/d1x_common/macro_cfg/tick -I../../../../../device/d1x_common/macro_cfg/vdce -I../../../../../device/d1x_common/macro_cfg/vowe -I../../../../../device/d1x_common/macro_cfg/wm -I../../../../../device/d1x_common/macro_cfg/xbus -I../../../../../device/d1x_common/src/csisw -I../../../../../device/d1x_common/src/ddb -I../../../../../device/d1x_common/src/dev -I../../../../../device/d1x_common/src/gfxbus -I../../../../../device/d1x_common/src/gpio -I../../../../../device/d1x_common/src/ostm -I../../../../../device/d1x_common/src/pbg -I../../../../../device/d1x_common/src/riic -I../../../../../device/d1x_common/src/sfma -I../../../../../device/d1x_common/src/spea -I../../../../../device/d1x_common/src/tauj -I../../../../../device/d1x_common/src/tick -I../../../../../device/d1x_common/src/vdce -I../../../../../device/d1x_common/src/wm -I../../../../../device/d1x_common/src/xbus -I../../../../../device/lib -I../../../../../macro/bus/pbg/lib -I../../../../../macro/bus/pbg/src -I../../../../../macro/csi/csisw/lib -I../../../../../macro/csi/csisw/src -I../../../../../macro/drw2d/lib -I../../../../../macro/drw2d/platform/davehd -I../../../../../macro/drw2d/platform/os/no_os -I../../../../../macro/drw2d/src -I../../../../../macro/flashc/hypb/lib -I../../../../../macro/flashc/hypb/src -I../../../../../macro/flashc/hypdb/lib -I../../../../../macro/flashc/hypdb/src -I../../../../../macro/flashc/nfmabare/lib -I../../../../../macro/flashc/nfmabare/src -I../../../../../macro/flashc/octa/lib -I../../../../../macro/flashc/octa/src -I../../../../../macro/flashc/octacdb/lib -I../../../../../macro/flashc/octacdb/src -I../../../../../macro/flashc/sfcdb/lib -I../../../../../macro/flashc/sfcdb/src -I../../../../../macro/flashc/sfma/lib -I../../../../../macro/flashc/sfma/src -I../../../../../macro/gfxbus/lib -I../../../../../macro/gfxbus/src -I../../../../../macro/gfxbus/xbus/lib -I../../../../../macro/gfxbus/xbus/src -I../../../../../macro/gpio/lib -I../../../../../macro/gpio/src -I../../../../../macro/gpu/davehd/common/inc -I../../../../../macro/gpu/davehd/common/inc/platform -I../../../../../macro/gpu/davehd/common/inc/platform/d1mx -I../../../../../macro/gpu/davehd/docs -I../../../../../macro/gpu/davehd/kernel/inc -I../../../../../macro/gpu/davehd/kernel/platform/d1mx -I../../../../../macro/gpu/davehd/kernel/platform/d1mx/bridge -I../../../../../macro/gpu/davehd/kernel/platform/d1mx/non_threaded -I../../../../../macro/gpu/davehd/kernel/platform/ree -I../../../../../macro/gpu/davehd/kernel/src -I../../../../../macro/gpu/davehd/user/inc -I../../../../../macro/gpu/davehd/user/platform/d1mx/no_os -I../../../../../macro/gpu/davehd/user/src -I../../../../../macro/gpu/jcua/lib -I../../../../../macro/gpu/jcua/src -I../../../../../macro/i2c/riic/lib -I../../../../../macro/i2c/riic/src -I../../../../../macro/tick/lib -I../../../../../macro/tick/src -I../../../../../macro/timer/ostm/lib -I../../../../../macro/timer/ostm/src -I../../../../../macro/timer/tauj/lib -I../../../../../macro/timer/tauj/src -I../../../../../macro/vdce/lib -I../../../../../macro/vdce/src -I../../../../../macro/vo/ddb/lib -I../../../../../macro/vo/ddb/src -I../../../../../macro/vo/spea/lib -I../../../../../macro/vo/spea/src -I../../../../../macro/vo/vowe/lib -I../../../../../macro/vo/vowe/src -I../../../../../macro/wm/lib -I../../../../../macro/wm/src -I../../../../../macro/pwm/lib -I../../../../../macro/reset/lib -I../../../../../macro/rscan/lib -I../../../../../macro/uart/rlin3/lib -I../../../../../macro/uart/rlin3/src -I../../../../../device/d1x_common/macro_cfg/rlin3 -I../../../../../macro/stbc/lib -I../../../../../macro/adc/lib -I../../../../../device/d1x_common/macro_cfg/adc7010 -IC:\GHS\V800.V2014.1.7\comp_201417\lib\rh850_22 -cg_underscore -cpu=rh850g3m -no_v850_simd -rh850_fpsimd=none -nomacro -patch_dbo=C:\git\rh850\src\app\gfx_apps\simple_draw\target\d1mx_mango_ghs\obj\w_mag.dbo -source=w_mag.c -o .\obj\gh_0000p3g1.o -list=.\obj\w_mag.lst C:\Users\Frank\AppData\Local\Temp\gh_0000p3g1.si 
Original File: C:\Users\Frank\AppData\Local\Temp\gh_0000p3g1.si
Source File: w_mag.c
Directory: C:\git\rh850\src\app\gfx_apps\simple_draw\target\d1mx_mango_ghs
Host OS: Windows
EASE: Copyright (C) 1983-2014 Green Hills Software.  All Rights Reversed.
Release: Compiler v2014.1.7
Build Directory: [Directory] BTOWINBOX:c:/build_2014_1_bto/2014-09-04.2200-2014_1_bto/win32-comp-ecom
Revision: [VCInfo] http://toolsvc/branches/release-branch-2014-1-bto/src@515859 (built by build)
Revision Date: Fri Sep 05 14:05:06 2014

Release Date: Fri Sep 05 14:43:29 2014

                           1 --Driver Command: ccv850 -c -MD -I../../../../../app/common/dhd
                           2 --		-I../../../../../app/gfx_apps/simple_draw/src
                           3 --		-I../../../../../app/gfx_apps/simple_draw/lib
                           4 --		-I../../../../../bsp/board//config
                           5 --		-I../../../../../bsp/board//src/gfx
                           6 --		-I../../../../../bsp/board//src/hmi
                           7 --		-I../../../../../bsp/board//src/stdio
                           8 --		-I../../../../../bsp/board/d1mx_mango/config
                           9 --		-I../../../../../bsp/board/d1mx_mango/src
                          10 --		-I../../../../../bsp/board/d1mx_mango/src/gfx
                          11 --		-I../../../../../bsp/board/d1mx_mango/src/hmi
                          12 --		-I../../../../../bsp/board/d1mx_mango/src/stdio
                          13 --		-I../../../../../bsp/gfx/lib -I../../../../../bsp/gfx/src
                          14 --		-I../../../../../bsp/hmi/lib -I../../../../../bsp/hmi/src
                          15 --		-I../../../../../bsp/lib -I../../../../../bsp/stdio/lib
                          16 --		-I../../../../../bsp/stdio/src -I../../../../../cdi/lib
                          17 --		-I../../../../../cdi/src -I../../../../../compiler/rh850_ghs/inc
                          18 --		-I../../../../../device/d1mx/lib
                          19 --		-I../../../../../device/d1mx/macro_cfg
                          20 --		-I../../../../../device/d1mx/macro_cfg/csisw
                          21 --		-I../../../../../device/d1mx/macro_cfg/davehd
                          22 --		-I../../../../../device/d1mx/macro_cfg/ddb
                          23 --		-I../../../../../device/d1mx/macro_cfg/drw2d
                          24 --		-I../../../../../device/d1mx/macro_cfg/gfxbus
                          25 --		-I../../../../../device/d1mx/macro_cfg/gpio
                          26 --		-I../../../../../device/d1mx/macro_cfg/hypb
                          27 --		-I../../../../../device/d1mx/macro_cfg/hypdb
                          28 --		-I../../../../../device/d1mx/macro_cfg/jcua
                          29 --		-I../../../../../device/d1mx/macro_cfg/nfmabare
                          30 --		-I../../../../../device/d1mx/macro_cfg/octa
                          31 --		-I../../../../../device/d1mx/macro_cfg/octacdb
                          32 --		-I../../../../../device/d1mx/macro_cfg/ostm
                          33 --		-I../../../../../device/d1mx/macro_cfg/pbg
                          34 --		-I../../../../../device/d1mx/macro_cfg/riic
                          35 --		-I../../../../../device/d1mx/macro_cfg/sfcdb
                          36 --		-I../../../../../device/d1mx/macro_cfg/sfma
                          37 --		-I../../../../../device/d1mx/macro_cfg/spea
                          38 --		-I../../../../../device/d1mx/macro_cfg/tauj
                          39 --		-I../../../../../device/d1mx/macro_cfg/tick
                          40 --		-I../../../../../device/d1mx/macro_cfg/vdce
                          41 --		-I../../../../../device/d1mx/macro_cfg/vowe
                          42 --		-I../../../../../device/d1mx/macro_cfg/wm
                          43 --		-I../../../../../device/d1mx/macro_cfg/xbus
                          44 --		-I../../../../../device/d1mx/src/dev
                          45 --		-I../../../../../device/d1mx/src/dhd
                          46 --		-I../../../../../device/d1mx/src/hypb
                          47 --		-I../../../../../device/d1mx/src/jcua
                          48 --		-I../../../../../device/d1mx/src/nfmabare
                          49 --		-I../../../../../device/d1mx/src/octa
                          50 --		-I../../../../../device/d1mx/src/rh850_ghs

                                                                      Page 2
                                                              C:\Users\Frank\AppData\Local\Temp\gh_0000p3g1.si
                          51 --		-I../../../../../device/d1mx/src/vowe
                          52 --		-I../../../../../device/d1x_common/macro_cfg
                          53 --		-I../../../../../device/d1x_common/macro_cfg/csisw
                          54 --		-I../../../../../device/d1x_common/macro_cfg/davehd
                          55 --		-I../../../../../device/d1x_common/macro_cfg/ddb
                          56 --		-I../../../../../device/d1x_common/macro_cfg/drw2d
                          57 --		-I../../../../../device/d1x_common/macro_cfg/gfxbus
                          58 --		-I../../../../../device/d1x_common/macro_cfg/gpio
                          59 --		-I../../../../../device/d1x_common/macro_cfg/hypb
                          60 --		-I../../../../../device/d1x_common/macro_cfg/hypdb
                          61 --		-I../../../../../device/d1x_common/macro_cfg/jcua
                          62 --		-I../../../../../device/d1x_common/macro_cfg/nfmabare
                          63 --		-I../../../../../device/d1x_common/macro_cfg/octa
                          64 --		-I../../../../../device/d1x_common/macro_cfg/octacdb
                          65 --		-I../../../../../device/d1x_common/macro_cfg/ostm
                          66 --		-I../../../../../device/d1x_common/macro_cfg/pbg
                          67 --		-I../../../../../device/d1x_common/macro_cfg/riic
                          68 --		-I../../../../../device/d1x_common/macro_cfg/sfcdb
                          69 --		-I../../../../../device/d1x_common/macro_cfg/sfma
                          70 --		-I../../../../../device/d1x_common/macro_cfg/spea
                          71 --		-I../../../../../device/d1x_common/macro_cfg/tauj
                          72 --		-I../../../../../device/d1x_common/macro_cfg/tick
                          73 --		-I../../../../../device/d1x_common/macro_cfg/vdce
                          74 --		-I../../../../../device/d1x_common/macro_cfg/vowe
                          75 --		-I../../../../../device/d1x_common/macro_cfg/wm
                          76 --		-I../../../../../device/d1x_common/macro_cfg/xbus
                          77 --		-I../../../../../device/d1x_common/src/csisw
                          78 --		-I../../../../../device/d1x_common/src/ddb
                          79 --		-I../../../../../device/d1x_common/src/dev
                          80 --		-I../../../../../device/d1x_common/src/gfxbus
                          81 --		-I../../../../../device/d1x_common/src/gpio
                          82 --		-I../../../../../device/d1x_common/src/ostm
                          83 --		-I../../../../../device/d1x_common/src/pbg
                          84 --		-I../../../../../device/d1x_common/src/riic
                          85 --		-I../../../../../device/d1x_common/src/sfma
                          86 --		-I../../../../../device/d1x_common/src/spea
                          87 --		-I../../../../../device/d1x_common/src/tauj
                          88 --		-I../../../../../device/d1x_common/src/tick
                          89 --		-I../../../../../device/d1x_common/src/vdce
                          90 --		-I../../../../../device/d1x_common/src/wm
                          91 --		-I../../../../../device/d1x_common/src/xbus
                          92 --		-I../../../../../device/lib -I../../../../../macro/bus/pbg/lib
                          93 --		-I../../../../../macro/bus/pbg/src
                          94 --		-I../../../../../macro/csi/csisw/lib
                          95 --		-I../../../../../macro/csi/csisw/src
                          96 --		-I../../../../../macro/drw2d/lib
                          97 --		-I../../../../../macro/drw2d/platform/davehd
                          98 --		-I../../../../../macro/drw2d/platform/os/no_os
                          99 --		-I../../../../../macro/drw2d/src
                         100 --		-I../../../../../macro/flashc/hypb/lib
                         101 --		-I../../../../../macro/flashc/hypb/src
                         102 --		-I../../../../../macro/flashc/hypdb/lib
                         103 --		-I../../../../../macro/flashc/hypdb/src
                         104 --		-I../../../../../macro/flashc/nfmabare/lib
                         105 --		-I../../../../../macro/flashc/nfmabare/src
                         106 --		-I../../../../../macro/flashc/octa/lib
                         107 --		-I../../../../../macro/flashc/octa/src
                         108 --		-I../../../../../macro/flashc/octacdb/lib
                         109 --		-I../../../../../macro/flashc/octacdb/src
                         110 --		-I../../../../../macro/flashc/sfcdb/lib
                         111 --		-I../../../../../macro/flashc/sfcdb/src

                                                                      Page 3
                                                              C:\Users\Frank\AppData\Local\Temp\gh_0000p3g1.si
                         112 --		-I../../../../../macro/flashc/sfma/lib
                         113 --		-I../../../../../macro/flashc/sfma/src
                         114 --		-I../../../../../macro/gfxbus/lib
                         115 --		-I../../../../../macro/gfxbus/src
                         116 --		-I../../../../../macro/gfxbus/xbus/lib
                         117 --		-I../../../../../macro/gfxbus/xbus/src
                         118 --		-I../../../../../macro/gpio/lib -I../../../../../macro/gpio/src
                         119 --		-I../../../../../macro/gpu/davehd/common/inc
                         120 --		-I../../../../../macro/gpu/davehd/common/inc/platform
                         121 --		-I../../../../../macro/gpu/davehd/common/inc/platform/d1mx
                         122 --		-I../../../../../macro/gpu/davehd/docs
                         123 --		-I../../../../../macro/gpu/davehd/kernel/inc
                         124 --		-I../../../../../macro/gpu/davehd/kernel/platform/d1mx
                         125 --		-I../../../../../macro/gpu/davehd/kernel/platform/d1mx/bridge
                         126 --		-I../../../../../macro/gpu/davehd/kernel/platform/d1mx/non_threaded
                         127 --		-I../../../../../macro/gpu/davehd/kernel/platform/ree
                         128 --		-I../../../../../macro/gpu/davehd/kernel/src
                         129 --		-I../../../../../macro/gpu/davehd/user/inc
                         130 --		-I../../../../../macro/gpu/davehd/user/platform/d1mx/no_os
                         131 --		-I../../../../../macro/gpu/davehd/user/src
                         132 --		-I../../../../../macro/gpu/jcua/lib
                         133 --		-I../../../../../macro/gpu/jcua/src
                         134 --		-I../../../../../macro/i2c/riic/lib
                         135 --		-I../../../../../macro/i2c/riic/src
                         136 --		-I../../../../../macro/tick/lib -I../../../../../macro/tick/src
                         137 --		-I../../../../../macro/timer/ostm/lib
                         138 --		-I../../../../../macro/timer/ostm/src
                         139 --		-I../../../../../macro/timer/tauj/lib
                         140 --		-I../../../../../macro/timer/tauj/src
                         141 --		-I../../../../../macro/vdce/lib -I../../../../../macro/vdce/src
                         142 --		-I../../../../../macro/vo/ddb/lib
                         143 --		-I../../../../../macro/vo/ddb/src
                         144 --		-I../../../../../macro/vo/spea/lib
                         145 --		-I../../../../../macro/vo/spea/src
                         146 --		-I../../../../../macro/vo/vowe/lib
                         147 --		-I../../../../../macro/vo/vowe/src -I../../../../../macro/wm/lib
                         148 --		-I../../../../../macro/wm/src -I../../../../../macro/pwm/lib
                         149 --		-I../../../../../macro/i2c/riic/lib
                         150 --		-I../../../../../macro/reset/lib -I../../../../../macro/rscan/lib
                         151 --		-I../../../../../macro/uart/rlin3/lib
                         152 --		-I../../../../../macro/uart/rlin3/src
                         153 --		-I../../../../../device/d1x_common/macro_cfg/rlin3
                         154 --		-I../../../../../macro/stbc/lib
                         155 --		-I../../../../../app/gfx_apps/simple_draw/lib
                         156 --		-I../../../../../macro/adc/lib
                         157 --		-I../../../../../device/d1x_common/macro_cfg/adc7010 -G
                         158 --		--no_commons --no_implicit_include --prototype_errors
                         159 --		-DRENESAS_D1X -DR_DRW2D_OS_NO_OS -DR_DRW2D_SYS_DHD
                         160 --		-DUSED_CPU=RH850G3M -DUSE_BSP_GFX -DUSE_BSP_HMI -DUSE_BSP_STDIO
                         161 --		-DUSE_CDI -DUSE_CSISW -DUSE_DAVEHD -DUSE_DDB -DUSE_DRW2D
                         162 --		-DUSE_GFXBUS -DUSE_GPIO -DUSE_HYPB -DUSE_HYPDB -DUSE_JCUA
                         163 --		-DUSE_NFMABARE -DUSE_OCTA -DUSE_OCTACDB -DUSE_OSTM -DUSE_PBG
                         164 --		-DUSE_RIIC -DUSE_SFCDB -DUSE_SFMA -DUSE_SPEA -DUSE_TAUJ
                         165 --		-DUSE_TICK -DUSE_VDCE -DUSE_WM -DUSE_XBUS -DMAG -MD -Zuse1bit
                         166 --		-allocate_ep -cpu=rh850g3m -large_sda -list -no_callt -notda
                         167 --		-passsource -preprocess_assembly_files -registermode=22
                         168 --		-reserve_r2 --diag_warning 1 -object_dir=./obj -DUSE_VDCE_OPENLDI
                         169 --		-gnu99 -filetype.c ..\..\..\..\gfx_apps\simple_draw\src\w_mag.c
                         170 --		-o .\obj\w_mag.o
                         171 --Source File:   ..\..\..\..\gfx_apps\simple_draw\src\w_mag.c
                         172 --Directory:     

                                                                      Page 4
                                                              C:\Users\Frank\AppData\Local\Temp\gh_0000p3g1.si
                         173 --		C:\git\rh850\src\app\gfx_apps\simple_draw\target\d1mx_mango_ghs
                         174 --Compile Date:  Tue Oct 16 19:48:57 2018
                         175 --Host OS:       Win32
                         176 --Version:       C-RH850 2014.1.7 RELEASE VERSION
                         177 --Release:       Compiler v2014.1.7
                         178 --Revision Date: Fri Sep 05 14:10:46 2014
                         179 --Release Date:  Fri Sep 05 14:44:23 2014
                         180 -- ecom  -g -w
                         181 
                         182 --1: /*============================================================================
                         183 --2:  Includes
                         184 --3: ============================================================================*/
                         185 --4: #include "r_dev_api.h"
                         186 --5: #include "nios.h"
                         187 --6: #include "r_bsp_gfx_sys.h"
                         188 --7: #include "mem_init.h"
                         189 --8: #include "davehd_types.h"
                         190 --9: #include "davehd_debug.h"
                         191 --10: #include "r_cdi_api.h"
                         192 --11: #include "r_util_dhd.h"
                         193 --12: #include "config.h"
                         194 --13: #include "r_ddb_api.h"
                         195 --14: #include "r_wm_api.h"
                         196 --15: #include "wm.h"
                         197 --16: #include "r_config_d1x.h"
                         198 --17: #include "r_drw2d_os.h"
                         199 --18: #include "r_drw2d_api.h"
                         200 --19: #include "r_config_drw2d.h"
                         201 --20: #include "r_drw2d_ctx_dhd.h"
                         202 --21: #include "r_bsp_stdio_api.h"
                         203 --22: #include "w_system.h"
                         204 --23: #include "w_mag.h"
                         205 --24: #include "w_canio_pics_gen.h"
                         206 --25: #include "w_draw.h"
                         207 --26: #include "main.h"
                         208 --28: void * addr_pic_logo = (void *)_PIC_S_LOGO;
                         209 --29: void * addr_pic_logo_black = (void *)_PIC_S_BLACK;
                         210 --31: static struct r_drw2d_DeviceDHD_s tclusterDHDDev;
                         211 --32: extern r_drw2d_Device_t tclusterDrw2dDev;
                         212 --33: extern uint32_t             loc_GPU_Memory_Addr;
                         213 --34: extern r_cdi_Heap_t         loc_lRAM_heap;
                         214 --35: extern r_cdi_Heap_t         loc_VRAM_heap;
                         215 --36: extern mars_info_def        gtmars_info;
                         216 --37: extern queue_task_def       gtqueue_manager;
                         217 --39: r_wm_Window_t tcluster_rle_win;
                         218 --40: r_wm_Window_t tcluster_draw2d_window;
                         219 --41: //static r_wm_Window_t tcluster_sprite_window;
                         220 --42: r_wm_WinBuffer_t tcluster_window_buffer[2];
                         221 --43: r_wm_Sprite_t tclusterIcon_array[12];
                         222 --44: r_drw2d_Framebuffer_t tcluster_draw2d_fb;
                         223 --46: extern const uint8_t c8sport_gear_d_pic[19600];
                         224 --47: extern const uint8_t c8sport_gear_r_pic[19600];
                         225 --48: extern const uint8_t c8standard_gear_r_pic[3600];
                         226 --49: extern const uint8_t c8standard_gear_d_pic[3600];
                         227 --51: extern const uint8_t Km_hPIC[7680] ;
                         228 --52: extern const uint8_t mphPIC[7560];
                         229 --53: uint8_t u8cluter_icon_init = 0;
                         230 --55: extern const uint8_t Icon1_ImgData[3600];
                         231 --56: extern const uint8_t Icon2_ImgData[3600];
                         232 --57: extern const uint8_t Icon3_ImgData[3600];
                         233 --58: extern const uint8_t Icon4_ImgData[3600];

                                                                      Page 5
                                                              C:\Users\Frank\AppData\Local\Temp\gh_0000p3g1.si
                         234 --59: extern const uint8_t Icon5_ImgData[3600];
                         235 --60: extern const uint8_t Icon6_ImgData[3600];
                         236 --61: extern const uint8_t Icon7_ImgData[3600];
                         237 --62: extern const uint8_t Icon8_ImgData[3600];
                         238 --63: extern const uint8_t Icon9_ImgData[3600];
                         239 --64: extern const uint8_t Icon10_ImgData[3600];
                         240 --65: extern const uint8_t RightIcon_ImgData[3600] ;
                         241 --66: extern const uint8_t LeftIcon_ImgData[3600] ;
                         242 --67: extern const uint8_t PointS_ImgData[1440] ;
                         243 --68: extern const uint8_t PointB_ImgData[6400] ;
                         244 --69: extern const uint8_t u8logo_background_ImgData[2457600];
                         245 --70: //extern const uint8_t u8logo_move_ImgData[520000];
                         246 --71: extern const uint8_t u8small_logo_ImgData[543744];
                         247 --72: uint8_t u8cluster_demo_iconflag = 0;
                         248 --74: extern const uint8_t u8test_black_RData[521184];
                         249 --75: extern const uint8_t u8test_black_RABData[521184];
                         250 --78: const uint16_t u16leftline_parameter[11][4] = {// width,hight,x,y
                         251 --79:                                         {60, 28, 397, 452},
                         252 --80:                                         {36, 32, 436, 421},
                         253 --81:                                         {32, 28, 453, 393},
                         254 --82:                                         {30, 24, 467, 369},
                         255 --83:                                         {30, 24, 479, 345},
                         256 --84:                                         {30, 26, 491, 320},
                         257 --85:                                         {28, 24, 505, 296},
                         258 --86:                                         {28, 24, 517, 272},
                         259 --87:                                         {28, 26, 529, 247},
                         260 --88:                                         {26, 24, 543, 223},
                         261 --89:                                         {24, 20, 555, 204}
                         262 --90:                                         };
                         263 --91:                                         
                         264 --93: const uint16_t u16rightline_parameter[11][4] = {// width,hight,x,y
                         265 --94:                                                 {60,28,827,452},
                         266 --95:                                                 {36,32,812,421},
                         267 --96:                                                 {32,28,799,393},
                         268 --97:                                                 {30,24,787,369},
                         269 --98:                                                 {30,24,775,345},
                         270 --99:                                                 {30,26,763,320},
                         271 --100:                                                 {28,24,751,296},
                         272 --101:                                                 {28,24,739,272},
                         273 --102:                                                 {28,26,727,247},
                         274 --103:                                                 {26,24,715,223},
                         275 --104:                                                 {24,20,705,204}
                         276 --105:                                             };
                         277 --107: const handle_t tgreenline_left_pic_addr[11] = { (handle_t)PIC_ID_C_PEDAL_L_G_1,
                         278 --108:                                                 (handle_t)PIC_ID_C_PEDAL_L_G_2,
                         279 --109:                                                 (handle_t)PIC_ID_C_PEDAL_L_G_3,
                         280 --110:                                                 (handle_t)PIC_ID_C_PEDAL_L_G_4,
                         281 --111:                                                 (handle_t)PIC_ID_C_PEDAL_L_G_5,
                         282 --112:                                                 (handle_t)PIC_ID_C_PEDAL_L_G_6,
                         283 --113:                                                 (handle_t)PIC_ID_C_PEDAL_L_G_7,
                         284 --114:                                                 (handle_t)PIC_ID_C_PEDAL_L_G_8,
                         285 --115:                                                 (handle_t)PIC_ID_C_PEDAL_L_G_9,
                         286 --116:                                                 (handle_t)PIC_ID_C_PEDAL_L_G_10,
                         287 --117:                                                 (handle_t)PIC_ID_C_PEDAL_L_G_11
                         288 --118:                                                 };
                         289 --119: const handle_t tgreenline_right_pic_addr[11] = {(handle_t)PIC_ID_C_PEDAL_R_G_1,
                         290 --120:                                                 (handle_t)PIC_ID_C_PEDAL_R_G_2,
                         291 --121:                                                 (handle_t)PIC_ID_C_PEDAL_R_G_3,
                         292 --122:                                                 (handle_t)PIC_ID_C_PEDAL_R_G_4,
                         293 --123:                                                 (handle_t)PIC_ID_C_PEDAL_R_G_5,
                         294 --124:                                                 (handle_t)PIC_ID_C_PEDAL_R_G_6,

                                                                      Page 6
                                                              C:\Users\Frank\AppData\Local\Temp\gh_0000p3g1.si
                         295 --125:                                                 (handle_t)PIC_ID_C_PEDAL_R_G_7,
                         296 --126:                                                 (handle_t)PIC_ID_C_PEDAL_R_G_8,
                         297 --127:                                                 (handle_t)PIC_ID_C_PEDAL_R_G_9,
                         298 --128:                                                 (handle_t)PIC_ID_C_PEDAL_R_G_10,
                         299 --129:                                                 (handle_t)PIC_ID_C_PEDAL_R_G_11
                         300 --130:                                                 };
                         301 --131: const handle_t tblueline_right_pic_addr[11] = {  (handle_t)PIC_ID_C_PEDAL_R_B_1,
                         302 --132:                                                 (handle_t)PIC_ID_C_PEDAL_R_B_2,
                         303 --133:                                                 (handle_t)PIC_ID_C_PEDAL_R_B_3,
                         304 --134:                                                 (handle_t)PIC_ID_C_PEDAL_R_B_4,
                         305 --135:                                                 (handle_t)PIC_ID_C_PEDAL_R_B_5,
                         306 --136:                                                 (handle_t)PIC_ID_C_PEDAL_R_B_6,
                         307 --137:                                                 (handle_t)PIC_ID_C_PEDAL_R_B_7,
                         308 --138:                                                 (handle_t)PIC_ID_C_PEDAL_R_B_8,
                         309 --139:                                                 (handle_t)PIC_ID_C_PEDAL_R_B_9,
                         310 --140:                                                 (handle_t)PIC_ID_C_PEDAL_R_B_10,
                         311 --141:                                                 (handle_t)PIC_ID_C_PEDAL_R_B_11
                         312 --142:                                                 };
                         313 --143: const handle_t tblueline_left_pic_addr[11] = {  (handle_t)PIC_ID_C_PEDAL_L_B_1,
                         314 --144:                                                 (handle_t)PIC_ID_C_PEDAL_L_B_2,
                         315 --145:                                                 (handle_t)PIC_ID_C_PEDAL_L_B_3,
                         316 --146:                                                 (handle_t)PIC_ID_C_PEDAL_L_B_4,
                         317 --147:                                                 (handle_t)PIC_ID_C_PEDAL_L_B_5,
                         318 --148:                                                 (handle_t)PIC_ID_C_PEDAL_L_B_6,
                         319 --149:                                                 (handle_t)PIC_ID_C_PEDAL_L_B_7,
                         320 --150:                                                 (handle_t)PIC_ID_C_PEDAL_L_B_8,
                         321 --151:                                                 (handle_t)PIC_ID_C_PEDAL_L_B_9,
                         322 --152:                                                 (handle_t)PIC_ID_C_PEDAL_L_B_10,
                         323 --153:                                                 (handle_t)PIC_ID_C_PEDAL_L_B_11
                         324 --154:                                                 };
                         325 --156: const handle_t tcluster_speed_num_address[10] = {
                         326 --157:                                             (handle_t)PIC_ID_C_SPEED_0,
                         327 --158:                                             (handle_t)PIC_ID_C_SPEED_1,
                         328 --159:                                             (handle_t)PIC_ID_C_SPEED_2,
                         329 --160:                                             (handle_t)PIC_ID_C_SPEED_3,
                         330 --161:                                             (handle_t)PIC_ID_C_SPEED_4,
                         331 --162:                                             (handle_t)PIC_ID_C_SPEED_5,
                         332 --163:                                             (handle_t)PIC_ID_C_SPEED_6,
                         333 --164:                                             (handle_t)PIC_ID_C_SPEED_7,
                         334 --165:                                             (handle_t)PIC_ID_C_SPEED_8,
                         335 --166:                                             (handle_t)PIC_ID_C_SPEED_9
                         336 --167:                                             };
                         337 --168: const handle_t tcluster_door_pic_addr[6] = {(handle_t)PIC_ID_C_DOOR_BG,
                         338 --169:                                             (handle_t)PIC_ID_C_DOOR_FL,
                         339 --170:                                             (handle_t)PIC_ID_C_DOOR_FR,
                         340 --171:                                             (handle_t)PIC_ID_C_DOOR_RL,
                         341 --172:                                             (handle_t)PIC_ID_C_DOOR_RR,
                         342 --173:                                             (handle_t)PIC_ID_C_DOOR_TAIL
                         343 --174:                                             };
                         344 --175: const uint16_t tcluster_door_pic_parameter[6][4] = {// xpos,ypos,width,hight
                         345 --176:                                                         {110,134,302,302},
                         346 --177:                                                         {174,233,58,54},
                         347 --178:                                                         {289,233,58,54},
                         348 --179:                                                         {174,284,58,54},
                         349 --180:                                                         {289,284,58,54},
                         350 --181:                                                         {215,346,92,76}
                         351 --182:                                                     };
                         352 --184: uint16_t u16chart_value[20] = {120, 180, 130, 190, 110, 180, 100, 200, 150, 170,
                         353 --185:                                100, 140,180, 220, 250, 0, 120, 120, 180, 120};
                         354 --186: uint16_t u16chart_draw_posy[20];
                         355 --187: uint16_t u16char_draw_posx[20] = {914, 926, 938, 950, 962, 974, 986, 998, 1010, 1022,

                                                                      Page 7
                                                              C:\Users\Frank\AppData\Local\Temp\gh_0000p3g1.si
                         356 --188:                                 1034, 1046, 1058, 1070, 1082, 1094, 1106, 1118, 1130, 1142};
                         357 --190: uint32_t u32_Sys_Timer_Count = 0;
                         358 --191: uint32_t u32_FPS_Count = 0;
                         359 --192: extern void * addr_pic_background;
                         360 --193: extern void W_SYS_Main_Entry(void);
                         361 --194: extern void loc_JcuaRun(void);
                         362 --195: extern void W_APPMCU_Status(uint8_t u8temp);
                         363 --196: extern void W_APPBKL_Adjust(uint8_t u8duty);
                         364 --197: extern void* loc_StartSFMA(void);
                         365 --200: //----------------------------------------------------------------------------------------------------------------------------
                         366 --201: void W_Cluster_Icon1(void)
                         367 	.text
                         368 ..bof.C.3A.5Cgit.5Crh850.5Csrc.5Capp.5Cgfx_apps.5Csimple_draw.5Ctarget.5Cd1mx_mango_ghs.5Cobj.5Cw_mag...43.3A.5Cgit.5Crh850.5Csrc.5Capp.5Cgfx_apps.5Csimple_draw.5Ctarget.5Cd1mx_mango_ghs..5BC5D02A..0::
                         369 	.align	2
                         370 	.global	_W_Cluster_Icon1
                         371 _W_Cluster_Icon1:
00000000 80076100        372 	prepare	{r29,r31},0
00000004 3d0600000000*   373 	mov	_gtmars_info,r29
                         374 --	    .bf
                         375 .LDW01:
                         376 --202: {
                         377 --204:     if(gtmars_info.tcluster_info.u8acc_on_check_over == _G_FAIL )
0000000a 9d0f0500        378 	ld.bu	4[r29],r1
0000000e e009            379 	cmp	zero,r1
00000010 9a0d*           380 	bne	.L4
                         381 --205:         W_Draw_Image_By_ID(PIC_ID_C_ICON_01_SEATBELT_C, 10, 125);
                         382 --line205
                         383 ..lin.C.3A.5Cgit.5Crh850.5Csrc.5Capp.5Cgfx_apps.5Csimple_draw.5Ctarget.5Cd1mx_mango_ghs.5Cobj.5Cw_mag.1::
                         384 .LDWlin1:
00000012 20364900        385 	movea	73,zero,r6
00000016 0a3a            386 	mov	10,r7
00000018 20467d00        387 	movea	125,zero,r8
                         388 	jarl	_W_Draw_Image_By_ID,lp
                         388 <EXPANSION BEGIN>
                         388 jarl22 _W_Draw_Image_By_ID , lp 
0000001c 80ff0000*       388 <EXPANSION END>
00000020 d50d*           389 	br	.L6
                         390 .L4:
                         391 --206:     else if(gtmars_info.tcar_info.tcan_id434_info.tcabin_status_info.u8cabin_status_byte == 0x07)
                         392 --line206
                         393 ..lin.C.3A.5Cgit.5Crh850.5Csrc.5Capp.5Cgfx_apps.5Csimple_draw.5Ctarget.5Cd1mx_mango_ghs.5Cobj.5Cw_mag.2::
                         394 .LDWlin2:
00000022 9d0f2f00        395 	ld.bu	46[r29],r1
00000026 670a            396 	cmp	7,r1
00000028 aa05*           397 	bne	.L7
                         398 --207:         return;
                         399 --line207
                         400 ..lin.C.3A.5Cgit.5Crh850.5Csrc.5Capp.5Cgfx_apps.5Csimple_draw.5Ctarget.5Cd1mx_mango_ghs.5Cobj.5Cw_mag.3::
                         401 .LDWlin3:
0000002a 850d*           402 	br	.L2
                         403 .L7:
                         404 --208:     else 
                         405 --209:         W_Draw_Image_By_ID(PIC_ID_C_ICON_01_SEATBELT_W, 10, 125);    
                         406 --line209
                         407 ..lin.C.3A.5Cgit.5Crh850.5Csrc.5Capp.5Cgfx_apps.5Csimple_draw.5Ctarget.5Cd1mx_mango_ghs.5Cobj.5Cw_mag.4::
                         408 .LDWlin4:
0000002c 20364a00        409 	movea	74,zero,r6
00000030 0a3a            410 	mov	10,r7
00000032 20467d00        411 	movea	125,zero,r8
                         412 	jarl	_W_Draw_Image_By_ID,lp
                         412 <EXPANSION BEGIN>

                                                                      Page 8
                                                              C:\Users\Frank\AppData\Local\Temp\gh_0000p3g1.si
                         412 jarl22 _W_Draw_Image_By_ID , lp 
00000036 80ff0000*       412 <EXPANSION END>
                         413 .L6:
                         414 --210: }
                         415 .L2:
                         416 --	    .ef
                         417 .LDW11:
                         418 --line210
                         419 ..lin.C.3A.5Cgit.5Crh850.5Csrc.5Capp.5Cgfx_apps.5Csimple_draw.5Ctarget.5Cd1mx_mango_ghs.5Cobj.5Cw_mag.5::
                         420 .LDWlin5:
0000003a 40067f00        421 	dispose	0,{r29,r31},[lp]
                         422 	.type	_W_Cluster_Icon1,@function
                         423 	.size	_W_Cluster_Icon1,.-_W_Cluster_Icon1
                         424 	.align	2
                         425 .LDW21:
                         426 
                         427 	.section ".bss","awb"
                         428 	.align	4
                         429 .L50:
                         430 	.type	.L50,@object
                         431 	.size	.L50,0
                         432 	.global	_tclusterDHDDev..C.3A.5Cgit.5Crh850.5Csrc.5Capp.5Cgfx_apps.5Csimple_draw.5Ctarget.5Cd1mx_mango_ghs.5Cobj.5Cw_mag.
                         433 _tclusterDHDDev..C.3A.5Cgit.5Crh850.5Csrc.5Capp.5Cgfx_apps.5Csimple_draw.5Ctarget.5Cd1mx_mango_ghs.5Cobj.5Cw_mag.:
00000000 000000000000    434 _tclusterDHDDev:	.space	1360
00000006 000000000000 
0000000c 000000000000 
00000012 000000000000 
00000018 000000000000 
0000001e 000000000000 
00000024 000000000000 
0000002a 000000000000 
00000030 000000000000 
00000036 000000000000 
0000003c 000000000000 
00000042 000000000000 
00000048 000000000000 
0000004e 000000000000 
00000054 000000000000 
0000005a 000000000000 
00000060 000000000000 
00000066 000000000000 
0000006c 000000000000 
00000072 000000000000 
00000078 000000000000 
0000007e 000000000000 
00000084 000000000000 
0000008a 000000000000 
00000090 000000000000 
00000096 000000000000 
0000009c 000000000000 
000000a2 000000000000 
000000a8 000000000000 
000000ae 000000000000 
000000b4 000000000000 
000000ba 000000000000 
000000c0 000000000000 
000000c6 000000000000 
000000cc 000000000000 
000000d2 000000000000 
000000d8 000000000000 
000000de 000000000000 

                                                                      Page 9
                                                              C:\Users\Frank\AppData\Local\Temp\gh_0000p3g1.si
000000e4 000000000000 
000000ea 000000000000 
000000f0 000000000000 
000000f6 000000000000 
000000fc 00000000 
                         435 	.type	_tclusterDHDDev..C.3A.5Cgit.5Crh850.5Csrc.5Capp.5Cgfx_apps.5Csimple_draw.5Ctarget.5Cd1mx_mango_ghs.5Cobj.5Cw_mag.,@object
                         436 	.size	_tclusterDHDDev..C.3A.5Cgit.5Crh850.5Csrc.5Capp.5Cgfx_apps.5Csimple_draw.5Ctarget.5Cd1mx_mango_ghs.5Cobj.5Cw_mag.,1360
                         437 	.type	_tclusterDHDDev,@object
                         438 	.size	_tclusterDHDDev,1360
                         439 	.data
                         440 	.text
                         441 
                         442 
                         443 --212: void W_Cluster_Icon2(void)
                         444 	.align	2
                         445 	.align	2
                         446 	.global	_W_Cluster_Icon2
                         447 _W_Cluster_Icon2:
0000003e 80072100        448 	prepare	{r31},0
                         449 --	    .bf
                         450 .LDW31:
                         451 --213: {
                         452 --214:     if(gtmars_info.tcluster_info.u8acc_on_check_over == _G_FAIL )
00000042 210600000000*   453 	mov	_gtmars_info+4,r1
00000048 810f0100        454 	ld.bu	0[r1],r1
0000004c e009            455 	cmp	zero,r1
0000004e 8a0d*           456 	bne	.L79
                         457 --215:         W_Draw_Image_By_ID(PIC_ID_C_ICON_02_EPS_C, 10, 170);
                         458 --line215
                         459 ..lin.C.3A.5Cgit.5Crh850.5Csrc.5Capp.5Cgfx_apps.5Csimple_draw.5Ctarget.5Cd1mx_mango_ghs.5Cobj.5Cw_mag.6::
                         460 .LDWlin6:
00000050 20364b00        461 	movea	75,zero,r6
00000054 0a3a            462 	mov	10,r7
00000056 2046aa00        463 	movea	170,zero,r8
                         464 	jarl	_W_Draw_Image_By_ID,lp
                         464 <EXPANSION BEGIN>
                         464 jarl22 _W_Draw_Image_By_ID , lp 
0000005a 80ff0000*       464 <EXPANSION END>
                         465 .L79:
                         466 --216: }
                         467 --	    .ef
                         468 .LDW41:
                         469 --line216
                         470 ..lin.C.3A.5Cgit.5Crh850.5Csrc.5Capp.5Cgfx_apps.5Csimple_draw.5Ctarget.5Cd1mx_mango_ghs.5Cobj.5Cw_mag.7::
                         471 .LDWlin7:
0000005e 40063f00        472 	dispose	0,{r31},[lp]
                         473 	.type	_W_Cluster_Icon2,@function
                         474 	.size	_W_Cluster_Icon2,.-_W_Cluster_Icon2
                         475 	.align	2
                         476 .LDW51:
                         477 
                         478 	.section ".bss","awb"
                         479 .L102:
                         480 	.type	.L102,@object
                         481 	.size	.L102,0
                         482 	.data
                         483 	.text
                         484 
                         485 
                         486 --218: void W_Cluster_Icon3(void)
                         487 	.align	2

                                                                      Page 10
                                                              C:\Users\Frank\AppData\Local\Temp\gh_0000p3g1.si
                         488 	.align	2
                         489 	.global	_W_Cluster_Icon3
                         490 _W_Cluster_Icon3:
00000062 80072100        491 	prepare	{r31},0
                         492 --	    .bf
                         493 .LDW61:
                         494 --219: {
                         495 --220:     if(gtmars_info.tcluster_info.u8acc_on_check_over == _G_FAIL )
00000066 210600000000*   496 	mov	_gtmars_info+4,r1
0000006c 810f0100        497 	ld.bu	0[r1],r1
00000070 e009            498 	cmp	zero,r1
00000072 8a0d*           499 	bne	.L122
                         500 --221:         W_Draw_Image_By_ID(PIC_ID_C_ICON_03_ABS_C, 10, 225);    
                         501 --line221
                         502 ..lin.C.3A.5Cgit.5Crh850.5Csrc.5Capp.5Cgfx_apps.5Csimple_draw.5Ctarget.5Cd1mx_mango_ghs.5Cobj.5Cw_mag.8::
                         503 .LDWlin8:
00000074 20364e00        504 	movea	78,zero,r6
00000078 0a3a            505 	mov	10,r7
0000007a 2046e100        506 	movea	225,zero,r8
                         507 	jarl	_W_Draw_Image_By_ID,lp
                         507 <EXPANSION BEGIN>
                         507 jarl22 _W_Draw_Image_By_ID , lp 
0000007e 80ff0000*       507 <EXPANSION END>
                         508 .L122:
                         509 --222: }
                         510 --	    .ef
                         511 .LDW71:
                         512 --line222
                         513 ..lin.C.3A.5Cgit.5Crh850.5Csrc.5Capp.5Cgfx_apps.5Csimple_draw.5Ctarget.5Cd1mx_mango_ghs.5Cobj.5Cw_mag.9::
                         514 .LDWlin9:
00000082 40063f00        515 	dispose	0,{r31},[lp]
                         516 	.type	_W_Cluster_Icon3,@function
                         517 	.size	_W_Cluster_Icon3,.-_W_Cluster_Icon3
                         518 	.align	2
                         519 .LDW81:
                         520 
                         521 	.section ".bss","awb"
                         522 .L150:
                         523 	.type	.L150,@object
                         524 	.size	.L150,0
                         525 	.data
                         526 	.text
                         527 
                         528 
                         529 --224: void W_Cluster_Icon4(void)
                         530 	.align	2
                         531 	.align	2
                         532 	.global	_W_Cluster_Icon4
                         533 _W_Cluster_Icon4:
00000086 80072100        534 	prepare	{r31},0
                         535 --	    .bf
                         536 .LDW91:
                         537 --225: {
                         538 --226:     if(gtmars_info.tcluster_info.u8acc_on_check_over == _G_FAIL )
0000008a 210600000000*   539 	mov	_gtmars_info+4,r1
00000090 810f0100        540 	ld.bu	0[r1],r1
00000094 e009            541 	cmp	zero,r1
00000096 8a0d*           542 	bne	.L170
                         543 --227:         W_Draw_Image_By_ID(PIC_ID_C_ICON_04_AIRBAG_C, 10, 275);
                         544 --line227
                         545 ..lin.C.3A.5Cgit.5Crh850.5Csrc.5Capp.5Cgfx_apps.5Csimple_draw.5Ctarget.5Cd1mx_mango_ghs.5Cobj.5Cw_mag.10::

                                                                      Page 11
                                                              C:\Users\Frank\AppData\Local\Temp\gh_0000p3g1.si
                         546 .LDWlin10:
00000098 20365100        547 	movea	81,zero,r6
0000009c 0a3a            548 	mov	10,r7
0000009e 20461301        549 	movea	275,zero,r8
                         550 	jarl	_W_Draw_Image_By_ID,lp
                         550 <EXPANSION BEGIN>
                         550 jarl22 _W_Draw_Image_By_ID , lp 
000000a2 80ff0000*       550 <EXPANSION END>
                         551 .L170:
                         552 --228: }
                         553 --	    .ef
                         554 .LDW02:
                         555 --line228
                         556 ..lin.C.3A.5Cgit.5Crh850.5Csrc.5Capp.5Cgfx_apps.5Csimple_draw.5Ctarget.5Cd1mx_mango_ghs.5Cobj.5Cw_mag.11::
                         557 .LDWlin11:
000000a6 40063f00        558 	dispose	0,{r31},[lp]
                         559 	.type	_W_Cluster_Icon4,@function
                         560 	.size	_W_Cluster_Icon4,.-_W_Cluster_Icon4
                         561 	.align	2
                         562 .LDW12:
                         563 
                         564 	.section ".bss","awb"
                         565 .L198:
                         566 	.type	.L198,@object
                         567 	.size	.L198,0
                         568 	.data
                         569 	.text
                         570 
                         571 
                         572 --229: //----------------------------------------------------------------------------------------------------------------------------
                         573 --230: void W_Cluster_Icon5(void)
                         574 	.align	2
                         575 	.align	2
                         576 	.global	_W_Cluster_Icon5
                         577 _W_Cluster_Icon5:
000000aa 80076100        578 	prepare	{r29,r31},0
000000ae 3d0600000000*   579 	mov	_gtmars_info,r29
                         580 --	    .bf
                         581 .LDW22:
                         582 --231: {
                         583 --232:     if(gtmars_info.tcluster_info.u8acc_on_check_over == _G_FAIL )
000000b4 9d0f0500        584 	ld.bu	4[r29],r1
000000b8 e009            585 	cmp	zero,r1
000000ba 9a0d*           586 	bne	.L218
                         587 --233:         W_Draw_Image_By_ID(PIC_ID_C_ICON_05_LOW_VOLTAGE_C, 10, 325);
                         588 --line233
                         589 ..lin.C.3A.5Cgit.5Crh850.5Csrc.5Capp.5Cgfx_apps.5Csimple_draw.5Ctarget.5Cd1mx_mango_ghs.5Cobj.5Cw_mag.12::
                         590 .LDWlin12:
000000bc 20365400        591 	movea	84,zero,r6
000000c0 0a3a            592 	mov	10,r7
000000c2 20464501        593 	movea	325,zero,r8
                         594 	jarl	_W_Draw_Image_By_ID,lp
                         594 <EXPANSION BEGIN>
                         594 jarl22 _W_Draw_Image_By_ID , lp 
000000c6 80ff0000*       594 <EXPANSION END>
000000ca c50d*           595 	br	.L220
                         596 .L218:
                         597 --234:     else if(gtmars_info.tcar_info.tcan_id134_info.tfault_code2_info.battery_12v_under_voltage_fault  == _G_TRUE)
                         598 --line234
                         599 ..lin.C.3A.5Cgit.5Crh850.5Csrc.5Capp.5Cgfx_apps.5Csimple_draw.5Ctarget.5Cd1mx_mango_ghs.5Cobj.5Cw_mag.13::
                         600 .LDWlin13:

                                                                      Page 12
                                                              C:\Users\Frank\AppData\Local\Temp\gh_0000p3g1.si
000000cc 9d0f1700        601 	ld.bu	22[r29],r1
000000d0 810a            602 	shr	1,r1
000000d2 890d*           603 	bnl	.L220
                         604 --235:         W_Draw_Image_By_ID(PIC_ID_C_ICON_05_LOW_VOLTAGE_W, 10, 325);
                         605 --line235
                         606 ..lin.C.3A.5Cgit.5Crh850.5Csrc.5Capp.5Cgfx_apps.5Csimple_draw.5Ctarget.5Cd1mx_mango_ghs.5Cobj.5Cw_mag.14::
                         607 .LDWlin14:
000000d4 20365500        608 	movea	85,zero,r6
000000d8 0a3a            609 	mov	10,r7
000000da 20464501        610 	movea	325,zero,r8
                         611 	jarl	_W_Draw_Image_By_ID,lp
                         611 <EXPANSION BEGIN>
                         611 jarl22 _W_Draw_Image_By_ID , lp 
000000de 80ff0000*       611 <EXPANSION END>
                         612 .L220:
                         613 --236: }
                         614 --	    .ef
                         615 .LDW32:
                         616 --line236
                         617 ..lin.C.3A.5Cgit.5Crh850.5Csrc.5Capp.5Cgfx_apps.5Csimple_draw.5Ctarget.5Cd1mx_mango_ghs.5Cobj.5Cw_mag.15::
                         618 .LDWlin15:
000000e2 40067f00        619 	dispose	0,{r29,r31},[lp]
                         620 	.type	_W_Cluster_Icon5,@function
                         621 	.size	_W_Cluster_Icon5,.-_W_Cluster_Icon5
                         622 	.align	2
                         623 .LDW42:
                         624 
                         625 	.section ".bss","awb"
                         626 .L254:
                         627 	.type	.L254,@object
                         628 	.size	.L254,0
                         629 	.data
                         630 	.text
                         631 
                         632 
                         633 --237: //----------------------------------------------------------------------------------------------------------------------------
                         634 --238: void W_Cluster_Icon6(void)
                         635 	.align	2
                         636 	.align	2
                         637 	.global	_W_Cluster_Icon6
                         638 _W_Cluster_Icon6:
000000e6 80076100        639 	prepare	{r29,r31},0
000000ea 3d0600000000*   640 	mov	_gtmars_info,r29
                         641 --	    .bf
                         642 .LDW52:
                         643 --239: {
                         644 --240:     if(gtmars_info.tcluster_info.u8acc_on_check_over == _G_FAIL )
000000f0 9d0f0500        645 	ld.bu	4[r29],r1
000000f4 e009            646 	cmp	zero,r1
000000f6 9a0d*           647 	bne	.L280
                         648 --241:         W_Draw_Image_By_ID(PIC_ID_C_ICON_06_COOLANT_C, 10, 375);
                         649 --line241
                         650 ..lin.C.3A.5Cgit.5Crh850.5Csrc.5Capp.5Cgfx_apps.5Csimple_draw.5Ctarget.5Cd1mx_mango_ghs.5Cobj.5Cw_mag.16::
                         651 .LDWlin16:
000000f8 20365600        652 	movea	86,zero,r6
000000fc 0a3a            653 	mov	10,r7
000000fe 20467701        654 	movea	375,zero,r8
                         655 	jarl	_W_Draw_Image_By_ID,lp
                         655 <EXPANSION BEGIN>
                         655 jarl22 _W_Draw_Image_By_ID , lp 
00000102 80ff0000*       655 <EXPANSION END>

                                                                      Page 13
                                                              C:\Users\Frank\AppData\Local\Temp\gh_0000p3g1.si
00000106 c50d*           656 	br	.L282
                         657 .L280:
                         658 --242:     else if(gtmars_info.tcar_info.tcan_id133_info.tfault_code1_info.over_temperature_fault == _G_TRUE)
                         659 --line242
                         660 ..lin.C.3A.5Cgit.5Crh850.5Csrc.5Capp.5Cgfx_apps.5Csimple_draw.5Ctarget.5Cd1mx_mango_ghs.5Cobj.5Cw_mag.17::
                         661 .LDWlin17:
00000108 9d0f0f00        662 	ld.bu	14[r29],r1
0000010c 870a            663 	shr	7,r1
0000010e 890d*           664 	bnl	.L282
                         665 --243:         W_Draw_Image_By_ID(PIC_ID_C_ICON_06_COOLANT_W, 10, 375);
                         666 --line243
                         667 ..lin.C.3A.5Cgit.5Crh850.5Csrc.5Capp.5Cgfx_apps.5Csimple_draw.5Ctarget.5Cd1mx_mango_ghs.5Cobj.5Cw_mag.18::
                         668 .LDWlin18:
00000110 20365700        669 	movea	87,zero,r6
00000114 0a3a            670 	mov	10,r7
00000116 20467701        671 	movea	375,zero,r8
                         672 	jarl	_W_Draw_Image_By_ID,lp
                         672 <EXPANSION BEGIN>
                         672 jarl22 _W_Draw_Image_By_ID , lp 
0000011a 80ff0000*       672 <EXPANSION END>
                         673 .L282:
                         674 --244: }
                         675 --	    .ef
                         676 .LDW62:
                         677 --line244
                         678 ..lin.C.3A.5Cgit.5Crh850.5Csrc.5Capp.5Cgfx_apps.5Csimple_draw.5Ctarget.5Cd1mx_mango_ghs.5Cobj.5Cw_mag.19::
                         679 .LDWlin19:
0000011e 40067f00        680 	dispose	0,{r29,r31},[lp]
                         681 	.type	_W_Cluster_Icon6,@function
                         682 	.size	_W_Cluster_Icon6,.-_W_Cluster_Icon6
                         683 	.align	2
                         684 .LDW72:
                         685 
                         686 	.section ".bss","awb"
                         687 .L318:
                         688 	.type	.L318,@object
                         689 	.size	.L318,0
                         690 	.data
                         691 	.text
                         692 
                         693 
                         694 --245: //----------------------------------------------------------------------------------------------------------------------------
                         695 --246: void W_Cluster_Icon7(void)
                         696 	.align	2
                         697 	.align	2
                         698 	.global	_W_Cluster_Icon7
                         699 _W_Cluster_Icon7:
00000122 80076100        700 	prepare	{r29,r31},0
00000126 3d0600000000*   701 	mov	_gtmars_info,r29
                         702 --	    .bf
                         703 .LDW82:
                         704 --247: {
                         705 --248:     if(gtmars_info.tcluster_info.u8acc_on_check_over == _G_FAIL )
0000012c 9d0f0500        706 	ld.bu	4[r29],r1
00000130 e009            707 	cmp	zero,r1
00000132 aa0d*           708 	bne	.L344
                         709 --249:         W_Draw_Image_By_ID(PIC_ID_C_ICON_07_HIGH_VOLTAGE_C, 60, 125);
                         710 --line249
                         711 ..lin.C.3A.5Cgit.5Crh850.5Csrc.5Capp.5Cgfx_apps.5Csimple_draw.5Ctarget.5Cd1mx_mango_ghs.5Cobj.5Cw_mag.20::
                         712 .LDWlin20:
00000134 20365800        713 	movea	88,zero,r6

                                                                      Page 14
                                                              C:\Users\Frank\AppData\Local\Temp\gh_0000p3g1.si
00000138 203e3c00        714 	movea	60,zero,r7
0000013c 20467d00        715 	movea	125,zero,r8
                         716 	jarl	_W_Draw_Image_By_ID,lp
                         716 <EXPANSION BEGIN>
                         716 jarl22 _W_Draw_Image_By_ID , lp 
00000140 80ff0000*       716 <EXPANSION END>
00000144 f50d*           717 	br	.L346
                         718 .L344:
                         719 --250:     else if(gtmars_info.tcar_info.tcan_id133_info.tfault_code1_info.hv_sys_fault == _G_TRUE ) 
                         720 --line250
                         721 ..lin.C.3A.5Cgit.5Crh850.5Csrc.5Capp.5Cgfx_apps.5Csimple_draw.5Ctarget.5Cd1mx_mango_ghs.5Cobj.5Cw_mag.21::
                         722 .LDWlin21:
00000146 9d0f0f00        723 	ld.bu	14[r29],r1
0000014a 830a            724 	shr	3,r1
0000014c a90d*           725 	bnl	.L347
                         726 --251:         W_Draw_Image_By_ID(PIC_ID_C_ICON_07_HIGH_VOLTAGE_W, 60, 125);
                         727 --line251
                         728 ..lin.C.3A.5Cgit.5Crh850.5Csrc.5Capp.5Cgfx_apps.5Csimple_draw.5Ctarget.5Cd1mx_mango_ghs.5Cobj.5Cw_mag.22::
                         729 .LDWlin22:
0000014e 20365900        730 	movea	89,zero,r6
00000152 203e3c00        731 	movea	60,zero,r7
00000156 20467d00        732 	movea	125,zero,r8
                         733 	jarl	_W_Draw_Image_By_ID,lp
                         733 <EXPANSION BEGIN>
                         733 jarl22 _W_Draw_Image_By_ID , lp 
0000015a 80ff0000*       733 <EXPANSION END>
0000015e a505*           734 	br	.L346
                         735 .L347:
                         736 --252:     else 
                         737 --253:         return;    
                         738 --line253
                         739 ..lin.C.3A.5Cgit.5Crh850.5Csrc.5Capp.5Cgfx_apps.5Csimple_draw.5Ctarget.5Cd1mx_mango_ghs.5Cobj.5Cw_mag.23::
                         740 .LDWlin23:
00000160 0000            741 	nop
                         742 .L346:
                         743 --254: }
                         744 --	    .ef
                         745 .LDW92:
00000162 40067f00        746 	dispose	0,{r29,r31},[lp]
                         747 	.type	_W_Cluster_Icon7,@function
                         748 	.size	_W_Cluster_Icon7,.-_W_Cluster_Icon7
                         749 	.align	2
                         750 .LDW03:
                         751 
                         752 	.section ".bss","awb"
                         753 .L386:
                         754 	.type	.L386,@object
                         755 	.size	.L386,0
                         756 	.data
                         757 	.text
                         758 
                         759 
                         760 --255: //----------------------------------------------------------------------------------------------------------------------------
                         761 --256: void W_Cluster_Icon8(void)
                         762 	.align	2
                         763 	.align	2
                         764 	.global	_W_Cluster_Icon8
                         765 _W_Cluster_Icon8:
00000166 80076100        766 	prepare	{r29,r31},0
0000016a 3d0600000000*   767 	mov	_gtmars_info,r29
                         768 --	    .bf

                                                                      Page 15
                                                              C:\Users\Frank\AppData\Local\Temp\gh_0000p3g1.si
                         769 .LDW13:
                         770 --257: {
                         771 --258:     if(gtmars_info.tcluster_info.u8acc_on_check_over == _G_FAIL )
00000170 9d0f0500        772 	ld.bu	4[r29],r1
00000174 e009            773 	cmp	zero,r1
00000176 aa0d*           774 	bne	.L415
                         775 --259:         W_Draw_Image_By_ID(PIC_ID_C_ICON_08_MOTOR_C, 60, 175);
                         776 --line259
                         777 ..lin.C.3A.5Cgit.5Crh850.5Csrc.5Capp.5Cgfx_apps.5Csimple_draw.5Ctarget.5Cd1mx_mango_ghs.5Cobj.5Cw_mag.24::
                         778 .LDWlin24:
00000178 20365a00        779 	movea	90,zero,r6
0000017c 203e3c00        780 	movea	60,zero,r7
00000180 2046af00        781 	movea	175,zero,r8
                         782 	jarl	_W_Draw_Image_By_ID,lp
                         782 <EXPANSION BEGIN>
                         782 jarl22 _W_Draw_Image_By_ID , lp 
00000184 80ff0000*       782 <EXPANSION END>
00000188 f50d*           783 	br	.L417
                         784 .L415:
                         785 --260:     else if(gtmars_info.tcar_info.tcan_id133_info.tfault_code1_info.drive_sys_fault == _G_TRUE ) 
                         786 --line260
                         787 ..lin.C.3A.5Cgit.5Crh850.5Csrc.5Capp.5Cgfx_apps.5Csimple_draw.5Ctarget.5Cd1mx_mango_ghs.5Cobj.5Cw_mag.25::
                         788 .LDWlin25:
0000018a 9d0f0f00        789 	ld.bu	14[r29],r1
0000018e 810a            790 	shr	1,r1
00000190 a90d*           791 	bnl	.L418
                         792 --261:         W_Draw_Image_By_ID(PIC_ID_C_ICON_08_MOTOR_W, 60, 175);
                         793 --line261
                         794 ..lin.C.3A.5Cgit.5Crh850.5Csrc.5Capp.5Cgfx_apps.5Csimple_draw.5Ctarget.5Cd1mx_mango_ghs.5Cobj.5Cw_mag.26::
                         795 .LDWlin26:
00000192 20365b00        796 	movea	91,zero,r6
00000196 203e3c00        797 	movea	60,zero,r7
0000019a 2046af00        798 	movea	175,zero,r8
                         799 	jarl	_W_Draw_Image_By_ID,lp
                         799 <EXPANSION BEGIN>
                         799 jarl22 _W_Draw_Image_By_ID , lp 
0000019e 80ff0000*       799 <EXPANSION END>
000001a2 a505*           800 	br	.L417
                         801 .L418:
                         802 --262:     else 
                         803 --263:         return;
                         804 --line263
                         805 ..lin.C.3A.5Cgit.5Crh850.5Csrc.5Capp.5Cgfx_apps.5Csimple_draw.5Ctarget.5Cd1mx_mango_ghs.5Cobj.5Cw_mag.27::
                         806 .LDWlin27:
000001a4 0000            807 	nop
                         808 .L417:
                         809 --264: }
                         810 --	    .ef
                         811 .LDW23:
000001a6 40067f00        812 	dispose	0,{r29,r31},[lp]
                         813 	.type	_W_Cluster_Icon8,@function
                         814 	.size	_W_Cluster_Icon8,.-_W_Cluster_Icon8
                         815 	.align	2
                         816 .LDW33:
                         817 
                         818 	.section ".bss","awb"
                         819 .L466:
                         820 	.type	.L466,@object
                         821 	.size	.L466,0
                         822 	.data
                         823 	.text

                                                                      Page 16
                                                              C:\Users\Frank\AppData\Local\Temp\gh_0000p3g1.si
                         824 
                         825 
                         826 --265: //----------------------------------------------------------------------------------------------------------------------------
                         827 --266: void W_Cluster_Icon9(void)
                         828 	.align	2
                         829 	.align	2
                         830 	.global	_W_Cluster_Icon9
                         831 _W_Cluster_Icon9:
000001aa 80076100        832 	prepare	{r29,r31},0
000001ae 3d0600000000*   833 	mov	_gtmars_info,r29
                         834 --	    .bf
                         835 .LDW43:
                         836 --267: {
                         837 --268:     if(gtmars_info.tcluster_info.u8acc_on_check_over == _G_FAIL )
000001b4 9d0f0500        838 	ld.bu	4[r29],r1
000001b8 e009            839 	cmp	zero,r1
000001ba aa0d*           840 	bne	.L495
                         841 --269:         W_Draw_Image_By_ID(PIC_ID_C_ICON_09_TRANSMISSION_C, 60, 225);
                         842 --line269
                         843 ..lin.C.3A.5Cgit.5Crh850.5Csrc.5Capp.5Cgfx_apps.5Csimple_draw.5Ctarget.5Cd1mx_mango_ghs.5Cobj.5Cw_mag.28::
                         844 .LDWlin28:
000001bc 20365c00        845 	movea	92,zero,r6
000001c0 203e3c00        846 	movea	60,zero,r7
000001c4 2046e100        847 	movea	225,zero,r8
                         848 	jarl	_W_Draw_Image_By_ID,lp
                         848 <EXPANSION BEGIN>
                         848 jarl22 _W_Draw_Image_By_ID , lp 
000001c8 80ff0000*       848 <EXPANSION END>
000001cc f50d*           849 	br	.L497
                         850 .L495:
                         851 --270:     else if(gtmars_info.tcar_info.tcan_id133_info.tfault_code1_info.transmission_sys_fault == _G_TRUE ) 
                         852 --line270
                         853 ..lin.C.3A.5Cgit.5Crh850.5Csrc.5Capp.5Cgfx_apps.5Csimple_draw.5Ctarget.5Cd1mx_mango_ghs.5Cobj.5Cw_mag.29::
                         854 .LDWlin29:
000001ce 9d0f0f00        855 	ld.bu	14[r29],r1
000001d2 860a            856 	shr	6,r1
000001d4 a90d*           857 	bnl	.L498
                         858 --271:         W_Draw_Image_By_ID(PIC_ID_C_ICON_09_TRANSMISSION_W, 60, 225);
                         859 --line271
                         860 ..lin.C.3A.5Cgit.5Crh850.5Csrc.5Capp.5Cgfx_apps.5Csimple_draw.5Ctarget.5Cd1mx_mango_ghs.5Cobj.5Cw_mag.30::
                         861 .LDWlin30:
000001d6 20365d00        862 	movea	93,zero,r6
000001da 203e3c00        863 	movea	60,zero,r7
000001de 2046e100        864 	movea	225,zero,r8
                         865 	jarl	_W_Draw_Image_By_ID,lp
                         865 <EXPANSION BEGIN>
                         865 jarl22 _W_Draw_Image_By_ID , lp 
000001e2 80ff0000*       865 <EXPANSION END>
000001e6 a505*           866 	br	.L497
                         867 .L498:
                         868 --272:     else 
                         869 --273:         return;  
                         870 --line273
                         871 ..lin.C.3A.5Cgit.5Crh850.5Csrc.5Capp.5Cgfx_apps.5Csimple_draw.5Ctarget.5Cd1mx_mango_ghs.5Cobj.5Cw_mag.31::
                         872 .LDWlin31:
000001e8 0000            873 	nop
                         874 .L497:
                         875 --274: }
                         876 --	    .ef
                         877 .LDW53:
000001ea 40067f00        878 	dispose	0,{r29,r31},[lp]

                                                                      Page 17
                                                              C:\Users\Frank\AppData\Local\Temp\gh_0000p3g1.si
                         879 	.type	_W_Cluster_Icon9,@function
                         880 	.size	_W_Cluster_Icon9,.-_W_Cluster_Icon9
                         881 	.align	2
                         882 .LDW63:
                         883 
                         884 	.section ".bss","awb"
                         885 .L546:
                         886 	.type	.L546,@object
                         887 	.size	.L546,0
                         888 	.data
                         889 	.text
                         890 
                         891 
                         892 --275: //----------------------------------------------------------------------------------------------------------------------------
                         893 --276: void W_Cluster_Icon10(void)
                         894 	.align	2
                         895 	.align	2
                         896 	.global	_W_Cluster_Icon10
                         897 _W_Cluster_Icon10:
000001ee 80076100        898 	prepare	{r29,r31},0
000001f2 3d0600000000*   899 	mov	_gtmars_info,r29
                         900 --	    .bf
                         901 .LDW73:
                         902 --277: {
                         903 --278:     if(gtmars_info.tcluster_info.u8acc_on_check_over == _G_FAIL )
000001f8 9d0f0500        904 	ld.bu	4[r29],r1
000001fc e009            905 	cmp	zero,r1
000001fe aa0d*           906 	bne	.L575
                         907 --279:         W_Draw_Image_By_ID(PIC_ID_C_ICON_10_TIRE_C, 60, 275);
                         908 --line279
                         909 ..lin.C.3A.5Cgit.5Crh850.5Csrc.5Capp.5Cgfx_apps.5Csimple_draw.5Ctarget.5Cd1mx_mango_ghs.5Cobj.5Cw_mag.32::
                         910 .LDWlin32:
00000200 20365e00        911 	movea	94,zero,r6
00000204 203e3c00        912 	movea	60,zero,r7
00000208 20461301        913 	movea	275,zero,r8
                         914 	jarl	_W_Draw_Image_By_ID,lp
                         914 <EXPANSION BEGIN>
                         914 jarl22 _W_Draw_Image_By_ID , lp 
0000020c 80ff0000*       914 <EXPANSION END>
00000210 f50d*           915 	br	.L577
                         916 .L575:
                         917 --280:     else if(gtmars_info.tcar_info.tcan_id340_info.toperation2_mode_flag_info.tpms_flag  == _G_TRUE ) 
                         918 --line280
                         919 ..lin.C.3A.5Cgit.5Crh850.5Csrc.5Capp.5Cgfx_apps.5Csimple_draw.5Ctarget.5Cd1mx_mango_ghs.5Cobj.5Cw_mag.33::
                         920 .LDWlin33:
00000212 bd0f3500        921 	ld.bu	53[r29],r1
00000216 810a            922 	shr	1,r1
00000218 a90d*           923 	bnl	.L578
                         924 --281:         W_Draw_Image_By_ID(PIC_ID_C_ICON_10_TIRE_W, 60, 275);
                         925 --line281
                         926 ..lin.C.3A.5Cgit.5Crh850.5Csrc.5Capp.5Cgfx_apps.5Csimple_draw.5Ctarget.5Cd1mx_mango_ghs.5Cobj.5Cw_mag.34::
                         927 .LDWlin34:
0000021a 20365f00        928 	movea	95,zero,r6
0000021e 203e3c00        929 	movea	60,zero,r7
00000222 20461301        930 	movea	275,zero,r8
                         931 	jarl	_W_Draw_Image_By_ID,lp
                         931 <EXPANSION BEGIN>
                         931 jarl22 _W_Draw_Image_By_ID , lp 
00000226 80ff0000*       931 <EXPANSION END>
0000022a a505*           932 	br	.L577
                         933 .L578:

                                                                      Page 18
                                                              C:\Users\Frank\AppData\Local\Temp\gh_0000p3g1.si
                         934 --282:     else 
                         935 --283:         return;
                         936 --line283
                         937 ..lin.C.3A.5Cgit.5Crh850.5Csrc.5Capp.5Cgfx_apps.5Csimple_draw.5Ctarget.5Cd1mx_mango_ghs.5Cobj.5Cw_mag.35::
                         938 .LDWlin35:
0000022c 0000            939 	nop
                         940 .L577:
                         941 --284: }
                         942 --	    .ef
                         943 .LDW83:
0000022e 40067f00        944 	dispose	0,{r29,r31},[lp]
                         945 	.type	_W_Cluster_Icon10,@function
                         946 	.size	_W_Cluster_Icon10,.-_W_Cluster_Icon10
                         947 	.align	2
                         948 .LDW93:
                         949 
                         950 	.section ".bss","awb"
                         951 .L626:
                         952 	.type	.L626,@object
                         953 	.size	.L626,0
                         954 	.data
                         955 	.text
                         956 
                         957 
                         958 --285: //----------------------------------------------------------------------------------------------------------------------------
                         959 --286: void W_Cluster_Icon13(void)
                         960 	.align	2
                         961 	.align	2
                         962 	.global	_W_Cluster_Icon13
                         963 _W_Cluster_Icon13:
00000232 80076100        964 	prepare	{r29,r31},0
00000236 3d0600000000*   965 	mov	_gtmars_info+8,r29
                         966 --	    .bf
                         967 .LDW04:
                         968 --287: {
                         969 --288:     if(gtmars_info.tcar_info.tcan_id434_info.toperation1_mode_flag_info.head_lamp_malfunction_flag == _G_TRUE )
0000023c bd0f2900        970 	ld.bu	41[r29],r1
00000240 810a            971 	shr	1,r1
00000242 a90d*           972 	bnl	.L655
                         973 --289:         W_Draw_Image_By_ID(PIC_ID_C_ICON_13_LAMP_MALFUNCTIONS, 1225, 125);
                         974 --line289
                         975 ..lin.C.3A.5Cgit.5Crh850.5Csrc.5Capp.5Cgfx_apps.5Csimple_draw.5Ctarget.5Cd1mx_mango_ghs.5Cobj.5Cw_mag.36::
                         976 .LDWlin36:
00000244 20366100        977 	movea	97,zero,r6
00000248 203ec904        978 	movea	1225,zero,r7
0000024c 20467d00        979 	movea	125,zero,r8
                         980 	jarl	_W_Draw_Image_By_ID,lp
                         980 <EXPANSION BEGIN>
                         980 jarl22 _W_Draw_Image_By_ID , lp 
00000250 80ff0000*       980 <EXPANSION END>
00000254 8525*           981 	br	.L657
                         982 .L655:
                         983 --290:     else if(gtmars_info.tcar_info.tcan_id434_info.tlamp_status_info.u8head_lamp_auto == _G_TRUE ) 
                         984 --line290
                         985 ..lin.C.3A.5Cgit.5Crh850.5Csrc.5Capp.5Cgfx_apps.5Csimple_draw.5Ctarget.5Cd1mx_mango_ghs.5Cobj.5Cw_mag.37::
                         986 .LDWlin37:
00000256 bd0f2500        987 	ld.bu	37[r29],r1
0000025a 880a            988 	shr	8,r1
0000025c a90d*           989 	bnl	.L658
                         990 --291:         W_Draw_Image_By_ID(PIC_ID_C_ICON_13_HEADLAMP_AUTO, 1225, 125);
                         991 --line291

                                                                      Page 19
                                                              C:\Users\Frank\AppData\Local\Temp\gh_0000p3g1.si
                         992 ..lin.C.3A.5Cgit.5Crh850.5Csrc.5Capp.5Cgfx_apps.5Csimple_draw.5Ctarget.5Cd1mx_mango_ghs.5Cobj.5Cw_mag.38::
                         993 .LDWlin38:
0000025e 20366000        994 	movea	96,zero,r6
00000262 203ec904        995 	movea	1225,zero,r7
00000266 20467d00        996 	movea	125,zero,r8
                         997 	jarl	_W_Draw_Image_By_ID,lp
                         997 <EXPANSION BEGIN>
                         997 jarl22 _W_Draw_Image_By_ID , lp 
0000026a 80ff0000*       997 <EXPANSION END>
0000026e b515*           998 	br	.L657
                         999 .L658:
                        1000 --292:     else if((gtmars_info.tcar_info.tcan_id287_info.tlamp_form_can_info.tail_lamp == _G_TRUE) ||
                        1001 --line292
                        1002 ..lin.C.3A.5Cgit.5Crh850.5Csrc.5Capp.5Cgfx_apps.5Csimple_draw.5Ctarget.5Cd1mx_mango_ghs.5Cobj.5Cw_mag.39::
                        1003 .LDWlin39:
00000270 9d0f3d00       1004 	ld.bu	60[r29],r1
00000274 830a           1005 	shr	3,r1
00000276 d105*          1006 	bl	.L662
00000278 9d0f4100       1007 	ld.bu	64[r29],r1
0000027c 820a           1008 	shr	2,r1
0000027e a90d*          1009 	bnl	.L661
                        1010 .L662:
                        1011 --293:         (gtmars_info.tcar_info.tcar_power_light_info.tcar_light_info.tail_lamp == _G_TRUE))
                        1012 --294:         W_Draw_Image_By_ID(PIC_ID_C_ICON_13_POSITION_LAMP, 1225, 125);
                        1013 --line294
                        1014 ..lin.C.3A.5Cgit.5Crh850.5Csrc.5Capp.5Cgfx_apps.5Csimple_draw.5Ctarget.5Cd1mx_mango_ghs.5Cobj.5Cw_mag.40::
                        1015 .LDWlin40:
00000280 20366200       1016 	movea	98,zero,r6
00000284 203ec904       1017 	movea	1225,zero,r7
00000288 20467d00       1018 	movea	125,zero,r8
                        1019 	jarl	_W_Draw_Image_By_ID,lp
                        1019 <EXPANSION BEGIN>
                        1019 jarl22 _W_Draw_Image_By_ID , lp 
0000028c 80ff0000*      1019 <EXPANSION END>
00000290 a505*          1020 	br	.L657
                        1021 .L661:
                        1022 --295:     else 
                        1023 --296:         return;    
                        1024 --line296
                        1025 ..lin.C.3A.5Cgit.5Crh850.5Csrc.5Capp.5Cgfx_apps.5Csimple_draw.5Ctarget.5Cd1mx_mango_ghs.5Cobj.5Cw_mag.41::
                        1026 .LDWlin41:
00000292 0000           1027 	nop
                        1028 .L657:
                        1029 --297: }
                        1030 --	    .ef
                        1031 .LDW14:
00000294 40067f00       1032 	dispose	0,{r29,r31},[lp]
                        1033 	.type	_W_Cluster_Icon13,@function
                        1034 	.size	_W_Cluster_Icon13,.-_W_Cluster_Icon13
                        1035 	.align	2
                        1036 .LDW24:
                        1037 
                        1038 	.section ".bss","awb"
                        1039 .L718:
                        1040 	.type	.L718,@object
                        1041 	.size	.L718,0
                        1042 	.data
                        1043 	.text
                        1044 
                        1045 
                        1046 --298: //----------------------------------------------------------------------------------------------------------------------------

                                                                      Page 20
                                                              C:\Users\Frank\AppData\Local\Temp\gh_0000p3g1.si
                        1047 --299: void W_Cluster_Icon14(void)
                        1048 	.align	2
                        1049 	.align	2
                        1050 	.global	_W_Cluster_Icon14
                        1051 _W_Cluster_Icon14:
00000298 80076100       1052 	prepare	{r29,r31},0
0000029c 3d0600000000*  1053 	mov	_gtmars_info+8,r29
                        1054 --	    .bf
                        1055 .LDW34:
                        1056 --300: {
                        1057 --301:     if((gtmars_info.tcar_info.tcan_id287_info.tlamp_form_can_info.head_lamp_high == _G_TRUE) ||
000002a2 9d0f3d00       1058 	ld.bu	60[r29],r1
000002a6 810a           1059 	shr	1,r1
000002a8 d105*          1060 	bl	.L757
000002aa 9d0f4100       1061 	ld.bu	64[r29],r1
000002ae 830a           1062 	shr	3,r1
000002b0 a90d*          1063 	bnl	.L756
                        1064 .L757:
                        1065 --302:         (gtmars_info.tcar_info.tcar_power_light_info.tcar_light_info.head_lamp_h == _G_TRUE))
                        1066 --303:         W_Draw_Image_By_ID(PIC_ID_C_ICON_14_HEADLAMP_HIGH, 1225, 175);
                        1067 --line303
                        1068 ..lin.C.3A.5Cgit.5Crh850.5Csrc.5Capp.5Cgfx_apps.5Csimple_draw.5Ctarget.5Cd1mx_mango_ghs.5Cobj.5Cw_mag.42::
                        1069 .LDWlin42:
000002b2 20366300       1070 	movea	99,zero,r6
000002b6 203ec904       1071 	movea	1225,zero,r7
000002ba 2046af00       1072 	movea	175,zero,r8
                        1073 	jarl	_W_Draw_Image_By_ID,lp
                        1073 <EXPANSION BEGIN>
                        1073 jarl22 _W_Draw_Image_By_ID , lp 
000002be 80ff0000*      1073 <EXPANSION END>
000002c2 9515*          1074 	br	.L759
                        1075 .L756:
                        1076 --304:     else if((gtmars_info.tcar_info.tcan_id287_info.tlamp_form_can_info.head_lamp_low == _G_TRUE )||
                        1077 --line304
                        1078 ..lin.C.3A.5Cgit.5Crh850.5Csrc.5Capp.5Cgfx_apps.5Csimple_draw.5Ctarget.5Cd1mx_mango_ghs.5Cobj.5Cw_mag.43::
                        1079 .LDWlin43:
000002c4 9d0f3d00       1080 	ld.bu	60[r29],r1
000002c8 820a           1081 	shr	2,r1
000002ca d105*          1082 	bl	.L761
000002cc 9d0f4100       1083 	ld.bu	64[r29],r1
000002d0 840a           1084 	shr	4,r1
000002d2 990d*          1085 	bnl	.L759
                        1086 .L761:
                        1087 --305:         (gtmars_info.tcar_info.tcar_power_light_info.tcar_light_info.head_lamp_l == _G_TRUE))
                        1088 --306:         W_Draw_Image_By_ID(PIC_ID_C_ICON_14_HEADLAMP_LOW, 1225, 175);
                        1089 --line306
                        1090 ..lin.C.3A.5Cgit.5Crh850.5Csrc.5Capp.5Cgfx_apps.5Csimple_draw.5Ctarget.5Cd1mx_mango_ghs.5Cobj.5Cw_mag.44::
                        1091 .LDWlin44:
000002d4 20366400       1092 	movea	100,zero,r6
000002d8 203ec904       1093 	movea	1225,zero,r7
000002dc 2046af00       1094 	movea	175,zero,r8
                        1095 	jarl	_W_Draw_Image_By_ID,lp
                        1095 <EXPANSION BEGIN>
                        1095 jarl22 _W_Draw_Image_By_ID , lp 
000002e0 80ff0000*      1095 <EXPANSION END>
                        1096 .L759:
                        1097 --307: }
                        1098 --	    .ef
                        1099 .LDW44:
                        1100 --line307
                        1101 ..lin.C.3A.5Cgit.5Crh850.5Csrc.5Capp.5Cgfx_apps.5Csimple_draw.5Ctarget.5Cd1mx_mango_ghs.5Cobj.5Cw_mag.45::

                                                                      Page 21
                                                              C:\Users\Frank\AppData\Local\Temp\gh_0000p3g1.si
                        1102 .LDWlin45:
000002e4 40067f00       1103 	dispose	0,{r29,r31},[lp]
                        1104 	.type	_W_Cluster_Icon14,@function
                        1105 	.size	_W_Cluster_Icon14,.-_W_Cluster_Icon14
                        1106 	.align	2
                        1107 .LDW54:
                        1108 
                        1109 	.section ".bss","awb"
                        1110 .L806:
                        1111 	.type	.L806,@object
                        1112 	.size	.L806,0
                        1113 	.data
                        1114 	.text
                        1115 
                        1116 
                        1117 --308: //----------------------------------------------------------------------------------------------------------------------------
                        1118 --309: void W_Cluster_Icon15(void)
                        1119 	.align	2
                        1120 	.align	2
                        1121 	.global	_W_Cluster_Icon15
                        1122 _W_Cluster_Icon15:
000002e8 80076100       1123 	prepare	{r29,r31},0
000002ec 3d0600000000*  1124 	mov	_gtmars_info+44,r29
                        1125 --	    .bf
                        1126 .LDW64:
                        1127 --310: {
                        1128 --311:     if((gtmars_info.tcar_info.tcan_id434_info.twiper_status_info.u8wiper_status_byte && 0x03) >= 0x01)
000002f2 bd770300       1129 	ld.bu	3[r29],r14
000002f6 e071           1130 	cmp	zero,r14
000002f8 ea0f0000       1131 	setfne	r1
000002fc 610a           1132 	cmp	1,r1
000002fe a60d*          1133 	blt	.L838
                        1134 --312:         W_Draw_Image_By_ID(PIC_ID_C_ICON_15_WIPER_HIGHLOW, 1225, 225);
                        1135 --line312
                        1136 ..lin.C.3A.5Cgit.5Crh850.5Csrc.5Capp.5Cgfx_apps.5Csimple_draw.5Ctarget.5Cd1mx_mango_ghs.5Cobj.5Cw_mag.46::
                        1137 .LDWlin46:
00000300 20366600       1138 	movea	102,zero,r6
00000304 203ec904       1139 	movea	1225,zero,r7
00000308 2046e100       1140 	movea	225,zero,r8
                        1141 	jarl	_W_Draw_Image_By_ID,lp
                        1141 <EXPANSION BEGIN>
                        1141 jarl22 _W_Draw_Image_By_ID , lp 
0000030c 80ff0000*      1141 <EXPANSION END>
00000310 c535*          1142 	br	.L843
                        1143 .L838:
                        1144 --313:     else if(gtmars_info.tcar_info.tcan_id434_info.twiper_status_info.wiper_intermittent == _G_TRUE ) 
                        1145 --line313
                        1146 ..lin.C.3A.5Cgit.5Crh850.5Csrc.5Capp.5Cgfx_apps.5Csimple_draw.5Ctarget.5Cd1mx_mango_ghs.5Cobj.5Cw_mag.47::
                        1147 .LDWlin47:
00000312 bd0f0300       1148 	ld.bu	3[r29],r1
00000316 830a           1149 	shr	3,r1
00000318 a90d*          1150 	bnl	.L844
                        1151 --314:         W_Draw_Image_By_ID(PIC_ID_C_ICON_15_WIPER_INTERMITTENT, 1225, 225);
                        1152 --line314
                        1153 ..lin.C.3A.5Cgit.5Crh850.5Csrc.5Capp.5Cgfx_apps.5Csimple_draw.5Ctarget.5Cd1mx_mango_ghs.5Cobj.5Cw_mag.48::
                        1154 .LDWlin48:
0000031a 20366700       1155 	movea	103,zero,r6
0000031e 203ec904       1156 	movea	1225,zero,r7
00000322 2046e100       1157 	movea	225,zero,r8
                        1158 	jarl	_W_Draw_Image_By_ID,lp
                        1158 <EXPANSION BEGIN>

                                                                      Page 22
                                                              C:\Users\Frank\AppData\Local\Temp\gh_0000p3g1.si
                        1158 jarl22 _W_Draw_Image_By_ID , lp 
00000326 80ff0000*      1158 <EXPANSION END>
0000032a f525*          1159 	br	.L843
                        1160 .L844:
                        1161 --315:     else if(gtmars_info.tcar_info.tcan_id434_info.twiper_status_info.screen_washing_on == _G_TRUE ) 
                        1162 --line315
                        1163 ..lin.C.3A.5Cgit.5Crh850.5Csrc.5Capp.5Cgfx_apps.5Csimple_draw.5Ctarget.5Cd1mx_mango_ghs.5Cobj.5Cw_mag.49::
                        1164 .LDWlin49:
0000032c bd0f0300       1165 	ld.bu	3[r29],r1
00000330 870a           1166 	shr	7,r1
00000332 a90d*          1167 	bnl	.L847
                        1168 --316:         W_Draw_Image_By_ID(PIC_ID_C_ICON_15_WIPER_WASHING, 1225, 225);
                        1169 --line316
                        1170 ..lin.C.3A.5Cgit.5Crh850.5Csrc.5Capp.5Cgfx_apps.5Csimple_draw.5Ctarget.5Cd1mx_mango_ghs.5Cobj.5Cw_mag.50::
                        1171 .LDWlin50:
00000334 20366900       1172 	movea	105,zero,r6
00000338 203ec904       1173 	movea	1225,zero,r7
0000033c 2046e100       1174 	movea	225,zero,r8
                        1175 	jarl	_W_Draw_Image_By_ID,lp
                        1175 <EXPANSION BEGIN>
                        1175 jarl22 _W_Draw_Image_By_ID , lp 
00000340 80ff0000*      1175 <EXPANSION END>
00000344 a51d*          1176 	br	.L843
                        1177 .L847:
                        1178 --317:     else if(gtmars_info.tcar_info.tcan_id434_info.twiper_status_info.wiper_auto_on == _G_TRUE ) 
                        1179 --line317
                        1180 ..lin.C.3A.5Cgit.5Crh850.5Csrc.5Capp.5Cgfx_apps.5Csimple_draw.5Ctarget.5Cd1mx_mango_ghs.5Cobj.5Cw_mag.51::
                        1181 .LDWlin51:
00000346 bd0f0300       1182 	ld.bu	3[r29],r1
0000034a 880a           1183 	shr	8,r1
0000034c a90d*          1184 	bnl	.L850
                        1185 --318:         W_Draw_Image_By_ID(PIC_ID_C_ICON_15_WIPER_AUTO, 1225, 225);
                        1186 --line318
                        1187 ..lin.C.3A.5Cgit.5Crh850.5Csrc.5Capp.5Cgfx_apps.5Csimple_draw.5Ctarget.5Cd1mx_mango_ghs.5Cobj.5Cw_mag.52::
                        1188 .LDWlin52:
0000034e 20366500       1189 	movea	101,zero,r6
00000352 203ec904       1190 	movea	1225,zero,r7
00000356 2046e100       1191 	movea	225,zero,r8
                        1192 	jarl	_W_Draw_Image_By_ID,lp
                        1192 <EXPANSION BEGIN>
                        1192 jarl22 _W_Draw_Image_By_ID , lp 
0000035a 80ff0000*      1192 <EXPANSION END>
0000035e d50d*          1193 	br	.L843
                        1194 .L850:
                        1195 --319:     else if(gtmars_info.tcar_info.tcan_id434_info.toperation1_mode_flag_info.wiper_malfunction_flag == _G_TRUE ) 
                        1196 --line319
                        1197 ..lin.C.3A.5Cgit.5Crh850.5Csrc.5Capp.5Cgfx_apps.5Csimple_draw.5Ctarget.5Cd1mx_mango_ghs.5Cobj.5Cw_mag.53::
                        1198 .LDWlin53:
00000360 bd0f0500       1199 	ld.bu	5[r29],r1
00000364 820a           1200 	shr	2,r1
00000366 990d*          1201 	bnl	.L843
                        1202 --320:         W_Draw_Image_By_ID(PIC_ID_C_ICON_15_WIPER_W, 1225, 225);
                        1203 --line320
                        1204 ..lin.C.3A.5Cgit.5Crh850.5Csrc.5Capp.5Cgfx_apps.5Csimple_draw.5Ctarget.5Cd1mx_mango_ghs.5Cobj.5Cw_mag.54::
                        1205 .LDWlin54:
00000368 20366800       1206 	movea	104,zero,r6
0000036c 203ec904       1207 	movea	1225,zero,r7
00000370 2046e100       1208 	movea	225,zero,r8
                        1209 	jarl	_W_Draw_Image_By_ID,lp
                        1209 <EXPANSION BEGIN>
                        1209 jarl22 _W_Draw_Image_By_ID , lp 

                                                                      Page 23
                                                              C:\Users\Frank\AppData\Local\Temp\gh_0000p3g1.si
00000374 80ff0000*      1209 <EXPANSION END>
                        1210 .L843:
                        1211 --321: }
                        1212 --	    .ef
                        1213 .LDW74:
                        1214 --line321
                        1215 ..lin.C.3A.5Cgit.5Crh850.5Csrc.5Capp.5Cgfx_apps.5Csimple_draw.5Ctarget.5Cd1mx_mango_ghs.5Cobj.5Cw_mag.55::
                        1216 .LDWlin55:
00000378 40067f00       1217 	dispose	0,{r29,r31},[lp]
                        1218 	.type	_W_Cluster_Icon15,@function
                        1219 	.size	_W_Cluster_Icon15,.-_W_Cluster_Icon15
                        1220 	.align	2
                        1221 .LDW84:
                        1222 
                        1223 	.section ".bss","awb"
                        1224 .L924:
                        1225 	.type	.L924,@object
                        1226 	.size	.L924,0
                        1227 	.data
                        1228 	.text
                        1229 
                        1230 
                        1231 --322: //----------------------------------------------------------------------------------------------------------------------------
                        1232 --323: void W_Cluster_Icon16(void)  //FIXME: use W_Draw_Images
                        1233 	.align	2
                        1234 	.align	2
                        1235 	.global	_W_Cluster_Icon16
                        1236 _W_Cluster_Icon16:
0000037c 80076100       1237 	prepare	{r29,r31},0
00000380 3d0600000000*  1238 	mov	_gtmars_info+8,r29
                        1239 --	    .bf
                        1240 .LDW94:
                        1241 --324: {
                        1242 --325:     if(gtmars_info.tcar_info.tcan_id134_info.tpowertrain_status_info.cruise_driving == 0x01)
00000386 9d0f0b00       1243 	ld.bu	10[r29],r1
0000038a c10e0300       1244 	andi	3,r1,r1
0000038e 610a           1245 	cmp	1,r1
00000390 aa0d*          1246 	bne	.L971
                        1247 --326:         W_Draw_Image_By_ID(PIC_ID_C_ICON_16_CRUISE_ACTIVATED_G, 1225, 275);
                        1248 --line326
                        1249 ..lin.C.3A.5Cgit.5Crh850.5Csrc.5Capp.5Cgfx_apps.5Csimple_draw.5Ctarget.5Cd1mx_mango_ghs.5Cobj.5Cw_mag.56::
                        1250 .LDWlin56:
00000392 20366b00       1251 	movea	107,zero,r6
00000396 203ec904       1252 	movea	1225,zero,r7
0000039a 20461301       1253 	movea	275,zero,r8
                        1254 	jarl	_W_Draw_Image_By_ID,lp
                        1254 <EXPANSION BEGIN>
                        1254 jarl22 _W_Draw_Image_By_ID , lp 
0000039e 80ff0000*      1254 <EXPANSION END>
000003a2 d50d*          1255 	br	.L973
                        1256 .L971:
                        1257 --327:     else if(gtmars_info.tcar_info.tcan_id133_info.tfault_code1_info.cruising_sys_fault == _G_TRUE)
                        1258 --line327
                        1259 ..lin.C.3A.5Cgit.5Crh850.5Csrc.5Capp.5Cgfx_apps.5Csimple_draw.5Ctarget.5Cd1mx_mango_ghs.5Cobj.5Cw_mag.57::
                        1260 .LDWlin57:
000003a4 9d0f0700       1261 	ld.bu	6[r29],r1
000003a8 820a           1262 	shr	2,r1
000003aa 990d*          1263 	bnl	.L973
                        1264 --328:         W_Draw_Image_By_ID(PIC_ID_C_ICON_16_CRUISE_W, 1225, 275);
                        1265 --line328
                        1266 ..lin.C.3A.5Cgit.5Crh850.5Csrc.5Capp.5Cgfx_apps.5Csimple_draw.5Ctarget.5Cd1mx_mango_ghs.5Cobj.5Cw_mag.58::

                                                                      Page 24
                                                              C:\Users\Frank\AppData\Local\Temp\gh_0000p3g1.si
                        1267 .LDWlin58:
000003ac 20366c00       1268 	movea	108,zero,r6
000003b0 203ec904       1269 	movea	1225,zero,r7
000003b4 20461301       1270 	movea	275,zero,r8
                        1271 	jarl	_W_Draw_Image_By_ID,lp
                        1271 <EXPANSION BEGIN>
                        1271 jarl22 _W_Draw_Image_By_ID , lp 
000003b8 80ff0000*      1271 <EXPANSION END>
                        1272 .L973:
                        1273 --329: }
                        1274 --	    .ef
                        1275 .LDW05:
                        1276 --line329
                        1277 ..lin.C.3A.5Cgit.5Crh850.5Csrc.5Capp.5Cgfx_apps.5Csimple_draw.5Ctarget.5Cd1mx_mango_ghs.5Cobj.5Cw_mag.59::
                        1278 .LDWlin59:
000003bc 40067f00       1279 	dispose	0,{r29,r31},[lp]
                        1280 	.type	_W_Cluster_Icon16,@function
                        1281 	.size	_W_Cluster_Icon16,.-_W_Cluster_Icon16
                        1282 	.align	2
                        1283 .LDW15:
                        1284 
                        1285 	.section ".bss","awb"
                        1286 .L1006:
                        1287 	.type	.L1006,@object
                        1288 	.size	.L1006,0
                        1289 	.data
                        1290 	.text
                        1291 
                        1292 
                        1293 --330: //----------------------------------------------------------------------------------------------------------------------------
                        1294 --331: void W_Cluster_Icon17(void)  //FIXME: use W_Draw_Images
                        1295 	.align	2
                        1296 	.align	2
                        1297 	.global	_W_Cluster_Icon17
                        1298 _W_Cluster_Icon17:
000003c0 80076100       1299 	prepare	{r29,r31},0
000003c4 3d0600000000*  1300 	mov	_gtmars_info+44,r29
                        1301 --	    .bf
                        1302 .LDW25:
                        1303 --332: {
                        1304 --333:     if((gtmars_info.tcar_info.tcan_id434_info.tdoor_status_info.u8door_close_status_byte && 0x0F) >= 0x01)
000003ca 9d770100       1305 	ld.bu	0[r29],r14
000003ce e071           1306 	cmp	zero,r14
000003d0 ea0f0000       1307 	setfne	r1
000003d4 610a           1308 	cmp	1,r1
000003d6 a60d*          1309 	blt	.L1032
                        1310 --334:         W_Draw_Image_By_ID(PIC_ID_C_ICON_17_DOOR_W, 1225, 325);
                        1311 --line334
                        1312 ..lin.C.3A.5Cgit.5Crh850.5Csrc.5Capp.5Cgfx_apps.5Csimple_draw.5Ctarget.5Cd1mx_mango_ghs.5Cobj.5Cw_mag.60::
                        1313 .LDWlin60:
000003d8 20366e00       1314 	movea	110,zero,r6
000003dc 203ec904       1315 	movea	1225,zero,r7
000003e0 20464501       1316 	movea	325,zero,r8
                        1317 	jarl	_W_Draw_Image_By_ID,lp
                        1317 <EXPANSION BEGIN>
                        1317 jarl22 _W_Draw_Image_By_ID , lp 
000003e4 80ff0000*      1317 <EXPANSION END>
000003e8 d50d*          1318 	br	.L1037
                        1319 .L1032:
                        1320 --335:     else if (gtmars_info.tcar_info.tcan_id434_info.tdoor_status_info.rear_Tailgate  == _G_TRUE)
                        1321 --line335

                                                                      Page 25
                                                              C:\Users\Frank\AppData\Local\Temp\gh_0000p3g1.si
                        1322 ..lin.C.3A.5Cgit.5Crh850.5Csrc.5Capp.5Cgfx_apps.5Csimple_draw.5Ctarget.5Cd1mx_mango_ghs.5Cobj.5Cw_mag.61::
                        1323 .LDWlin61:
000003ea 9d0f0100       1324 	ld.bu	0[r29],r1
000003ee 850a           1325 	shr	5,r1
000003f0 990d*          1326 	bnl	.L1037
                        1327 --336:         W_Draw_Image_By_ID(PIC_ID_C_ICON_17_DOOR_TAIL_W, 1225, 325);
                        1328 --line336
                        1329 ..lin.C.3A.5Cgit.5Crh850.5Csrc.5Capp.5Cgfx_apps.5Csimple_draw.5Ctarget.5Cd1mx_mango_ghs.5Cobj.5Cw_mag.62::
                        1330 .LDWlin62:
000003f2 20366d00       1331 	movea	109,zero,r6
000003f6 203ec904       1332 	movea	1225,zero,r7
000003fa 20464501       1333 	movea	325,zero,r8
                        1334 	jarl	_W_Draw_Image_By_ID,lp
                        1334 <EXPANSION BEGIN>
                        1334 jarl22 _W_Draw_Image_By_ID , lp 
000003fe 80ff0000*      1334 <EXPANSION END>
                        1335 .L1037:
                        1336 --337: }
                        1337 --	    .ef
                        1338 .LDW35:
                        1339 --line337
                        1340 ..lin.C.3A.5Cgit.5Crh850.5Csrc.5Capp.5Cgfx_apps.5Csimple_draw.5Ctarget.5Cd1mx_mango_ghs.5Cobj.5Cw_mag.63::
                        1341 .LDWlin63:
00000402 40067f00       1342 	dispose	0,{r29,r31},[lp]
                        1343 	.type	_W_Cluster_Icon17,@function
                        1344 	.size	_W_Cluster_Icon17,.-_W_Cluster_Icon17
                        1345 	.align	2
                        1346 .LDW45:
                        1347 
                        1348 	.section ".bss","awb"
                        1349 .L1076:
                        1350 	.type	.L1076,@object
                        1351 	.size	.L1076,0
                        1352 	.data
                        1353 	.text
                        1354 
                        1355 
                        1356 --338: //----------------------------------------------------------------------------------------------------------------------------
                        1357 --339: void W_Cluster_Icon18(void)  //FIXME: use W_Draw_Images
                        1358 	.align	2
                        1359 	.align	2
                        1360 	.global	_W_Cluster_Icon18
                        1361 _W_Cluster_Icon18:
00000406 80076100       1362 	prepare	{r29,r31},0
0000040a 3d0600000000*  1363 	mov	_gtmars_info+8,r29
                        1364 --	    .bf
                        1365 .LDW55:
                        1366 --340: {
                        1367 --341:     if(gtmars_info.tcar_info.tcan_id133_info.tfault_code1_info.brake_sys_fault == _G_TRUE)
00000410 9d0f0700       1368 	ld.bu	6[r29],r1
00000414 850a           1369 	shr	5,r1
00000416 a90d*          1370 	bnl	.L1105
                        1371 --342:         W_Draw_Image_By_ID(PIC_ID_C_ICON_18_BRAKE_W, 1225, 375);
                        1372 --line342
                        1373 ..lin.C.3A.5Cgit.5Crh850.5Csrc.5Capp.5Cgfx_apps.5Csimple_draw.5Ctarget.5Cd1mx_mango_ghs.5Cobj.5Cw_mag.64::
                        1374 .LDWlin64:
00000418 20367000       1375 	movea	112,zero,r6
0000041c 203ec904       1376 	movea	1225,zero,r7
00000420 20467701       1377 	movea	375,zero,r8
                        1378 	jarl	_W_Draw_Image_By_ID,lp
                        1378 <EXPANSION BEGIN>

                                                                      Page 26
                                                              C:\Users\Frank\AppData\Local\Temp\gh_0000p3g1.si
                        1378 jarl22 _W_Draw_Image_By_ID , lp 
00000424 80ff0000*      1378 <EXPANSION END>
00000428 d50d*          1379 	br	.L1107
                        1380 .L1105:
                        1381 --343:     else if (gtmars_info.tcar_info.tcan_id134_info.tfault_code2_info.parkin_brake_fault == _G_TRUE)
                        1382 --line343
                        1383 ..lin.C.3A.5Cgit.5Crh850.5Csrc.5Capp.5Cgfx_apps.5Csimple_draw.5Ctarget.5Cd1mx_mango_ghs.5Cobj.5Cw_mag.65::
                        1384 .LDWlin65:
0000042a 9d0f0f00       1385 	ld.bu	14[r29],r1
0000042e 820a           1386 	shr	2,r1
00000430 990d*          1387 	bnl	.L1107
                        1388 --344:         W_Draw_Image_By_ID(PIC_ID_C_ICON_18_BRAKE_P, 1225, 375);
                        1389 --line344
                        1390 ..lin.C.3A.5Cgit.5Crh850.5Csrc.5Capp.5Cgfx_apps.5Csimple_draw.5Ctarget.5Cd1mx_mango_ghs.5Cobj.5Cw_mag.66::
                        1391 .LDWlin66:
00000432 20366f00       1392 	movea	111,zero,r6
00000436 203ec904       1393 	movea	1225,zero,r7
0000043a 20467701       1394 	movea	375,zero,r8
                        1395 	jarl	_W_Draw_Image_By_ID,lp
                        1395 <EXPANSION BEGIN>
                        1395 jarl22 _W_Draw_Image_By_ID , lp 
0000043e 80ff0000*      1395 <EXPANSION END>
                        1396 .L1107:
                        1397 --345: }
                        1398 --	    .ef
                        1399 .LDW65:
                        1400 --line345
                        1401 ..lin.C.3A.5Cgit.5Crh850.5Csrc.5Capp.5Cgfx_apps.5Csimple_draw.5Ctarget.5Cd1mx_mango_ghs.5Cobj.5Cw_mag.67::
                        1402 .LDWlin67:
00000442 40067f00       1403 	dispose	0,{r29,r31},[lp]
                        1404 	.type	_W_Cluster_Icon18,@function
                        1405 	.size	_W_Cluster_Icon18,.-_W_Cluster_Icon18
                        1406 	.align	2
                        1407 .LDW75:
                        1408 
                        1409 	.section ".bss","awb"
                        1410 .L1150:
                        1411 	.type	.L1150,@object
                        1412 	.size	.L1150,0
                        1413 	.data
                        1414 	.text
                        1415 
                        1416 
                        1417 --346: //----------------------------------------------------------------------------------------------------------------------------
                        1418 --347: void W_Cluster_Icon19(void)  //FIXME: use W_Draw_Images
                        1419 	.align	2
                        1420 	.align	2
                        1421 	.global	_W_Cluster_Icon19
                        1422 _W_Cluster_Icon19:
00000446 80076100       1423 	prepare	{r29,r31},0
0000044a 3d0600000000*  1424 	mov	_gtmars_info+8,r29
                        1425 --	    .bf
                        1426 .LDW85:
                        1427 --348: {
                        1428 --349:     if((gtmars_info.tcar_info.tcan_id287_info.tlamp_form_can_info.front_fog == _G_TRUE) ||
00000450 9d0f3d00       1429 	ld.bu	60[r29],r1
00000454 850a           1430 	shr	5,r1
00000456 d105*          1431 	bl	.L1177
00000458 9d0f4100       1432 	ld.bu	64[r29],r1
0000045c 870a           1433 	shr	7,r1
0000045e 990d*          1434 	bnl	.L1176

                                                                      Page 27
                                                              C:\Users\Frank\AppData\Local\Temp\gh_0000p3g1.si
                        1435 .L1177:
                        1436 --350:         (gtmars_info.tcar_info.tcar_power_light_info.tcar_light_info.f_fog_lamp == _G_TRUE))
                        1437 --351:         W_Draw_Image_By_ID(PIC_ID_C_ICON_19_FOGLAMP_F, 1175, 125);
                        1438 --line351
                        1439 ..lin.C.3A.5Cgit.5Crh850.5Csrc.5Capp.5Cgfx_apps.5Csimple_draw.5Ctarget.5Cd1mx_mango_ghs.5Cobj.5Cw_mag.68::
                        1440 .LDWlin68:
00000460 20367100       1441 	movea	113,zero,r6
00000464 203e9704       1442 	movea	1175,zero,r7
00000468 20467d00       1443 	movea	125,zero,r8
                        1444 	jarl	_W_Draw_Image_By_ID,lp
                        1444 <EXPANSION BEGIN>
                        1444 jarl22 _W_Draw_Image_By_ID , lp 
0000046c 80ff0000*      1444 <EXPANSION END>
                        1445 .L1176:
                        1446 --352: }
                        1447 --	    .ef
                        1448 .LDW95:
                        1449 --line352
                        1450 ..lin.C.3A.5Cgit.5Crh850.5Csrc.5Capp.5Cgfx_apps.5Csimple_draw.5Ctarget.5Cd1mx_mango_ghs.5Cobj.5Cw_mag.69::
                        1451 .LDWlin69:
00000470 40067f00       1452 	dispose	0,{r29,r31},[lp]
                        1453 	.type	_W_Cluster_Icon19,@function
                        1454 	.size	_W_Cluster_Icon19,.-_W_Cluster_Icon19
                        1455 	.align	2
                        1456 .LDW06:
                        1457 
                        1458 	.section ".bss","awb"
                        1459 .L1210:
                        1460 	.type	.L1210,@object
                        1461 	.size	.L1210,0
                        1462 	.data
                        1463 	.text
                        1464 
                        1465 
                        1466 --353: //----------------------------------------------------------------------------------------------------------------------------
                        1467 --354: void W_Cluster_Icon20(void)  //FIXME: use W_Draw_Images
                        1468 	.align	2
                        1469 	.align	2
                        1470 	.global	_W_Cluster_Icon20
                        1471 _W_Cluster_Icon20:
00000474 80076100       1472 	prepare	{r29,r31},0
00000478 3d0600000000*  1473 	mov	_gtmars_info+8,r29
                        1474 --	    .bf
                        1475 .LDW16:
                        1476 --355: {
                        1477 --356:     if((gtmars_info.tcar_info.tcan_id287_info.tlamp_form_can_info.rear_fog == _G_TRUE) ||
0000047e 9d0f3d00       1478 	ld.bu	60[r29],r1
00000482 860a           1479 	shr	6,r1
00000484 d105*          1480 	bl	.L1234
00000486 9d0f4100       1481 	ld.bu	64[r29],r1
0000048a 880a           1482 	shr	8,r1
0000048c 990d*          1483 	bnl	.L1233
                        1484 .L1234:
                        1485 --357:         (gtmars_info.tcar_info.tcar_power_light_info.tcar_light_info.r_fog_lamp == _G_TRUE))
                        1486 --358:         W_Draw_Image_By_ID(PIC_ID_C_ICON_20_FOGLAMP_R, 1175, 175);
                        1487 --line358
                        1488 ..lin.C.3A.5Cgit.5Crh850.5Csrc.5Capp.5Cgfx_apps.5Csimple_draw.5Ctarget.5Cd1mx_mango_ghs.5Cobj.5Cw_mag.70::
                        1489 .LDWlin70:
0000048e 20367200       1490 	movea	114,zero,r6
00000492 203e9704       1491 	movea	1175,zero,r7
00000496 2046af00       1492 	movea	175,zero,r8

                                                                      Page 28
                                                              C:\Users\Frank\AppData\Local\Temp\gh_0000p3g1.si
                        1493 	jarl	_W_Draw_Image_By_ID,lp
                        1493 <EXPANSION BEGIN>
                        1493 jarl22 _W_Draw_Image_By_ID , lp 
0000049a 80ff0000*      1493 <EXPANSION END>
                        1494 .L1233:
                        1495 --359: }
                        1496 --	    .ef
                        1497 .LDW26:
                        1498 --line359
                        1499 ..lin.C.3A.5Cgit.5Crh850.5Csrc.5Capp.5Cgfx_apps.5Csimple_draw.5Ctarget.5Cd1mx_mango_ghs.5Cobj.5Cw_mag.71::
                        1500 .LDWlin71:
0000049e 40067f00       1501 	dispose	0,{r29,r31},[lp]
                        1502 	.type	_W_Cluster_Icon20,@function
                        1503 	.size	_W_Cluster_Icon20,.-_W_Cluster_Icon20
                        1504 	.align	2
                        1505 .LDW36:
                        1506 
                        1507 	.section ".bss","awb"
                        1508 .L1274:
                        1509 	.type	.L1274,@object
                        1510 	.size	.L1274,0
                        1511 	.data
                        1512 	.text
                        1513 
                        1514 
                        1515 --360: //----------------------------------------------------------------------------------------------------------------------------
                        1516 --361: void W_Cluster_Icon_Process()
                        1517 	.align	2
                        1518 	.align	2
                        1519 	.global	_W_Cluster_Icon_Process
                        1520 _W_Cluster_Icon_Process:
000004a2 80072100       1521 	prepare	{r31},0
                        1522 --	    .bf
                        1523 .LDW46:
                        1524 --362: {
                        1525 --363:     W_Cluster_Icon1();
                        1526 	jarl	_W_Cluster_Icon1,lp
                        1526 <EXPANSION BEGIN>
                        1526 jarl22 _W_Cluster_Icon1 , lp 
000004a6 bfff5afb*      1526 <EXPANSION END>
                        1527 --364:     W_Cluster_Icon2();
                        1528 --line364
                        1529 ..lin.C.3A.5Cgit.5Crh850.5Csrc.5Capp.5Cgfx_apps.5Csimple_draw.5Ctarget.5Cd1mx_mango_ghs.5Cobj.5Cw_mag.72::
                        1530 .LDWlin72:
                        1531 	jarl	_W_Cluster_Icon2,lp
                        1531 <EXPANSION BEGIN>
                        1531 jarl22 _W_Cluster_Icon2 , lp 
000004aa bfff94fb*      1531 <EXPANSION END>
                        1532 --365:     W_Cluster_Icon3();
                        1533 --line365
                        1534 ..lin.C.3A.5Cgit.5Crh850.5Csrc.5Capp.5Cgfx_apps.5Csimple_draw.5Ctarget.5Cd1mx_mango_ghs.5Cobj.5Cw_mag.73::
                        1535 .LDWlin73:
                        1536 	jarl	_W_Cluster_Icon3,lp
                        1536 <EXPANSION BEGIN>
                        1536 jarl22 _W_Cluster_Icon3 , lp 
000004ae bfffb4fb*      1536 <EXPANSION END>
                        1537 --366:     W_Cluster_Icon4();
                        1538 --line366
                        1539 ..lin.C.3A.5Cgit.5Crh850.5Csrc.5Capp.5Cgfx_apps.5Csimple_draw.5Ctarget.5Cd1mx_mango_ghs.5Cobj.5Cw_mag.74::
                        1540 .LDWlin74:
                        1541 	jarl	_W_Cluster_Icon4,lp

                                                                      Page 29
                                                              C:\Users\Frank\AppData\Local\Temp\gh_0000p3g1.si
                        1541 <EXPANSION BEGIN>
                        1541 jarl22 _W_Cluster_Icon4 , lp 
000004b2 bfffd4fb*      1541 <EXPANSION END>
                        1542 --367:     W_Cluster_Icon5();
                        1543 --line367
                        1544 ..lin.C.3A.5Cgit.5Crh850.5Csrc.5Capp.5Cgfx_apps.5Csimple_draw.5Ctarget.5Cd1mx_mango_ghs.5Cobj.5Cw_mag.75::
                        1545 .LDWlin75:
                        1546 	jarl	_W_Cluster_Icon5,lp
                        1546 <EXPANSION BEGIN>
                        1546 jarl22 _W_Cluster_Icon5 , lp 
000004b6 bffff4fb*      1546 <EXPANSION END>
                        1547 --368:     W_Cluster_Icon6();
                        1548 --line368
                        1549 ..lin.C.3A.5Cgit.5Crh850.5Csrc.5Capp.5Cgfx_apps.5Csimple_draw.5Ctarget.5Cd1mx_mango_ghs.5Cobj.5Cw_mag.76::
                        1550 .LDWlin76:
                        1551 	jarl	_W_Cluster_Icon6,lp
                        1551 <EXPANSION BEGIN>
                        1551 jarl22 _W_Cluster_Icon6 , lp 
000004ba bfff2cfc*      1551 <EXPANSION END>
                        1552 --369:     W_Cluster_Icon7();
                        1553 --line369
                        1554 ..lin.C.3A.5Cgit.5Crh850.5Csrc.5Capp.5Cgfx_apps.5Csimple_draw.5Ctarget.5Cd1mx_mango_ghs.5Cobj.5Cw_mag.77::
                        1555 .LDWlin77:
                        1556 	jarl	_W_Cluster_Icon7,lp
                        1556 <EXPANSION BEGIN>
                        1556 jarl22 _W_Cluster_Icon7 , lp 
000004be bfff64fc*      1556 <EXPANSION END>
                        1557 --370:     W_Cluster_Icon8();
                        1558 --line370
                        1559 ..lin.C.3A.5Cgit.5Crh850.5Csrc.5Capp.5Cgfx_apps.5Csimple_draw.5Ctarget.5Cd1mx_mango_ghs.5Cobj.5Cw_mag.78::
                        1560 .LDWlin78:
                        1561 	jarl	_W_Cluster_Icon8,lp
                        1561 <EXPANSION BEGIN>
                        1561 jarl22 _W_Cluster_Icon8 , lp 
000004c2 bfffa4fc*      1561 <EXPANSION END>
                        1562 --371:     W_Cluster_Icon9();
                        1563 --line371
                        1564 ..lin.C.3A.5Cgit.5Crh850.5Csrc.5Capp.5Cgfx_apps.5Csimple_draw.5Ctarget.5Cd1mx_mango_ghs.5Cobj.5Cw_mag.79::
                        1565 .LDWlin79:
                        1566 	jarl	_W_Cluster_Icon9,lp
                        1566 <EXPANSION BEGIN>
                        1566 jarl22 _W_Cluster_Icon9 , lp 
000004c6 bfffe4fc*      1566 <EXPANSION END>
                        1567 --372:     W_Cluster_Icon10();
                        1568 --line372
                        1569 ..lin.C.3A.5Cgit.5Crh850.5Csrc.5Capp.5Cgfx_apps.5Csimple_draw.5Ctarget.5Cd1mx_mango_ghs.5Cobj.5Cw_mag.80::
                        1570 .LDWlin80:
                        1571 	jarl	_W_Cluster_Icon10,lp
                        1571 <EXPANSION BEGIN>
                        1571 jarl22 _W_Cluster_Icon10 , lp 
000004ca bfff24fd*      1571 <EXPANSION END>
                        1572 --373:     W_Cluster_Icon13(); // tail lamp
                        1573 --line373
                        1574 ..lin.C.3A.5Cgit.5Crh850.5Csrc.5Capp.5Cgfx_apps.5Csimple_draw.5Ctarget.5Cd1mx_mango_ghs.5Cobj.5Cw_mag.81::
                        1575 .LDWlin81:
                        1576 	jarl	_W_Cluster_Icon13,lp
                        1576 <EXPANSION BEGIN>
                        1576 jarl22 _W_Cluster_Icon13 , lp 
000004ce bfff64fd*      1576 <EXPANSION END>
                        1577 --374:     W_Cluster_Icon14(); // head lamp hight / head lamp low
                        1578 --line374

                                                                      Page 30
                                                              C:\Users\Frank\AppData\Local\Temp\gh_0000p3g1.si
                        1579 ..lin.C.3A.5Cgit.5Crh850.5Csrc.5Capp.5Cgfx_apps.5Csimple_draw.5Ctarget.5Cd1mx_mango_ghs.5Cobj.5Cw_mag.82::
                        1580 .LDWlin82:
                        1581 	jarl	_W_Cluster_Icon14,lp
                        1581 <EXPANSION BEGIN>
                        1581 jarl22 _W_Cluster_Icon14 , lp 
000004d2 bfffc6fd*      1581 <EXPANSION END>
                        1582 --375:     W_Cluster_Icon15();
                        1583 --line375
                        1584 ..lin.C.3A.5Cgit.5Crh850.5Csrc.5Capp.5Cgfx_apps.5Csimple_draw.5Ctarget.5Cd1mx_mango_ghs.5Cobj.5Cw_mag.83::
                        1585 .LDWlin83:
                        1586 	jarl	_W_Cluster_Icon15,lp
                        1586 <EXPANSION BEGIN>
                        1586 jarl22 _W_Cluster_Icon15 , lp 
000004d6 bfff12fe*      1586 <EXPANSION END>
                        1587 --376:     W_Cluster_Icon16();
                        1588 --line376
                        1589 ..lin.C.3A.5Cgit.5Crh850.5Csrc.5Capp.5Cgfx_apps.5Csimple_draw.5Ctarget.5Cd1mx_mango_ghs.5Cobj.5Cw_mag.84::
                        1590 .LDWlin84:
                        1591 	jarl	_W_Cluster_Icon16,lp
                        1591 <EXPANSION BEGIN>
                        1591 jarl22 _W_Cluster_Icon16 , lp 
000004da bfffa2fe*      1591 <EXPANSION END>
                        1592 --377:     W_Cluster_Icon17();
                        1593 --line377
                        1594 ..lin.C.3A.5Cgit.5Crh850.5Csrc.5Capp.5Cgfx_apps.5Csimple_draw.5Ctarget.5Cd1mx_mango_ghs.5Cobj.5Cw_mag.85::
                        1595 .LDWlin85:
                        1596 	jarl	_W_Cluster_Icon17,lp
                        1596 <EXPANSION BEGIN>
                        1596 jarl22 _W_Cluster_Icon17 , lp 
000004de bfffe2fe*      1596 <EXPANSION END>
                        1597 --378:     W_Cluster_Icon18();
                        1598 --line378
                        1599 ..lin.C.3A.5Cgit.5Crh850.5Csrc.5Capp.5Cgfx_apps.5Csimple_draw.5Ctarget.5Cd1mx_mango_ghs.5Cobj.5Cw_mag.86::
                        1600 .LDWlin86:
                        1601 	jarl	_W_Cluster_Icon18,lp
                        1601 <EXPANSION BEGIN>
                        1601 jarl22 _W_Cluster_Icon18 , lp 
000004e2 bfff24ff*      1601 <EXPANSION END>
                        1602 --379:     W_Cluster_Icon19(); // front fog lamp
                        1603 --line379
                        1604 ..lin.C.3A.5Cgit.5Crh850.5Csrc.5Capp.5Cgfx_apps.5Csimple_draw.5Ctarget.5Cd1mx_mango_ghs.5Cobj.5Cw_mag.87::
                        1605 .LDWlin87:
                        1606 	jarl	_W_Cluster_Icon19,lp
                        1606 <EXPANSION BEGIN>
                        1606 jarl22 _W_Cluster_Icon19 , lp 
000004e6 bfff60ff*      1606 <EXPANSION END>
                        1607 --380:     W_Cluster_Icon20(); // rear fog lamp
                        1608 --line380
                        1609 ..lin.C.3A.5Cgit.5Crh850.5Csrc.5Capp.5Cgfx_apps.5Csimple_draw.5Ctarget.5Cd1mx_mango_ghs.5Cobj.5Cw_mag.88::
                        1610 .LDWlin88:
                        1611 	jarl	_W_Cluster_Icon20,lp
                        1611 <EXPANSION BEGIN>
                        1611 jarl22 _W_Cluster_Icon20 , lp 
000004ea bfff8aff*      1611 <EXPANSION END>
                        1612 --381: }
                        1613 --	    .ef
                        1614 .LDW56:
                        1615 --line381
                        1616 ..lin.C.3A.5Cgit.5Crh850.5Csrc.5Capp.5Cgfx_apps.5Csimple_draw.5Ctarget.5Cd1mx_mango_ghs.5Cobj.5Cw_mag.89::
                        1617 .LDWlin89:
000004ee 40063f00       1618 	dispose	0,{r31},[lp]

                                                                      Page 31
                                                              C:\Users\Frank\AppData\Local\Temp\gh_0000p3g1.si
                        1619 	.type	_W_Cluster_Icon_Process,@function
                        1620 	.size	_W_Cluster_Icon_Process,.-_W_Cluster_Icon_Process
                        1621 	.align	2
                        1622 .LDW66:
                        1623 
                        1624 	.section ".bss","awb"
                        1625 .L1382:
                        1626 	.type	.L1382,@object
                        1627 	.size	.L1382,0
                        1628 	.data
                        1629 	.text
                        1630 
                        1631 
                        1632 --382: //----------------------------------------------------------------------------------------------------------------------------
                        1633 --383: void W_Cluster_Menu_Button()
                        1634 	.align	2
                        1635 	.align	2
                        1636 	.global	_W_Cluster_Menu_Button
                        1637 _W_Cluster_Menu_Button:
000004f2 80072100       1638 	prepare	{r31},0
                        1639 --	    .bf
                        1640 .LDW76:
                        1641 --384: {
                        1642 --385:     W_Draw_Image_By_ID(PIC_ID_C_MENU_BUTTON, 5, 1);
000004f6 20367500       1643 	movea	117,zero,r6
000004fa 053a           1644 	mov	5,r7
000004fc 0142           1645 	mov	1,r8
                        1646 	jarl	_W_Draw_Image_By_ID,lp
                        1646 <EXPANSION BEGIN>
                        1646 jarl22 _W_Draw_Image_By_ID , lp 
000004fe 80ff0000*      1646 <EXPANSION END>
                        1647 --386: }
                        1648 --	    .ef
                        1649 .LDW86:
                        1650 --line386
                        1651 ..lin.C.3A.5Cgit.5Crh850.5Csrc.5Capp.5Cgfx_apps.5Csimple_draw.5Ctarget.5Cd1mx_mango_ghs.5Cobj.5Cw_mag.90::
                        1652 .LDWlin90:
00000502 40063f00       1653 	dispose	0,{r31},[lp]
                        1654 	.type	_W_Cluster_Menu_Button,@function
                        1655 	.size	_W_Cluster_Menu_Button,.-_W_Cluster_Menu_Button
                        1656 	.align	2
                        1657 .LDW96:
                        1658 
                        1659 	.section ".bss","awb"
                        1660 .L1474:
                        1661 	.type	.L1474,@object
                        1662 	.size	.L1474,0
                        1663 	.data
                        1664 	.text
                        1665 
                        1666 
                        1667 --387: //----------------------------------------------------------------------------------------------------------------------------
                        1668 --388: void W_Cluster_Menu_BG()
                        1669 	.align	2
                        1670 	.align	2
                        1671 	.global	_W_Cluster_Menu_BG
                        1672 _W_Cluster_Menu_BG:
00000506 80072100       1673 	prepare	{r31},0
                        1674 --	    .bf
                        1675 .LDW07:
                        1676 --389: {

                                                                      Page 32
                                                              C:\Users\Frank\AppData\Local\Temp\gh_0000p3g1.si
                        1677 --390:     W_Draw_Image_By_ID(PIC_ID_C_MENU_WORD_BG, 104, 36);
0000050a 20367c00       1678 	movea	124,zero,r6
0000050e 203e6800       1679 	movea	104,zero,r7
00000512 20462400       1680 	movea	36,zero,r8
                        1681 	jarl	_W_Draw_Image_By_ID,lp
                        1681 <EXPANSION BEGIN>
                        1681 jarl22 _W_Draw_Image_By_ID , lp 
00000516 80ff0000*      1681 <EXPANSION END>
                        1682 --391: }
                        1683 --	    .ef
                        1684 .LDW17:
                        1685 --line391
                        1686 ..lin.C.3A.5Cgit.5Crh850.5Csrc.5Capp.5Cgfx_apps.5Csimple_draw.5Ctarget.5Cd1mx_mango_ghs.5Cobj.5Cw_mag.91::
                        1687 .LDWlin91:
0000051a 40063f00       1688 	dispose	0,{r31},[lp]
                        1689 	.type	_W_Cluster_Menu_BG,@function
                        1690 	.size	_W_Cluster_Menu_BG,.-_W_Cluster_Menu_BG
                        1691 	.align	2
                        1692 .LDW27:
                        1693 
                        1694 	.section ".bss","awb"
                        1695 .L1522:
                        1696 	.type	.L1522,@object
                        1697 	.size	.L1522,0
                        1698 	.data
                        1699 	.text
                        1700 
                        1701 
                        1702 --392: //----------------------------------------------------------------------------------------------------------------------------
                        1703 --393: void W_Cluster_Battery_BG()
                        1704 	.align	2
                        1705 	.align	2
                        1706 	.global	_W_Cluster_Battery_BG
                        1707 _W_Cluster_Battery_BG:
0000051e 80072100       1708 	prepare	{r31},0
                        1709 --	    .bf
                        1710 .LDW37:
                        1711 --394: {
                        1712 --395:     W_Draw_Image_By_ID(PIC_ID_C_BATTERY, 1168, 24);
00000522 0d32           1713 	mov	13,r6
00000524 203e9004       1714 	movea	1168,zero,r7
00000528 20461800       1715 	movea	24,zero,r8
                        1716 	jarl	_W_Draw_Image_By_ID,lp
                        1716 <EXPANSION BEGIN>
                        1716 jarl22 _W_Draw_Image_By_ID , lp 
0000052c 80ff0000*      1716 <EXPANSION END>
                        1717 --396: }
                        1718 --	    .ef
                        1719 .LDW47:
                        1720 --line396
                        1721 ..lin.C.3A.5Cgit.5Crh850.5Csrc.5Capp.5Cgfx_apps.5Csimple_draw.5Ctarget.5Cd1mx_mango_ghs.5Cobj.5Cw_mag.92::
                        1722 .LDWlin92:
00000530 40063f00       1723 	dispose	0,{r31},[lp]
                        1724 	.type	_W_Cluster_Battery_BG,@function
                        1725 	.size	_W_Cluster_Battery_BG,.-_W_Cluster_Battery_BG
                        1726 	.align	2
                        1727 .LDW57:
                        1728 
                        1729 	.section ".bss","awb"
                        1730 .L1570:
                        1731 	.type	.L1570,@object

                                                                      Page 33
                                                              C:\Users\Frank\AppData\Local\Temp\gh_0000p3g1.si
                        1732 	.size	.L1570,0
                        1733 	.data
                        1734 	.text
                        1735 
                        1736 
                        1737 --397: //----------------------------------------------------------------------------------------------------------------------------
                        1738 --398: void W_Cluster_Demo_Battery()
                        1739 	.align	2
                        1740 	.align	2
                        1741 	.global	_W_Cluster_Demo_Battery
                        1742 _W_Cluster_Demo_Battery:
00000534 80072100       1743 	prepare	{r31},0
                        1744 --	    .bf
                        1745 .LDW67:
                        1746 --399: {
                        1747 --400:     W_Draw_Image_By_ID(PIC_ID_C_BATTERY_G, 1168, 24);
00000538 20361800       1748 	movea	24,zero,r6
0000053c 203e9004       1749 	movea	1168,zero,r7
00000540 0640           1750 	mov	r6,r8
                        1751 	jarl	_W_Draw_Image_By_ID,lp
                        1751 <EXPANSION BEGIN>
                        1751 jarl22 _W_Draw_Image_By_ID , lp 
00000542 80ff0000*      1751 <EXPANSION END>
                        1752 --401: }
                        1753 --	    .ef
                        1754 .LDW77:
                        1755 --line401
                        1756 ..lin.C.3A.5Cgit.5Crh850.5Csrc.5Capp.5Cgfx_apps.5Csimple_draw.5Ctarget.5Cd1mx_mango_ghs.5Cobj.5Cw_mag.93::
                        1757 .LDWlin93:
00000546 40063f00       1758 	dispose	0,{r31},[lp]
                        1759 	.type	_W_Cluster_Demo_Battery,@function
                        1760 	.size	_W_Cluster_Demo_Battery,.-_W_Cluster_Demo_Battery
                        1761 	.align	2
                        1762 .LDW87:
                        1763 
                        1764 	.section ".bss","awb"
                        1765 .L1618:
                        1766 	.type	.L1618,@object
                        1767 	.size	.L1618,0
                        1768 	.data
                        1769 	.text
                        1770 
                        1771 
                        1772 --402: //----------------------------------------------------------------------------------------------------------------------------
                        1773 --403: void W_Cluster_Battery_Uint()
                        1774 	.align	2
                        1775 	.align	2
                        1776 	.global	_W_Cluster_Battery_Uint
                        1777 _W_Cluster_Battery_Uint:
0000054a 80072100       1778 	prepare	{r31},0
                        1779 --	    .bf
                        1780 .LDW97:
                        1781 --404: {
                        1782 --405:     W_Draw_Image_By_ID(PIC_ID_C_BATTERY_ICON_G, 1133, 36);
0000054e 20361900       1783 	movea	25,zero,r6
00000552 203e6d04       1784 	movea	1133,zero,r7
00000556 20462400       1785 	movea	36,zero,r8
                        1786 	jarl	_W_Draw_Image_By_ID,lp
                        1786 <EXPANSION BEGIN>
                        1786 jarl22 _W_Draw_Image_By_ID , lp 
0000055a 80ff0000*      1786 <EXPANSION END>

                                                                      Page 34
                                                              C:\Users\Frank\AppData\Local\Temp\gh_0000p3g1.si
                        1787 --406: }
                        1788 --	    .ef
                        1789 .LDW08:
                        1790 --line406
                        1791 ..lin.C.3A.5Cgit.5Crh850.5Csrc.5Capp.5Cgfx_apps.5Csimple_draw.5Ctarget.5Cd1mx_mango_ghs.5Cobj.5Cw_mag.94::
                        1792 .LDWlin94:
0000055e 40063f00       1793 	dispose	0,{r31},[lp]
                        1794 	.type	_W_Cluster_Battery_Uint,@function
                        1795 	.size	_W_Cluster_Battery_Uint,.-_W_Cluster_Battery_Uint
                        1796 	.align	2
                        1797 .LDW18:
                        1798 
                        1799 	.section ".bss","awb"
                        1800 .L1666:
                        1801 	.type	.L1666,@object
                        1802 	.size	.L1666,0
                        1803 	.data
                        1804 	.text
                        1805 
                        1806 
                        1807 --408: //----------------------------------------------------------------------------------------------------------------------------
                        1808 --409: void W_Cluster_Battery_Demo_Num(uint8_t bat_num)
                        1809 	.align	2
                        1810 	.align	2
                        1811 	.global	_W_Cluster_Battery_Demo_Num
                        1812 _W_Cluster_Battery_Demo_Num:
00000562 80076100       1813 	prepare	{r29,r31},0
00000566 c6eeff00       1814 	andi	255,r6,r29
                        1815 --	    .bf
                        1816 .LDW28:
                        1817 --410: {
                        1818 --411:     if(bat_num == 0)
0000056a e0e9           1819 	cmp	zero,r29
0000056c aa0d*          1820 	bne	.L1683
                        1821 --412:         W_Draw_Image_By_ID(PIC_ID_C_BATTERY_8, 1105, 36);
                        1822 --line412
                        1823 ..lin.C.3A.5Cgit.5Crh850.5Csrc.5Capp.5Cgfx_apps.5Csimple_draw.5Ctarget.5Cd1mx_mango_ghs.5Cobj.5Cw_mag.95::
                        1824 .LDWlin95:
0000056e 20361600       1825 	movea	22,zero,r6
00000572 203e5104       1826 	movea	1105,zero,r7
00000576 20462400       1827 	movea	36,zero,r8
                        1828 	jarl	_W_Draw_Image_By_ID,lp
                        1828 <EXPANSION BEGIN>
                        1828 jarl22 _W_Draw_Image_By_ID , lp 
0000057a 80ff0000*      1828 <EXPANSION END>
0000057e 950d*          1829 	br	.L1685
                        1830 .L1683:
                        1831 --413:     else
                        1832 --414:         W_Draw_Image_By_ID(PIC_ID_C_BATTERY_5, 1119, 36);
                        1833 --line414
                        1834 ..lin.C.3A.5Cgit.5Crh850.5Csrc.5Capp.5Cgfx_apps.5Csimple_draw.5Ctarget.5Cd1mx_mango_ghs.5Cobj.5Cw_mag.96::
                        1835 .LDWlin96:
00000580 20361300       1836 	movea	19,zero,r6
00000584 203e5f04       1837 	movea	1119,zero,r7
00000588 20462400       1838 	movea	36,zero,r8
                        1839 	jarl	_W_Draw_Image_By_ID,lp
                        1839 <EXPANSION BEGIN>
                        1839 jarl22 _W_Draw_Image_By_ID , lp 
0000058c 80ff0000*      1839 <EXPANSION END>
                        1840 .L1685:
                        1841 --415: }

                                                                      Page 35
                                                              C:\Users\Frank\AppData\Local\Temp\gh_0000p3g1.si
                        1842 --	    .ef
                        1843 .LDW38:
                        1844 --line415
                        1845 ..lin.C.3A.5Cgit.5Crh850.5Csrc.5Capp.5Cgfx_apps.5Csimple_draw.5Ctarget.5Cd1mx_mango_ghs.5Cobj.5Cw_mag.97::
                        1846 .LDWlin97:
00000590 40067f00       1847 	dispose	0,{r29,r31},[lp]
                        1848 	.type	_W_Cluster_Battery_Demo_Num,@function
                        1849 	.size	_W_Cluster_Battery_Demo_Num,.-_W_Cluster_Battery_Demo_Num
                        1850 	.align	2
                        1851 .LDW48:
                        1852 
                        1853 --_bat_num	r29	param
                        1854 
                        1855 	.section ".bss","awb"
                        1856 .L1722:
                        1857 	.type	.L1722,@object
                        1858 	.size	.L1722,0
                        1859 	.data
                        1860 	.text
                        1861 
                        1862 
                        1863 --417: //----------------------------------------------------------------------------------------------------------------------------
                        1864 --418: void W_Cluster_Battery_Process()
                        1865 	.align	2
                        1866 	.align	2
                        1867 	.global	_W_Cluster_Battery_Process
                        1868 _W_Cluster_Battery_Process:
00000594 80072100       1869 	prepare	{r31},0
                        1870 --	    .bf
                        1871 .LDW58:
                        1872 --419: {
                        1873 --420:     W_Cluster_Battery_BG();
                        1874 	jarl	_W_Cluster_Battery_BG,lp
                        1874 <EXPANSION BEGIN>
                        1874 jarl22 _W_Cluster_Battery_BG , lp 
00000598 bfff86ff*      1874 <EXPANSION END>
                        1875 --421:     W_Cluster_Demo_Battery();
                        1876 --line421
                        1877 ..lin.C.3A.5Cgit.5Crh850.5Csrc.5Capp.5Cgfx_apps.5Csimple_draw.5Ctarget.5Cd1mx_mango_ghs.5Cobj.5Cw_mag.98::
                        1878 .LDWlin98:
                        1879 	jarl	_W_Cluster_Demo_Battery,lp
                        1879 <EXPANSION BEGIN>
                        1879 jarl22 _W_Cluster_Demo_Battery , lp 
0000059c bfff98ff*      1879 <EXPANSION END>
                        1880 --422:     W_Cluster_Battery_Demo_Num(0);
                        1881 --line422
                        1882 ..lin.C.3A.5Cgit.5Crh850.5Csrc.5Capp.5Cgfx_apps.5Csimple_draw.5Ctarget.5Cd1mx_mango_ghs.5Cobj.5Cw_mag.99::
                        1883 .LDWlin99:
000005a0 0032           1884 	mov	0,r6
                        1885 	jarl	_W_Cluster_Battery_Demo_Num,lp
                        1885 <EXPANSION BEGIN>
                        1885 jarl22 _W_Cluster_Battery_Demo_Num , lp 
000005a2 bfffc0ff*      1885 <EXPANSION END>
                        1886 --423:     W_Cluster_Battery_Demo_Num(1);
                        1887 --line423
                        1888 ..lin.C.3A.5Cgit.5Crh850.5Csrc.5Capp.5Cgfx_apps.5Csimple_draw.5Ctarget.5Cd1mx_mango_ghs.5Cobj.5Cw_mag.100::
                        1889 .LDWlin100:
000005a6 0132           1890 	mov	1,r6
                        1891 	jarl	_W_Cluster_Battery_Demo_Num,lp
                        1891 <EXPANSION BEGIN>
                        1891 jarl22 _W_Cluster_Battery_Demo_Num , lp 

                                                                      Page 36
                                                              C:\Users\Frank\AppData\Local\Temp\gh_0000p3g1.si
000005a8 bfffbaff*      1891 <EXPANSION END>
                        1892 --424:     W_Cluster_Battery_Uint();
                        1893 --line424
                        1894 ..lin.C.3A.5Cgit.5Crh850.5Csrc.5Capp.5Cgfx_apps.5Csimple_draw.5Ctarget.5Cd1mx_mango_ghs.5Cobj.5Cw_mag.101::
                        1895 .LDWlin101:
                        1896 	jarl	_W_Cluster_Battery_Uint,lp
                        1896 <EXPANSION BEGIN>
                        1896 jarl22 _W_Cluster_Battery_Uint , lp 
000005ac bfff9eff*      1896 <EXPANSION END>
                        1897 --425: }
                        1898 --	    .ef
                        1899 .LDW68:
                        1900 --line425
                        1901 ..lin.C.3A.5Cgit.5Crh850.5Csrc.5Capp.5Cgfx_apps.5Csimple_draw.5Ctarget.5Cd1mx_mango_ghs.5Cobj.5Cw_mag.102::
                        1902 .LDWlin102:
000005b0 40063f00       1903 	dispose	0,{r31},[lp]
                        1904 	.type	_W_Cluster_Battery_Process,@function
                        1905 	.size	_W_Cluster_Battery_Process,.-_W_Cluster_Battery_Process
                        1906 	.align	2
                        1907 .LDW78:
                        1908 
                        1909 	.section ".bss","awb"
                        1910 .L1778:
                        1911 	.type	.L1778,@object
                        1912 	.size	.L1778,0
                        1913 	.data
                        1914 	.text
                        1915 
                        1916 
                        1917 --426: //----------------------------------------------------------------------------------------------------------------------------
                        1918 --427: void W_Cluster_SpeedUint()
                        1919 	.align	2
                        1920 	.align	2
                        1921 	.global	_W_Cluster_SpeedUint
                        1922 _W_Cluster_SpeedUint:
000005b4 80072100       1923 	prepare	{r31},0
                        1924 --	    .bf
                        1925 .LDW88:
                        1926 --428: {
                        1927 --429:     W_Draw_Image_By_ID(PIC_ID_C_SPEED_KMH, 602, 320);
000005b8 2036c200       1928 	movea	194,zero,r6
000005bc 203e5a02       1929 	movea	602,zero,r7
000005c0 20464001       1930 	movea	320,zero,r8
                        1931 	jarl	_W_Draw_Image_By_ID,lp
                        1931 <EXPANSION BEGIN>
                        1931 jarl22 _W_Draw_Image_By_ID , lp 
000005c4 80ff0000*      1931 <EXPANSION END>
                        1932 --430: }
                        1933 --	    .ef
                        1934 .LDW98:
                        1935 --line430
                        1936 ..lin.C.3A.5Cgit.5Crh850.5Csrc.5Capp.5Cgfx_apps.5Csimple_draw.5Ctarget.5Cd1mx_mango_ghs.5Cobj.5Cw_mag.103::
                        1937 .LDWlin103:
000005c8 40063f00       1938 	dispose	0,{r31},[lp]
                        1939 	.type	_W_Cluster_SpeedUint,@function
                        1940 	.size	_W_Cluster_SpeedUint,.-_W_Cluster_SpeedUint
                        1941 	.align	2
                        1942 .LDW09:
                        1943 
                        1944 	.section ".bss","awb"
                        1945 .L1826:

                                                                      Page 37
                                                              C:\Users\Frank\AppData\Local\Temp\gh_0000p3g1.si
                        1946 	.type	.L1826,@object
                        1947 	.size	.L1826,0
                        1948 	.data
                        1949 	.text
                        1950 
                        1951 
                        1952 --431: //----------------------------------------------------------------------------------------------------------------------------
                        1953 --432: void W_Cluster_Draw_Turnlight(uint8_t u8disp_status)
                        1954 	.align	2
                        1955 	.align	2
                        1956 	.global	_W_Cluster_Draw_Turnlight
                        1957 _W_Cluster_Draw_Turnlight:
000005cc 80076100       1958 	prepare	{r29,r31},0
000005d0 c6eeff00       1959 	andi	255,r6,r29
                        1960 --	    .bf
                        1961 .LDW19:
                        1962 --433: {
                        1963 --434:     if(u8disp_status == 0)
000005d4 e0e9           1964 	cmp	zero,r29
000005d6 aa0d*          1965 	bne	.L1843
                        1966 --435:         W_Draw_Image_By_ID(PIC_ID_C_TURN_L, 397, 36);
                        1967 --line435
                        1968 ..lin.C.3A.5Cgit.5Crh850.5Csrc.5Capp.5Cgfx_apps.5Csimple_draw.5Ctarget.5Cd1mx_mango_ghs.5Cobj.5Cw_mag.104::
                        1969 .LDWlin104:
000005d8 2036df00       1970 	movea	223,zero,r6
000005dc 203e8d01       1971 	movea	397,zero,r7
000005e0 20462400       1972 	movea	36,zero,r8
                        1973 	jarl	_W_Draw_Image_By_ID,lp
                        1973 <EXPANSION BEGIN>
                        1973 jarl22 _W_Draw_Image_By_ID , lp 
000005e4 80ff0000*      1973 <EXPANSION END>
000005e8 950d*          1974 	br	.L1845
                        1975 .L1843:
                        1976 --436:     else
                        1977 --437:         W_Draw_Image_By_ID(PIC_ID_C_TURN_R, 835, 36);    
                        1978 --line437
                        1979 ..lin.C.3A.5Cgit.5Crh850.5Csrc.5Capp.5Cgfx_apps.5Csimple_draw.5Ctarget.5Cd1mx_mango_ghs.5Cobj.5Cw_mag.105::
                        1980 .LDWlin105:
000005ea 2036e000       1981 	movea	224,zero,r6
000005ee 203e4303       1982 	movea	835,zero,r7
000005f2 20462400       1983 	movea	36,zero,r8
                        1984 	jarl	_W_Draw_Image_By_ID,lp
                        1984 <EXPANSION BEGIN>
                        1984 jarl22 _W_Draw_Image_By_ID , lp 
000005f6 80ff0000*      1984 <EXPANSION END>
                        1985 .L1845:
                        1986 --438: }
                        1987 --	    .ef
                        1988 .LDW29:
                        1989 --line438
                        1990 ..lin.C.3A.5Cgit.5Crh850.5Csrc.5Capp.5Cgfx_apps.5Csimple_draw.5Ctarget.5Cd1mx_mango_ghs.5Cobj.5Cw_mag.106::
                        1991 .LDWlin106:
000005fa 40067f00       1992 	dispose	0,{r29,r31},[lp]
                        1993 	.type	_W_Cluster_Draw_Turnlight,@function
                        1994 	.size	_W_Cluster_Draw_Turnlight,.-_W_Cluster_Draw_Turnlight
                        1995 	.align	2
                        1996 .LDW39:
                        1997 
                        1998 --_u8disp_status	r29	param
                        1999 
                        2000 	.section ".bss","awb"

                                                                      Page 38
                                                              C:\Users\Frank\AppData\Local\Temp\gh_0000p3g1.si
                        2001 .L1882:
                        2002 	.type	.L1882,@object
                        2003 	.size	.L1882,0
                        2004 	.data
                        2005 	.text
                        2006 
                        2007 
                        2008 --439: //----------------------------------------------------------------------------------------------------------------------------
                        2009 --440: void W_Cluster_Disp_Turnlight(void)
                        2010 	.align	2
                        2011 	.align	2
                        2012 	.global	_W_Cluster_Disp_Turnlight
                        2013 _W_Cluster_Disp_Turnlight:
000005fe 80076100       2014 	prepare	{r29,r31},0
00000602 3d0600000000*  2015 	mov	_gtmars_info+8,r29
                        2016 --	    .bf
                        2017 .LDW49:
                        2018 --441: {
                        2019 --442:     if(((gtmars_info.tcar_info.tcan_id287_info.tlamp_form_can_info.left_turn == _G_TRUE) &&
00000608 9d0f3d00       2020 	ld.bu	60[r29],r1
0000060c d80a           2021 	shl	24,r1
0000060e 9e0a           2022 	shr	30,r1
00000610 630a           2023 	cmp	3,r1
00000612 f205*          2024 	be	.L1906
00000614 9d0f4100       2025 	ld.bu	64[r29],r1
00000618 da0a           2026 	shl	26,r1
0000061a 9e0a           2027 	shr	30,r1
0000061c 630a           2028 	cmp	3,r1
0000061e fa05*          2029 	bne	.L1905
                        2030 .L1906:
                        2031 --443:        (gtmars_info.tcar_info.tcan_id287_info.tlamp_form_can_info.right_turn == _G_TRUE)) ||
                        2032 --444:        ((gtmars_info.tcar_info.tcar_power_light_info.tcar_light_info.r_turn_lamp == _G_TRUE) &&
                        2033 --445:        (gtmars_info.tcar_info.tcar_power_light_info.tcar_light_info.l_turn_lamp == _G_TRUE)))
                        2034 --446:     {
                        2035 --447:         W_Cluster_Draw_Turnlight(0);
                        2036 --line447
                        2037 ..lin.C.3A.5Cgit.5Crh850.5Csrc.5Capp.5Cgfx_apps.5Csimple_draw.5Ctarget.5Cd1mx_mango_ghs.5Cobj.5Cw_mag.107::
                        2038 .LDWlin107:
00000620 0032           2039 	mov	0,r6
                        2040 	jarl	_W_Cluster_Draw_Turnlight,lp
                        2040 <EXPANSION BEGIN>
                        2040 jarl22 _W_Cluster_Draw_Turnlight , lp 
00000622 bfffaaff*      2040 <EXPANSION END>
                        2041 --448:         W_Cluster_Draw_Turnlight(1);
                        2042 --line448
                        2043 ..lin.C.3A.5Cgit.5Crh850.5Csrc.5Capp.5Cgfx_apps.5Csimple_draw.5Ctarget.5Cd1mx_mango_ghs.5Cobj.5Cw_mag.108::
                        2044 .LDWlin108:
00000626 0132           2045 	mov	1,r6
                        2046 	jarl	_W_Cluster_Draw_Turnlight,lp
                        2046 <EXPANSION BEGIN>
                        2046 jarl22 _W_Cluster_Draw_Turnlight , lp 
00000628 bfffa4ff*      2046 <EXPANSION END>
                        2047 .L1905:
                        2048 --449:     }
                        2049 --450:     if((gtmars_info.tcar_info.tcan_id287_info.tlamp_form_can_info.left_turn == _G_TRUE) ||
                        2050 --line450
                        2051 ..lin.C.3A.5Cgit.5Crh850.5Csrc.5Capp.5Cgfx_apps.5Csimple_draw.5Ctarget.5Cd1mx_mango_ghs.5Cobj.5Cw_mag.109::
                        2052 .LDWlin109:
0000062c 9d0f3d00       2053 	ld.bu	60[r29],r1
00000630 870a           2054 	shr	7,r1
00000632 d105*          2055 	bl	.L1909

                                                                      Page 39
                                                              C:\Users\Frank\AppData\Local\Temp\gh_0000p3g1.si
00000634 9d0f4100       2056 	ld.bu	64[r29],r1
00000638 850a           2057 	shr	5,r1
0000063a d905*          2058 	bnl	.L1908
                        2059 .L1909:
                        2060 --451:        (gtmars_info.tcar_info.tcar_power_light_info.tcar_light_info.l_turn_lamp == _TRUE))
                        2061 --452:         W_Cluster_Draw_Turnlight(0);
                        2062 --line452
                        2063 ..lin.C.3A.5Cgit.5Crh850.5Csrc.5Capp.5Cgfx_apps.5Csimple_draw.5Ctarget.5Cd1mx_mango_ghs.5Cobj.5Cw_mag.110::
                        2064 .LDWlin110:
0000063c 0032           2065 	mov	0,r6
                        2066 	jarl	_W_Cluster_Draw_Turnlight,lp
                        2066 <EXPANSION BEGIN>
                        2066 jarl22 _W_Cluster_Draw_Turnlight , lp 
0000063e bfff8eff*      2066 <EXPANSION END>
00000642 c50d*          2067 	br	.L1911
                        2068 .L1908:
                        2069 --453:     else if((gtmars_info.tcar_info.tcan_id287_info.tlamp_form_can_info.right_turn == _G_TRUE) ||
                        2070 --line453
                        2071 ..lin.C.3A.5Cgit.5Crh850.5Csrc.5Capp.5Cgfx_apps.5Csimple_draw.5Ctarget.5Cd1mx_mango_ghs.5Cobj.5Cw_mag.111::
                        2072 .LDWlin111:
00000644 9d0f3d00       2073 	ld.bu	60[r29],r1
00000648 880a           2074 	shr	8,r1
0000064a d105*          2075 	bl	.L1913
0000064c 9d0f4100       2076 	ld.bu	64[r29],r1
00000650 860a           2077 	shr	6,r1
00000652 c905*          2078 	bnl	.L1911
                        2079 .L1913:
                        2080 --454:         (gtmars_info.tcar_info.tcar_power_light_info.tcar_light_info.r_turn_lamp == _G_TRUE))
                        2081 --455:         W_Cluster_Draw_Turnlight(1);
                        2082 --line455
                        2083 ..lin.C.3A.5Cgit.5Crh850.5Csrc.5Capp.5Cgfx_apps.5Csimple_draw.5Ctarget.5Cd1mx_mango_ghs.5Cobj.5Cw_mag.112::
                        2084 .LDWlin112:
00000654 0132           2085 	mov	1,r6
                        2086 	jarl	_W_Cluster_Draw_Turnlight,lp
                        2086 <EXPANSION BEGIN>
                        2086 jarl22 _W_Cluster_Draw_Turnlight , lp 
00000656 bfff76ff*      2086 <EXPANSION END>
                        2087 .L1911:
                        2088 --456: }
                        2089 --	    .ef
                        2090 .LDW59:
                        2091 --line456
                        2092 ..lin.C.3A.5Cgit.5Crh850.5Csrc.5Capp.5Cgfx_apps.5Csimple_draw.5Ctarget.5Cd1mx_mango_ghs.5Cobj.5Cw_mag.113::
                        2093 .LDWlin113:
0000065a 40067f00       2094 	dispose	0,{r29,r31},[lp]
                        2095 	.type	_W_Cluster_Disp_Turnlight,@function
                        2096 	.size	_W_Cluster_Disp_Turnlight,.-_W_Cluster_Disp_Turnlight
                        2097 	.align	2
                        2098 .LDW69:
                        2099 
                        2100 	.section ".bss","awb"
                        2101 .L1974:
                        2102 	.type	.L1974,@object
                        2103 	.size	.L1974,0
                        2104 	.data
                        2105 	.text
                        2106 
                        2107 
                        2108 --458: void W_Draw_Line(uint16_t x, uint16_t y, uint16_t x2, uint16_t y2, 
                        2109 	.align	2
                        2110 	.align	2

                                                                      Page 40
                                                              C:\Users\Frank\AppData\Local\Temp\gh_0000p3g1.si
                        2111 	.global	_W_Draw_Line
                        2112 _W_Draw_Line:
0000065e 9407e170       2113 	prepare	{r25,r26,r27,r28,r29,r31},10
00000662 c95effff       2114 	andi	65535,r9,r11
00000666 c6deffff       2115 	andi	65535,r6,r27
0000066a c7d6ffff       2116 	andi	65535,r7,r26
0000066e c8ceffff       2117 	andi	65535,r8,r25
00000672 635f0200       2118 	st.h	r11,2[sp]
00000676 3c0600000000*  2119 	mov	_tclusterDrw2dDev,r28
                        2120 --	    .bf
                        2121 .LDW79:
                        2122 --459:         uint16_t width, uint32_t color) 
                        2123 --460: {
                        2124 --461:     r_drw2d_Error_t ret = R_DRW2D_ERR_OK;
0000067c 00ea           2125 	mov	0,r29
                        2126 --462:     r_drw2d_LineStyle_t LineStyle;
                        2127 --463:     r_drw2d_Point_t Points[2] = {
0000067e 210600000000*  2128 	mov	.L2152,r1
00000684 a10709600000   2129 	ld.dw	0[r1],r12
0000068a a10789500000   2130 	ld.dw	8[r1],r10
00000690 23760400       2131 	movea	4,sp,r14
00000694 ae070f600000   2132 	st.dw	r12,0[r14]
0000069a ae078f500000   2133 	st.dw	r10,8[r14]
                        2134 --464:         { 0, 0}, { 0,00} };
                        2135 --465:     Points[0].X = R_DRW2D_2X(x);
000006a0 1b08           2136 	mov	r27,r1
000006a2 d00a           2137 	shl	16,r1
000006a4 630f0500       2138 	st.w	r1,4[sp]
                        2139 --466:     Points[0].Y = R_DRW2D_2X(y);
000006a8 1a08           2140 	mov	r26,r1
000006aa d00a           2141 	shl	16,r1
000006ac 630f0900       2142 	st.w	r1,8[sp]
                        2143 --467:     Points[1].X = R_DRW2D_2X(x2);
000006b0 1908           2144 	mov	r25,r1
000006b2 d00a           2145 	shl	16,r1
000006b4 630f0d00       2146 	st.w	r1,12[sp]
                        2147 --468:     Points[1].Y = R_DRW2D_2X(y2);
000006b8 e30f0300       2148 	ld.hu	2[sp],r1
000006bc d00a           2149 	shl	16,r1
000006be 630f1100       2150 	st.w	r1,16[sp]
                        2151 --469:     LineStyle.LineJoin = R_DRW2D_LINEJOIN_NONE;
000006c2 63071500       2152 	st.w	zero,20[sp]
                        2153 --470:     LineStyle.LineCap = R_DRW2D_LINECAP_SQUARE;
000006c6 010a           2154 	mov	1,r1
000006c8 630f1900       2155 	st.w	r1,24[sp]
                        2156 --471:     LineStyle.Width = R_DRW2D_2X(width);
000006cc e30f4100       2157 	ld.hu	64[sp],r1
000006d0 d00a           2158 	shl	16,r1
000006d2 630f1d00       2159 	st.w	r1,28[sp]
                        2160 --472:     LineStyle.MiterLimit = R_DRW2D_2X(1);
000006d6 400e0100       2161 	movhi	hi(65536),zero,r1
000006da 630f2100       2162 	st.w	r1,32[sp]
                        2163 --473:     LineStyle.IsClosed = R_FALSE;
000006de 63072500       2164 	st.w	zero,36[sp]
                        2165 --474:     ret |= R_DRW2D_CtxLineStyle(tclusterDrw2dDev, &LineStyle);
000006e2 3c370100       2166 	ld.w	0[r28],r6
000006e6 233e1400       2167 	movea	20,sp,r7
                        2168 	jarl	_R_DRW2D_CtxLineStyle,lp
                        2168 <EXPANSION BEGIN>
                        2168 jarl22 _R_DRW2D_CtxLineStyle , lp 
000006ea 80ff0000*      2168 <EXPANSION END>

                                                                      Page 41
                                                              C:\Users\Frank\AppData\Local\Temp\gh_0000p3g1.si
000006ee 0ae9           2169 	or	r10,r29
                        2170 --475:     ret |= R_DRW2D_CtxBlendMode(tclusterDrw2dDev, R_DRW2D_BLENDMODE_SRC);
                        2171 --line475
                        2172 ..lin.C.3A.5Cgit.5Crh850.5Csrc.5Capp.5Cgfx_apps.5Csimple_draw.5Ctarget.5Cd1mx_mango_ghs.5Cobj.5Cw_mag.114::
                        2173 .LDWlin114:
000006f0 3c370100       2174 	ld.w	0[r28],r6
000006f4 013a           2175 	mov	1,r7
                        2176 	jarl	_R_DRW2D_CtxBlendMode,lp
                        2176 <EXPANSION BEGIN>
                        2176 jarl22 _R_DRW2D_CtxBlendMode , lp 
000006f6 80ff0000*      2176 <EXPANSION END>
000006fa 0ae9           2177 	or	r10,r29
                        2178 --476:     ret |= R_DRW2D_CtxFillMode(tclusterDrw2dDev, R_DRW2D_FILLMODE_SOLID);
                        2179 --line476
                        2180 ..lin.C.3A.5Cgit.5Crh850.5Csrc.5Capp.5Cgfx_apps.5Csimple_draw.5Ctarget.5Cd1mx_mango_ghs.5Cobj.5Cw_mag.115::
                        2181 .LDWlin115:
000006fc 3c370100       2182 	ld.w	0[r28],r6
00000700 013a           2183 	mov	1,r7
                        2184 	jarl	_R_DRW2D_CtxFillMode,lp
                        2184 <EXPANSION BEGIN>
                        2184 jarl22 _R_DRW2D_CtxFillMode , lp 
00000702 80ff0000*      2184 <EXPANSION END>
00000706 0ae9           2185 	or	r10,r29
                        2186 --477:     ret |= R_DRW2D_CtxFgColor(tclusterDrw2dDev, color);
                        2187 --line477
                        2188 ..lin.C.3A.5Cgit.5Crh850.5Csrc.5Capp.5Cgfx_apps.5Csimple_draw.5Ctarget.5Cd1mx_mango_ghs.5Cobj.5Cw_mag.116::
                        2189 .LDWlin116:
00000708 3c370100       2190 	ld.w	0[r28],r6
0000070c 233f4500       2191 	ld.w	68[sp],r7
                        2192 	jarl	_R_DRW2D_CtxFgColor,lp
                        2192 <EXPANSION BEGIN>
                        2192 jarl22 _R_DRW2D_CtxFgColor , lp 
00000710 80ff0000*      2192 <EXPANSION END>
00000714 0ae9           2193 	or	r10,r29
                        2194 --478:     ret |= R_DRW2D_DrawLines(tclusterDrw2dDev, Points, 2);
                        2195 --line478
                        2196 ..lin.C.3A.5Cgit.5Crh850.5Csrc.5Capp.5Cgfx_apps.5Csimple_draw.5Ctarget.5Cd1mx_mango_ghs.5Cobj.5Cw_mag.117::
                        2197 .LDWlin117:
00000716 3c370100       2198 	ld.w	0[r28],r6
0000071a 233e0400       2199 	movea	4,sp,r7
0000071e 0242           2200 	mov	2,r8
                        2201 	jarl	_R_DRW2D_DrawLines,lp
                        2201 <EXPANSION BEGIN>
                        2201 jarl22 _R_DRW2D_DrawLines , lp 
00000720 80ff0000*      2201 <EXPANSION END>
00000724 0ae9           2202 	or	r10,r29
                        2203 --479: }
                        2204 --	    .ef
                        2205 .LDW89:
                        2206 --line479
                        2207 ..lin.C.3A.5Cgit.5Crh850.5Csrc.5Capp.5Cgfx_apps.5Csimple_draw.5Ctarget.5Cd1mx_mango_ghs.5Cobj.5Cw_mag.118::
                        2208 .LDWlin118:
00000726 5406ff70       2209 	dispose	10,{r25,r26,r27,r28,r29,r31},[lp]
                        2210 	.type	_W_Draw_Line,@function
                        2211 	.size	_W_Draw_Line,.-_W_Draw_Line
                        2212 	.align	2
                        2213 .LDW99:
                        2214 --_ret	r29	local
                        2215 --_LineStyle	20[sp]	local
                        2216 --_Points	4[sp]	local
                        2217 --.L2111	.L2152	static

                                                                      Page 42
                                                              C:\Users\Frank\AppData\Local\Temp\gh_0000p3g1.si
                        2218 
                        2219 --_x	r27	param
                        2220 --_y	r26	param
                        2221 --_x2	r25	param
                        2222 --_y2	2[sp]	param
                        2223 --_width	64[sp]	param
                        2224 --_color	68[sp]	param
                        2225 
                        2226 	.section ".bss","awb"
                        2227 .L2110:
                        2228 	.type	.L2110,@object
                        2229 	.size	.L2110,0
                        2230 	.section ".rodata","a"
                        2231 	.align	4
00000000 00000000       2232 .L2152:	.space	4
00000004 00000000       2233 	.space	4
00000008 00000000       2234 	.space	4
0000000c 00000000       2235 	.space	4
                        2236 	.type	.L2152,@object
                        2237 	.size	.L2152,16
                        2238 	.data
                        2239 	.text
                        2240 
                        2241 
                        2242 --481: void W_Cluster_Debug_OSD() 
                        2243 	.align	2
                        2244 	.align	2
                        2245 	.global	_W_Cluster_Debug_OSD
                        2246 _W_Cluster_Debug_OSD:
0000072a 8407e110       2247 	prepare	{r27,r28,r29,r31},2
0000072e 20ee2c01       2248 	movea	300,zero,r29
00000732 00e2           2249 	mov	0,r28
00000734 00da           2250 	mov	0,r27
                        2251 --	    .bf
                        2252 .LDW001:
                        2253 --482: {
                        2254 --483:     const uint16_t L_WIDTH = 300;
                        2255 --484:     const uint16_t baseX = 0;
                        2256 --485:     const uint16_t baseY = 0;
                        2257 --487:     W_Draw_Line(baseX, baseY, baseX + L_WIDTH, baseY, 5, 0xffff6000);
00000736 050a           2258 	mov	5,r1
00000738 630f0100       2259 	st.w	r1,0[sp]
0000073c 21060060ffff   2260 	mov	-40960,r1
00000742 630f0500       2261 	st.w	r1,4[sp]
00000746 0032           2262 	mov	0,r6
00000748 003a           2263 	mov	0,r7
0000074a 20462c01       2264 	movea	300,zero,r8
0000074e 004a           2265 	mov	0,r9
                        2266 	jarl	_W_Draw_Line,lp
                        2266 <EXPANSION BEGIN>
                        2266 jarl22 _W_Draw_Line , lp 
00000750 bfff0eff*      2266 <EXPANSION END>
                        2267 --488:     /* 0 ~ 30 map to 0 ~ L_WIDTH pixels */
                        2268 --489:     W_Draw_Line(baseX, baseY+10, baseX + (uint16_t)(L_WIDTH * ((float32_t)u32_FPS_Count*100 / u32_Sys_Timer_Count / 30)), baseY+10, 5, 0xffff0000);
                        2269 --line489
                        2270 ..lin.C.3A.5Cgit.5Crh850.5Csrc.5Capp.5Cgfx_apps.5Csimple_draw.5Ctarget.5Cd1mx_mango_ghs.5Cobj.5Cw_mag.119::
                        2271 .LDWlin119:
00000754 210600000000*  2272 	mov	_u32_FPS_Count,r1
0000075a 210f0100       2273 	ld.w	0[r1],r1
0000075e 4076c842       2274 	movhi	hi(1120403456),zero,r14
00000762 0032           2275 	mov	0,r6

                                                                      Page 43
                                                              C:\Users\Frank\AppData\Local\Temp\gh_0000p3g1.si
00000764 0a3a           2276 	mov	10,r7
00000766 0a4a           2277 	mov	10,r9
00000768 f00f420c       2278 	cvtf.uws	r1,r1
0000076c ee0f640c       2279 	mulf.s	r14,r1,r1
00000770 2e0600000000*  2280 	mov	_u32_Sys_Timer_Count,r14
00000776 2e770100       2281 	ld.w	0[r14],r14
0000077a f0774274       2282 	cvtf.uws	r14,r14
0000077e ee0f6e0c       2283 	divf.s	r14,r1,r1
00000782 4076f041       2284 	movhi	hi(1106247680),zero,r14
00000786 ee0f6e0c       2285 	divf.s	r14,r1,r1
0000078a 40769643       2286 	movhi	hi(1133903872),zero,r14
0000078e e177640c       2287 	mulf.s	r1,r14,r1
00000792 f10f400c       2288 	trncf.suw	r1,r1
00000796 0140           2289 	mov	r1,r8
00000798 c800           2290 	zxh	r8
0000079a 050a           2291 	mov	5,r1
0000079c 630f0100       2292 	st.w	r1,0[sp]
000007a0 400effff       2293 	movhi	hi(-65536),zero,r1
000007a4 630f0500       2294 	st.w	r1,4[sp]
                        2295 	jarl	_W_Draw_Line,lp
                        2295 <EXPANSION BEGIN>
                        2295 jarl22 _W_Draw_Line , lp 
000007a8 bfffb6fe*      2295 <EXPANSION END>
                        2296 --490: }
                        2297 --	    .ef
                        2298 .LDW101:
                        2299 --line490
                        2300 ..lin.C.3A.5Cgit.5Crh850.5Csrc.5Capp.5Cgfx_apps.5Csimple_draw.5Ctarget.5Cd1mx_mango_ghs.5Cobj.5Cw_mag.120::
                        2301 .LDWlin120:
000007ac 4406ff10       2302 	dispose	2,{r27,r28,r29,r31},[lp]
                        2303 	.type	_W_Cluster_Debug_OSD,@function
                        2304 	.size	_W_Cluster_Debug_OSD,.-_W_Cluster_Debug_OSD
                        2305 	.align	2
                        2306 .LDW201:
                        2307 --_L_WIDTH	r29	local
                        2308 --_baseX	r28	local
                        2309 --_baseY	r27	local
                        2310 
                        2311 	.section ".bss","awb"
                        2312 .L2198:
                        2313 	.type	.L2198,@object
                        2314 	.size	.L2198,0
                        2315 	.data
                        2316 	.text
                        2317 
                        2318 
                        2319 --492: //----------------------------------------------------------------------------------------------------------------------------
                        2320 --493: void W_Cluster_Dispay_Num(uint8_t u8number, uint16_t u16drawx)
                        2321 	.align	2
                        2322 	.align	2
                        2323 	.global	_W_Cluster_Dispay_Num
                        2324 _W_Cluster_Dispay_Num:
000007b0 8007e100       2325 	prepare	{r28,r29,r31},0
000007b4 c6eeff00       2326 	andi	255,r6,r29
000007b8 c7e6ffff       2327 	andi	65535,r7,r28
                        2328 --	    .bf
                        2329 .LDW301:
                        2330 --494: {
                        2331 --495:     W_Draw_Image_By_ID(tcluster_speed_num_address[u8number], u16drawx, 237);
000007bc 1df0           2332 	mov	r29,ep
000007be c2f2           2333 	shl	2,ep

                                                                      Page 44
                                                              C:\Users\Frank\AppData\Local\Temp\gh_0000p3g1.si
000007c0 2e0600000000*  2334 	mov	_tcluster_speed_num_address,r14
000007c6 cef1           2335 	add	r14,ep
000007c8 1c38           2336 	mov	r28,r7
000007ca 7030           2337 	sld.hu	0[ep],r6
000007cc 2046ed00       2338 	movea	237,zero,r8
                        2339 	jarl	_W_Draw_Image_By_ID,lp
                        2339 <EXPANSION BEGIN>
                        2339 jarl22 _W_Draw_Image_By_ID , lp 
000007d0 80ff0000*      2339 <EXPANSION END>
                        2340 --496: }
                        2341 --	    .ef
                        2342 .LDW401:
                        2343 --line496
                        2344 ..lin.C.3A.5Cgit.5Crh850.5Csrc.5Capp.5Cgfx_apps.5Csimple_draw.5Ctarget.5Cd1mx_mango_ghs.5Cobj.5Cw_mag.121::
                        2345 .LDWlin121:
000007d4 4006ff00       2346 	dispose	0,{r28,r29,r31},[lp]
                        2347 	.type	_W_Cluster_Dispay_Num,@function
                        2348 	.size	_W_Cluster_Dispay_Num,.-_W_Cluster_Dispay_Num
                        2349 	.align	2
                        2350 .LDW501:
                        2351 
                        2352 --_u8number	r29	param
                        2353 --_u16drawx	r28	param
                        2354 
                        2355 	.section ".bss","awb"
                        2356 .L2242:
                        2357 	.type	.L2242,@object
                        2358 	.size	.L2242,0
                        2359 	.data
                        2360 	.text
                        2361 
                        2362 
                        2363 --498: //----------------------------------------------------------------------------------------------------------------------------
                        2364 --499: void W_Cluster_Sport_Speed(void)
                        2365 	.align	2
                        2366 	.align	2
                        2367 	.global	_W_Cluster_Sport_Speed
                        2368 _W_Cluster_Sport_Speed:
000007d8 8207e100       2369 	prepare	{r28,r29,r31},1
000007dc 3c0600000000*  2370 	mov	_gtmars_info+8,r28
                        2371 --	    .bf
                        2372 .LDW601:
                        2373 --500: {
                        2374 --501:     uint8_t u8num[4];
                        2375 --502:     uint8_t u8speed;
                        2376 --503:     if(gtmars_info.tcar_info.tcan_id133_info.u8vehicle_speed >= 40)
000007e2 9c0f0100       2377 	ld.bu	0[r28],r1
000007e6 0106d8ff       2378 	addi	-40,r1,zero
000007ea f905*          2379 	bnl	.L2259
                        2380 --504:         u8speed = gtmars_info.tcar_info.tcan_id133_info.u8vehicle_speed - 40;
                        2381 --line504
                        2382 ..lin.C.3A.5Cgit.5Crh850.5Csrc.5Capp.5Cgfx_apps.5Csimple_draw.5Ctarget.5Cd1mx_mango_ghs.5Cobj.5Cw_mag.122::
                        2383 .LDWlin122:
000007ec 9c0f0100       2384 	ld.bu	0[r28],r1
000007f0 01eed8ff       2385 	addi	-40,r1,r29
000007f4 9d00           2386 	zxb	r29
000007f6 a505*          2387 	br	.L2261
                        2388 .L2259:
                        2389 --505:     else
                        2390 --506:         u8speed = 0;
                        2391 --line506

                                                                      Page 45
                                                              C:\Users\Frank\AppData\Local\Temp\gh_0000p3g1.si
                        2392 ..lin.C.3A.5Cgit.5Crh850.5Csrc.5Capp.5Cgfx_apps.5Csimple_draw.5Ctarget.5Cd1mx_mango_ghs.5Cobj.5Cw_mag.123::
                        2393 .LDWlin123:
000007f8 00ea           2394 	mov	0,r29
                        2395 .L2261:
                        2396 --507:     u8num[0] = (u8speed / 100);
000007fa 2b061f85eb51   2397 	mov	1374389535,r11
00000800 1d60           2398 	mov	r29,r12
00000802 1d70           2399 	mov	r29,r14
00000804 eb67206a       2400 	mul	r11,r12,r13
00000808 bf72           2401 	sar	31,r14
0000080a 0d08           2402 	mov	r13,r1
0000080c a50a           2403 	sar	5,r1
0000080e ae09           2404 	sub	r14,r1
00000810 430f0000       2405 	st.b	r1,0[sp]
                        2406 --508:     u8num[1] = ((u8speed %100) / 10);
00000814 1d08           2407 	mov	r29,r1
00000816 20766400       2408 	movea	100,zero,r14
0000081a ee0ffc0a       2409 	divq	r14,r1,r1
0000081e 2b0667666666   2410 	mov	1717986919,r11
00000824 0170           2411 	mov	r1,r14
00000826 bf72           2412 	sar	31,r14
00000828 eb0f206a       2413 	mul	r11,r1,r13
0000082c 0d08           2414 	mov	r13,r1
0000082e a20a           2415 	sar	2,r1
00000830 ae09           2416 	sub	r14,r1
00000832 430f0100       2417 	st.b	r1,1[sp]
                        2418 --509:     u8num[2] = ((u8speed %100) %10) ;
00000836 1d08           2419 	mov	r29,r1
00000838 20766400       2420 	movea	100,zero,r14
0000083c ee0ffc0a       2421 	divq	r14,r1,r1
00000840 0a72           2422 	mov	10,r14
00000842 ee0ffc0a       2423 	divq	r14,r1,r1
00000846 430f0200       2424 	st.b	r1,2[sp]
                        2425 --510:     if(u8speed < 10)
0000084a 6aea           2426 	cmp	10,r29
0000084c 890d*          2427 	bnl	.L2262
                        2428 --511:         W_Cluster_Dispay_Num(u8num[2],618);
                        2429 --line511
                        2430 ..lin.C.3A.5Cgit.5Crh850.5Csrc.5Capp.5Cgfx_apps.5Csimple_draw.5Ctarget.5Cd1mx_mango_ghs.5Cobj.5Cw_mag.124::
                        2431 .LDWlin124:
0000084e 83370300       2432 	ld.bu	2[sp],r6
00000852 203e6a02       2433 	movea	618,zero,r7
                        2434 	jarl	_W_Cluster_Dispay_Num,lp
                        2434 <EXPANSION BEGIN>
                        2434 jarl22 _W_Cluster_Dispay_Num , lp 
00000856 bfff5aff*      2434 <EXPANSION END>
0000085a d525*          2435 	br	.L2264
                        2436 .L2262:
                        2437 --512:     else if (u8speed >9 && u8speed < 100)
                        2438 --line512
                        2439 ..lin.C.3A.5Cgit.5Crh850.5Csrc.5Capp.5Cgfx_apps.5Csimple_draw.5Ctarget.5Cd1mx_mango_ghs.5Cobj.5Cw_mag.125::
                        2440 .LDWlin125:
0000085c 69ea           2441 	cmp	9,r29
0000085e 9315*          2442 	bnh	.L2265
00000860 1d069cff       2443 	addi	-100,r29,zero
00000864 e10d*          2444 	bl	.L2265
                        2445 --513:     {
                        2446 --514:         W_Cluster_Dispay_Num(u8num[1],592);
                        2447 --line514
                        2448 ..lin.C.3A.5Cgit.5Crh850.5Csrc.5Capp.5Cgfx_apps.5Csimple_draw.5Ctarget.5Cd1mx_mango_ghs.5Cobj.5Cw_mag.126::
                        2449 .LDWlin126:

                                                                      Page 46
                                                              C:\Users\Frank\AppData\Local\Temp\gh_0000p3g1.si
00000866 a3370100       2450 	ld.bu	1[sp],r6
0000086a 203e5002       2451 	movea	592,zero,r7
                        2452 	jarl	_W_Cluster_Dispay_Num,lp
                        2452 <EXPANSION BEGIN>
                        2452 jarl22 _W_Cluster_Dispay_Num , lp 
0000086e bfff42ff*      2452 <EXPANSION END>
                        2453 --515:         W_Cluster_Dispay_Num(u8num[2],642);
                        2454 --line515
                        2455 ..lin.C.3A.5Cgit.5Crh850.5Csrc.5Capp.5Cgfx_apps.5Csimple_draw.5Ctarget.5Cd1mx_mango_ghs.5Cobj.5Cw_mag.127::
                        2456 .LDWlin127:
00000872 83370300       2457 	ld.bu	2[sp],r6
00000876 203e8202       2458 	movea	642,zero,r7
                        2459 	jarl	_W_Cluster_Dispay_Num,lp
                        2459 <EXPANSION BEGIN>
                        2459 jarl22 _W_Cluster_Dispay_Num , lp 
0000087a bfff36ff*      2459 <EXPANSION END>
0000087e b515*          2460 	br	.L2264
                        2461 .L2265:
                        2462 --516:     }
                        2463 --517:     else
                        2464 --518:     {
                        2465 --519:         W_Cluster_Dispay_Num(u8num[0],567);
                        2466 --line519
                        2467 ..lin.C.3A.5Cgit.5Crh850.5Csrc.5Capp.5Cgfx_apps.5Csimple_draw.5Ctarget.5Cd1mx_mango_ghs.5Cobj.5Cw_mag.128::
                        2468 .LDWlin128:
00000880 83370100       2469 	ld.bu	0[sp],r6
00000884 203e3702       2470 	movea	567,zero,r7
                        2471 	jarl	_W_Cluster_Dispay_Num,lp
                        2471 <EXPANSION BEGIN>
                        2471 jarl22 _W_Cluster_Dispay_Num , lp 
00000888 bfff28ff*      2471 <EXPANSION END>
                        2472 --520:         W_Cluster_Dispay_Num(u8num[1],617);
                        2473 --line520
                        2474 ..lin.C.3A.5Cgit.5Crh850.5Csrc.5Capp.5Cgfx_apps.5Csimple_draw.5Ctarget.5Cd1mx_mango_ghs.5Cobj.5Cw_mag.129::
                        2475 .LDWlin129:
0000088c a3370100       2476 	ld.bu	1[sp],r6
00000890 203e6902       2477 	movea	617,zero,r7
                        2478 	jarl	_W_Cluster_Dispay_Num,lp
                        2478 <EXPANSION BEGIN>
                        2478 jarl22 _W_Cluster_Dispay_Num , lp 
00000894 bfff1cff*      2478 <EXPANSION END>
                        2479 --521:         W_Cluster_Dispay_Num(u8num[2],667);
                        2480 --line521
                        2481 ..lin.C.3A.5Cgit.5Crh850.5Csrc.5Capp.5Cgfx_apps.5Csimple_draw.5Ctarget.5Cd1mx_mango_ghs.5Cobj.5Cw_mag.130::
                        2482 .LDWlin130:
00000898 83370300       2483 	ld.bu	2[sp],r6
0000089c 203e9b02       2484 	movea	667,zero,r7
                        2485 	jarl	_W_Cluster_Dispay_Num,lp
                        2485 <EXPANSION BEGIN>
                        2485 jarl22 _W_Cluster_Dispay_Num , lp 
000008a0 bfff10ff*      2485 <EXPANSION END>
                        2486 .L2264:
                        2487 --522:     }
                        2488 --523:     W_Cluster_SpeedUint();
                        2489 --line523
                        2490 ..lin.C.3A.5Cgit.5Crh850.5Csrc.5Capp.5Cgfx_apps.5Csimple_draw.5Ctarget.5Cd1mx_mango_ghs.5Cobj.5Cw_mag.131::
                        2491 .LDWlin131:
                        2492 	jarl	_W_Cluster_SpeedUint,lp
                        2492 <EXPANSION BEGIN>
                        2492 jarl22 _W_Cluster_SpeedUint , lp 
000008a4 bfff10fd*      2492 <EXPANSION END>

                                                                      Page 47
                                                              C:\Users\Frank\AppData\Local\Temp\gh_0000p3g1.si
                        2493 --524: }
                        2494 --	    .ef
                        2495 .LDW701:
                        2496 --line524
                        2497 ..lin.C.3A.5Cgit.5Crh850.5Csrc.5Capp.5Cgfx_apps.5Csimple_draw.5Ctarget.5Cd1mx_mango_ghs.5Cobj.5Cw_mag.132::
                        2498 .LDWlin132:
000008a8 4206ff00       2499 	dispose	1,{r28,r29,r31},[lp]
                        2500 	.type	_W_Cluster_Sport_Speed,@function
                        2501 	.size	_W_Cluster_Sport_Speed,.-_W_Cluster_Sport_Speed
                        2502 	.align	2
                        2503 .LDW801:
                        2504 --_u8num	0[sp]	local
                        2505 --_u8speed	r29	local
                        2506 
                        2507 	.section ".bss","awb"
                        2508 .L2350:
                        2509 	.type	.L2350,@object
                        2510 	.size	.L2350,0
                        2511 	.data
                        2512 	.text
                        2513 
                        2514 
                        2515 --525: //----------------------------------------------------------------------------------------------------------------------------
                        2516 --526: static r_drw2d_Boolean_t W_DRW2DErrorHandler(r_drw2d_Error_t  Error, void *UserData)
                        2517 	.align	2
                        2518 	.align	2
                        2519 	.global	_W_DRW2DErrorHandler..C.3A.5Cgit.5Crh850.5Csrc.5Capp.5Cgfx_apps.5Csimple_draw.5Ctarget.5Cd1mx_mango_ghs.5Cobj.5Cw_mag.
                        2520 _W_DRW2DErrorHandler..C.3A.5Cgit.5Crh850.5Csrc.5Capp.5Cgfx_apps.5Csimple_draw.5Ctarget.5Cd1mx_mango_ghs.5Cobj.5Cw_mag.:
                        2521 _W_DRW2DErrorHandler:
000008ac 0608           2522 	mov	r6,r1
000008ae 0770           2523 	mov	r7,r14
                        2524 --	    .bf
                        2525 .LDW901:
                        2526 --527: {
                        2527 --528:     while(1)
000008b0 0000           2528 	nop
                        2529 .L2414:
                        2530 --529:     {
000008b2 8505*          2531 	br	.L2414
                        2532 --	    .ef
                        2533 .LDW011:
                        2534 ..lin.C.3A.5Cgit.5Crh850.5Csrc.5Capp.5Cgfx_apps.5Csimple_draw.5Ctarget.5Cd1mx_mango_ghs.5Cobj.5Cw_mag.133::
                        2535 .LDWlin133:
                        2536 	.type	_W_DRW2DErrorHandler,@function
                        2537 	.size	_W_DRW2DErrorHandler,.-_W_DRW2DErrorHandler
                        2538 	.type	_W_DRW2DErrorHandler..C.3A.5Cgit.5Crh850.5Csrc.5Capp.5Cgfx_apps.5Csimple_draw.5Ctarget.5Cd1mx_mango_ghs.5Cobj.5Cw_mag.,@function
                        2539 	.size	_W_DRW2DErrorHandler..C.3A.5Cgit.5Crh850.5Csrc.5Capp.5Cgfx_apps.5Csimple_draw.5Ctarget.5Cd1mx_mango_ghs.5Cobj.5Cw_mag.,.-_W_DRW2DErrorHandler..C.3A.5Cgit.5Crh850.5Csrc.5Capp.5Cgfx_apps.5Csimple_draw.5Ctarget.5Cd1mx_mango_ghs.5Cobj.5Cw_mag.
                        2540 	.align	2
                        2541 .LDW111:
                        2542 
                        2543 --_Error	r1	param
                        2544 --_UserData	r14	param
                        2545 
                        2546 	.section ".bss","awb"
                        2547 .L2430:
                        2548 	.type	.L2430,@object
                        2549 	.size	.L2430,0
                        2550 	.data
                        2551 	.text
                        2552 
                        2553 --530:     }

                                                                      Page 48
                                                              C:\Users\Frank\AppData\Local\Temp\gh_0000p3g1.si
                        2554 --531:     //return R_TRUE;
                        2555 --532: }
                        2556 
                        2557 --533: //----------------------------------------------------------------------------------------------------------------------------
                        2558 --534: void W_Cluster_CreateWindows(void)
                        2559 	.align	2
                        2560 	.align	2
                        2561 	.global	_W_Cluster_CreateWindows
                        2562 _W_Cluster_CreateWindows:
000008b4 8c076100       2563 	prepare	{r29,r31},6
000008b8 3d0600000000*  2564 	mov	_tcluster_window_buffer,r29
                        2565 --	    .bf
                        2566 .LDW211:
                        2567 --535: {
                        2568 --536:     tcluster_window_buffer[0].Status	= R_WM_WINBUF_FREE;
000008be 7d070500       2569 	st.w	zero,4[r29]
                        2570 --537:     tcluster_window_buffer[1].Status	= R_WM_WINBUF_FREE;
000008c2 7d070d00       2571 	st.w	zero,12[r29]
                        2572 --538:     tcluster_window_buffer[0].Data      = (void*)D1M1A_SDRAM0;  
000008c6 400e0040       2573 	movhi	hi(1073741824),zero,r1
000008ca 7d0f0100       2574 	st.w	r1,0[r29]
                        2575 --539:     tcluster_window_buffer[1].Data      = (void*)D1M1A_SDRAM1;
000008ce 400e4b40       2576 	movhi	hi(1078657024),zero,r1
000008d2 7d0f0900       2577 	st.w	r1,8[r29]
                        2578 --540:     loc_CreateRLEWindow(R_WM_WINMODE_FB,
000008d6 200e0005       2579 	movea	1280,zero,r1
000008da 0032           2580 	mov	0,r6
000008dc 630f0100       2581 	st.w	r1,0[sp]
000008e0 003a           2582 	mov	0,r7
000008e2 200ee001       2583 	movea	480,zero,r1
000008e6 0042           2584 	mov	0,r8
000008e8 630f0500       2585 	st.w	r1,4[sp]
000008ec 004a           2586 	mov	0,r9
000008ee 200e2005       2587 	movea	1312,zero,r1
000008f2 630f0900       2588 	st.w	r1,8[sp]
000008f6 0c0a           2589 	mov	12,r1
000008f8 630f0d00       2590 	st.w	r1,12[sp]
000008fc 210600000000*  2591 	mov	_tcluster_rle_win,r1
00000902 630f1100       2592 	st.w	r1,16[sp]
                        2593 	jarl	_loc_CreateRLEWindow,lp
                        2593 <EXPANSION BEGIN>
                        2593 jarl22 _loc_CreateRLEWindow , lp 
00000906 80ff0000*      2593 <EXPANSION END>
                        2594 --541:                          0,
                        2595 --542:                          0,
                        2596 --543:                          0,
                        2597 --544:                          1280,//30,//1280,//320,  //1024, //1280, //400,
                        2598 --545:                          480,//30,//480,//240,   //384,  //480,  //400,
                        2599 --546:                          1312,//64,//1312,//352,  //1056, //1312, //448,
                        2600 --547:                          R_WM_COLORFMT_RLE24ARGB8888,
                        2601 --548:                          &tcluster_rle_win);
                        2602 --549:                  
                        2603 --550:     loc_CreateWindow_EXT(R_WM_WINMODE_FB,
                        2604 --line550
                        2605 ..lin.C.3A.5Cgit.5Crh850.5Csrc.5Capp.5Cgfx_apps.5Csimple_draw.5Ctarget.5Cd1mx_mango_ghs.5Cobj.5Cw_mag.134::
                        2606 .LDWlin134:
0000090a 63ef1500       2607 	st.w	r29,20[sp]
0000090e 200e0005       2608 	movea	1280,zero,r1
00000912 630f0100       2609 	st.w	r1,0[sp]
00000916 0032           2610 	mov	0,r6
00000918 200ee001       2611 	movea	480,zero,r1

                                                                      Page 49
                                                              C:\Users\Frank\AppData\Local\Temp\gh_0000p3g1.si
0000091c 003a           2612 	mov	0,r7
0000091e 630f0500       2613 	st.w	r1,4[sp]
00000922 0042           2614 	mov	0,r8
00000924 200e0005       2615 	movea	1280,zero,r1
00000928 014a           2616 	mov	1,r9
0000092a 630f0900       2617 	st.w	r1,8[sp]
0000092e 050a           2618 	mov	5,r1
00000930 630f0d00       2619 	st.w	r1,12[sp]
00000934 210600000000*  2620 	mov	_tcluster_draw2d_window,r1
0000093a 630f1100       2621 	st.w	r1,16[sp]
                        2622 	jarl	_loc_CreateWindow_EXT,lp
                        2622 <EXPANSION BEGIN>
                        2622 jarl22 _loc_CreateWindow_EXT , lp 
0000093e 80ff0000*      2622 <EXPANSION END>
                        2623 --551:             			 0,
                        2624 --552:             			 0,
                        2625 --553:             			 1,
                        2626 --554:             			 _CLUSTER_WIDTH,
                        2627 --555:             			 _CLUSTER_Hight,
                        2628 --556:             			 _CLUSTER_STRIDE,
                        2629 --557:             			 R_WM_COLORFMT_ARGB8888,
                        2630 --558:             			 &tcluster_draw2d_window,
                        2631 --559:             			 tcluster_window_buffer);
                        2632 --561: /*
                        2633 --562:     loc_CreateWindow(R_WM_WINMODE_SPRITES,
                        2634 --563:                      0,
                        2635 --564:                      0,
                        2636 --565:                      2,
                        2637 --566:                      1000,
                        2638 --567:                      400,
                        2639 --568:                      2048, // HW restriction 
                        2640 --569:                      R_WM_COLORFMT_ARGB8888,
                        2641 --570:                      &tcluster_sprite_window);      
                        2642 --571:                      */     
                        2643 --572: }
                        2644 --	    .ef
                        2645 .LDW311:
                        2646 --line572
                        2647 ..lin.C.3A.5Cgit.5Crh850.5Csrc.5Capp.5Cgfx_apps.5Csimple_draw.5Ctarget.5Cd1mx_mango_ghs.5Cobj.5Cw_mag.135::
                        2648 .LDWlin135:
00000942 4c067f00       2649 	dispose	6,{r29,r31},[lp]
                        2650 	.type	_W_Cluster_CreateWindows,@function
                        2651 	.size	_W_Cluster_CreateWindows,.-_W_Cluster_CreateWindows
                        2652 	.align	2
                        2653 .LDW411:
                        2654 
                        2655 	.section ".bss","awb"
                        2656 .L2486:
                        2657 	.type	.L2486,@object
                        2658 	.size	.L2486,0
                        2659 	.data
                        2660 	.text
                        2661 
                        2662 
                        2663 --573: //----------------------------------------------------------------------------------------------------------------------------
                        2664 --574: void W_Cluster_WM_End(uint8_t WMUnit, uint8_t id)
                        2665 	.align	2
                        2666 	.align	2
                        2667 	.global	_W_Cluster_WM_End
                        2668 _W_Cluster_WM_End:
00000946 8007e100       2669 	prepare	{r28,r29,r31},0

                                                                      Page 50
                                                              C:\Users\Frank\AppData\Local\Temp\gh_0000p3g1.si
0000094a c6eeff00       2670 	andi	255,r6,r29
0000094e c7e6ff00       2671 	andi	255,r7,r28
                        2672 --	    .bf
                        2673 .LDW511:
                        2674 --575: {
                        2675 --576:     R_WM_FrameEndMark(WMUnit, id);
00000952 1d30           2676 	mov	r29,r6
00000954 1c38           2677 	mov	r28,r7
                        2678 	jarl	_R_WM_FrameEndMark,lp
                        2678 <EXPANSION BEGIN>
                        2678 jarl22 _R_WM_FrameEndMark , lp 
00000956 80ff0000*      2678 <EXPANSION END>
                        2679 --577:     R_WM_FrameWait(WMUnit, id);
                        2680 --line577
                        2681 ..lin.C.3A.5Cgit.5Crh850.5Csrc.5Capp.5Cgfx_apps.5Csimple_draw.5Ctarget.5Cd1mx_mango_ghs.5Cobj.5Cw_mag.136::
                        2682 .LDWlin136:
0000095a 1d30           2683 	mov	r29,r6
0000095c 1c38           2684 	mov	r28,r7
                        2685 	jarl	_R_WM_FrameWait,lp
                        2685 <EXPANSION BEGIN>
                        2685 jarl22 _R_WM_FrameWait , lp 
0000095e 80ff0000*      2685 <EXPANSION END>
                        2686 --578: }
                        2687 --	    .ef
                        2688 .LDW611:
                        2689 --line578
                        2690 ..lin.C.3A.5Cgit.5Crh850.5Csrc.5Capp.5Cgfx_apps.5Csimple_draw.5Ctarget.5Cd1mx_mango_ghs.5Cobj.5Cw_mag.137::
                        2691 .LDWlin137:
00000962 4006ff00       2692 	dispose	0,{r28,r29,r31},[lp]
                        2693 	.type	_W_Cluster_WM_End,@function
                        2694 	.size	_W_Cluster_WM_End,.-_W_Cluster_WM_End
                        2695 	.align	2
                        2696 .LDW711:
                        2697 
                        2698 --_WMUnit	r29	param
                        2699 --_id	r28	param
                        2700 
                        2701 	.section ".bss","awb"
                        2702 .L2550:
                        2703 	.type	.L2550,@object
                        2704 	.size	.L2550,0
                        2705 	.data
                        2706 	.text
                        2707 
                        2708 
                        2709 --579: //----------------------------------------------------------------------------------------------------------------------------
                        2710 --580: void W_MAG_WindowSwap(void)
                        2711 	.align	2
                        2712 	.align	2
                        2713 	.global	_W_MAG_WindowSwap
                        2714 _W_MAG_WindowSwap:
00000966 80072100       2715 	prepare	{r31},0
                        2716 --	    .bf
                        2717 .LDW811:
                        2718 --581: {
                        2719 --582:     R_DRW2D_GpuFinish(tclusterDrw2dDev, R_DRW2D_FINISH_WAIT);
0000096a 260600000000*  2720 	mov	_tclusterDrw2dDev,r6
00000970 26370100       2721 	ld.w	0[r6],r6
00000974 013a           2722 	mov	1,r7
                        2723 	jarl	_R_DRW2D_GpuFinish,lp
                        2723 <EXPANSION BEGIN>

                                                                      Page 51
                                                              C:\Users\Frank\AppData\Local\Temp\gh_0000p3g1.si
                        2723 jarl22 _R_DRW2D_GpuFinish , lp 
00000976 80ff0000*      2723 <EXPANSION END>
                        2724 --583:     R_WM_WindowSwap(LOC_WM_UNIT, &tcluster_draw2d_window);
                        2725 --line583
                        2726 ..lin.C.3A.5Cgit.5Crh850.5Csrc.5Capp.5Cgfx_apps.5Csimple_draw.5Ctarget.5Cd1mx_mango_ghs.5Cobj.5Cw_mag.138::
                        2727 .LDWlin138:
0000097a 0032           2728 	mov	0,r6
0000097c 270600000000*  2729 	mov	_tcluster_draw2d_window,r7
                        2730 	jarl	_R_WM_WindowSwap,lp
                        2730 <EXPANSION BEGIN>
                        2730 jarl22 _R_WM_WindowSwap , lp 
00000982 80ff0000*      2730 <EXPANSION END>
                        2731 --584:     //R_WM_WindowSwap(LOC_WM_UNIT, &tcluster_rle_win); /* NO NEED TO CALL THIS */
                        2732 --585:     W_Cluster_WM_End(LOC_WM_UNIT,0);
                        2733 --line585
                        2734 ..lin.C.3A.5Cgit.5Crh850.5Csrc.5Capp.5Cgfx_apps.5Csimple_draw.5Ctarget.5Cd1mx_mango_ghs.5Cobj.5Cw_mag.139::
                        2735 .LDWlin139:
00000986 0032           2736 	mov	0,r6
00000988 003a           2737 	mov	0,r7
                        2738 	jarl	_W_Cluster_WM_End,lp
                        2738 <EXPANSION BEGIN>
                        2738 jarl22 _W_Cluster_WM_End , lp 
0000098a bfffbcff*      2738 <EXPANSION END>
                        2739 --586: }
                        2740 --	    .ef
                        2741 .LDW911:
                        2742 --line586
                        2743 ..lin.C.3A.5Cgit.5Crh850.5Csrc.5Capp.5Cgfx_apps.5Csimple_draw.5Ctarget.5Cd1mx_mango_ghs.5Cobj.5Cw_mag.140::
                        2744 .LDWlin140:
0000098e 40063f00       2745 	dispose	0,{r31},[lp]
                        2746 	.type	_W_MAG_WindowSwap,@function
                        2747 	.size	_W_MAG_WindowSwap,.-_W_MAG_WindowSwap
                        2748 	.align	2
                        2749 .LDW021:
                        2750 
                        2751 	.section ".bss","awb"
                        2752 .L2602:
                        2753 	.type	.L2602,@object
                        2754 	.size	.L2602,0
                        2755 	.data
                        2756 	.text
                        2757 
                        2758 
                        2759 --587: //----------------------------------------------------------------------------------------------------------------------------
                        2760 --588: void W_Cluster_Draw2DInit(void)
                        2761 	.align	2
                        2762 	.align	2
                        2763 	.global	_W_Cluster_Draw2DInit
                        2764 _W_Cluster_Draw2DInit:
00000992 80072100       2765 	prepare	{r31},0
                        2766 --	    .bf
                        2767 .LDW121:
                        2768 --589: {
                        2769 --590:     //verify_memory(); 
                        2770 --591:     /* start up gfx engine */
                        2771 --592:     R_DRW2D_Init();
                        2772 	jarl	_R_DRW2D_Init,lp
                        2772 <EXPANSION BEGIN>
                        2772 jarl22 _R_DRW2D_Init , lp 
00000996 80ff0000*      2772 <EXPANSION END>
                        2773 --593:     R_DRW2D_GlobalErrCallbackSet(&W_DRW2DErrorHandler, R_NULL);

                                                                      Page 52
                                                              C:\Users\Frank\AppData\Local\Temp\gh_0000p3g1.si
                        2774 --line593
                        2775 ..lin.C.3A.5Cgit.5Crh850.5Csrc.5Capp.5Cgfx_apps.5Csimple_draw.5Ctarget.5Cd1mx_mango_ghs.5Cobj.5Cw_mag.141::
                        2776 .LDWlin141:
0000099a 260600000000*  2777 	mov	_W_DRW2DErrorHandler,r6
000009a0 003a           2778 	mov	0,r7
                        2779 	jarl	_R_DRW2D_GlobalErrCallbackSet,lp
                        2779 <EXPANSION BEGIN>
                        2779 jarl22 _R_DRW2D_GlobalErrCallbackSet , lp 
000009a2 80ff0000*      2779 <EXPANSION END>
                        2780 --594:     R_DRW2D_Open(LOC_DRW2D_UNIT, R_DRW2D_UNIT_DHD0, &tclusterDHDDev, &tclusterDrw2dDev);
                        2781 --line594
                        2782 ..lin.C.3A.5Cgit.5Crh850.5Csrc.5Capp.5Cgfx_apps.5Csimple_draw.5Ctarget.5Cd1mx_mango_ghs.5Cobj.5Cw_mag.142::
                        2783 .LDWlin142:
000009a6 280600000000*  2784 	mov	_tclusterDHDDev,r8
000009ac 0032           2785 	mov	0,r6
000009ae 003a           2786 	mov	0,r7
000009b0 290600000000*  2787 	mov	_tclusterDrw2dDev,r9
                        2788 	jarl	_R_DRW2D_Open,lp
                        2788 <EXPANSION BEGIN>
                        2788 jarl22 _R_DRW2D_Open , lp 
000009b6 80ff0000*      2788 <EXPANSION END>
                        2789 --595: }
                        2790 --	    .ef
                        2791 .LDW221:
                        2792 --line595
                        2793 ..lin.C.3A.5Cgit.5Crh850.5Csrc.5Capp.5Cgfx_apps.5Csimple_draw.5Ctarget.5Cd1mx_mango_ghs.5Cobj.5Cw_mag.143::
                        2794 .LDWlin143:
000009ba 40063f00       2795 	dispose	0,{r31},[lp]
                        2796 	.type	_W_Cluster_Draw2DInit,@function
                        2797 	.size	_W_Cluster_Draw2DInit,.-_W_Cluster_Draw2DInit
                        2798 	.align	2
                        2799 .LDW321:
                        2800 
                        2801 	.data
                        2802 	.text
                        2803 
                        2804 
                        2805 --596: //----------------------------------------------------------------------------------------------------------------------------
                        2806 --597: void W_Cluster_WM_Init(void)
                        2807 	.align	2
                        2808 	.align	2
                        2809 	.global	_W_Cluster_WM_Init
                        2810 _W_Cluster_WM_Init:
000009be 80076100       2811 	prepare	{r29,r31},0
000009c2 3d0600000000*  2812 	mov	_loc_lRAM_heap,r29
                        2813 --	    .bf
                        2814 .LDW421:
                        2815 --598: {
                        2816 --599:     W_BSP_SYS_GFX_Init();
                        2817 	jarl	_W_BSP_SYS_GFX_Init,lp
                        2817 <EXPANSION BEGIN>
                        2817 jarl22 _W_BSP_SYS_GFX_Init , lp 
000009c8 80ff0000*      2817 <EXPANSION END>
                        2818 --600:     loc_SetupMemManager();
                        2819 --line600
                        2820 ..lin.C.3A.5Cgit.5Crh850.5Csrc.5Capp.5Cgfx_apps.5Csimple_draw.5Ctarget.5Cd1mx_mango_ghs.5Cobj.5Cw_mag.144::
                        2821 .LDWlin144:
                        2822 	jarl	_loc_SetupMemManager,lp
                        2822 <EXPANSION BEGIN>
                        2822 jarl22 _loc_SetupMemManager , lp 
000009cc 80ff0000*      2822 <EXPANSION END>

                                                                      Page 53
                                                              C:\Users\Frank\AppData\Local\Temp\gh_0000p3g1.si
                        2823 --601:     R_UTIL_DHD_Init(LOC_DHD_UNIT);
                        2824 --line601
                        2825 ..lin.C.3A.5Cgit.5Crh850.5Csrc.5Capp.5Cgfx_apps.5Csimple_draw.5Ctarget.5Cd1mx_mango_ghs.5Cobj.5Cw_mag.145::
                        2826 .LDWlin145:
000009d0 0032           2827 	mov	0,r6
                        2828 	jarl	_R_UTIL_DHD_Init,lp
                        2828 <EXPANSION BEGIN>
                        2828 jarl22 _R_UTIL_DHD_Init , lp 
000009d2 80ff0000*      2828 <EXPANSION END>
                        2829 --602:     R_UTIL_DHD_Config((dhd_gpu_ptr_t)loc_GPU_Memory_Addr, DHD_MEMORY_SIZE, &loc_lRAM_heap);
                        2830 --line602
                        2831 ..lin.C.3A.5Cgit.5Crh850.5Csrc.5Capp.5Cgfx_apps.5Csimple_draw.5Ctarget.5Cd1mx_mango_ghs.5Cobj.5Cw_mag.146::
                        2832 .LDWlin146:
000009d6 260600000000*  2833 	mov	_loc_GPU_Memory_Addr,r6
000009dc 26370100       2834 	ld.w	0[r6],r6
000009e0 1d40           2835 	mov	r29,r8
000009e2 203e8018       2836 	movea	6272,zero,r7
                        2837 	jarl	_R_UTIL_DHD_Config,lp
                        2837 <EXPANSION BEGIN>
                        2837 jarl22 _R_UTIL_DHD_Config , lp 
000009e6 80ff0000*      2837 <EXPANSION END>
                        2838 --603:     loc_InitWM(&loc_lRAM_heap, &loc_VRAM_heap);
                        2839 --line603
                        2840 ..lin.C.3A.5Cgit.5Crh850.5Csrc.5Capp.5Cgfx_apps.5Csimple_draw.5Ctarget.5Cd1mx_mango_ghs.5Cobj.5Cw_mag.147::
                        2841 .LDWlin147:
000009ea 1d30           2842 	mov	r29,r6
000009ec 270600000000*  2843 	mov	_loc_VRAM_heap,r7
                        2844 	jarl	_loc_InitWM,lp
                        2844 <EXPANSION BEGIN>
                        2844 jarl22 _loc_InitWM , lp 
000009f2 80ff0000*      2844 <EXPANSION END>
                        2845 --604:     W_Cluster_WM_End( LOC_WM_UNIT, 0);
                        2846 --line604
                        2847 ..lin.C.3A.5Cgit.5Crh850.5Csrc.5Capp.5Cgfx_apps.5Csimple_draw.5Ctarget.5Cd1mx_mango_ghs.5Cobj.5Cw_mag.148::
                        2848 .LDWlin148:
000009f6 0032           2849 	mov	0,r6
000009f8 003a           2850 	mov	0,r7
                        2851 	jarl	_W_Cluster_WM_End,lp
                        2851 <EXPANSION BEGIN>
                        2851 jarl22 _W_Cluster_WM_End , lp 
000009fa bfff4cff*      2851 <EXPANSION END>
                        2852 --605: #ifdef _MAG
                        2853 --606:     loc_StartSFMA();
                        2854 --line606
                        2855 ..lin.C.3A.5Cgit.5Crh850.5Csrc.5Capp.5Cgfx_apps.5Csimple_draw.5Ctarget.5Cd1mx_mango_ghs.5Cobj.5Cw_mag.149::
                        2856 .LDWlin149:
                        2857 	jarl	_loc_StartSFMA,lp
                        2857 <EXPANSION BEGIN>
                        2857 jarl22 _loc_StartSFMA , lp 
000009fe 80ff0000*      2857 <EXPANSION END>
                        2858 --607: #endif
                        2859 --608: }
                        2860 --	    .ef
                        2861 .LDW521:
                        2862 --line608
                        2863 ..lin.C.3A.5Cgit.5Crh850.5Csrc.5Capp.5Cgfx_apps.5Csimple_draw.5Ctarget.5Cd1mx_mango_ghs.5Cobj.5Cw_mag.150::
                        2864 .LDWlin150:
00000a02 40067f00       2865 	dispose	0,{r29,r31},[lp]
                        2866 	.type	_W_Cluster_WM_Init,@function
                        2867 	.size	_W_Cluster_WM_Init,.-_W_Cluster_WM_Init
                        2868 	.align	2

                                                                      Page 54
                                                              C:\Users\Frank\AppData\Local\Temp\gh_0000p3g1.si
                        2869 .LDW621:
                        2870 
                        2871 	.section ".bss","awb"
                        2872 .L2714:
                        2873 	.type	.L2714,@object
                        2874 	.size	.L2714,0
                        2875 	.data
                        2876 	.text
                        2877 
                        2878 
                        2879 --609: //----------------------------------------------------------------------------------------------------------------------------
                        2880 --610: void W_Cluster_IconClose(void)
                        2881 	.align	2
                        2882 	.align	2
                        2883 	.global	_W_Cluster_IconClose
                        2884 _W_Cluster_IconClose:
00000a06 80076100       2885 	prepare	{r29,r31},0
                        2886 --	    .bf
                        2887 .LDW721:
                        2888 --611: {
                        2889 --612:     uint8_t u8icon_num;
                        2890 --613:     for(u8icon_num = 0; u8icon_num < 12; u8icon_num ++)
00000a0a 00ea           2891 	mov	0,r29
00000a0c 0000           2892 	nop
                        2893 .L2751:
                        2894 --614:     {
                        2895 --615:         R_WM_SpriteDisable(LOC_WM_UNIT, &tclusterIcon_array[u8icon_num]);
00000a0e fd0e2400       2896 	mulhi	36,r29,r1
00000a12 0032           2897 	mov	0,r6
00000a14 2e0600000000*  2898 	mov	_tclusterIcon_array,r14
00000a1a ce09           2899 	add	r14,r1
00000a1c 0138           2900 	mov	r1,r7
                        2901 	jarl	_R_WM_SpriteDisable,lp
                        2901 <EXPANSION BEGIN>
                        2901 jarl22 _R_WM_SpriteDisable , lp 
00000a1e 80ff0000*      2901 <EXPANSION END>
                        2902 --line613
                        2903 ..lin.C.3A.5Cgit.5Crh850.5Csrc.5Capp.5Cgfx_apps.5Csimple_draw.5Ctarget.5Cd1mx_mango_ghs.5Cobj.5Cw_mag.151::
                        2904 .LDWlin151:
00000a22 41ea           2905 	add	1,r29
00000a24 9d00           2906 	zxb	r29
00000a26 6cea           2907 	cmp	12,r29
00000a28 b1f5*          2908 	bl	.L2751
                        2909 --616:     }
                        2910 --617: }
                        2911 --	    .ef
                        2912 .LDW821:
                        2913 --line617
                        2914 ..lin.C.3A.5Cgit.5Crh850.5Csrc.5Capp.5Cgfx_apps.5Csimple_draw.5Ctarget.5Cd1mx_mango_ghs.5Cobj.5Cw_mag.152::
                        2915 .LDWlin152:
00000a2a 40067f00       2916 	dispose	0,{r29,r31},[lp]
                        2917 	.type	_W_Cluster_IconClose,@function
                        2918 	.size	_W_Cluster_IconClose,.-_W_Cluster_IconClose
                        2919 	.align	2
                        2920 .LDW921:
                        2921 --_u8icon_num	r29	local
                        2922 
                        2923 	.section ".bss","awb"
                        2924 .L2786:
                        2925 	.type	.L2786,@object
                        2926 	.size	.L2786,0

                                                                      Page 55
                                                              C:\Users\Frank\AppData\Local\Temp\gh_0000p3g1.si
                        2927 	.data
                        2928 	.text
                        2929 
                        2930 
                        2931 --618: //----------------------------------------------------------------------------------------------------------------------------
                        2932 --619: void W_Cluster_IconDelete(void)
                        2933 	.align	2
                        2934 	.align	2
                        2935 	.global	_W_Cluster_IconDelete
                        2936 _W_Cluster_IconDelete:
00000a2e 80076100       2937 	prepare	{r29,r31},0
                        2938 --	    .bf
                        2939 .LDW031:
                        2940 --620: {
                        2941 --621:     uint8_t u8icon_num;
                        2942 --622:     for(u8icon_num = 0; u8icon_num < 12; u8icon_num ++)
00000a32 00ea           2943 	mov	0,r29
00000a34 0000           2944 	nop
                        2945 .L2817:
                        2946 --623:     {
                        2947 --624:         R_WM_SpriteDelete(LOC_WM_UNIT, &tclusterIcon_array[u8icon_num]);
00000a36 fd0e2400       2948 	mulhi	36,r29,r1
00000a3a 0032           2949 	mov	0,r6
00000a3c 2e0600000000*  2950 	mov	_tclusterIcon_array,r14
00000a42 ce09           2951 	add	r14,r1
00000a44 0138           2952 	mov	r1,r7
                        2953 	jarl	_R_WM_SpriteDelete,lp
                        2953 <EXPANSION BEGIN>
                        2953 jarl22 _R_WM_SpriteDelete , lp 
00000a46 80ff0000*      2953 <EXPANSION END>
                        2954 --line622
                        2955 ..lin.C.3A.5Cgit.5Crh850.5Csrc.5Capp.5Cgfx_apps.5Csimple_draw.5Ctarget.5Cd1mx_mango_ghs.5Cobj.5Cw_mag.153::
                        2956 .LDWlin153:
00000a4a 41ea           2957 	add	1,r29
00000a4c 9d00           2958 	zxb	r29
00000a4e 6cea           2959 	cmp	12,r29
00000a50 b1f5*          2960 	bl	.L2817
                        2961 --625:     }
                        2962 --626: }
                        2963 --	    .ef
                        2964 .LDW131:
                        2965 --line626
                        2966 ..lin.C.3A.5Cgit.5Crh850.5Csrc.5Capp.5Cgfx_apps.5Csimple_draw.5Ctarget.5Cd1mx_mango_ghs.5Cobj.5Cw_mag.154::
                        2967 .LDWlin154:
00000a52 40067f00       2968 	dispose	0,{r29,r31},[lp]
                        2969 	.type	_W_Cluster_IconDelete,@function
                        2970 	.size	_W_Cluster_IconDelete,.-_W_Cluster_IconDelete
                        2971 	.align	2
                        2972 .LDW231:
                        2973 --_u8icon_num	r29	local
                        2974 
                        2975 	.section ".bss","awb"
                        2976 .L2866:
                        2977 	.type	.L2866,@object
                        2978 	.size	.L2866,0
                        2979 	.data
                        2980 	.text
                        2981 
                        2982 
                        2983 --627: //----------------------------------------------------------------------------------------------------------------------------
                        2984 --628: void W_Cluster_Draw2d_Clear(uint32_t u32clear_color)

                                                                      Page 56
                                                              C:\Users\Frank\AppData\Local\Temp\gh_0000p3g1.si
                        2985 	.align	2
                        2986 	.align	2
                        2987 	.global	_W_Cluster_Draw2d_Clear
                        2988 _W_Cluster_Draw2d_Clear:
00000a56 8007e100       2989 	prepare	{r28,r29,r31},0
00000a5a 06e0           2990 	mov	r6,r28
00000a5c 3d0600000000*  2991 	mov	_tclusterDrw2dDev,r29
                        2992 --	    .bf
                        2993 .LDW331:
                        2994 --629: {
                        2995 --630:     /* Set green-ish clear color and fill framebuffer */
                        2996 --631:     R_DRW2D_CtxBgColor(tclusterDrw2dDev, u32clear_color);
00000a62 3d370100       2997 	ld.w	0[r29],r6
00000a66 1c38           2998 	mov	r28,r7
                        2999 	jarl	_R_DRW2D_CtxBgColor,lp
                        2999 <EXPANSION BEGIN>
                        2999 jarl22 _R_DRW2D_CtxBgColor , lp 
00000a68 80ff0000*      2999 <EXPANSION END>
                        3000 --632:     R_DRW2D_FramebufferClear(tclusterDrw2dDev);
                        3001 --line632
                        3002 ..lin.C.3A.5Cgit.5Crh850.5Csrc.5Capp.5Cgfx_apps.5Csimple_draw.5Ctarget.5Cd1mx_mango_ghs.5Cobj.5Cw_mag.155::
                        3003 .LDWlin155:
00000a6c 3d370100       3004 	ld.w	0[r29],r6
                        3005 	jarl	_R_DRW2D_FramebufferClear,lp
                        3005 <EXPANSION BEGIN>
                        3005 jarl22 _R_DRW2D_FramebufferClear , lp 
00000a70 80ff0000*      3005 <EXPANSION END>
                        3006 --633: }
                        3007 --	    .ef
                        3008 .LDW431:
                        3009 --line633
                        3010 ..lin.C.3A.5Cgit.5Crh850.5Csrc.5Capp.5Cgfx_apps.5Csimple_draw.5Ctarget.5Cd1mx_mango_ghs.5Cobj.5Cw_mag.156::
                        3011 .LDWlin156:
00000a74 4006ff00       3012 	dispose	0,{r28,r29,r31},[lp]
                        3013 	.type	_W_Cluster_Draw2d_Clear,@function
                        3014 	.size	_W_Cluster_Draw2d_Clear,.-_W_Cluster_Draw2d_Clear
                        3015 	.align	2
                        3016 .LDW531:
                        3017 
                        3018 --_u32clear_color	r28	param
                        3019 
                        3020 	.section ".bss","awb"
                        3021 .L2918:
                        3022 	.type	.L2918,@object
                        3023 	.size	.L2918,0
                        3024 	.data
                        3025 	.text
                        3026 
                        3027 
                        3028 --634: //----------------------------------------------------------------------------------------------------------------------------
                        3029 --635: void W_Cluster_Door_Background(void)
                        3030 	.align	2
                        3031 	.align	2
                        3032 	.global	_W_Cluster_Door_Background
                        3033 _W_Cluster_Door_Background:
00000a78 80076100       3034 	prepare	{r29,r31},0
00000a7c 3d0600000000*  3035 	mov	_tcluster_door_pic_parameter,r29
                        3036 --	    .bf
                        3037 .LDW631:
                        3038 --636: {
                        3039 --637:     W_Draw_Image_By_ID(tcluster_door_pic_addr[_DOOR_BG], tcluster_door_pic_parameter[_DOOR_BG][0], tcluster_door_pic_parameter[_DOOR_BG][1]);

                                                                      Page 57
                                                              C:\Users\Frank\AppData\Local\Temp\gh_0000p3g1.si
00000a82 260600000000*  3040 	mov	_tcluster_door_pic_addr,r6
00000a88 e6370100       3041 	ld.hu	0[r6],r6
00000a8c fd3f0100       3042 	ld.hu	0[r29],r7
00000a90 fd470300       3043 	ld.hu	2[r29],r8
                        3044 	jarl	_W_Draw_Image_By_ID,lp
                        3044 <EXPANSION BEGIN>
                        3044 jarl22 _W_Draw_Image_By_ID , lp 
00000a94 80ff0000*      3044 <EXPANSION END>
                        3045 --638: }
                        3046 --	    .ef
                        3047 .LDW731:
                        3048 --line638
                        3049 ..lin.C.3A.5Cgit.5Crh850.5Csrc.5Capp.5Cgfx_apps.5Csimple_draw.5Ctarget.5Cd1mx_mango_ghs.5Cobj.5Cw_mag.157::
                        3050 .LDWlin157:
00000a98 40067f00       3051 	dispose	0,{r29,r31},[lp]
                        3052 	.type	_W_Cluster_Door_Background,@function
                        3053 	.size	_W_Cluster_Door_Background,.-_W_Cluster_Door_Background
                        3054 	.align	2
                        3055 .LDW831:
                        3056 
                        3057 	.section ".bss","awb"
                        3058 .L2962:
                        3059 	.type	.L2962,@object
                        3060 	.size	.L2962,0
                        3061 	.data
                        3062 	.text
                        3063 
                        3064 
                        3065 --639: //----------------------------------------------------------------------------------------------------------------------------
                        3066 --640: void W_Cluster_Door_Open(uint8_t u8door_position)
                        3067 	.align	2
                        3068 	.align	2
                        3069 	.global	_W_Cluster_Door_Open
                        3070 _W_Cluster_Door_Open:
00000a9c 8007e100       3071 	prepare	{r28,r29,r31},0
00000aa0 c6eeff00       3072 	andi	255,r6,r29
00000aa4 3c0600000000*  3073 	mov	_tcluster_door_pic_parameter,r28
                        3074 --	    .bf
                        3075 .LDW931:
                        3076 --641: {
                        3077 --642:     W_Draw_Image_By_ID(tcluster_door_pic_addr[u8door_position], tcluster_door_pic_parameter[u8door_position][0], tcluster_door_pic_parameter[u8door_position][1]);
00000aaa 1df0           3078 	mov	r29,ep
00000aac c2f2           3079 	shl	2,ep
00000aae 2e0600000000*  3080 	mov	_tcluster_door_pic_addr,r14
00000ab4 cef1           3081 	add	r14,ep
00000ab6 7030           3082 	sld.hu	0[ep],r6
00000ab8 1df0           3083 	mov	r29,ep
00000aba c3f2           3084 	shl	3,ep
00000abc 1e08           3085 	mov	ep,r1
00000abe dcf1           3086 	add	r28,ep
00000ac0 7038           3087 	sld.hu	0[ep],r7
00000ac2 1cf60200       3088 	addi	2,r28,ep
00000ac6 c1f1           3089 	add	r1,ep
00000ac8 7040           3090 	sld.hu	0[ep],r8
                        3091 	jarl	_W_Draw_Image_By_ID,lp
                        3091 <EXPANSION BEGIN>
                        3091 jarl22 _W_Draw_Image_By_ID , lp 
00000aca 80ff0000*      3091 <EXPANSION END>
                        3092 --643: }
                        3093 --	    .ef
                        3094 .LDW041:

                                                                      Page 58
                                                              C:\Users\Frank\AppData\Local\Temp\gh_0000p3g1.si
                        3095 --line643
                        3096 ..lin.C.3A.5Cgit.5Crh850.5Csrc.5Capp.5Cgfx_apps.5Csimple_draw.5Ctarget.5Cd1mx_mango_ghs.5Cobj.5Cw_mag.158::
                        3097 .LDWlin158:
00000ace 4006ff00       3098 	dispose	0,{r28,r29,r31},[lp]
                        3099 	.type	_W_Cluster_Door_Open,@function
                        3100 	.size	_W_Cluster_Door_Open,.-_W_Cluster_Door_Open
                        3101 	.align	2
                        3102 .LDW141:
                        3103 
                        3104 --_u8door_position	r29	param
                        3105 
                        3106 	.section ".bss","awb"
                        3107 .L3010:
                        3108 	.type	.L3010,@object
                        3109 	.size	.L3010,0
                        3110 	.data
                        3111 	.text
                        3112 
                        3113 
                        3114 --644: //----------------------------------------------------------------------------------------------------------------------------
                        3115 --645: void W_Cluster_Door_Process(void)
                        3116 	.align	2
                        3117 	.align	2
                        3118 	.global	_W_Cluster_Door_Process
                        3119 _W_Cluster_Door_Process:
00000ad2 80076100       3120 	prepare	{r29,r31},0
00000ad6 3d0600000000*  3121 	mov	_gtmars_info+44,r29
                        3122 --	    .bf
                        3123 .LDW241:
                        3124 --646: {
                        3125 --647:     
                        3126 --648:     W_Cluster_Door_Background();
                        3127 	jarl	_W_Cluster_Door_Background,lp
                        3127 <EXPANSION BEGIN>
                        3127 jarl22 _W_Cluster_Door_Background , lp 
00000adc bfff9cff*      3127 <EXPANSION END>
                        3128 --649:     if(gtmars_info.tcar_info.tcan_id434_info.tdoor_status_info.front_left == _G_TRUE)
                        3129 --line649
                        3130 ..lin.C.3A.5Cgit.5Crh850.5Csrc.5Capp.5Cgfx_apps.5Csimple_draw.5Ctarget.5Cd1mx_mango_ghs.5Cobj.5Cw_mag.159::
                        3131 .LDWlin159:
00000ae0 9d0f0100       3132 	ld.bu	0[r29],r1
00000ae4 820a           3133 	shr	2,r1
00000ae6 c905*          3134 	bnl	.L3027
                        3135 --650:         W_Cluster_Door_Open(_DOOR_FRONT_LEFT);
                        3136 --line650
                        3137 ..lin.C.3A.5Cgit.5Crh850.5Csrc.5Capp.5Cgfx_apps.5Csimple_draw.5Ctarget.5Cd1mx_mango_ghs.5Cobj.5Cw_mag.160::
                        3138 .LDWlin160:
00000ae8 0132           3139 	mov	1,r6
                        3140 	jarl	_W_Cluster_Door_Open,lp
                        3140 <EXPANSION BEGIN>
                        3140 jarl22 _W_Cluster_Door_Open , lp 
00000aea bfffb2ff*      3140 <EXPANSION END>
                        3141 .L3027:
                        3142 --651:     if(gtmars_info.tcar_info.tcan_id434_info.tdoor_status_info.front_right == _G_TRUE)
                        3143 --line651
                        3144 ..lin.C.3A.5Cgit.5Crh850.5Csrc.5Capp.5Cgfx_apps.5Csimple_draw.5Ctarget.5Cd1mx_mango_ghs.5Cobj.5Cw_mag.161::
                        3145 .LDWlin161:
00000aee 9d0f0100       3146 	ld.bu	0[r29],r1
00000af2 810a           3147 	shr	1,r1
00000af4 c905*          3148 	bnl	.L3029
                        3149 --652:         W_Cluster_Door_Open(_DOOR_FRONT_RIGHT);

                                                                      Page 59
                                                              C:\Users\Frank\AppData\Local\Temp\gh_0000p3g1.si
                        3150 --line652
                        3151 ..lin.C.3A.5Cgit.5Crh850.5Csrc.5Capp.5Cgfx_apps.5Csimple_draw.5Ctarget.5Cd1mx_mango_ghs.5Cobj.5Cw_mag.162::
                        3152 .LDWlin162:
00000af6 0232           3153 	mov	2,r6
                        3154 	jarl	_W_Cluster_Door_Open,lp
                        3154 <EXPANSION BEGIN>
                        3154 jarl22 _W_Cluster_Door_Open , lp 
00000af8 bfffa4ff*      3154 <EXPANSION END>
                        3155 .L3029:
                        3156 --653:     if(gtmars_info.tcar_info.tcan_id434_info.tdoor_status_info.rear_left == _G_TRUE)
                        3157 --line653
                        3158 ..lin.C.3A.5Cgit.5Crh850.5Csrc.5Capp.5Cgfx_apps.5Csimple_draw.5Ctarget.5Cd1mx_mango_ghs.5Cobj.5Cw_mag.163::
                        3159 .LDWlin163:
00000afc 9d0f0100       3160 	ld.bu	0[r29],r1
00000b00 840a           3161 	shr	4,r1
00000b02 c905*          3162 	bnl	.L3031
                        3163 --654:         W_Cluster_Door_Open(_DOOR_REAR_LEFT);
                        3164 --line654
                        3165 ..lin.C.3A.5Cgit.5Crh850.5Csrc.5Capp.5Cgfx_apps.5Csimple_draw.5Ctarget.5Cd1mx_mango_ghs.5Cobj.5Cw_mag.164::
                        3166 .LDWlin164:
00000b04 0332           3167 	mov	3,r6
                        3168 	jarl	_W_Cluster_Door_Open,lp
                        3168 <EXPANSION BEGIN>
                        3168 jarl22 _W_Cluster_Door_Open , lp 
00000b06 bfff96ff*      3168 <EXPANSION END>
                        3169 .L3031:
                        3170 --655:     if(gtmars_info.tcar_info.tcan_id434_info.tdoor_status_info.rear_right == _G_TRUE)
                        3171 --line655
                        3172 ..lin.C.3A.5Cgit.5Crh850.5Csrc.5Capp.5Cgfx_apps.5Csimple_draw.5Ctarget.5Cd1mx_mango_ghs.5Cobj.5Cw_mag.165::
                        3173 .LDWlin165:
00000b0a 9d0f0100       3174 	ld.bu	0[r29],r1
00000b0e 830a           3175 	shr	3,r1
00000b10 c905*          3176 	bnl	.L3033
                        3177 --656:         W_Cluster_Door_Open(_DOOR_REAR_RIGHT);
                        3178 --line656
                        3179 ..lin.C.3A.5Cgit.5Crh850.5Csrc.5Capp.5Cgfx_apps.5Csimple_draw.5Ctarget.5Cd1mx_mango_ghs.5Cobj.5Cw_mag.166::
                        3180 .LDWlin166:
00000b12 0432           3181 	mov	4,r6
                        3182 	jarl	_W_Cluster_Door_Open,lp
                        3182 <EXPANSION BEGIN>
                        3182 jarl22 _W_Cluster_Door_Open , lp 
00000b14 bfff88ff*      3182 <EXPANSION END>
                        3183 .L3033:
                        3184 --657:     if(gtmars_info.tcar_info.tcan_id434_info.tdoor_status_info.rear_Tailgate == _G_TRUE)
                        3185 --line657
                        3186 ..lin.C.3A.5Cgit.5Crh850.5Csrc.5Capp.5Cgfx_apps.5Csimple_draw.5Ctarget.5Cd1mx_mango_ghs.5Cobj.5Cw_mag.167::
                        3187 .LDWlin167:
00000b18 9d0f0100       3188 	ld.bu	0[r29],r1
00000b1c 850a           3189 	shr	5,r1
00000b1e c905*          3190 	bnl	.L3035
                        3191 --658:         W_Cluster_Door_Open(_DOOR_REAR_TAIL);
                        3192 --line658
                        3193 ..lin.C.3A.5Cgit.5Crh850.5Csrc.5Capp.5Cgfx_apps.5Csimple_draw.5Ctarget.5Cd1mx_mango_ghs.5Cobj.5Cw_mag.168::
                        3194 .LDWlin168:
00000b20 0532           3195 	mov	5,r6
                        3196 	jarl	_W_Cluster_Door_Open,lp
                        3196 <EXPANSION BEGIN>
                        3196 jarl22 _W_Cluster_Door_Open , lp 
00000b22 bfff7aff*      3196 <EXPANSION END>
                        3197 .L3035:
                        3198 --659: }

                                                                      Page 60
                                                              C:\Users\Frank\AppData\Local\Temp\gh_0000p3g1.si
                        3199 --	    .ef
                        3200 .LDW341:
                        3201 --line659
                        3202 ..lin.C.3A.5Cgit.5Crh850.5Csrc.5Capp.5Cgfx_apps.5Csimple_draw.5Ctarget.5Cd1mx_mango_ghs.5Cobj.5Cw_mag.169::
                        3203 .LDWlin169:
00000b26 40067f00       3204 	dispose	0,{r29,r31},[lp]
                        3205 	.type	_W_Cluster_Door_Process,@function
                        3206 	.size	_W_Cluster_Door_Process,.-_W_Cluster_Door_Process
                        3207 	.align	2
                        3208 .LDW441:
                        3209 
                        3210 	.section ".bss","awb"
                        3211 .L3098:
                        3212 	.type	.L3098,@object
                        3213 	.size	.L3098,0
                        3214 	.data
                        3215 	.text
                        3216 
                        3217 
                        3218 --660: //----------------------------------------------------------------------------------------------------------------------------
                        3219 --661: void W_Cluster_Shifter(void)
                        3220 	.align	2
                        3221 	.align	2
                        3222 	.global	_W_Cluster_Shifter
                        3223 _W_Cluster_Shifter:
00000b2a 80076100       3224 	prepare	{r29,r31},0
00000b2e 3d0600000000*  3225 	mov	_gtmars_info+17,r29
                        3226 --	    .bf
                        3227 .LDW541:
                        3228 --662: {
                        3229 --663:     if(gtmars_info.tcar_info.tcan_id134_info.tshifter_and_mode_info.u8Shifter_Status == _SHIFTER_P)
00000b34 9d0f0100       3230 	ld.bu	0[r29],r1
00000b38 c10e0700       3231 	andi	7,r1,r1
00000b3c 610a           3232 	cmp	1,r1
00000b3e aa0d*          3233 	bne	.L3145
                        3234 --664:         W_Draw_Image_By_ID(PIC_ID_C_GEAR_P, 573, 392);
                        3235 --line664
                        3236 ..lin.C.3A.5Cgit.5Crh850.5Csrc.5Capp.5Cgfx_apps.5Csimple_draw.5Ctarget.5Cd1mx_mango_ghs.5Cobj.5Cw_mag.170::
                        3237 .LDWlin170:
00000b40 20364700       3238 	movea	71,zero,r6
00000b44 203e3d02       3239 	movea	573,zero,r7
00000b48 20468801       3240 	movea	392,zero,r8
                        3241 	jarl	_W_Draw_Image_By_ID,lp
                        3241 <EXPANSION BEGIN>
                        3241 jarl22 _W_Draw_Image_By_ID , lp 
00000b4c 80ff0000*      3241 <EXPANSION END>
00000b50 e535*          3242 	br	.L3147
                        3243 .L3145:
                        3244 --665:     else if(gtmars_info.tcar_info.tcan_id134_info.tshifter_and_mode_info.u8Shifter_Status == _SHIFTER_R)
                        3245 --line665
                        3246 ..lin.C.3A.5Cgit.5Crh850.5Csrc.5Capp.5Cgfx_apps.5Csimple_draw.5Ctarget.5Cd1mx_mango_ghs.5Cobj.5Cw_mag.171::
                        3247 .LDWlin171:
00000b52 9d0f0100       3248 	ld.bu	0[r29],r1
00000b56 c10e0700       3249 	andi	7,r1,r1
00000b5a 620a           3250 	cmp	2,r1
00000b5c aa0d*          3251 	bne	.L3148
                        3252 --666:         W_Draw_Image_By_ID(PIC_ID_C_GEAR_R, 573, 392);
                        3253 --line666
                        3254 ..lin.C.3A.5Cgit.5Crh850.5Csrc.5Capp.5Cgfx_apps.5Csimple_draw.5Ctarget.5Cd1mx_mango_ghs.5Cobj.5Cw_mag.172::
                        3255 .LDWlin172:
00000b5e 20364800       3256 	movea	72,zero,r6

                                                                      Page 61
                                                              C:\Users\Frank\AppData\Local\Temp\gh_0000p3g1.si
00000b62 203e3d02       3257 	movea	573,zero,r7
00000b66 20468801       3258 	movea	392,zero,r8
                        3259 	jarl	_W_Draw_Image_By_ID,lp
                        3259 <EXPANSION BEGIN>
                        3259 jarl22 _W_Draw_Image_By_ID , lp 
00000b6a 80ff0000*      3259 <EXPANSION END>
00000b6e f525*          3260 	br	.L3147
                        3261 .L3148:
                        3262 --667:     else if(gtmars_info.tcar_info.tcan_id134_info.tshifter_and_mode_info.u8Shifter_Status == _SHIFTER_N)
                        3263 --line667
                        3264 ..lin.C.3A.5Cgit.5Crh850.5Csrc.5Capp.5Cgfx_apps.5Csimple_draw.5Ctarget.5Cd1mx_mango_ghs.5Cobj.5Cw_mag.173::
                        3265 .LDWlin173:
00000b70 9d0f0100       3266 	ld.bu	0[r29],r1
00000b74 c10e0700       3267 	andi	7,r1,r1
00000b78 630a           3268 	cmp	3,r1
00000b7a aa0d*          3269 	bne	.L3151
                        3270 --668:         W_Draw_Image_By_ID(PIC_ID_C_GEAR_N, 573, 392);
                        3271 --line668
                        3272 ..lin.C.3A.5Cgit.5Crh850.5Csrc.5Capp.5Cgfx_apps.5Csimple_draw.5Ctarget.5Cd1mx_mango_ghs.5Cobj.5Cw_mag.174::
                        3273 .LDWlin174:
00000b7c 20364400       3274 	movea	68,zero,r6
00000b80 203e3d02       3275 	movea	573,zero,r7
00000b84 20468801       3276 	movea	392,zero,r8
                        3277 	jarl	_W_Draw_Image_By_ID,lp
                        3277 <EXPANSION BEGIN>
                        3277 jarl22 _W_Draw_Image_By_ID , lp 
00000b88 80ff0000*      3277 <EXPANSION END>
00000b8c 851d*          3278 	br	.L3147
                        3279 .L3151:
                        3280 --669:     else if(gtmars_info.tcar_info.tcan_id134_info.tshifter_and_mode_info.u8Shifter_Status == _SHIFTER_D)
                        3281 --line669
                        3282 ..lin.C.3A.5Cgit.5Crh850.5Csrc.5Capp.5Cgfx_apps.5Csimple_draw.5Ctarget.5Cd1mx_mango_ghs.5Cobj.5Cw_mag.175::
                        3283 .LDWlin175:
00000b8e 9d0f0100       3284 	ld.bu	0[r29],r1
00000b92 c10e0700       3285 	andi	7,r1,r1
00000b96 640a           3286 	cmp	4,r1
00000b98 aa0d*          3287 	bne	.L3154
                        3288 --670:         W_Draw_Image_By_ID(PIC_ID_C_GEAR_D, 573, 392);
                        3289 --line670
                        3290 ..lin.C.3A.5Cgit.5Crh850.5Csrc.5Capp.5Cgfx_apps.5Csimple_draw.5Ctarget.5Cd1mx_mango_ghs.5Cobj.5Cw_mag.176::
                        3291 .LDWlin176:
00000b9a 20364300       3292 	movea	67,zero,r6
00000b9e 203e3d02       3293 	movea	573,zero,r7
00000ba2 20468801       3294 	movea	392,zero,r8
                        3295 	jarl	_W_Draw_Image_By_ID,lp
                        3295 <EXPANSION BEGIN>
                        3295 jarl22 _W_Draw_Image_By_ID , lp 
00000ba6 80ff0000*      3295 <EXPANSION END>
00000baa 950d*          3296 	br	.L3147
                        3297 .L3154:
                        3298 --671:     else
                        3299 --672:         W_Draw_Image_By_ID(PIC_ID_C_GEAR_OFF, 573, 392);
                        3300 --line672
                        3301 ..lin.C.3A.5Cgit.5Crh850.5Csrc.5Capp.5Cgfx_apps.5Csimple_draw.5Ctarget.5Cd1mx_mango_ghs.5Cobj.5Cw_mag.177::
                        3302 .LDWlin177:
00000bac 20364500       3303 	movea	69,zero,r6
00000bb0 203e3d02       3304 	movea	573,zero,r7
00000bb4 20468801       3305 	movea	392,zero,r8
                        3306 	jarl	_W_Draw_Image_By_ID,lp
                        3306 <EXPANSION BEGIN>
                        3306 jarl22 _W_Draw_Image_By_ID , lp 

                                                                      Page 62
                                                              C:\Users\Frank\AppData\Local\Temp\gh_0000p3g1.si
00000bb8 80ff0000*      3306 <EXPANSION END>
                        3307 .L3147:
                        3308 --673: }
                        3309 --	    .ef
                        3310 .LDW641:
                        3311 --line673
                        3312 ..lin.C.3A.5Cgit.5Crh850.5Csrc.5Capp.5Cgfx_apps.5Csimple_draw.5Ctarget.5Cd1mx_mango_ghs.5Cobj.5Cw_mag.178::
                        3313 .LDWlin178:
00000bbc 40067f00       3314 	dispose	0,{r29,r31},[lp]
                        3315 	.type	_W_Cluster_Shifter,@function
                        3316 	.size	_W_Cluster_Shifter,.-_W_Cluster_Shifter
                        3317 	.align	2
                        3318 .LDW741:
                        3319 
                        3320 	.section ".bss","awb"
                        3321 .L3218:
                        3322 	.type	.L3218,@object
                        3323 	.size	.L3218,0
                        3324 	.data
                        3325 	.text
                        3326 
                        3327 
                        3328 --674: //----------------------------------------------------------------------------------------------------------------------------
                        3329 --675: void W_Cluster_Car_Mode(void)
                        3330 	.align	2
                        3331 	.align	2
                        3332 	.global	_W_Cluster_Car_Mode
                        3333 _W_Cluster_Car_Mode:
00000bc0 80076100       3334 	prepare	{r29,r31},0
00000bc4 3d0600000000*  3335 	mov	_gtmars_info+17,r29
                        3336 --	    .bf
                        3337 .LDW841:
                        3338 --676: {
                        3339 --677:     if(gtmars_info.tcar_info.tcan_id134_info.tshifter_and_mode_info.u8driving_porfile  == _DRIVE_TURTLE)
00000bca 9d0f0100       3340 	ld.bu	0[r29],r1
00000bce c1067000       3341 	andi	112,r1,zero
00000bd2 aa0d*          3342 	bne	.L3259
                        3343 --678:         W_Draw_Image_By_ID(PIC_ID_C_MODE_TURTLE, 598, 158);
                        3344 --line678
                        3345 ..lin.C.3A.5Cgit.5Crh850.5Csrc.5Capp.5Cgfx_apps.5Csimple_draw.5Ctarget.5Cd1mx_mango_ghs.5Cobj.5Cw_mag.179::
                        3346 .LDWlin179:
00000bd4 20368300       3347 	movea	131,zero,r6
00000bd8 203e5602       3348 	movea	598,zero,r7
00000bdc 20469e00       3349 	movea	158,zero,r8
                        3350 	jarl	_W_Draw_Image_By_ID,lp
                        3350 <EXPANSION BEGIN>
                        3350 jarl22 _W_Draw_Image_By_ID , lp 
00000be0 80ff0000*      3350 <EXPANSION END>
00000be4 851d*          3351 	br	.L3261
                        3352 .L3259:
                        3353 --679:     else if(gtmars_info.tcar_info.tcan_id134_info.tshifter_and_mode_info.u8driving_porfile == _DRIVE_SPORT)
                        3354 --line679
                        3355 ..lin.C.3A.5Cgit.5Crh850.5Csrc.5Capp.5Cgfx_apps.5Csimple_draw.5Ctarget.5Cd1mx_mango_ghs.5Cobj.5Cw_mag.180::
                        3356 .LDWlin180:
00000be6 9d0f0100       3357 	ld.bu	0[r29],r1
00000bea d90a           3358 	shl	25,r1
00000bec 9d0a           3359 	shr	29,r1
00000bee 630a           3360 	cmp	3,r1
00000bf0 aa0d*          3361 	bne	.L3262
                        3362 --680:         W_Draw_Image_By_ID(PIC_ID_C_MODE_SPORT, 598, 158);
                        3363 --line680

                                                                      Page 63
                                                              C:\Users\Frank\AppData\Local\Temp\gh_0000p3g1.si
                        3364 ..lin.C.3A.5Cgit.5Crh850.5Csrc.5Capp.5Cgfx_apps.5Csimple_draw.5Ctarget.5Cd1mx_mango_ghs.5Cobj.5Cw_mag.181::
                        3365 .LDWlin181:
00000bf2 20368200       3366 	movea	130,zero,r6
00000bf6 203e5602       3367 	movea	598,zero,r7
00000bfa 20469e00       3368 	movea	158,zero,r8
                        3369 	jarl	_W_Draw_Image_By_ID,lp
                        3369 <EXPANSION BEGIN>
                        3369 jarl22 _W_Draw_Image_By_ID , lp 
00000bfe 80ff0000*      3369 <EXPANSION END>
00000c02 950d*          3370 	br	.L3261
                        3371 .L3262:
                        3372 --681:     else
                        3373 --682:         W_Draw_Image_By_ID(PIC_ID_C_MODE_ECO, 598, 158);
                        3374 --line682
                        3375 ..lin.C.3A.5Cgit.5Crh850.5Csrc.5Capp.5Cgfx_apps.5Csimple_draw.5Ctarget.5Cd1mx_mango_ghs.5Cobj.5Cw_mag.182::
                        3376 .LDWlin182:
00000c04 20368100       3377 	movea	129,zero,r6
00000c08 203e5602       3378 	movea	598,zero,r7
00000c0c 20469e00       3379 	movea	158,zero,r8
                        3380 	jarl	_W_Draw_Image_By_ID,lp
                        3380 <EXPANSION BEGIN>
                        3380 jarl22 _W_Draw_Image_By_ID , lp 
00000c10 80ff0000*      3380 <EXPANSION END>
                        3381 .L3261:
                        3382 --683: }
                        3383 --	    .ef
                        3384 .LDW941:
                        3385 --line683
                        3386 ..lin.C.3A.5Cgit.5Crh850.5Csrc.5Capp.5Cgfx_apps.5Csimple_draw.5Ctarget.5Cd1mx_mango_ghs.5Cobj.5Cw_mag.183::
                        3387 .LDWlin183:
00000c14 40067f00       3388 	dispose	0,{r29,r31},[lp]
                        3389 	.type	_W_Cluster_Car_Mode,@function
                        3390 	.size	_W_Cluster_Car_Mode,.-_W_Cluster_Car_Mode
                        3391 	.align	2
                        3392 .LDW051:
                        3393 
                        3394 	.section ".bss","awb"
                        3395 .L3298:
                        3396 	.type	.L3298,@object
                        3397 	.size	.L3298,0
                        3398 	.data
                        3399 	.text
                        3400 
                        3401 
                        3402 --684: //----------------------------------------------------------------------------------------------------------------------------
                        3403 --685: void W_Cluster_Car_Ready(void)
                        3404 	.align	2
                        3405 	.align	2
                        3406 	.global	_W_Cluster_Car_Ready
                        3407 _W_Cluster_Car_Ready:
00000c18 80072100       3408 	prepare	{r31},0
                        3409 --	    .bf
                        3410 .LDW151:
                        3411 --686: {
                        3412 --687:     if(gtmars_info.tcar_info.tcan_id53e_info.tsys_consisterncy_check1.ready_to_drive_light_on == _G_TRUE)
00000c1c 210600000000*  3413 	mov	_gtmars_info+32,r1
00000c22 810f0100       3414 	ld.bu	0[r1],r1
00000c26 810a           3415 	shr	1,r1
00000c28 a90d*          3416 	bnl	.L3327
                        3417 --688:         W_Draw_Image_By_ID(PIC_ID_C_READY_OFF, 596, 428);
                        3418 --line688

                                                                      Page 64
                                                              C:\Users\Frank\AppData\Local\Temp\gh_0000p3g1.si
                        3419 ..lin.C.3A.5Cgit.5Crh850.5Csrc.5Capp.5Cgfx_apps.5Csimple_draw.5Ctarget.5Cd1mx_mango_ghs.5Cobj.5Cw_mag.184::
                        3420 .LDWlin184:
00000c2a 2036b500       3421 	movea	181,zero,r6
00000c2e 203e5402       3422 	movea	596,zero,r7
00000c32 2046ac01       3423 	movea	428,zero,r8
                        3424 	jarl	_W_Draw_Image_By_ID,lp
                        3424 <EXPANSION BEGIN>
                        3424 jarl22 _W_Draw_Image_By_ID , lp 
00000c36 80ff0000*      3424 <EXPANSION END>
00000c3a 950d*          3425 	br	.L3329
                        3426 .L3327:
                        3427 --689:     else
                        3428 --690:         W_Draw_Image_By_ID(PIC_ID_C_READY_ON, 596, 428);
                        3429 --line690
                        3430 ..lin.C.3A.5Cgit.5Crh850.5Csrc.5Capp.5Cgfx_apps.5Csimple_draw.5Ctarget.5Cd1mx_mango_ghs.5Cobj.5Cw_mag.185::
                        3431 .LDWlin185:
00000c3c 2036b600       3432 	movea	182,zero,r6
00000c40 203e5402       3433 	movea	596,zero,r7
00000c44 2046ac01       3434 	movea	428,zero,r8
                        3435 	jarl	_W_Draw_Image_By_ID,lp
                        3435 <EXPANSION BEGIN>
                        3435 jarl22 _W_Draw_Image_By_ID , lp 
00000c48 80ff0000*      3435 <EXPANSION END>
                        3436 .L3329:
                        3437 --691: }
                        3438 --	    .ef
                        3439 .LDW251:
                        3440 --line691
                        3441 ..lin.C.3A.5Cgit.5Crh850.5Csrc.5Capp.5Cgfx_apps.5Csimple_draw.5Ctarget.5Cd1mx_mango_ghs.5Cobj.5Cw_mag.186::
                        3442 .LDWlin186:
00000c4c 40063f00       3443 	dispose	0,{r31},[lp]
                        3444 	.type	_W_Cluster_Car_Ready,@function
                        3445 	.size	_W_Cluster_Car_Ready,.-_W_Cluster_Car_Ready
                        3446 	.align	2
                        3447 .LDW351:
                        3448 
                        3449 	.section ".bss","awb"
                        3450 .L3370:
                        3451 	.type	.L3370,@object
                        3452 	.size	.L3370,0
                        3453 	.data
                        3454 	.text
                        3455 
                        3456 
                        3457 --692: //----------------------------------------------------------------------------------------------------------------------------
                        3458 --693: void W_Cluster_Test(void)
                        3459 	.align	2
                        3460 	.align	2
                        3461 	.global	_W_Cluster_Test
                        3462 _W_Cluster_Test:
00000c50 9607e170       3463 	prepare	{r25,r26,r27,r28,r29,r31},11
00000c54 3c0600000000*  3464 	mov	_tclusterDrw2dDev,r28
00000c5a 40ce6400       3465 	movhi	hi(6553600),zero,r25
                        3466 --	    .bf
                        3467 .LDW451:
                        3468 --694: {
                        3469 --695:     r_drw2d_Error_t ret = R_DRW2D_ERR_OK;
00000c5e 00ea           3470 	mov	0,r29
                        3471 --696:     r_drw2d_Rect_t  rect;
                        3472 --697:     r_drw2d_Texture_t tex_argb32;
                        3473 --698:     uint32_t xPos, yPos;

                                                                      Page 65
                                                              C:\Users\Frank\AppData\Local\Temp\gh_0000p3g1.si
                        3474 --700:     tex_argb32.Handle             = R_NULL;
00000c60 63070100       3475 	st.w	zero,0[sp]
                        3476 --701:     tex_argb32.Flags              = R_DRW2D_TEX_VT | R_DRW2D_TEX_BILINEAR;
00000c64 200e4400       3477 	movea	68,zero,r1
00000c68 630f1900       3478 	st.w	r1,24[sp]
                        3479 --702:     tex_argb32.Buffer.Pitch       = 34;
00000c6c 200e2200       3480 	movea	34,zero,r1
00000c70 630f0900       3481 	st.w	r1,8[sp]
                        3482 --703:     tex_argb32.Buffer.Size.Width  = 34;
00000c74 200e2200       3483 	movea	34,zero,r1
00000c78 630f0d00       3484 	st.w	r1,12[sp]
                        3485 --704:     tex_argb32.Buffer.Size.Height = 62;
00000c7c 200e3e00       3486 	movea	62,zero,r1
00000c80 630f1100       3487 	st.w	r1,16[sp]
                        3488 --705:     tex_argb32.Buffer.PixelFormat = R_DRW2D_PIXELFORMAT_ARGB8888;
00000c84 0f0a           3489 	mov	15,r1
00000c86 630f1500       3490 	st.w	r1,20[sp]
                        3491 --706:     tex_argb32.Buffer.Data        = (void*)_PIC_B_0;
00000c8a 2106f8712610   3492 	mov	270955000,r1
00000c90 630f0500       3493 	st.w	r1,4[sp]
                        3494 --708:     /* Set texture */
                        3495 --709:     ret |= R_DRW2D_CtxTextureIdentity(tclusterDrw2dDev);
00000c94 3c370100       3496 	ld.w	0[r28],r6
                        3497 	jarl	_R_DRW2D_CtxTextureIdentity,lp
                        3497 <EXPANSION BEGIN>
                        3497 jarl22 _R_DRW2D_CtxTextureIdentity , lp 
00000c98 80ff0000*      3497 <EXPANSION END>
00000c9c 0ae9           3498 	or	r10,r29
                        3499 --710:     ret |= R_DRW2D_CtxIdentity(tclusterDrw2dDev);
                        3500 --line710
                        3501 ..lin.C.3A.5Cgit.5Crh850.5Csrc.5Capp.5Cgfx_apps.5Csimple_draw.5Ctarget.5Cd1mx_mango_ghs.5Cobj.5Cw_mag.187::
                        3502 .LDWlin187:
00000c9e 3c370100       3503 	ld.w	0[r28],r6
                        3504 	jarl	_R_DRW2D_CtxIdentity,lp
                        3504 <EXPANSION BEGIN>
                        3504 jarl22 _R_DRW2D_CtxIdentity , lp 
00000ca2 80ff0000*      3504 <EXPANSION END>
00000ca6 0ae9           3505 	or	r10,r29
                        3506 --711:     ret |= R_DRW2D_CtxTextureSet(tclusterDrw2dDev, 0, &tex_argb32);
                        3507 --line711
                        3508 ..lin.C.3A.5Cgit.5Crh850.5Csrc.5Capp.5Cgfx_apps.5Csimple_draw.5Ctarget.5Cd1mx_mango_ghs.5Cobj.5Cw_mag.188::
                        3509 .LDWlin188:
00000ca8 3c370100       3510 	ld.w	0[r28],r6
00000cac 003a           3511 	mov	0,r7
00000cae 23460000       3512 	movea	0,sp,r8
                        3513 	jarl	_R_DRW2D_CtxTextureSet,lp
                        3513 <EXPANSION BEGIN>
                        3513 jarl22 _R_DRW2D_CtxTextureSet , lp 
00000cb2 80ff0000*      3513 <EXPANSION END>
00000cb6 0ae9           3514 	or	r10,r29
                        3515 --712:     ret |= R_DRW2D_CtxFillMode(tclusterDrw2dDev, R_DRW2D_FILLMODE_TEXTURE);
                        3516 --line712
                        3517 ..lin.C.3A.5Cgit.5Crh850.5Csrc.5Capp.5Cgfx_apps.5Csimple_draw.5Ctarget.5Cd1mx_mango_ghs.5Cobj.5Cw_mag.189::
                        3518 .LDWlin189:
00000cb8 3c370100       3519 	ld.w	0[r28],r6
00000cbc 023a           3520 	mov	2,r7
                        3521 	jarl	_R_DRW2D_CtxFillMode,lp
                        3521 <EXPANSION BEGIN>
                        3521 jarl22 _R_DRW2D_CtxFillMode , lp 
00000cbe 80ff0000*      3521 <EXPANSION END>
00000cc2 0ae9           3522 	or	r10,r29

                                                                      Page 66
                                                              C:\Users\Frank\AppData\Local\Temp\gh_0000p3g1.si
                        3523 --713:     ret |= R_DRW2D_CtxBlendMode(tclusterDrw2dDev, R_DRW2D_BLENDMODE_SRC_OVER);
                        3524 --line713
                        3525 ..lin.C.3A.5Cgit.5Crh850.5Csrc.5Capp.5Cgfx_apps.5Csimple_draw.5Ctarget.5Cd1mx_mango_ghs.5Cobj.5Cw_mag.190::
                        3526 .LDWlin190:
00000cc4 3c370100       3527 	ld.w	0[r28],r6
00000cc8 023a           3528 	mov	2,r7
                        3529 	jarl	_R_DRW2D_CtxBlendMode,lp
                        3529 <EXPANSION BEGIN>
                        3529 jarl22 _R_DRW2D_CtxBlendMode , lp 
00000cca 80ff0000*      3529 <EXPANSION END>
00000cce 0ae9           3530 	or	r10,r29
                        3531 --714:     xPos = R_DRW2D_2X(100);
                        3532 --line714
                        3533 ..lin.C.3A.5Cgit.5Crh850.5Csrc.5Capp.5Cgfx_apps.5Csimple_draw.5Ctarget.5Cd1mx_mango_ghs.5Cobj.5Cw_mag.191::
                        3534 .LDWlin191:
00000cd0 40de6400       3535 	movhi	hi(6553600),zero,r27
                        3536 --715:     yPos = R_DRW2D_2X(100);
00000cd4 40d66400       3537 	movhi	hi(6553600),zero,r26
                        3538 --716:     ret |= R_DRW2D_CtxTextureTranslate(tclusterDrw2dDev, xPos, yPos);
00000cd8 3c370100       3539 	ld.w	0[r28],r6
00000cdc 1b38           3540 	mov	r27,r7
00000cde 1a40           3541 	mov	r26,r8
                        3542 	jarl	_R_DRW2D_CtxTextureTranslate,lp
                        3542 <EXPANSION BEGIN>
                        3542 jarl22 _R_DRW2D_CtxTextureTranslate , lp 
00000ce0 80ff0000*      3542 <EXPANSION END>
00000ce4 0ae9           3543 	or	r10,r29
                        3544 --718:     /* Draw texture into rectangle */
                        3545 --719:     rect.Pos.X       = R_DRW2D_2X(100);
                        3546 --line719
                        3547 ..lin.C.3A.5Cgit.5Crh850.5Csrc.5Capp.5Cgfx_apps.5Csimple_draw.5Ctarget.5Cd1mx_mango_ghs.5Cobj.5Cw_mag.192::
                        3548 .LDWlin192:
00000ce6 63cf1d00       3549 	st.w	r25,28[sp]
                        3550 --720:     rect.Pos.Y       = R_DRW2D_2X(100);
00000cea 63cf2100       3551 	st.w	r25,32[sp]
                        3552 --721:     rect.Size.Width  = R_DRW2D_2X(34);
00000cee 400e2200       3553 	movhi	hi(2228224),zero,r1
00000cf2 630f2500       3554 	st.w	r1,36[sp]
                        3555 --722:     rect.Size.Height = R_DRW2D_2X(62);
00000cf6 400e3e00       3556 	movhi	hi(4063232),zero,r1
00000cfa 630f2900       3557 	st.w	r1,40[sp]
                        3558 --724:     ret |= R_DRW2D_DrawRect(tclusterDrw2dDev, &rect);
00000cfe 3c370100       3559 	ld.w	0[r28],r6
00000d02 233e1c00       3560 	movea	28,sp,r7
                        3561 	jarl	_R_DRW2D_DrawRect,lp
                        3561 <EXPANSION BEGIN>
                        3561 jarl22 _R_DRW2D_DrawRect , lp 
00000d06 80ff0000*      3561 <EXPANSION END>
00000d0a 0ae9           3562 	or	r10,r29
                        3563 --725:     ret |= R_DRW2D_CtxTextureIdentity(tclusterDrw2dDev);
                        3564 --line725
                        3565 ..lin.C.3A.5Cgit.5Crh850.5Csrc.5Capp.5Cgfx_apps.5Csimple_draw.5Ctarget.5Cd1mx_mango_ghs.5Cobj.5Cw_mag.193::
                        3566 .LDWlin193:
00000d0c 3c370100       3567 	ld.w	0[r28],r6
                        3568 	jarl	_R_DRW2D_CtxTextureIdentity,lp
                        3568 <EXPANSION BEGIN>
                        3568 jarl22 _R_DRW2D_CtxTextureIdentity , lp 
00000d10 80ff0000*      3568 <EXPANSION END>
00000d14 0ae9           3569 	or	r10,r29
                        3570 --726:     if (R_DRW2D_ERR_OK != ret)
                        3571 --line726

                                                                      Page 67
                                                              C:\Users\Frank\AppData\Local\Temp\gh_0000p3g1.si
                        3572 ..lin.C.3A.5Cgit.5Crh850.5Csrc.5Capp.5Cgfx_apps.5Csimple_draw.5Ctarget.5Cd1mx_mango_ghs.5Cobj.5Cw_mag.194::
                        3573 .LDWlin194:
00000d16 e0e9           3574 	cmp	zero,r29
00000d18 a205*          3575 	be	.L3393
                        3576 .L3397:
                        3577 --727:     {
                        3578 --728:        while(1);
                        3579 --line728
                        3580 ..lin.C.3A.5Cgit.5Crh850.5Csrc.5Capp.5Cgfx_apps.5Csimple_draw.5Ctarget.5Cd1mx_mango_ghs.5Cobj.5Cw_mag.195::
                        3581 .LDWlin195:
00000d1a 8505*          3582 	br	.L3397
                        3583 .L3393:
                        3584 --729:     }
                        3585 --730: }
                        3586 --	    .ef
                        3587 .LDW551:
                        3588 --line730
                        3589 ..lin.C.3A.5Cgit.5Crh850.5Csrc.5Capp.5Cgfx_apps.5Csimple_draw.5Ctarget.5Cd1mx_mango_ghs.5Cobj.5Cw_mag.196::
                        3590 .LDWlin196:
00000d1c 5606ff70       3591 	dispose	11,{r25,r26,r27,r28,r29,r31},[lp]
                        3592 	.type	_W_Cluster_Test,@function
                        3593 	.size	_W_Cluster_Test,.-_W_Cluster_Test
                        3594 	.align	2
                        3595 .LDW651:
                        3596 --_ret	r29	local
                        3597 --_rect	28[sp]	local
                        3598 --_tex_argb32	0[sp]	local
                        3599 --_xPos	r27	local
                        3600 --_yPos	r26	local
                        3601 
                        3602 	.section ".bss","awb"
                        3603 .L3528:
                        3604 	.type	.L3528,@object
                        3605 	.size	.L3528,0
                        3606 	.data
                        3607 	.text
                        3608 
                        3609 
                        3610 --731: //----------------------------------------------------------------------------------------------------------------------------
                        3611 --732: void W_Cluster_DrawGreenPedal(uint8_t u8line_temp,uint8_t u8line_dir)
                        3612 	.align	2
                        3613 	.align	2
                        3614 	.global	_W_Cluster_DrawGreenPedal
                        3615 _W_Cluster_DrawGreenPedal:
00000d20 8007e170       3616 	prepare	{r25,r26,r27,r28,r29,r31},0
00000d24 c6ceff00       3617 	andi	255,r6,r25
00000d28 c7d6ff00       3618 	andi	255,r7,r26
00000d2c 3c0600000000*  3619 	mov	_u16rightline_parameter,r28
00000d32 3b0600000000*  3620 	mov	_u16leftline_parameter,r27
                        3621 --	    .bf
                        3622 .LDW751:
                        3623 --733: {
                        3624 --734:     uint8_t u8disp_cnt;
                        3625 --735:     
                        3626 --736:     for(u8disp_cnt = 0; u8disp_cnt < u8line_temp; u8disp_cnt++)
00000d38 00ea           3627 	mov	0,r29
00000d3a a53d*          3628 	br	.L3619
                        3629 .L3618:
                        3630 --737:         W_Draw_Image_By_ID(((u8line_dir == 0)? tgreenline_right_pic_addr[u8disp_cnt] : tgreenline_left_pic_addr[u8disp_cnt]), ((u8line_dir == 0)? u16rightline_parameter[u8disp_cnt][2] : u16leftline_parameter[u8disp_cnt][2]), ((u8line_dir == 0)? u16rightline_parameter[u8disp_cnt][3] : u16leftline_parameter[u8disp_cnt][3]));
                        3631 --line737
                        3632 ..lin.C.3A.5Cgit.5Crh850.5Csrc.5Capp.5Cgfx_apps.5Csimple_draw.5Ctarget.5Cd1mx_mango_ghs.5Cobj.5Cw_mag.197::

                                                                      Page 68
                                                              C:\Users\Frank\AppData\Local\Temp\gh_0000p3g1.si
                        3633 .LDWlin197:
00000d3c e0d1           3634 	cmp	zero,r26
00000d3e 9a0d*          3635 	bne	.L3620
00000d40 1df0           3636 	mov	r29,ep
00000d42 c2f2           3637 	shl	2,ep
00000d44 2e0600000000*  3638 	mov	_tgreenline_right_pic_addr,r14
00000d4a cef1           3639 	add	r14,ep
00000d4c 0075           3640 	sld.w	0[ep],r14
00000d4e 850d*          3641 	br	.L3622
                        3642 .L3620:
00000d50 1df0           3643 	mov	r29,ep
00000d52 c2f2           3644 	shl	2,ep
00000d54 2e0600000000*  3645 	mov	_tgreenline_left_pic_addr,r14
00000d5a cef1           3646 	add	r14,ep
00000d5c 0075           3647 	sld.w	0[ep],r14
                        3648 .L3622:
00000d5e e0d1           3649 	cmp	zero,r26
00000d60 8a0d*          3650 	bne	.L3623
00000d62 1d08           3651 	mov	r29,r1
00000d64 1cf60400       3652 	addi	4,r28,ep
00000d68 c30a           3653 	shl	3,r1
00000d6a c1f1           3654 	add	r1,ep
00000d6c 7068           3655 	sld.hu	0[ep],r13
00000d6e f505*          3656 	br	.L3625
                        3657 .L3623:
00000d70 1d08           3658 	mov	r29,r1
00000d72 1bf60400       3659 	addi	4,r27,ep
00000d76 c30a           3660 	shl	3,r1
00000d78 c1f1           3661 	add	r1,ep
00000d7a 7068           3662 	sld.hu	0[ep],r13
                        3663 .L3625:
00000d7c e0d1           3664 	cmp	zero,r26
00000d7e 8a0d*          3665 	bne	.L3626
00000d80 1d08           3666 	mov	r29,r1
00000d82 1cf60600       3667 	addi	6,r28,ep
00000d86 c30a           3668 	shl	3,r1
00000d88 c1f1           3669 	add	r1,ep
00000d8a 7008           3670 	sld.hu	0[ep],r1
00000d8c f505*          3671 	br	.L3628
                        3672 .L3626:
00000d8e 1d08           3673 	mov	r29,r1
00000d90 1bf60600       3674 	addi	6,r27,ep
00000d94 c30a           3675 	shl	3,r1
00000d96 c1f1           3676 	add	r1,ep
00000d98 7008           3677 	sld.hu	0[ep],r1
                        3678 .L3628:
00000d9a 0e30           3679 	mov	r14,r6
00000d9c 0140           3680 	mov	r1,r8
00000d9e c600           3681 	zxh	r6
00000da0 cd3effff       3682 	andi	65535,r13,r7
00000da4 c800           3683 	zxh	r8
                        3684 	jarl	_W_Draw_Image_By_ID,lp
                        3684 <EXPANSION BEGIN>
                        3684 jarl22 _W_Draw_Image_By_ID , lp 
00000da6 80ff0000*      3684 <EXPANSION END>
                        3685 --line736
                        3686 ..lin.C.3A.5Cgit.5Crh850.5Csrc.5Capp.5Cgfx_apps.5Csimple_draw.5Ctarget.5Cd1mx_mango_ghs.5Cobj.5Cw_mag.198::
                        3687 .LDWlin198:
00000daa 41ea           3688 	add	1,r29
00000dac 9d00           3689 	zxb	r29
                        3690 .L3619:

                                                                      Page 69
                                                              C:\Users\Frank\AppData\Local\Temp\gh_0000p3g1.si
00000dae f9e9           3691 	cmp	r25,r29
00000db0 e1c5*          3692 	bl	.L3618
                        3693 --738: }
                        3694 --	    .ef
                        3695 .LDW851:
                        3696 --line738
                        3697 ..lin.C.3A.5Cgit.5Crh850.5Csrc.5Capp.5Cgfx_apps.5Csimple_draw.5Ctarget.5Cd1mx_mango_ghs.5Cobj.5Cw_mag.199::
                        3698 .LDWlin199:
00000db2 4006ff70       3699 	dispose	0,{r25,r26,r27,r28,r29,r31},[lp]
                        3700 	.type	_W_Cluster_DrawGreenPedal,@function
                        3701 	.size	_W_Cluster_DrawGreenPedal,.-_W_Cluster_DrawGreenPedal
                        3702 	.align	2
                        3703 .LDW951:
                        3704 --_u8disp_cnt	r29	local
                        3705 
                        3706 --_u8line_temp	r25	param
                        3707 --_u8line_dir	r26	param
                        3708 
                        3709 	.section ".bss","awb"
                        3710 .L3702:
                        3711 	.type	.L3702,@object
                        3712 	.size	.L3702,0
                        3713 	.data
                        3714 	.text
                        3715 
                        3716 
                        3717 --739: //----------------------------------------------------------------------------------------------------------------------------
                        3718 --740: void W_Cluster_DrawBluePedal(uint8_t u8line_temp,uint8_t u8line_dir)
                        3719 	.align	2
                        3720 	.align	2
                        3721 	.global	_W_Cluster_DrawBluePedal
                        3722 _W_Cluster_DrawBluePedal:
00000db6 8007e170       3723 	prepare	{r25,r26,r27,r28,r29,r31},0
00000dba c6ceff00       3724 	andi	255,r6,r25
00000dbe c7d6ff00       3725 	andi	255,r7,r26
00000dc2 3c0600000000*  3726 	mov	_u16rightline_parameter,r28
00000dc8 3b0600000000*  3727 	mov	_u16leftline_parameter,r27
                        3728 --	    .bf
                        3729 .LDW061:
                        3730 --741: {
                        3731 --742:     uint8_t u8disp_cnt;
                        3732 --744:     for(u8disp_cnt = 0; u8disp_cnt < u8line_temp; u8disp_cnt++)
00000dce 00ea           3733 	mov	0,r29
00000dd0 a53d*          3734 	br	.L3761
                        3735 .L3760:
                        3736 --745:         W_Draw_Image_By_ID(((u8line_dir == 0)? tblueline_right_pic_addr[u8disp_cnt] : tblueline_left_pic_addr[u8disp_cnt]), ((u8line_dir == 0)? u16rightline_parameter[u8disp_cnt][2] : u16leftline_parameter[u8disp_cnt][2]), ((u8line_dir == 0)? u16rightline_parameter[u8disp_cnt][3] : u16leftline_parameter[u8disp_cnt][3]));
                        3737 --line745
                        3738 ..lin.C.3A.5Cgit.5Crh850.5Csrc.5Capp.5Cgfx_apps.5Csimple_draw.5Ctarget.5Cd1mx_mango_ghs.5Cobj.5Cw_mag.200::
                        3739 .LDWlin200:
00000dd2 e0d1           3740 	cmp	zero,r26
00000dd4 9a0d*          3741 	bne	.L3762
00000dd6 1df0           3742 	mov	r29,ep
00000dd8 c2f2           3743 	shl	2,ep
00000dda 2e0600000000*  3744 	mov	_tblueline_right_pic_addr,r14
00000de0 cef1           3745 	add	r14,ep
00000de2 0075           3746 	sld.w	0[ep],r14
00000de4 850d*          3747 	br	.L3764
                        3748 .L3762:
00000de6 1df0           3749 	mov	r29,ep
00000de8 c2f2           3750 	shl	2,ep
00000dea 2e0600000000*  3751 	mov	_tblueline_left_pic_addr,r14

                                                                      Page 70
                                                              C:\Users\Frank\AppData\Local\Temp\gh_0000p3g1.si
00000df0 cef1           3752 	add	r14,ep
00000df2 0075           3753 	sld.w	0[ep],r14
                        3754 .L3764:
00000df4 e0d1           3755 	cmp	zero,r26
00000df6 8a0d*          3756 	bne	.L3765
00000df8 1d08           3757 	mov	r29,r1
00000dfa 1cf60400       3758 	addi	4,r28,ep
00000dfe c30a           3759 	shl	3,r1
00000e00 c1f1           3760 	add	r1,ep
00000e02 7068           3761 	sld.hu	0[ep],r13
00000e04 f505*          3762 	br	.L3767
                        3763 .L3765:
00000e06 1d08           3764 	mov	r29,r1
00000e08 1bf60400       3765 	addi	4,r27,ep
00000e0c c30a           3766 	shl	3,r1
00000e0e c1f1           3767 	add	r1,ep
00000e10 7068           3768 	sld.hu	0[ep],r13
                        3769 .L3767:
00000e12 e0d1           3770 	cmp	zero,r26
00000e14 8a0d*          3771 	bne	.L3768
00000e16 1d08           3772 	mov	r29,r1
00000e18 1cf60600       3773 	addi	6,r28,ep
00000e1c c30a           3774 	shl	3,r1
00000e1e c1f1           3775 	add	r1,ep
00000e20 7008           3776 	sld.hu	0[ep],r1
00000e22 f505*          3777 	br	.L3770
                        3778 .L3768:
00000e24 1d08           3779 	mov	r29,r1
00000e26 1bf60600       3780 	addi	6,r27,ep
00000e2a c30a           3781 	shl	3,r1
00000e2c c1f1           3782 	add	r1,ep
00000e2e 7008           3783 	sld.hu	0[ep],r1
                        3784 .L3770:
00000e30 0e30           3785 	mov	r14,r6
00000e32 0140           3786 	mov	r1,r8
00000e34 c600           3787 	zxh	r6
00000e36 cd3effff       3788 	andi	65535,r13,r7
00000e3a c800           3789 	zxh	r8
                        3790 	jarl	_W_Draw_Image_By_ID,lp
                        3790 <EXPANSION BEGIN>
                        3790 jarl22 _W_Draw_Image_By_ID , lp 
00000e3c 80ff0000*      3790 <EXPANSION END>
                        3791 --line744
                        3792 ..lin.C.3A.5Cgit.5Crh850.5Csrc.5Capp.5Cgfx_apps.5Csimple_draw.5Ctarget.5Cd1mx_mango_ghs.5Cobj.5Cw_mag.201::
                        3793 .LDWlin201:
00000e40 41ea           3794 	add	1,r29
00000e42 9d00           3795 	zxb	r29
                        3796 .L3761:
00000e44 f9e9           3797 	cmp	r25,r29
00000e46 e1c5*          3798 	bl	.L3760
                        3799 --746: }
                        3800 --	    .ef
                        3801 .LDW161:
                        3802 --line746
                        3803 ..lin.C.3A.5Cgit.5Crh850.5Csrc.5Capp.5Cgfx_apps.5Csimple_draw.5Ctarget.5Cd1mx_mango_ghs.5Cobj.5Cw_mag.202::
                        3804 .LDWlin202:
00000e48 4006ff70       3805 	dispose	0,{r25,r26,r27,r28,r29,r31},[lp]
                        3806 	.type	_W_Cluster_DrawBluePedal,@function
                        3807 	.size	_W_Cluster_DrawBluePedal,.-_W_Cluster_DrawBluePedal
                        3808 	.align	2
                        3809 .LDW261:

                                                                      Page 71
                                                              C:\Users\Frank\AppData\Local\Temp\gh_0000p3g1.si
                        3810 --_u8disp_cnt	r29	local
                        3811 
                        3812 --_u8line_temp	r25	param
                        3813 --_u8line_dir	r26	param
                        3814 
                        3815 	.section ".bss","awb"
                        3816 .L3846:
                        3817 	.type	.L3846,@object
                        3818 	.size	.L3846,0
                        3819 	.data
                        3820 	.text
                        3821 
                        3822 
                        3823 --747: //----------------------------------------------------------------------------------------------------------------------------
                        3824 --748: void W_Cluster_Padel(void)
                        3825 	.align	2
                        3826 	.align	2
                        3827 	.global	_W_Cluster_Padel
                        3828 _W_Cluster_Padel:
00000e4c 8007e100       3829 	prepare	{r28,r29,r31},0
00000e50 3c0600000000*  3830 	mov	_gtmars_info+8,r28
                        3831 --	    .bf
                        3832 .LDW361:
                        3833 --749: {
                        3834 --750:     uint8_t u8line_cnt;
                        3835 --752:     if(gtmars_info.tcar_info.tcan_id133_info.u8regeneration_map > 0)
00000e56 bc0f0300       3836 	ld.bu	3[r28],r1
00000e5a e009           3837 	cmp	zero,r1
00000e5c 921d*          3838 	be	.L3902
                        3839 --753:     {
                        3840 --754:         u8line_cnt = gtmars_info.tcar_info.tcan_id133_info.u8regeneration_map / 9;
                        3841 --line754
                        3842 ..lin.C.3A.5Cgit.5Crh850.5Csrc.5Capp.5Cgfx_apps.5Csimple_draw.5Ctarget.5Cd1mx_mango_ghs.5Cobj.5Cw_mag.203::
                        3843 .LDWlin203:
00000e5e bc0f0300       3844 	ld.bu	3[r28],r1
00000e62 2b06398ee338   3845 	mov	954437177,r11
00000e68 0170           3846 	mov	r1,r14
00000e6a bf72           3847 	sar	31,r14
00000e6c eb0f206a       3848 	mul	r11,r1,r13
00000e70 0d08           3849 	mov	r13,r1
00000e72 a10a           3850 	sar	1,r1
00000e74 ae09           3851 	sub	r14,r1
00000e76 c1eeff00       3852 	andi	255,r1,r29
00000e7a 9d00           3853 	zxb	r29
                        3854 --755:         W_Cluster_DrawBluePedal(u8line_cnt,0);
00000e7c 1d30           3855 	mov	r29,r6
00000e7e 003a           3856 	mov	0,r7
                        3857 	jarl	_W_Cluster_DrawBluePedal,lp
                        3857 <EXPANSION BEGIN>
                        3857 jarl22 _W_Cluster_DrawBluePedal , lp 
00000e80 bfff36ff*      3857 <EXPANSION END>
                        3858 --756:         W_Cluster_DrawBluePedal(u8line_cnt,1);
                        3859 --line756
                        3860 ..lin.C.3A.5Cgit.5Crh850.5Csrc.5Capp.5Cgfx_apps.5Csimple_draw.5Ctarget.5Cd1mx_mango_ghs.5Cobj.5Cw_mag.204::
                        3861 .LDWlin204:
00000e84 1d30           3862 	mov	r29,r6
00000e86 013a           3863 	mov	1,r7
                        3864 	jarl	_W_Cluster_DrawBluePedal,lp
                        3864 <EXPANSION BEGIN>
                        3864 jarl22 _W_Cluster_DrawBluePedal , lp 
00000e88 bfff2eff*      3864 <EXPANSION END>

                                                                      Page 72
                                                              C:\Users\Frank\AppData\Local\Temp\gh_0000p3g1.si
00000e8c c51d*          3865 	br	.L3904
                        3866 .L3902:
                        3867 --757:     }
                        3868 --758:     else if(gtmars_info.tcar_info.tcan_id133_info.u8accel_Pedal_map > 0)
                        3869 --line758
                        3870 ..lin.C.3A.5Cgit.5Crh850.5Csrc.5Capp.5Cgfx_apps.5Csimple_draw.5Ctarget.5Cd1mx_mango_ghs.5Cobj.5Cw_mag.205::
                        3871 .LDWlin205:
00000e8e 9c0f0300       3872 	ld.bu	2[r28],r1
00000e92 e009           3873 	cmp	zero,r1
00000e94 821d*          3874 	be	.L3904
                        3875 --759:     {
                        3876 --760:         u8line_cnt = gtmars_info.tcar_info.tcan_id133_info.u8accel_Pedal_map / 9;
                        3877 --line760
                        3878 ..lin.C.3A.5Cgit.5Crh850.5Csrc.5Capp.5Cgfx_apps.5Csimple_draw.5Ctarget.5Cd1mx_mango_ghs.5Cobj.5Cw_mag.206::
                        3879 .LDWlin206:
00000e96 9c0f0300       3880 	ld.bu	2[r28],r1
00000e9a 2b06398ee338   3881 	mov	954437177,r11
00000ea0 0170           3882 	mov	r1,r14
00000ea2 bf72           3883 	sar	31,r14
00000ea4 eb0f206a       3884 	mul	r11,r1,r13
00000ea8 0d08           3885 	mov	r13,r1
00000eaa a10a           3886 	sar	1,r1
00000eac ae09           3887 	sub	r14,r1
00000eae c1eeff00       3888 	andi	255,r1,r29
00000eb2 9d00           3889 	zxb	r29
                        3890 --761:         W_Cluster_DrawGreenPedal(u8line_cnt,0);
00000eb4 1d30           3891 	mov	r29,r6
00000eb6 003a           3892 	mov	0,r7
                        3893 	jarl	_W_Cluster_DrawGreenPedal,lp
                        3893 <EXPANSION BEGIN>
                        3893 jarl22 _W_Cluster_DrawGreenPedal , lp 
00000eb8 bfff68fe*      3893 <EXPANSION END>
                        3894 --762:         W_Cluster_DrawGreenPedal(u8line_cnt,1);
                        3895 --line762
                        3896 ..lin.C.3A.5Cgit.5Crh850.5Csrc.5Capp.5Cgfx_apps.5Csimple_draw.5Ctarget.5Cd1mx_mango_ghs.5Cobj.5Cw_mag.207::
                        3897 .LDWlin207:
00000ebc 1d30           3898 	mov	r29,r6
00000ebe 013a           3899 	mov	1,r7
                        3900 	jarl	_W_Cluster_DrawGreenPedal,lp
                        3900 <EXPANSION BEGIN>
                        3900 jarl22 _W_Cluster_DrawGreenPedal , lp 
00000ec0 bfff60fe*      3900 <EXPANSION END>
                        3901 .L3904:
                        3902 --763:     }
                        3903 --764: }
                        3904 --	    .ef
                        3905 .LDW461:
                        3906 --line764
                        3907 ..lin.C.3A.5Cgit.5Crh850.5Csrc.5Capp.5Cgfx_apps.5Csimple_draw.5Ctarget.5Cd1mx_mango_ghs.5Cobj.5Cw_mag.208::
                        3908 .LDWlin208:
00000ec4 4006ff00       3909 	dispose	0,{r28,r29,r31},[lp]
                        3910 	.type	_W_Cluster_Padel,@function
                        3911 	.size	_W_Cluster_Padel,.-_W_Cluster_Padel
                        3912 	.align	2
                        3913 .LDW561:
                        3914 --_u8line_cnt	r29	local
                        3915 
                        3916 	.section ".bss","awb"
                        3917 .L3966:
                        3918 	.type	.L3966,@object
                        3919 	.size	.L3966,0

                                                                      Page 73
                                                              C:\Users\Frank\AppData\Local\Temp\gh_0000p3g1.si
                        3920 	.data
                        3921 	.text
                        3922 
                        3923 
                        3924 --765: //----------------------------------------------------------------------------------------------------------------------------
                        3925 --766: void W_Cluster_Chart_BG(void)
                        3926 	.align	2
                        3927 	.align	2
                        3928 	.global	_W_Cluster_Chart_BG
                        3929 _W_Cluster_Chart_BG:
00000ec8 80072100       3930 	prepare	{r31},0
                        3931 --	    .bf
                        3932 .LDW661:
                        3933 --767: {
                        3934 --768:     W_Draw_Image_By_ID(PIC_ID_C_POWER_BG,869,134);
00000ecc 2036b400       3935 	movea	180,zero,r6
00000ed0 203e6503       3936 	movea	869,zero,r7
00000ed4 20468600       3937 	movea	134,zero,r8
                        3938 	jarl	_W_Draw_Image_By_ID,lp
                        3938 <EXPANSION BEGIN>
                        3938 jarl22 _W_Draw_Image_By_ID , lp 
00000ed8 80ff0000*      3938 <EXPANSION END>
                        3939 --769: }
                        3940 --	    .ef
                        3941 .LDW761:
                        3942 --line769
                        3943 ..lin.C.3A.5Cgit.5Crh850.5Csrc.5Capp.5Cgfx_apps.5Csimple_draw.5Ctarget.5Cd1mx_mango_ghs.5Cobj.5Cw_mag.209::
                        3944 .LDWlin209:
00000edc 40063f00       3945 	dispose	0,{r31},[lp]
                        3946 	.type	_W_Cluster_Chart_BG,@function
                        3947 	.size	_W_Cluster_Chart_BG,.-_W_Cluster_Chart_BG
                        3948 	.align	2
                        3949 .LDW861:
                        3950 
                        3951 	.section ".bss","awb"
                        3952 .L4034:
                        3953 	.type	.L4034,@object
                        3954 	.size	.L4034,0
                        3955 	.data
                        3956 	.text
                        3957 
                        3958 
                        3959 --770: //----------------------------------------------------------------------------------------------------------------------------
                        3960 --771: void W_Cluster_Chart_Convert(void)
                        3961 	.align	2
                        3962 	.align	2
                        3963 	.global	_W_Cluster_Chart_Convert
                        3964 _W_Cluster_Chart_Convert:
                        3965 --	    .bf
                        3966 .LDW961:
                        3967 --772: {
                        3968 --773:     uint8_t u8temp;
                        3969 --775:     for(u8temp = 0; u8temp < 20; u8temp ++)
00000ee0 000a           3970 	mov	0,r1
00000ee2 0000           3971 	nop
                        3972 .L4053:
                        3973 --776:     {
                        3974 --777:         u16chart_draw_posy[u8temp] = 185 + (u16chart_value[u8temp] / 10) * 7;
00000ee4 01f0           3975 	mov	r1,ep
00000ee6 c1f2           3976 	shl	1,ep
00000ee8 1e70           3977 	mov	ep,r14

                                                                      Page 74
                                                              C:\Users\Frank\AppData\Local\Temp\gh_0000p3g1.si
00000eea 2d0600000000*  3978 	mov	_u16chart_draw_posy,r13
00000ef0 cdf1           3979 	add	r13,ep
00000ef2 2d0600000000*  3980 	mov	_u16chart_value,r13
00000ef8 cd71           3981 	add	r13,r14
00000efa ee770100       3982 	ld.hu	0[r14],r14
00000efe 2c0667666666   3983 	mov	1717986919,r12
00000f04 0e68           3984 	mov	r14,r13
00000f06 bf6a           3985 	sar	31,r13
00000f08 ec77205a       3986 	mul	r12,r14,r11
00000f0c a25a           3987 	sar	2,r11
00000f0e ad59           3988 	sub	r13,r11
00000f10 e75f4002       3989 	mul	7,r11,zero
00000f14 0b76b900       3990 	addi	185,r11,r14
00000f18 8074           3991 	sst.h	r14,0[ep]
00000f1a 410a           3992 	add	1,r1
00000f1c 8100           3993 	zxb	r1
00000f1e 0106ecff       3994 	addi	-20,r1,zero
00000f22 99e5*          3995 	bnl	.L4053
                        3996 --778:     }
                        3997 --779: }
                        3998 --	    .ef
                        3999 .LDW071:
                        4000 --line779
                        4001 ..lin.C.3A.5Cgit.5Crh850.5Csrc.5Capp.5Cgfx_apps.5Csimple_draw.5Ctarget.5Cd1mx_mango_ghs.5Cobj.5Cw_mag.210::
                        4002 .LDWlin210:
00000f24 7f00           4003 	jmp	[lp]
                        4004 	.type	_W_Cluster_Chart_Convert,@function
                        4005 	.size	_W_Cluster_Chart_Convert,.-_W_Cluster_Chart_Convert
                        4006 	.align	2
                        4007 .LDW171:
                        4008 --_u8temp	r1	local
                        4009 
                        4010 	.section ".bss","awb"
                        4011 .L4098:
                        4012 	.type	.L4098,@object
                        4013 	.size	.L4098,0
                        4014 	.data
                        4015 	.text
                        4016 
                        4017 
                        4018 --780: //----------------------------------------------------------------------------------------------------------------------------
                        4019 --781: void W_Cluster_Chart_Porcess(void)
                        4020 	.align	2
                        4021 	.align	2
                        4022 	.global	_W_Cluster_Chart_Porcess
                        4023 _W_Cluster_Chart_Porcess:
00000f26 8407e100       4024 	prepare	{r28,r29,r31},2
00000f2a 3c0600000000*  4025 	mov	_u16chart_draw_posy,r28
                        4026 --	    .bf
                        4027 .LDW271:
                        4028 --782: {   
                        4029 --783:     uint8_t u8temp;
                        4030 --784:     W_Cluster_Chart_BG();
                        4031 	jarl	_W_Cluster_Chart_BG,lp
                        4031 <EXPANSION BEGIN>
                        4031 jarl22 _W_Cluster_Chart_BG , lp 
00000f30 bfff98ff*      4031 <EXPANSION END>
                        4032 --785:     W_Cluster_Chart_Convert();
                        4033 --line785
                        4034 ..lin.C.3A.5Cgit.5Crh850.5Csrc.5Capp.5Cgfx_apps.5Csimple_draw.5Ctarget.5Cd1mx_mango_ghs.5Cobj.5Cw_mag.211::
                        4035 .LDWlin211:

                                                                      Page 75
                                                              C:\Users\Frank\AppData\Local\Temp\gh_0000p3g1.si
                        4036 	jarl	_W_Cluster_Chart_Convert,lp
                        4036 <EXPANSION BEGIN>
                        4036 jarl22 _W_Cluster_Chart_Convert , lp 
00000f34 bfffacff*      4036 <EXPANSION END>
                        4037 --786:     for(u8temp = 0; u8temp < 19; u8temp ++)
                        4038 --line786
                        4039 ..lin.C.3A.5Cgit.5Crh850.5Csrc.5Capp.5Cgfx_apps.5Csimple_draw.5Ctarget.5Cd1mx_mango_ghs.5Cobj.5Cw_mag.212::
                        4040 .LDWlin212:
00000f38 00ea           4041 	mov	0,r29
00000f3a 0000           4042 	nop
                        4043 .L4129:
                        4044 --787:     {
                        4045 --788:          W_Draw_Line( (907 + u8temp * 13), u16chart_draw_posy[u8temp],
00000f3c fd0e0d00       4046 	mulhi	13,r29,r1
00000f40 1df0           4047 	mov	r29,ep
00000f42 c1f2           4048 	shl	1,ep
00000f44 1c760200       4049 	addi	2,r28,r14
00000f48 dcf1           4050 	add	r28,ep
00000f4a 7038           4051 	sld.hu	0[ep],r7
00000f4c 1df0           4052 	mov	r29,ep
00000f4e 01368b03       4053 	addi	907,r1,r6
00000f52 1d0e0100       4054 	addi	1,r29,r1
00000f56 c1f2           4055 	shl	1,ep
00000f58 ed0f4002       4056 	mul	13,r1,zero
00000f5c cef1           4057 	add	r14,ep
00000f5e 7048           4058 	sld.hu	0[ep],r9
00000f60 c600           4059 	zxh	r6
00000f62 01468b03       4060 	addi	907,r1,r8
00000f66 020a           4061 	mov	2,r1
00000f68 630f0100       4062 	st.w	r1,0[sp]
00000f6c 400effff       4063 	movhi	hi(-65536),zero,r1
00000f70 c800           4064 	zxh	r8
00000f72 630f0500       4065 	st.w	r1,4[sp]
                        4066 	jarl	_W_Draw_Line,lp
                        4066 <EXPANSION BEGIN>
                        4066 jarl22 _W_Draw_Line , lp 
00000f76 bfffe8f6*      4066 <EXPANSION END>
                        4067 --line786
                        4068 ..lin.C.3A.5Cgit.5Crh850.5Csrc.5Capp.5Cgfx_apps.5Csimple_draw.5Ctarget.5Cd1mx_mango_ghs.5Cobj.5Cw_mag.213::
                        4069 .LDWlin213:
00000f7a 41ea           4070 	add	1,r29
00000f7c 9d00           4071 	zxb	r29
00000f7e 1d06edff       4072 	addi	-19,r29,zero
00000f82 d9dd*          4073 	bnl	.L4129
                        4074 --789:                     (907 + (u8temp + 1) * 13), u16chart_draw_posy[u8temp +1],
                        4075 --790:                     2,0xffff0000);
                        4076 --792: /*        W_Draw_Line(u16char_draw_posx[u8temp], u16chart_draw_posy[u8temp],
                        4077 --793:                     u16char_draw_posx[u8temp + 1], u16chart_draw_posy[u8temp +1],
                        4078 --794:                     2,0xffff0000);
                        4079 --795: */    }
                        4080 --796:     
                        4081 --797: }
                        4082 --	    .ef
                        4083 .LDW371:
                        4084 --line797
                        4085 ..lin.C.3A.5Cgit.5Crh850.5Csrc.5Capp.5Cgfx_apps.5Csimple_draw.5Ctarget.5Cd1mx_mango_ghs.5Cobj.5Cw_mag.214::
                        4086 .LDWlin214:
00000f84 4406ff00       4087 	dispose	2,{r28,r29,r31},[lp]
                        4088 	.type	_W_Cluster_Chart_Porcess,@function
                        4089 	.size	_W_Cluster_Chart_Porcess,.-_W_Cluster_Chart_Porcess
                        4090 	.align	2

                                                                      Page 76
                                                              C:\Users\Frank\AppData\Local\Temp\gh_0000p3g1.si
                        4091 .LDW471:
                        4092 --_u8temp	r29	local
                        4093 
                        4094 	.section ".bss","awb"
                        4095 .L4186:
                        4096 	.type	.L4186,@object
                        4097 	.size	.L4186,0
                        4098 	.data
                        4099 	.text
                        4100 
                        4101 
                        4102 --798: //----------------------------------------------------------------------------------------------------------------------------
                        4103 --799: void W_Cluster_Parameter_Init(void)
                        4104 	.align	2
                        4105 	.align	2
                        4106 	.global	_W_Cluster_Parameter_Init
                        4107 _W_Cluster_Parameter_Init:
00000f88 3e0600000000*  4108 	mov	_tcluster_draw2d_fb,ep
                        4109 --	    .bf
                        4110 .LDW571:
                        4111 --800: {
                        4112 --801:     tcluster_draw2d_fb.Flags  = (r_drw2d_FramebufferFlags_t)0;
00000f8e 0d05           4113 	sst.w	zero,24[ep]
                        4114 --802:     tcluster_draw2d_fb.Handle = 0; /* not used currently */
00000f90 0105           4115 	sst.w	zero,0[ep]
                        4116 --803:     tcluster_draw2d_fb.Buffer.Pitch       = _CLUSTER_STRIDE;
00000f92 200e0005       4117 	movea	1280,zero,r1
00000f96 050d           4118 	sst.w	r1,8[ep]
                        4119 --804:     tcluster_draw2d_fb.Buffer.PixelFormat = R_DRW2D_PIXELFORMAT_ARGB8888;
00000f98 0f0a           4120 	mov	15,r1
00000f9a 0b0d           4121 	sst.w	r1,20[ep]
                        4122 --805:     tcluster_draw2d_fb.Buffer.Size.Width  = _CLUSTER_WIDTH;
00000f9c 200e0005       4123 	movea	1280,zero,r1
00000fa0 070d           4124 	sst.w	r1,12[ep]
                        4125 --806:     tcluster_draw2d_fb.Buffer.Size.Height = _CLUSTER_Hight;
00000fa2 200ee001       4126 	movea	480,zero,r1
00000fa6 090d           4127 	sst.w	r1,16[ep]
                        4128 --807:     tcluster_draw2d_fb.Buffer.Data        = 0;
00000fa8 0305           4129 	sst.w	zero,4[ep]
                        4130 --808:     gtmars_info.tcluster_info.u8acc_on_check_over = _G_FAIL;
00000faa 2b0600000000*  4131 	mov	_gtmars_info+4,r11
00000fb0 4b070000       4132 	st.b	zero,0[r11]
                        4133 --809: }
                        4134 --	    .ef
                        4135 .LDW671:
00000fb4 7f00           4136 	jmp	[lp]
                        4137 	.type	_W_Cluster_Parameter_Init,@function
                        4138 	.size	_W_Cluster_Parameter_Init,.-_W_Cluster_Parameter_Init
                        4139 	.align	2
                        4140 .LDW771:
                        4141 
                        4142 	.section ".bss","awb"
                        4143 .L4270:
                        4144 	.type	.L4270,@object
                        4145 	.size	.L4270,0
                        4146 	.data
                        4147 	.text
                        4148 
                        4149 
                        4150 --811: void W_MAG_Init(void) {
                        4151 	.align	2

                                                                      Page 77
                                                              C:\Users\Frank\AppData\Local\Temp\gh_0000p3g1.si
                        4152 	.align	2
                        4153 	.global	_W_MAG_Init
                        4154 _W_MAG_Init:
00000fb6 80072100       4155 	prepare	{r31},0
                        4156 --	    .bf
                        4157 .LDW871:
                        4158 --812:     W_CANIO_PICS_Init();
                        4159 	jarl	_W_CANIO_PICS_Init,lp
                        4159 <EXPANSION BEGIN>
                        4159 jarl22 _W_CANIO_PICS_Init , lp 
00000fba 80ff0000*      4159 <EXPANSION END>
                        4160 --813:     W_Cluster_Parameter_Init();
                        4161 --line813
                        4162 ..lin.C.3A.5Cgit.5Crh850.5Csrc.5Capp.5Cgfx_apps.5Csimple_draw.5Ctarget.5Cd1mx_mango_ghs.5Cobj.5Cw_mag.215::
                        4163 .LDWlin215:
                        4164 	jarl	_W_Cluster_Parameter_Init,lp
                        4164 <EXPANSION BEGIN>
                        4164 jarl22 _W_Cluster_Parameter_Init , lp 
00000fbe bfffcaff*      4164 <EXPANSION END>
                        4165 --814:     W_Cluster_WM_Init();
                        4166 --line814
                        4167 ..lin.C.3A.5Cgit.5Crh850.5Csrc.5Capp.5Cgfx_apps.5Csimple_draw.5Ctarget.5Cd1mx_mango_ghs.5Cobj.5Cw_mag.216::
                        4168 .LDWlin216:
                        4169 	jarl	_W_Cluster_WM_Init,lp
                        4169 <EXPANSION BEGIN>
                        4169 jarl22 _W_Cluster_WM_Init , lp 
00000fc2 bffffcf9*      4169 <EXPANSION END>
                        4170 --815:     W_Cluster_CreateWindows();
                        4171 --line815
                        4172 ..lin.C.3A.5Cgit.5Crh850.5Csrc.5Capp.5Cgfx_apps.5Csimple_draw.5Ctarget.5Cd1mx_mango_ghs.5Cobj.5Cw_mag.217::
                        4173 .LDWlin217:
                        4174 	jarl	_W_Cluster_CreateWindows,lp
                        4174 <EXPANSION BEGIN>
                        4174 jarl22 _W_Cluster_CreateWindows , lp 
00000fc6 bfffeef8*      4174 <EXPANSION END>
                        4175 --816:     W_Cluster_Draw2DInit();
                        4176 --line816
                        4177 ..lin.C.3A.5Cgit.5Crh850.5Csrc.5Capp.5Cgfx_apps.5Csimple_draw.5Ctarget.5Cd1mx_mango_ghs.5Cobj.5Cw_mag.218::
                        4178 .LDWlin218:
                        4179 	jarl	_W_Cluster_Draw2DInit,lp
                        4179 <EXPANSION BEGIN>
                        4179 jarl22 _W_Cluster_Draw2DInit , lp 
00000fca bfffc8f9*      4179 <EXPANSION END>
                        4180 --817: }
                        4181 --	    .ef
                        4182 .LDW971:
                        4183 --line817
                        4184 ..lin.C.3A.5Cgit.5Crh850.5Csrc.5Capp.5Cgfx_apps.5Csimple_draw.5Ctarget.5Cd1mx_mango_ghs.5Cobj.5Cw_mag.219::
                        4185 .LDWlin219:
00000fce 40063f00       4186 	dispose	0,{r31},[lp]
                        4187 	.type	_W_MAG_Init,@function
                        4188 	.size	_W_MAG_Init,.-_W_MAG_Init
                        4189 	.align	2
                        4190 .LDW081:
                        4191 
                        4192 	.section ".bss","awb"
                        4193 .L4354:
                        4194 	.type	.L4354,@object
                        4195 	.size	.L4354,0
                        4196 	.data
                        4197 	.text

                                                                      Page 78
                                                              C:\Users\Frank\AppData\Local\Temp\gh_0000p3g1.si
                        4198 
                        4199 
                        4200 --818: //----------------------------------------------------------------------------------------------------------------------------
                        4201 --819: void W_Cluster_Close_Window(void)
                        4202 	.align	2
                        4203 	.align	2
                        4204 	.global	_W_Cluster_Close_Window
                        4205 _W_Cluster_Close_Window:
00000fd2 80072100       4206 	prepare	{r31},0
                        4207 --	    .bf
                        4208 .LDW181:
                        4209 --820: {
                        4210 --821:     R_WM_WindowDisable(LOC_WM_UNIT, &tcluster_rle_win);
00000fd6 0032           4211 	mov	0,r6
00000fd8 270600000000*  4212 	mov	_tcluster_rle_win,r7
                        4213 	jarl	_R_WM_WindowDisable,lp
                        4213 <EXPANSION BEGIN>
                        4213 jarl22 _R_WM_WindowDisable , lp 
00000fde 80ff0000*      4213 <EXPANSION END>
                        4214 --822:     R_WM_WindowDisable(LOC_WM_UNIT, &tcluster_draw2d_window);
                        4215 --line822
                        4216 ..lin.C.3A.5Cgit.5Crh850.5Csrc.5Capp.5Cgfx_apps.5Csimple_draw.5Ctarget.5Cd1mx_mango_ghs.5Cobj.5Cw_mag.220::
                        4217 .LDWlin220:
00000fe2 0032           4218 	mov	0,r6
00000fe4 270600000000*  4219 	mov	_tcluster_draw2d_window,r7
                        4220 	jarl	_R_WM_WindowDisable,lp
                        4220 <EXPANSION BEGIN>
                        4220 jarl22 _R_WM_WindowDisable , lp 
00000fea 80ff0000*      4220 <EXPANSION END>
                        4221 --823:     //R_WM_WindowDisable(LOC_WM_UNIT, &tcluster_sprite_window);
                        4222 --824:     W_Cluster_WM_End(LOC_WM_UNIT,0);
                        4223 --line824
                        4224 ..lin.C.3A.5Cgit.5Crh850.5Csrc.5Capp.5Cgfx_apps.5Csimple_draw.5Ctarget.5Cd1mx_mango_ghs.5Cobj.5Cw_mag.221::
                        4225 .LDWlin221:
00000fee 0032           4226 	mov	0,r6
00000ff0 003a           4227 	mov	0,r7
                        4228 	jarl	_W_Cluster_WM_End,lp
                        4228 <EXPANSION BEGIN>
                        4228 jarl22 _W_Cluster_WM_End , lp 
00000ff2 bfff54f9*      4228 <EXPANSION END>
                        4229 --825: }
                        4230 --	    .ef
                        4231 .LDW281:
                        4232 --line825
                        4233 ..lin.C.3A.5Cgit.5Crh850.5Csrc.5Capp.5Cgfx_apps.5Csimple_draw.5Ctarget.5Cd1mx_mango_ghs.5Cobj.5Cw_mag.222::
                        4234 .LDWlin222:
00000ff6 40063f00       4235 	dispose	0,{r31},[lp]
                        4236 	.type	_W_Cluster_Close_Window,@function
                        4237 	.size	_W_Cluster_Close_Window,.-_W_Cluster_Close_Window
                        4238 	.align	2
                        4239 .LDW381:
                        4240 
                        4241 	.section ".bss","awb"
                        4242 .L4410:
                        4243 	.type	.L4410,@object
                        4244 	.size	.L4410,0
                        4245 	.data
                        4246 	.text
                        4247 
                        4248 
                        4249 --826: //----------------------------------------------------------------------------------------------------------------------------

                                                                      Page 79
                                                              C:\Users\Frank\AppData\Local\Temp\gh_0000p3g1.si
                        4250 --827: void W_CLuster_Logo(void)
                        4251 	.align	2
                        4252 	.align	2
                        4253 	.global	_W_CLuster_Logo
                        4254 _W_CLuster_Logo:
00000ffa 9a07e170       4255 	prepare	{r25,r26,r27,r28,r29,r31},13
00000ffe 40e69000       4256 	movhi	hi(9437184),zero,r28
00001002 3b0600000000*  4257 	mov	.L4694,r27
00001008 3a0600000000*  4258 	mov	_tclusterDrw2dDev,r26
                        4259 --	    .bf
                        4260 .LDW481:
                        4261 --828: {
                        4262 --829:     r_drw2d_Error_t ret = R_DRW2D_ERR_OK;
0000100e 00ea           4263 	mov	0,r29
                        4264 --830:     r_drw2d_Rect_t  rect;
                        4265 --831:     r_drw2d_Texture_t tex_argb32;
                        4266 --832:     uint32_t xPos, yPos;
                        4267 --833:     static uint16_t u16logo_reveal = 0;
                        4268 --834:     static void * Pic_Addr = (void *)_PIC_S_LOGO;
                        4269 --836:     tex_argb32.Handle             = R_NULL;
00001010 63070900       4270 	st.w	zero,8[sp]
                        4271 --837:     tex_argb32.Flags              = R_DRW2D_TEX_VT | R_DRW2D_TEX_BILINEAR;
00001014 200e4400       4272 	movea	68,zero,r1
00001018 630f2100       4273 	st.w	r1,32[sp]
                        4274 --838:     tex_argb32.Buffer.Pitch       = 944; //944
0000101c 200eb003       4275 	movea	944,zero,r1
00001020 630f1100       4276 	st.w	r1,16[sp]
                        4277 --839:     tex_argb32.Buffer.Size.Width  = 944; //944
00001024 200eb003       4278 	movea	944,zero,r1
00001028 630f1500       4279 	st.w	r1,20[sp]
                        4280 --840:     tex_argb32.Buffer.Size.Height = 144; //144
0000102c 200e9000       4281 	movea	144,zero,r1
00001030 630f1900       4282 	st.w	r1,24[sp]
                        4283 --841:     tex_argb32.Buffer.PixelFormat = R_DRW2D_PIXELFORMAT_ARGB8888;
00001034 0f0a           4284 	mov	15,r1
00001036 630f1d00       4285 	st.w	r1,28[sp]
                        4286 --842:     //tex_argb32.Buffer.Data = Copy_And_Get(&Pic_Addr, 520000); //_PIC_S_LOGO u8small_logo_ImgData
                        4287 --843:     tex_argb32.Buffer.Data = (void *)u8small_logo_ImgData; //TODO: move to ram, _PIC_S_LOGO u8small_logo_ImgData
0000103a 210600000000*  4288 	mov	_u8small_logo_ImgData,r1
00001040 630f0d00       4289 	st.w	r1,12[sp]
                        4290 --845:     /* Set texture */
                        4291 --846:     ret |= R_DRW2D_CtxTextureIdentity(tclusterDrw2dDev);
00001044 3a370100       4292 	ld.w	0[r26],r6
                        4293 	jarl	_R_DRW2D_CtxTextureIdentity,lp
                        4293 <EXPANSION BEGIN>
                        4293 jarl22 _R_DRW2D_CtxTextureIdentity , lp 
00001048 80ff0000*      4293 <EXPANSION END>
0000104c 0ae9           4294 	or	r10,r29
                        4295 --847:     ret |= R_DRW2D_CtxTextureSet(tclusterDrw2dDev, 0, &tex_argb32);
                        4296 --line847
                        4297 ..lin.C.3A.5Cgit.5Crh850.5Csrc.5Capp.5Cgfx_apps.5Csimple_draw.5Ctarget.5Cd1mx_mango_ghs.5Cobj.5Cw_mag.223::
                        4298 .LDWlin223:
0000104e 3a370100       4299 	ld.w	0[r26],r6
00001052 003a           4300 	mov	0,r7
00001054 23460800       4301 	movea	8,sp,r8
                        4302 	jarl	_R_DRW2D_CtxTextureSet,lp
                        4302 <EXPANSION BEGIN>
                        4302 jarl22 _R_DRW2D_CtxTextureSet , lp 
00001058 80ff0000*      4302 <EXPANSION END>
0000105c 0ae9           4303 	or	r10,r29
                        4304 --848:     ret |= R_DRW2D_CtxFillMode(tclusterDrw2dDev, R_DRW2D_FILLMODE_TEXTURE);

                                                                      Page 80
                                                              C:\Users\Frank\AppData\Local\Temp\gh_0000p3g1.si
                        4305 --line848
                        4306 ..lin.C.3A.5Cgit.5Crh850.5Csrc.5Capp.5Cgfx_apps.5Csimple_draw.5Ctarget.5Cd1mx_mango_ghs.5Cobj.5Cw_mag.224::
                        4307 .LDWlin224:
0000105e 3a370100       4308 	ld.w	0[r26],r6
00001062 023a           4309 	mov	2,r7
                        4310 	jarl	_R_DRW2D_CtxFillMode,lp
                        4310 <EXPANSION BEGIN>
                        4310 jarl22 _R_DRW2D_CtxFillMode , lp 
00001064 80ff0000*      4310 <EXPANSION END>
00001068 0ae9           4311 	or	r10,r29
                        4312 --849:     xPos = R_DRW2D_2X((1280-944)/2); 
                        4313 --line849
                        4314 ..lin.C.3A.5Cgit.5Crh850.5Csrc.5Capp.5Cgfx_apps.5Csimple_draw.5Ctarget.5Cd1mx_mango_ghs.5Cobj.5Cw_mag.225::
                        4315 .LDWlin225:
0000106a 1cc8           4316 	mov	r28,r25
0000106c 59ce1800       4317 	movhi	24,r25,r25
                        4318 --850:     yPos = R_DRW2D_2X((480-144)/2);
00001070 63e70100       4319 	st.w	r28,0[sp]
00001074 1c58           4320 	mov	r28,r11
00001076 4b5e1800       4321 	movhi	24,r11,r11
0000107a 635f0100       4322 	st.w	r11,0[sp]
                        4323 --851:     ret |= R_DRW2D_CtxTextureTranslate(tclusterDrw2dDev, xPos, yPos);
0000107e 3a370100       4324 	ld.w	0[r26],r6
00001082 1938           4325 	mov	r25,r7
00001084 23470100       4326 	ld.w	0[sp],r8
                        4327 	jarl	_R_DRW2D_CtxTextureTranslate,lp
                        4327 <EXPANSION BEGIN>
                        4327 jarl22 _R_DRW2D_CtxTextureTranslate , lp 
00001088 80ff0000*      4327 <EXPANSION END>
0000108c 0ae9           4328 	or	r10,r29
                        4329 --854:     /* Draw texture into rectangle */
                        4330 --855:     rect.Pos.X       = R_DRW2D_2X((1280-944)/2);
                        4331 --line855
                        4332 ..lin.C.3A.5Cgit.5Crh850.5Csrc.5Capp.5Cgfx_apps.5Csimple_draw.5Ctarget.5Cd1mx_mango_ghs.5Cobj.5Cw_mag.226::
                        4333 .LDWlin226:
0000108e 400ea800       4334 	movhi	168,zero,r1
00001092 630f2500       4335 	st.w	r1,36[sp]
                        4336 --856:     rect.Pos.Y       = R_DRW2D_2X((480-144)/2);
00001096 400ea800       4337 	movhi	168,zero,r1
0000109a 630f2900       4338 	st.w	r1,40[sp]
                        4339 --857:     rect.Size.Width  = R_DRW2D_2X(u16logo_reveal);
0000109e fb0f0100       4340 	ld.hu	0[r27],r1
000010a2 d00a           4341 	shl	16,r1
000010a4 630f2d00       4342 	st.w	r1,44[sp]
                        4343 --858:     rect.Size.Height = R_DRW2D_2X(144);
000010a8 63e73100       4344 	st.w	r28,48[sp]
                        4345 --860:     ret |= R_DRW2D_DrawRect(tclusterDrw2dDev, &rect);
000010ac 3a370100       4346 	ld.w	0[r26],r6
000010b0 233e2400       4347 	movea	36,sp,r7
                        4348 	jarl	_R_DRW2D_DrawRect,lp
                        4348 <EXPANSION BEGIN>
                        4348 jarl22 _R_DRW2D_DrawRect , lp 
000010b4 80ff0000*      4348 <EXPANSION END>
000010b8 0ae9           4349 	or	r10,r29
                        4350 --861:     ret |= R_DRW2D_CtxTextureIdentity(tclusterDrw2dDev);
                        4351 --line861
                        4352 ..lin.C.3A.5Cgit.5Crh850.5Csrc.5Capp.5Cgfx_apps.5Csimple_draw.5Ctarget.5Cd1mx_mango_ghs.5Cobj.5Cw_mag.227::
                        4353 .LDWlin227:
000010ba 3a370100       4354 	ld.w	0[r26],r6
                        4355 	jarl	_R_DRW2D_CtxTextureIdentity,lp
                        4355 <EXPANSION BEGIN>

                                                                      Page 81
                                                              C:\Users\Frank\AppData\Local\Temp\gh_0000p3g1.si
                        4355 jarl22 _R_DRW2D_CtxTextureIdentity , lp 
000010be 80ff0000*      4355 <EXPANSION END>
000010c2 0ae9           4356 	or	r10,r29
                        4357 --862:     if (R_DRW2D_ERR_OK != ret)
                        4358 --line862
                        4359 ..lin.C.3A.5Cgit.5Crh850.5Csrc.5Capp.5Cgfx_apps.5Csimple_draw.5Ctarget.5Cd1mx_mango_ghs.5Cobj.5Cw_mag.228::
                        4360 .LDWlin228:
000010c4 e0e9           4361 	cmp	zero,r29
000010c6 a205*          4362 	be	.L4433
                        4363 .L4437:
                        4364 --863:     {
                        4365 --864:        while(1);
                        4366 --line864
                        4367 ..lin.C.3A.5Cgit.5Crh850.5Csrc.5Capp.5Cgfx_apps.5Csimple_draw.5Ctarget.5Cd1mx_mango_ghs.5Cobj.5Cw_mag.229::
                        4368 .LDWlin229:
000010c8 8505*          4369 	br	.L4437
                        4370 .L4433:
                        4371 --865:     }
                        4372 --867:     Task_Done(gtqueue_manager.u8current_point);
                        4373 --line867
                        4374 ..lin.C.3A.5Cgit.5Crh850.5Csrc.5Capp.5Cgfx_apps.5Csimple_draw.5Ctarget.5Cd1mx_mango_ghs.5Cobj.5Cw_mag.230::
                        4375 .LDWlin230:
000010ca 260600000000*  4376 	mov	_gtqueue_manager+24,r6
000010d0 86370100       4377 	ld.bu	0[r6],r6
                        4378 	jarl	_Task_Done,lp
                        4378 <EXPANSION BEGIN>
                        4378 jarl22 _Task_Done , lp 
000010d4 80ff0000*      4378 <EXPANSION END>
                        4379 --868:     if(gtmars_info.tcar_info.tcar_power_light_info.tcar_power_info.acc_status == 1)
                        4380 --line868
                        4381 ..lin.C.3A.5Cgit.5Crh850.5Csrc.5Capp.5Cgfx_apps.5Csimple_draw.5Ctarget.5Cd1mx_mango_ghs.5Cobj.5Cw_mag.231::
                        4382 .LDWlin231:
000010d8 210600000000*  4383 	mov	_gtmars_info+70,r1
000010de 810f0100       4384 	ld.bu	0[r1],r1
000010e2 830a           4385 	shr	3,r1
000010e4 e915*          4386 	bnl	.L4438
                        4387 --869:     {
                        4388 --870:         if(u16logo_reveal < 1000)
                        4389 --line870
                        4390 ..lin.C.3A.5Cgit.5Crh850.5Csrc.5Capp.5Cgfx_apps.5Csimple_draw.5Ctarget.5Cd1mx_mango_ghs.5Cobj.5Cw_mag.232::
                        4391 .LDWlin232:
000010e6 fb0f0100       4392 	ld.hu	0[r27],r1
000010ea 010618fc       4393 	addi	-1000,r1,zero
000010ee e10d*          4394 	bl	.L4440
                        4395 --871:         {
                        4396 --872:             u16logo_reveal += 50;
                        4397 --line872
                        4398 ..lin.C.3A.5Cgit.5Crh850.5Csrc.5Capp.5Cgfx_apps.5Csimple_draw.5Ctarget.5Cd1mx_mango_ghs.5Cobj.5Cw_mag.233::
                        4399 .LDWlin233:
000010f0 fb0f0100       4400 	ld.hu	0[r27],r1
000010f4 010e3200       4401 	addi	50,r1,r1
000010f8 7b0f0000       4402 	st.h	r1,0[r27]
                        4403 --873:             W_Task_ChangeEvent(_TYPE_CLUSTER, _LEVEL5, _EVENT_FIRST);
000010fc 2036b000       4404 	movea	176,zero,r6
00001100 053a           4405 	mov	5,r7
00001102 0142           4406 	mov	1,r8
                        4407 	jarl	_W_Task_ChangeEvent,lp
                        4407 <EXPANSION BEGIN>
                        4407 jarl22 _W_Task_ChangeEvent , lp 
00001104 80ff0000*      4407 <EXPANSION END>
00001108 d525*          4408 	br	.L4443

                                                                      Page 82
                                                              C:\Users\Frank\AppData\Local\Temp\gh_0000p3g1.si
                        4409 .L4440:
                        4410 --874:         }
                        4411 --875:         else
                        4412 --876:             W_SYS_Reset();
                        4413 --line876
                        4414 ..lin.C.3A.5Cgit.5Crh850.5Csrc.5Capp.5Cgfx_apps.5Csimple_draw.5Ctarget.5Cd1mx_mango_ghs.5Cobj.5Cw_mag.234::
                        4415 .LDWlin234:
                        4416 	jarl	_W_SYS_Reset,lp
                        4416 <EXPANSION BEGIN>
                        4416 jarl22 _W_SYS_Reset , lp 
0000110a 80ff0000*      4416 <EXPANSION END>
0000110e a525*          4417 	br	.L4443
                        4418 .L4438:
                        4419 --878:     }
                        4420 --879:     else
                        4421 --880:     {
                        4422 --881:         if(u16logo_reveal < 1000)
                        4423 --line881
                        4424 ..lin.C.3A.5Cgit.5Crh850.5Csrc.5Capp.5Cgfx_apps.5Csimple_draw.5Ctarget.5Cd1mx_mango_ghs.5Cobj.5Cw_mag.235::
                        4425 .LDWlin235:
00001110 fb0f0100       4426 	ld.hu	0[r27],r1
00001114 010618fc       4427 	addi	-1000,r1,zero
00001118 e10d*          4428 	bl	.L4444
                        4429 --882:         {
                        4430 --883:             u16logo_reveal += 50;
                        4431 --line883
                        4432 ..lin.C.3A.5Cgit.5Crh850.5Csrc.5Capp.5Cgfx_apps.5Csimple_draw.5Ctarget.5Cd1mx_mango_ghs.5Cobj.5Cw_mag.236::
                        4433 .LDWlin236:
0000111a fb0f0100       4434 	ld.hu	0[r27],r1
0000111e 010e3200       4435 	addi	50,r1,r1
00001122 7b0f0000       4436 	st.h	r1,0[r27]
                        4437 --884:             W_Task_ChangeEvent(_TYPE_CLUSTER, _LEVEL5, _EVENT_FIRST);
00001126 2036b000       4438 	movea	176,zero,r6
0000112a 053a           4439 	mov	5,r7
0000112c 0142           4440 	mov	1,r8
                        4441 	jarl	_W_Task_ChangeEvent,lp
                        4441 <EXPANSION BEGIN>
                        4441 jarl22 _W_Task_ChangeEvent , lp 
0000112e 80ff0000*      4441 <EXPANSION END>
00001132 8515*          4442 	br	.L4443
                        4443 .L4444:
                        4444 --885:         }
                        4445 --886:         else
                        4446 --887:         {
                        4447 --888:             u16logo_reveal  = 0;
                        4448 --line888
                        4449 ..lin.C.3A.5Cgit.5Crh850.5Csrc.5Capp.5Cgfx_apps.5Csimple_draw.5Ctarget.5Cd1mx_mango_ghs.5Cobj.5Cw_mag.237::
                        4450 .LDWlin237:
00001134 7b070000       4451 	st.h	zero,0[r27]
                        4452 --889:             W_Task_ChangeEvent(_TYPE_CLUSTER, _LEVEL4, _EVENT_LOOP);
00001138 2036b000       4453 	movea	176,zero,r6
0000113c 043a           4454 	mov	4,r7
0000113e 0742           4455 	mov	7,r8
                        4456 	jarl	_W_Task_ChangeEvent,lp
                        4456 <EXPANSION BEGIN>
                        4456 jarl22 _W_Task_ChangeEvent , lp 
00001140 80ff0000*      4456 <EXPANSION END>
                        4457 --890:             gtmars_info.tcluster_info.u16timer2 = _TIME_5000ms;
                        4458 --line890
                        4459 ..lin.C.3A.5Cgit.5Crh850.5Csrc.5Capp.5Cgfx_apps.5Csimple_draw.5Ctarget.5Cd1mx_mango_ghs.5Cobj.5Cw_mag.238::
                        4460 .LDWlin238:

                                                                      Page 83
                                                              C:\Users\Frank\AppData\Local\Temp\gh_0000p3g1.si
00001144 200ef401       4461 	movea	500,zero,r1
00001148 2b0600000000*  4462 	mov	_gtmars_info+2,r11
0000114e 6b0f0000       4463 	st.h	r1,0[r11]
                        4464 .L4443:
                        4465 --891:         }
                        4466 --892:     }
                        4467 --893: }
                        4468 --	    .ef
                        4469 .LDW581:
00001152 5a06ff70       4470 	dispose	13,{r25,r26,r27,r28,r29,r31},[lp]
                        4471 	.type	_W_CLuster_Logo,@function
                        4472 	.size	_W_CLuster_Logo,.-_W_CLuster_Logo
                        4473 	.align	2
                        4474 .LDW681:
                        4475 --_u16logo_reveal	.L4694	static
                        4476 --_ret	r29	local
                        4477 --_rect	36[sp]	local
                        4478 --_tex_argb32	8[sp]	local
                        4479 --_xPos	r25	local
                        4480 --_yPos	0[sp]	local
                        4481 
                        4482 	.section ".bss","awb"
                        4483 .L4615:
                        4484 	.type	.L4615,@object
                        4485 	.size	.L4615,0
                        4486 	.data
                        4487 	.align	2
                        4488 .L4694:
                        4489 	.global	_u16logo_reveal.W_CLuster_Logo.C.3A.5Cgit.5Crh850.5Csrc.5Capp.5Cgfx_apps.5Csimple_draw.5Ctarget.5Cd1mx_mango_ghs.5Cobj.5Cw_mag..1
                        4490 _u16logo_reveal.W_CLuster_Logo.C.3A.5Cgit.5Crh850.5Csrc.5Capp.5Cgfx_apps.5Csimple_draw.5Ctarget.5Cd1mx_mango_ghs.5Cobj.5Cw_mag..1:
00000000 0000           4491 	.byte	0,0
                        4492 	.type	_u16logo_reveal.W_CLuster_Logo.C.3A.5Cgit.5Crh850.5Csrc.5Capp.5Cgfx_apps.5Csimple_draw.5Ctarget.5Cd1mx_mango_ghs.5Cobj.5Cw_mag..1,@object
                        4493 	.size	_u16logo_reveal.W_CLuster_Logo.C.3A.5Cgit.5Crh850.5Csrc.5Capp.5Cgfx_apps.5Csimple_draw.5Ctarget.5Cd1mx_mango_ghs.5Cobj.5Cw_mag..1,2
                        4494 	.type	.L4694,@object
                        4495 	.size	.L4694,2
                        4496 	.text
                        4497 
                        4498 
                        4499 --894: //----------------------------------------------------------------------------------------------------------------------------
                        4500 --895: void W_MAG_Logo_Disp(void)
                        4501 	.align	2
                        4502 	.align	2
                        4503 	.global	_W_MAG_Logo_Disp
                        4504 _W_MAG_Logo_Disp:
00001156 8007e100       4505 	prepare	{r28,r29,r31},0
0000115a 3d0600000000*  4506 	mov	_tclusterDrw2dDev,r29
00001160 3c0600000000*  4507 	mov	_tcluster_draw2d_fb,r28
                        4508 --	    .bf
                        4509 .LDW781:
                        4510 --896: {
                        4511 --897:     tcluster_draw2d_fb.Buffer.Data = R_WM_WindowNewDrawBufGet(LOC_WM_UNIT, &tcluster_draw2d_window);
00001166 0032           4512 	mov	0,r6
00001168 270600000000*  4513 	mov	_tcluster_draw2d_window,r7
                        4514 	jarl	_R_WM_WindowNewDrawBufGet,lp
                        4514 <EXPANSION BEGIN>
                        4514 jarl22 _R_WM_WindowNewDrawBufGet , lp 
0000116e 80ff0000*      4514 <EXPANSION END>
00001172 7c570500       4515 	st.w	r10,4[r28]
                        4516 --898:     R_DRW2D_FramebufferSet(tclusterDrw2dDev, &tcluster_draw2d_fb);
                        4517 --line898
                        4518 ..lin.C.3A.5Cgit.5Crh850.5Csrc.5Capp.5Cgfx_apps.5Csimple_draw.5Ctarget.5Cd1mx_mango_ghs.5Cobj.5Cw_mag.239::

                                                                      Page 84
                                                              C:\Users\Frank\AppData\Local\Temp\gh_0000p3g1.si
                        4519 .LDWlin239:
00001176 3d370100       4520 	ld.w	0[r29],r6
0000117a 1c38           4521 	mov	r28,r7
                        4522 	jarl	_R_DRW2D_FramebufferSet,lp
                        4522 <EXPANSION BEGIN>
                        4522 jarl22 _R_DRW2D_FramebufferSet , lp 
0000117c 80ff0000*      4522 <EXPANSION END>
                        4523 --899:     R_DRW2D_CtxImgQuality(tclusterDrw2dDev,R_DRW2D_IMGQUALITY_HIGH);
                        4524 --line899
                        4525 ..lin.C.3A.5Cgit.5Crh850.5Csrc.5Capp.5Cgfx_apps.5Csimple_draw.5Ctarget.5Cd1mx_mango_ghs.5Cobj.5Cw_mag.240::
                        4526 .LDWlin240:
00001180 3d370100       4527 	ld.w	0[r29],r6
00001184 023a           4528 	mov	2,r7
                        4529 	jarl	_R_DRW2D_CtxImgQuality,lp
                        4529 <EXPANSION BEGIN>
                        4529 jarl22 _R_DRW2D_CtxImgQuality , lp 
00001186 80ff0000*      4529 <EXPANSION END>
                        4530 --901:     W_Cluster_Draw2d_Clear(0xff000000); //solid black
                        4531 --line901
                        4532 ..lin.C.3A.5Cgit.5Crh850.5Csrc.5Capp.5Cgfx_apps.5Csimple_draw.5Ctarget.5Cd1mx_mango_ghs.5Cobj.5Cw_mag.241::
                        4533 .LDWlin241:
0000118a 403600ff       4534 	movhi	hi(-16777216),zero,r6
                        4535 	jarl	_W_Cluster_Draw2d_Clear,lp
                        4535 <EXPANSION BEGIN>
                        4535 jarl22 _W_Cluster_Draw2d_Clear , lp 
0000118e bfffc8f8*      4535 <EXPANSION END>
                        4536 --902:     W_CLuster_Logo();
                        4537 --line902
                        4538 ..lin.C.3A.5Cgit.5Crh850.5Csrc.5Capp.5Cgfx_apps.5Csimple_draw.5Ctarget.5Cd1mx_mango_ghs.5Cobj.5Cw_mag.242::
                        4539 .LDWlin242:
                        4540 	jarl	_W_CLuster_Logo,lp
                        4540 <EXPANSION BEGIN>
                        4540 jarl22 _W_CLuster_Logo , lp 
00001192 bfff68fe*      4540 <EXPANSION END>
                        4541 --903:     //W_Cluster_Logo_Black();
                        4542 --905: }
                        4543 --	    .ef
                        4544 .LDW881:
                        4545 --line905
                        4546 ..lin.C.3A.5Cgit.5Crh850.5Csrc.5Capp.5Cgfx_apps.5Csimple_draw.5Ctarget.5Cd1mx_mango_ghs.5Cobj.5Cw_mag.243::
                        4547 .LDWlin243:
00001196 4006ff00       4548 	dispose	0,{r28,r29,r31},[lp]
                        4549 	.type	_W_MAG_Logo_Disp,@function
                        4550 	.size	_W_MAG_Logo_Disp,.-_W_MAG_Logo_Disp
                        4551 	.align	2
                        4552 .LDW981:
                        4553 
                        4554 	.section ".bss","awb"
                        4555 .L4770:
                        4556 	.type	.L4770,@object
                        4557 	.size	.L4770,0
                        4558 	.data
                        4559 	.text
                        4560 
                        4561 
                        4562 --906: //----------------------------------------------------------------------------------------------------------------------------
                        4563 --907: void W_Cluster_Trip_BG(void)
                        4564 	.align	2
                        4565 	.align	2
                        4566 	.global	_W_Cluster_Trip_BG
                        4567 _W_Cluster_Trip_BG:

                                                                      Page 85
                                                              C:\Users\Frank\AppData\Local\Temp\gh_0000p3g1.si
0000119a 80072100       4568 	prepare	{r31},0
                        4569 --	    .bf
                        4570 .LDW091:
                        4571 --908: {
                        4572 --909:     W_Draw_Image_By_ID(PIC_ID_C_TRIP_BG, 110, 134);
0000119e 2036c300       4573 	movea	195,zero,r6
000011a2 203e6e00       4574 	movea	110,zero,r7
000011a6 20468600       4575 	movea	134,zero,r8
                        4576 	jarl	_W_Draw_Image_By_ID,lp
                        4576 <EXPANSION BEGIN>
                        4576 jarl22 _W_Draw_Image_By_ID , lp 
000011aa 80ff0000*      4576 <EXPANSION END>
                        4577 --910: }
                        4578 --	    .ef
                        4579 .LDW191:
                        4580 --line910
                        4581 ..lin.C.3A.5Cgit.5Crh850.5Csrc.5Capp.5Cgfx_apps.5Csimple_draw.5Ctarget.5Cd1mx_mango_ghs.5Cobj.5Cw_mag.244::
                        4582 .LDWlin244:
000011ae 40063f00       4583 	dispose	0,{r31},[lp]
                        4584 	.type	_W_Cluster_Trip_BG,@function
                        4585 	.size	_W_Cluster_Trip_BG,.-_W_Cluster_Trip_BG
                        4586 	.align	2
                        4587 .LDW291:
                        4588 
                        4589 	.section ".bss","awb"
                        4590 .L4818:
                        4591 	.type	.L4818,@object
                        4592 	.size	.L4818,0
                        4593 	.data
                        4594 	.text
                        4595 
                        4596 
                        4597 --911: //----------------------------------------------------------------------------------------------------------------------------
                        4598 --912: void W_Cluster_Trip_Timer(uint32_t u32_time_in_seconds)
                        4599 	.align	2
                        4600 	.align	2
                        4601 	.global	_W_Cluster_Trip_Timer
                        4602 _W_Cluster_Trip_Timer:
000011b2 8207e130       4603 	prepare	{r26,r27,r28,r29,r31},1
000011b6 06d8           4604 	mov	r6,r27
                        4605 --	    .bf
                        4606 .LDW391:
                        4607 --913: {
                        4608 --914:     uint8_t u8num[2];
                        4609 --915:     uint32_t u32_hour,u32_min,u32_sec;
                        4610 --917:     u32_hour = u32_time_in_seconds / 3600;
000011b8 2106c5b3a291   4611 	mov	-1851608123,r1
000011be 0160           4612 	mov	r1,r12
000011c0 fb67226a       4613 	mulu	r27,r12,r13
000011c4 0de8           4614 	mov	r13,r29
000011c6 8bea           4615 	shr	11,r29
                        4616 --918:     u32_min = (u32_time_in_seconds % 3600) / 60;
000011c8 1b08           4617 	mov	r27,r1
000011ca 2076100e       4618 	movea	3600,zero,r14
000011ce ee0ffe0a       4619 	divqu	r14,r1,r1
000011d2 2e0689888888   4620 	mov	-2004318071,r14
000011d8 0e60           4621 	mov	r14,r12
000011da e167226a       4622 	mulu	r1,r12,r13
000011de 0de0           4623 	mov	r13,r28
000011e0 85e2           4624 	shr	5,r28
                        4625 --919:     u32_sec = (u32_time_in_seconds % 3600) % 60;

                                                                      Page 86
                                                              C:\Users\Frank\AppData\Local\Temp\gh_0000p3g1.si
000011e2 1b08           4626 	mov	r27,r1
000011e4 2076100e       4627 	movea	3600,zero,r14
000011e8 ee0ffe0a       4628 	divqu	r14,r1,r1
000011ec 20763c00       4629 	movea	60,zero,r14
000011f0 ee0ffed2       4630 	divqu	r14,r1,r26
                        4631 --920:     //
                        4632 --921:     // PM
                        4633 --922:     //
                        4634 --923:     if(u32_hour >= 12)
000011f4 6cea           4635 	cmp	12,r29
000011f6 d11d*          4636 	bl	.L4835
                        4637 --924:     {
                        4638 --925:         u8num[0] = (uint8_t)((u32_hour - 12) / 10);
                        4639 --line925
                        4640 ..lin.C.3A.5Cgit.5Crh850.5Csrc.5Capp.5Cgfx_apps.5Csimple_draw.5Ctarget.5Cd1mx_mango_ghs.5Cobj.5Cw_mag.245::
                        4641 .LDWlin245:
000011f8 2e06cdcccccc   4642 	mov	-858993459,r14
000011fe 1d0ef4ff       4643 	addi	-12,r29,r1
00001202 0e60           4644 	mov	r14,r12
00001204 e167226a       4645 	mulu	r1,r12,r13
00001208 0d08           4646 	mov	r13,r1
0000120a 830a           4647 	shr	3,r1
0000120c 430f0200       4648 	st.b	r1,2[sp]
                        4649 --926:         u8num[1] = (uint8_t)((u32_hour - 12) % 10);
00001210 1d0ef4ff       4650 	addi	-12,r29,r1
00001214 0a72           4651 	mov	10,r14
00001216 ee0ffe0a       4652 	divqu	r14,r1,r1
0000121a 430f0300       4653 	st.b	r1,3[sp]
                        4654 --927:         W_Draw_Image_By_ID(PIC_ID_C_TRIP_S_PM, 288, 159);
0000121e 2036de00       4655 	movea	222,zero,r6
00001222 203e2001       4656 	movea	288,zero,r7
00001226 20469f00       4657 	movea	159,zero,r8
                        4658 	jarl	_W_Draw_Image_By_ID,lp
                        4658 <EXPANSION BEGIN>
                        4658 jarl22 _W_Draw_Image_By_ID , lp 
0000122a 80ff0000*      4658 <EXPANSION END>
0000122e 951d*          4659 	br	.L4837
                        4660 .L4835:
                        4661 --928:     }
                        4662 --929:     //
                        4663 --930:     // AM
                        4664 --931:     //
                        4665 --932:     else
                        4666 --933:     {
                        4667 --934:         u8num[0] = (uint8_t)(u32_hour / 10);
                        4668 --line934
                        4669 ..lin.C.3A.5Cgit.5Crh850.5Csrc.5Capp.5Cgfx_apps.5Csimple_draw.5Ctarget.5Cd1mx_mango_ghs.5Cobj.5Cw_mag.246::
                        4670 .LDWlin246:
00001230 2106cdcccccc   4671 	mov	-858993459,r1
00001236 0160           4672 	mov	r1,r12
00001238 fd67226a       4673 	mulu	r29,r12,r13
0000123c 0d08           4674 	mov	r13,r1
0000123e 830a           4675 	shr	3,r1
00001240 430f0200       4676 	st.b	r1,2[sp]
                        4677 --935:         u8num[1] = (uint8_t)(u32_hour % 10);
00001244 1d08           4678 	mov	r29,r1
00001246 0a72           4679 	mov	10,r14
00001248 ee0ffe0a       4680 	divqu	r14,r1,r1
0000124c 430f0300       4681 	st.b	r1,3[sp]
                        4682 --936:         W_Draw_Image_By_ID(PIC_ID_C_TRIP_S_AM, 288, 159);
00001250 2036dc00       4683 	movea	220,zero,r6

                                                                      Page 87
                                                              C:\Users\Frank\AppData\Local\Temp\gh_0000p3g1.si
00001254 203e2001       4684 	movea	288,zero,r7
00001258 20469f00       4685 	movea	159,zero,r8
                        4686 	jarl	_W_Draw_Image_By_ID,lp
                        4686 <EXPANSION BEGIN>
                        4686 jarl22 _W_Draw_Image_By_ID , lp 
0000125c 80ff0000*      4686 <EXPANSION END>
                        4687 .L4837:
                        4688 --937:     }
                        4689 --938:     //
                        4690 --939:     // hour
                        4691 --940:     //
                        4692 --941:     W_Draw_Image_By_ID(PIC_ID_C_TRIP_S_0 + u8num[0], 248, 159);
                        4693 --line941
                        4694 ..lin.C.3A.5Cgit.5Crh850.5Csrc.5Capp.5Cgfx_apps.5Csimple_draw.5Ctarget.5Cd1mx_mango_ghs.5Cobj.5Cw_mag.247::
                        4695 .LDWlin247:
00001260 830f0300       4696 	ld.bu	2[sp],r1
00001264 203ef800       4697 	movea	248,zero,r7
00001268 20469f00       4698 	movea	159,zero,r8
0000126c 0136d200       4699 	addi	210,r1,r6
00001270 c600           4700 	zxh	r6
                        4701 	jarl	_W_Draw_Image_By_ID,lp
                        4701 <EXPANSION BEGIN>
                        4701 jarl22 _W_Draw_Image_By_ID , lp 
00001272 80ff0000*      4701 <EXPANSION END>
                        4702 --942:     W_Draw_Image_By_ID(PIC_ID_C_TRIP_S_0 + u8num[1], 256, 159);
                        4703 --line942
                        4704 ..lin.C.3A.5Cgit.5Crh850.5Csrc.5Capp.5Cgfx_apps.5Csimple_draw.5Ctarget.5Cd1mx_mango_ghs.5Cobj.5Cw_mag.248::
                        4705 .LDWlin248:
00001276 a30f0300       4706 	ld.bu	3[sp],r1
0000127a 203e0001       4707 	movea	256,zero,r7
0000127e 20469f00       4708 	movea	159,zero,r8
00001282 0136d200       4709 	addi	210,r1,r6
00001286 c600           4710 	zxh	r6
                        4711 	jarl	_W_Draw_Image_By_ID,lp
                        4711 <EXPANSION BEGIN>
                        4711 jarl22 _W_Draw_Image_By_ID , lp 
00001288 80ff0000*      4711 <EXPANSION END>
                        4712 --943:     W_Draw_Image_By_ID(PIC_ID_C_TRIP_S_COLON, 264, 159);
                        4713 --line943
                        4714 ..lin.C.3A.5Cgit.5Crh850.5Csrc.5Capp.5Cgfx_apps.5Csimple_draw.5Ctarget.5Cd1mx_mango_ghs.5Cobj.5Cw_mag.249::
                        4715 .LDWlin249:
0000128c 2036dd00       4716 	movea	221,zero,r6
00001290 203e0801       4717 	movea	264,zero,r7
00001294 20469f00       4718 	movea	159,zero,r8
                        4719 	jarl	_W_Draw_Image_By_ID,lp
                        4719 <EXPANSION BEGIN>
                        4719 jarl22 _W_Draw_Image_By_ID , lp 
00001298 80ff0000*      4719 <EXPANSION END>
                        4720 --944:     //
                        4721 --945:     // minute
                        4722 --946:     //
                        4723 --947:     if(u32_min >= 10)
                        4724 --line947
                        4725 ..lin.C.3A.5Cgit.5Crh850.5Csrc.5Capp.5Cgfx_apps.5Csimple_draw.5Ctarget.5Cd1mx_mango_ghs.5Cobj.5Cw_mag.250::
                        4726 .LDWlin250:
0000129c 6ae2           4727 	cmp	10,r28
0000129e a115*          4728 	bl	.L4838
                        4729 --948:     {
                        4730 --949:         u8num[0] = (uint8_t)(u32_min / 10);
                        4731 --line949
                        4732 ..lin.C.3A.5Cgit.5Crh850.5Csrc.5Capp.5Cgfx_apps.5Csimple_draw.5Ctarget.5Cd1mx_mango_ghs.5Cobj.5Cw_mag.251::

                                                                      Page 88
                                                              C:\Users\Frank\AppData\Local\Temp\gh_0000p3g1.si
                        4733 .LDWlin251:
000012a0 2106cdcccccc   4734 	mov	-858993459,r1
000012a6 0160           4735 	mov	r1,r12
000012a8 fc67226a       4736 	mulu	r28,r12,r13
000012ac 0d08           4737 	mov	r13,r1
000012ae 830a           4738 	shr	3,r1
000012b0 430f0200       4739 	st.b	r1,2[sp]
                        4740 --950:         u8num[1] = (uint8_t)(u32_min % 10);
000012b4 1c08           4741 	mov	r28,r1
000012b6 0a72           4742 	mov	10,r14
000012b8 ee0ffe0a       4743 	divqu	r14,r1,r1
000012bc 430f0300       4744 	st.b	r1,3[sp]
000012c0 950d*          4745 	br	.L4840
                        4746 .L4838:
                        4747 --951:     }
                        4748 --952:     else
                        4749 --953:     {
                        4750 --954:         u8num[0] = 0;
                        4751 --line954
                        4752 ..lin.C.3A.5Cgit.5Crh850.5Csrc.5Capp.5Cgfx_apps.5Csimple_draw.5Ctarget.5Cd1mx_mango_ghs.5Cobj.5Cw_mag.252::
                        4753 .LDWlin252:
000012c2 43070200       4754 	st.b	zero,2[sp]
                        4755 --955:         u8num[1] = (uint8_t)(u32_min % 10);
000012c6 1c08           4756 	mov	r28,r1
000012c8 0a72           4757 	mov	10,r14
000012ca ee0ffe0a       4758 	divqu	r14,r1,r1
000012ce 430f0300       4759 	st.b	r1,3[sp]
                        4760 .L4840:
                        4761 --956:     }
                        4762 --957:     W_Draw_Image_By_ID(PIC_ID_C_TRIP_S_0 + u8num[0], 272, 159);
000012d2 830f0300       4763 	ld.bu	2[sp],r1
000012d6 203e1001       4764 	movea	272,zero,r7
000012da 20469f00       4765 	movea	159,zero,r8
000012de 0136d200       4766 	addi	210,r1,r6
000012e2 c600           4767 	zxh	r6
                        4768 	jarl	_W_Draw_Image_By_ID,lp
                        4768 <EXPANSION BEGIN>
                        4768 jarl22 _W_Draw_Image_By_ID , lp 
000012e4 80ff0000*      4768 <EXPANSION END>
                        4769 --958:     W_Draw_Image_By_ID(PIC_ID_C_TRIP_S_0 + u8num[1], 280, 159);
                        4770 --line958
                        4771 ..lin.C.3A.5Cgit.5Crh850.5Csrc.5Capp.5Cgfx_apps.5Csimple_draw.5Ctarget.5Cd1mx_mango_ghs.5Cobj.5Cw_mag.253::
                        4772 .LDWlin253:
000012e8 a30f0300       4773 	ld.bu	3[sp],r1
000012ec 203e1801       4774 	movea	280,zero,r7
000012f0 20469f00       4775 	movea	159,zero,r8
000012f4 0136d200       4776 	addi	210,r1,r6
000012f8 c600           4777 	zxh	r6
                        4778 	jarl	_W_Draw_Image_By_ID,lp
                        4778 <EXPANSION BEGIN>
                        4778 jarl22 _W_Draw_Image_By_ID , lp 
000012fa 80ff0000*      4778 <EXPANSION END>
                        4779 --960: }
                        4780 --	    .ef
                        4781 .LDW491:
                        4782 --line960
                        4783 ..lin.C.3A.5Cgit.5Crh850.5Csrc.5Capp.5Cgfx_apps.5Csimple_draw.5Ctarget.5Cd1mx_mango_ghs.5Cobj.5Cw_mag.254::
                        4784 .LDWlin254:
000012fe 4206ff30       4785 	dispose	1,{r26,r27,r28,r29,r31},[lp]
                        4786 	.type	_W_Cluster_Trip_Timer,@function
                        4787 	.size	_W_Cluster_Trip_Timer,.-_W_Cluster_Trip_Timer

                                                                      Page 89
                                                              C:\Users\Frank\AppData\Local\Temp\gh_0000p3g1.si
                        4788 	.align	2
                        4789 .LDW591:
                        4790 --_u8num	2[sp]	local
                        4791 --_u32_hour	r29	local
                        4792 --_u32_min	r28	local
                        4793 --_u32_sec	r26	local
                        4794 
                        4795 --_u32_time_in_seconds	r27	param
                        4796 
                        4797 	.section ".bss","awb"
                        4798 .L4942:
                        4799 	.type	.L4942,@object
                        4800 	.size	.L4942,0
                        4801 	.data
                        4802 	.text
                        4803 
                        4804 
                        4805 --961: //----------------------------------------------------------------------------------------------------------------------------
                        4806 --962: void W_Cluster_Trip_Icon(uint8_t u8Icon_Num)
                        4807 	.align	2
                        4808 	.align	2
                        4809 	.global	_W_Cluster_Trip_Icon
                        4810 _W_Cluster_Trip_Icon:
00001302 80076100       4811 	prepare	{r29,r31},0
00001306 c6eeff00       4812 	andi	255,r6,r29
                        4813 --	    .bf
                        4814 .LDW691:
                        4815 --963: {
                        4816 --964:     if(u8Icon_Num == 0)
0000130a e0e9           4817 	cmp	zero,r29
0000130c aa0d*          4818 	bne	.L5016
                        4819 --965:     {
                        4820 --966:         W_Draw_Image_By_ID(PIC_ID_C_TRIP_ICON_A, 158, 182);
                        4821 --line966
                        4822 ..lin.C.3A.5Cgit.5Crh850.5Csrc.5Capp.5Cgfx_apps.5Csimple_draw.5Ctarget.5Cd1mx_mango_ghs.5Cobj.5Cw_mag.255::
                        4823 .LDWlin255:
0000130e 2036c400       4824 	movea	196,zero,r6
00001312 203e9e00       4825 	movea	158,zero,r7
00001316 2046b600       4826 	movea	182,zero,r8
                        4827 	jarl	_W_Draw_Image_By_ID,lp
                        4827 <EXPANSION BEGIN>
                        4827 jarl22 _W_Draw_Image_By_ID , lp 
0000131a 80ff0000*      4827 <EXPANSION END>
0000131e 950d*          4828 	br	.L5018
                        4829 .L5016:
                        4830 --967:     }
                        4831 --968:     else
                        4832 --969:     {
                        4833 --970:         W_Draw_Image_By_ID(PIC_ID_C_TRIP_ICON_B, 158, 182);
                        4834 --line970
                        4835 ..lin.C.3A.5Cgit.5Crh850.5Csrc.5Capp.5Cgfx_apps.5Csimple_draw.5Ctarget.5Cd1mx_mango_ghs.5Cobj.5Cw_mag.256::
                        4836 .LDWlin256:
00001320 2036c500       4837 	movea	197,zero,r6
00001324 203e9e00       4838 	movea	158,zero,r7
00001328 2046b600       4839 	movea	182,zero,r8
                        4840 	jarl	_W_Draw_Image_By_ID,lp
                        4840 <EXPANSION BEGIN>
                        4840 jarl22 _W_Draw_Image_By_ID , lp 
0000132c 80ff0000*      4840 <EXPANSION END>
                        4841 .L5018:
                        4842 --971:     }

                                                                      Page 90
                                                              C:\Users\Frank\AppData\Local\Temp\gh_0000p3g1.si
                        4843 --972: }
                        4844 --	    .ef
                        4845 .LDW791:
                        4846 --line972
                        4847 ..lin.C.3A.5Cgit.5Crh850.5Csrc.5Capp.5Cgfx_apps.5Csimple_draw.5Ctarget.5Cd1mx_mango_ghs.5Cobj.5Cw_mag.257::
                        4848 .LDWlin257:
00001330 40067f00       4849 	dispose	0,{r29,r31},[lp]
                        4850 	.type	_W_Cluster_Trip_Icon,@function
                        4851 	.size	_W_Cluster_Trip_Icon,.-_W_Cluster_Trip_Icon
                        4852 	.align	2
                        4853 .LDW891:
                        4854 
                        4855 --_u8Icon_Num	r29	param
                        4856 
                        4857 	.section ".bss","awb"
                        4858 .L5050:
                        4859 	.type	.L5050,@object
                        4860 	.size	.L5050,0
                        4861 	.data
                        4862 	.text
                        4863 
                        4864 
                        4865 --973: //----------------------------------------------------------------------------------------------------------------------------
                        4866 --974: void W_Cluster_TripA_KM(uint16_t u16_distance)
                        4867 	.align	2
                        4868 	.align	2
                        4869 	.global	_W_Cluster_TripA_KM
                        4870 _W_Cluster_TripA_KM:
00001334 8207e110       4871 	prepare	{r27,r28,r29,r31},1
00001338 c6deffff       4872 	andi	65535,r6,r27
                        4873 --	    .bf
                        4874 .LDW991:
                        4875 --975: {
                        4876 --976:     uint16_t u16_digi,u16_deci;
                        4877 --977:     uint8_t u8_num[4];
                        4878 --978:     u16_digi = (u16_distance / 100) % 1000;
0000133c 2b061f85eb51   4879 	mov	1374389535,r11
00001342 1b60           4880 	mov	r27,r12
00001344 1b70           4881 	mov	r27,r14
00001346 eb67206a       4882 	mul	r11,r12,r13
0000134a bf72           4883 	sar	31,r14
0000134c a56a           4884 	sar	5,r13
0000134e ae69           4885 	sub	r14,r13
00001350 2076e803       4886 	movea	1000,zero,r14
00001354 ee6ffcea       4887 	divq	r14,r13,r29
00001358 dd00           4888 	zxh	r29
                        4889 --979:     u16_deci = (u16_distance % 100);
0000135a 1b08           4890 	mov	r27,r1
0000135c 20766400       4891 	movea	100,zero,r14
00001360 ee0ffce2       4892 	divq	r14,r1,r28
00001364 dc00           4893 	zxh	r28
                        4894 --980:     u8_num[0] = (uint8_t)(u16_digi / 100);
00001366 2b061f85eb51   4895 	mov	1374389535,r11
0000136c 1d60           4896 	mov	r29,r12
0000136e 1d70           4897 	mov	r29,r14
00001370 eb67206a       4898 	mul	r11,r12,r13
00001374 bf72           4899 	sar	31,r14
00001376 0d08           4900 	mov	r13,r1
00001378 a50a           4901 	sar	5,r1
0000137a ae09           4902 	sub	r14,r1
0000137c 430f0000       4903 	st.b	r1,0[sp]

                                                                      Page 91
                                                              C:\Users\Frank\AppData\Local\Temp\gh_0000p3g1.si
                        4904 --981:     u8_num[1] = (uint8_t)((u16_digi / 10) % 10);
00001380 2b0667666666   4905 	mov	1717986919,r11
00001386 1d60           4906 	mov	r29,r12
00001388 1d70           4907 	mov	r29,r14
0000138a eb67206a       4908 	mul	r11,r12,r13
0000138e bf72           4909 	sar	31,r14
00001390 0d08           4910 	mov	r13,r1
00001392 a20a           4911 	sar	2,r1
00001394 ae09           4912 	sub	r14,r1
00001396 0a72           4913 	mov	10,r14
00001398 ee0ffc0a       4914 	divq	r14,r1,r1
0000139c 430f0100       4915 	st.b	r1,1[sp]
                        4916 --982:     u8_num[2] = (uint8_t)(u16_digi % 10);
000013a0 1d08           4917 	mov	r29,r1
000013a2 0a72           4918 	mov	10,r14
000013a4 ee0ffc0a       4919 	divq	r14,r1,r1
000013a8 430f0200       4920 	st.b	r1,2[sp]
                        4921 --983:     u8_num[3] = (uint8_t)(u16_deci / 10);
000013ac 2b0667666666   4922 	mov	1717986919,r11
000013b2 1c60           4923 	mov	r28,r12
000013b4 1c70           4924 	mov	r28,r14
000013b6 eb67206a       4925 	mul	r11,r12,r13
000013ba bf72           4926 	sar	31,r14
000013bc 0d08           4927 	mov	r13,r1
000013be a20a           4928 	sar	2,r1
000013c0 ae09           4929 	sub	r14,r1
000013c2 430f0300       4930 	st.b	r1,3[sp]
                        4931 --984:     if(u16_digi >= 100)
000013c6 1d069cff       4932 	addi	-100,r29,zero
000013ca b925*          4933 	bnl	.L5073
                        4934 --985:     {
                        4935 --986:         W_Draw_Image_By_ID(PIC_ID_C_TRIP_L_0 + u8_num[0],158,231);
                        4936 --line986
                        4937 ..lin.C.3A.5Cgit.5Crh850.5Csrc.5Capp.5Cgfx_apps.5Csimple_draw.5Ctarget.5Cd1mx_mango_ghs.5Cobj.5Cw_mag.258::
                        4938 .LDWlin258:
000013cc 830f0100       4939 	ld.bu	0[sp],r1
000013d0 203e9e00       4940 	movea	158,zero,r7
000013d4 2046e700       4941 	movea	231,zero,r8
000013d8 0136c600       4942 	addi	198,r1,r6
000013dc c600           4943 	zxh	r6
                        4944 	jarl	_W_Draw_Image_By_ID,lp
                        4944 <EXPANSION BEGIN>
                        4944 jarl22 _W_Draw_Image_By_ID , lp 
000013de 80ff0000*      4944 <EXPANSION END>
                        4945 --987:         W_Draw_Image_By_ID(PIC_ID_C_TRIP_L_0 + u8_num[1],174,231);
                        4946 --line987
                        4947 ..lin.C.3A.5Cgit.5Crh850.5Csrc.5Capp.5Cgfx_apps.5Csimple_draw.5Ctarget.5Cd1mx_mango_ghs.5Cobj.5Cw_mag.259::
                        4948 .LDWlin259:
000013e2 a30f0100       4949 	ld.bu	1[sp],r1
000013e6 203eae00       4950 	movea	174,zero,r7
000013ea 2046e700       4951 	movea	231,zero,r8
000013ee 0136c600       4952 	addi	198,r1,r6
000013f2 c600           4953 	zxh	r6
                        4954 	jarl	_W_Draw_Image_By_ID,lp
                        4954 <EXPANSION BEGIN>
                        4954 jarl22 _W_Draw_Image_By_ID , lp 
000013f4 80ff0000*      4954 <EXPANSION END>
                        4955 --988:         W_Draw_Image_By_ID(PIC_ID_C_TRIP_L_0 + u8_num[2],190,231);
                        4956 --line988
                        4957 ..lin.C.3A.5Cgit.5Crh850.5Csrc.5Capp.5Cgfx_apps.5Csimple_draw.5Ctarget.5Cd1mx_mango_ghs.5Cobj.5Cw_mag.260::
                        4958 .LDWlin260:

                                                                      Page 92
                                                              C:\Users\Frank\AppData\Local\Temp\gh_0000p3g1.si
000013f8 830f0300       4959 	ld.bu	2[sp],r1
000013fc 203ebe00       4960 	movea	190,zero,r7
00001400 2046e700       4961 	movea	231,zero,r8
00001404 0136c600       4962 	addi	198,r1,r6
00001408 c600           4963 	zxh	r6
                        4964 	jarl	_W_Draw_Image_By_ID,lp
                        4964 <EXPANSION BEGIN>
                        4964 jarl22 _W_Draw_Image_By_ID , lp 
0000140a 80ff0000*      4964 <EXPANSION END>
0000140e 853d*          4965 	br	.L5075
                        4966 .L5073:
                        4967 --989:     }
                        4968 --990:     else if (u16_digi < 10)
                        4969 --line990
                        4970 ..lin.C.3A.5Cgit.5Crh850.5Csrc.5Capp.5Cgfx_apps.5Csimple_draw.5Ctarget.5Cd1mx_mango_ghs.5Cobj.5Cw_mag.261::
                        4971 .LDWlin261:
00001410 6aea           4972 	cmp	10,r29
00001412 8925*          4973 	bnl	.L5076
                        4974 --991:     {
                        4975 --992:         W_Draw_Image_By_ID(PIC_ID_C_TRIP_L_0 + u8_num[2],158,231);
                        4976 --line992
                        4977 ..lin.C.3A.5Cgit.5Crh850.5Csrc.5Capp.5Cgfx_apps.5Csimple_draw.5Ctarget.5Cd1mx_mango_ghs.5Cobj.5Cw_mag.262::
                        4978 .LDWlin262:
00001414 830f0300       4979 	ld.bu	2[sp],r1
00001418 203e9e00       4980 	movea	158,zero,r7
0000141c 2046e700       4981 	movea	231,zero,r8
00001420 0136c600       4982 	addi	198,r1,r6
00001424 c600           4983 	zxh	r6
                        4984 	jarl	_W_Draw_Image_By_ID,lp
                        4984 <EXPANSION BEGIN>
                        4984 jarl22 _W_Draw_Image_By_ID , lp 
00001426 80ff0000*      4984 <EXPANSION END>
                        4985 --993:         W_Draw_Image_By_ID(PIC_ID_C_TRIP_L_POINT,        174,231);
                        4986 --line993
                        4987 ..lin.C.3A.5Cgit.5Crh850.5Csrc.5Capp.5Cgfx_apps.5Csimple_draw.5Ctarget.5Cd1mx_mango_ghs.5Cobj.5Cw_mag.263::
                        4988 .LDWlin263:
0000142a 2036d100       4989 	movea	209,zero,r6
0000142e 203eae00       4990 	movea	174,zero,r7
00001432 2046e700       4991 	movea	231,zero,r8
                        4992 	jarl	_W_Draw_Image_By_ID,lp
                        4992 <EXPANSION BEGIN>
                        4992 jarl22 _W_Draw_Image_By_ID , lp 
00001436 80ff0000*      4992 <EXPANSION END>
                        4993 --994:         W_Draw_Image_By_ID(PIC_ID_C_TRIP_L_0 + u8_num[3],182,231);
                        4994 --line994
                        4995 ..lin.C.3A.5Cgit.5Crh850.5Csrc.5Capp.5Cgfx_apps.5Csimple_draw.5Ctarget.5Cd1mx_mango_ghs.5Cobj.5Cw_mag.264::
                        4996 .LDWlin264:
0000143a a30f0300       4997 	ld.bu	3[sp],r1
0000143e 203eb600       4998 	movea	182,zero,r7
00001442 2046e700       4999 	movea	231,zero,r8
00001446 0136c600       5000 	addi	198,r1,r6
0000144a c600           5001 	zxh	r6
                        5002 	jarl	_W_Draw_Image_By_ID,lp
                        5002 <EXPANSION BEGIN>
                        5002 jarl22 _W_Draw_Image_By_ID , lp 
0000144c 80ff0000*      5002 <EXPANSION END>
00001450 f515*          5003 	br	.L5075
                        5004 .L5076:
                        5005 --995:     }
                        5006 --996:     else
                        5007 --997:     {

                                                                      Page 93
                                                              C:\Users\Frank\AppData\Local\Temp\gh_0000p3g1.si
                        5008 --998:         W_Draw_Image_By_ID(PIC_ID_C_TRIP_L_0 + u8_num[1],164,231);
                        5009 --line998
                        5010 ..lin.C.3A.5Cgit.5Crh850.5Csrc.5Capp.5Cgfx_apps.5Csimple_draw.5Ctarget.5Cd1mx_mango_ghs.5Cobj.5Cw_mag.265::
                        5011 .LDWlin265:
00001452 a30f0100       5012 	ld.bu	1[sp],r1
00001456 203ea400       5013 	movea	164,zero,r7
0000145a 2046e700       5014 	movea	231,zero,r8
0000145e 0136c600       5015 	addi	198,r1,r6
00001462 c600           5016 	zxh	r6
                        5017 	jarl	_W_Draw_Image_By_ID,lp
                        5017 <EXPANSION BEGIN>
                        5017 jarl22 _W_Draw_Image_By_ID , lp 
00001464 80ff0000*      5017 <EXPANSION END>
                        5018 --999:         W_Draw_Image_By_ID(PIC_ID_C_TRIP_L_0 + u8_num[2],180,231);
                        5019 --line999
                        5020 ..lin.C.3A.5Cgit.5Crh850.5Csrc.5Capp.5Cgfx_apps.5Csimple_draw.5Ctarget.5Cd1mx_mango_ghs.5Cobj.5Cw_mag.266::
                        5021 .LDWlin266:
00001468 830f0300       5022 	ld.bu	2[sp],r1
0000146c 203eb400       5023 	movea	180,zero,r7
00001470 2046e700       5024 	movea	231,zero,r8
00001474 0136c600       5025 	addi	198,r1,r6
00001478 c600           5026 	zxh	r6
                        5027 	jarl	_W_Draw_Image_By_ID,lp
                        5027 <EXPANSION BEGIN>
                        5027 jarl22 _W_Draw_Image_By_ID , lp 
0000147a 80ff0000*      5027 <EXPANSION END>
                        5028 .L5075:
                        5029 --1000:     }
                        5030 --1001: }
                        5031 --	    .ef
                        5032 .LDW002:
                        5033 --line1001
                        5034 ..lin.C.3A.5Cgit.5Crh850.5Csrc.5Capp.5Cgfx_apps.5Csimple_draw.5Ctarget.5Cd1mx_mango_ghs.5Cobj.5Cw_mag.267::
                        5035 .LDWlin267:
0000147e 4206ff10       5036 	dispose	1,{r27,r28,r29,r31},[lp]
                        5037 	.type	_W_Cluster_TripA_KM,@function
                        5038 	.size	_W_Cluster_TripA_KM,.-_W_Cluster_TripA_KM
                        5039 	.align	2
                        5040 .LDW102:
                        5041 --_u16_digi	r29	local
                        5042 --_u16_deci	r28	local
                        5043 --_u8_num	0[sp]	local
                        5044 
                        5045 --_u16_distance	r27	param
                        5046 
                        5047 	.section ".bss","awb"
                        5048 .L5166:
                        5049 	.type	.L5166,@object
                        5050 	.size	.L5166,0
                        5051 	.data
                        5052 	.text
                        5053 
                        5054 
                        5055 --1002: //----------------------------------------------------------------------------------------------------------------------------
                        5056 --1003: void W_Cluster_TripA_MIN(uint8_t min)
                        5057 	.align	2
                        5058 	.align	2
                        5059 	.global	_W_Cluster_TripA_MIN
                        5060 _W_Cluster_TripA_MIN:
00001482 82076100       5061 	prepare	{r29,r31},1
00001486 c6eeff00       5062 	andi	255,r6,r29

                                                                      Page 94
                                                              C:\Users\Frank\AppData\Local\Temp\gh_0000p3g1.si
                        5063 --	    .bf
                        5064 .LDW202:
                        5065 --1004: {
                        5066 --1005:     uint8_t u8_num[2];
                        5067 --1006:     u8_num[0] = min / 10;
0000148a 2b0667666666   5068 	mov	1717986919,r11
00001490 1d60           5069 	mov	r29,r12
00001492 1d70           5070 	mov	r29,r14
00001494 eb67206a       5071 	mul	r11,r12,r13
00001498 bf72           5072 	sar	31,r14
0000149a 0d08           5073 	mov	r13,r1
0000149c a20a           5074 	sar	2,r1
0000149e ae09           5075 	sub	r14,r1
000014a0 430f0200       5076 	st.b	r1,2[sp]
                        5077 --1007:     u8_num[1] = min % 10;
000014a4 1d08           5078 	mov	r29,r1
000014a6 0a72           5079 	mov	10,r14
000014a8 ee0ffc0a       5080 	divq	r14,r1,r1
000014ac 430f0300       5081 	st.b	r1,3[sp]
                        5082 --1008:     if(u8_num[0] == 0)
000014b0 830f0300       5083 	ld.bu	2[sp],r1
000014b4 e009           5084 	cmp	zero,r1
000014b6 da0d*          5085 	bne	.L5228
                        5086 --1009:     {
                        5087 --1010:         W_Draw_Image_By_ID(PIC_ID_C_TRIP_L_0 + u8_num[1],253,231);
                        5088 --line1010
                        5089 ..lin.C.3A.5Cgit.5Crh850.5Csrc.5Capp.5Cgfx_apps.5Csimple_draw.5Ctarget.5Cd1mx_mango_ghs.5Cobj.5Cw_mag.268::
                        5090 .LDWlin268:
000014b8 a30f0300       5091 	ld.bu	3[sp],r1
000014bc 203efd00       5092 	movea	253,zero,r7
000014c0 2046e700       5093 	movea	231,zero,r8
000014c4 0136c600       5094 	addi	198,r1,r6
000014c8 c600           5095 	zxh	r6
                        5096 	jarl	_W_Draw_Image_By_ID,lp
                        5096 <EXPANSION BEGIN>
                        5096 jarl22 _W_Draw_Image_By_ID , lp 
000014ca 80ff0000*      5096 <EXPANSION END>
000014ce f515*          5097 	br	.L5230
                        5098 .L5228:
                        5099 --1011:     }
                        5100 --1012:     else
                        5101 --1013:     {
                        5102 --1014:         W_Draw_Image_By_ID(PIC_ID_C_TRIP_L_0 + u8_num[0],245,231);
                        5103 --line1014
                        5104 ..lin.C.3A.5Cgit.5Crh850.5Csrc.5Capp.5Cgfx_apps.5Csimple_draw.5Ctarget.5Cd1mx_mango_ghs.5Cobj.5Cw_mag.269::
                        5105 .LDWlin269:
000014d0 830f0300       5106 	ld.bu	2[sp],r1
000014d4 203ef500       5107 	movea	245,zero,r7
000014d8 2046e700       5108 	movea	231,zero,r8
000014dc 0136c600       5109 	addi	198,r1,r6
000014e0 c600           5110 	zxh	r6
                        5111 	jarl	_W_Draw_Image_By_ID,lp
                        5111 <EXPANSION BEGIN>
                        5111 jarl22 _W_Draw_Image_By_ID , lp 
000014e2 80ff0000*      5111 <EXPANSION END>
                        5112 --1015:         W_Draw_Image_By_ID(PIC_ID_C_TRIP_L_0 + u8_num[1],261,231);
                        5113 --line1015
                        5114 ..lin.C.3A.5Cgit.5Crh850.5Csrc.5Capp.5Cgfx_apps.5Csimple_draw.5Ctarget.5Cd1mx_mango_ghs.5Cobj.5Cw_mag.270::
                        5115 .LDWlin270:
000014e6 a30f0300       5116 	ld.bu	3[sp],r1
000014ea 203e0501       5117 	movea	261,zero,r7

                                                                      Page 95
                                                              C:\Users\Frank\AppData\Local\Temp\gh_0000p3g1.si
000014ee 2046e700       5118 	movea	231,zero,r8
000014f2 0136c600       5119 	addi	198,r1,r6
000014f6 c600           5120 	zxh	r6
                        5121 	jarl	_W_Draw_Image_By_ID,lp
                        5121 <EXPANSION BEGIN>
                        5121 jarl22 _W_Draw_Image_By_ID , lp 
000014f8 80ff0000*      5121 <EXPANSION END>
                        5122 .L5230:
                        5123 --1016:     }
                        5124 --1017: }
                        5125 --	    .ef
                        5126 .LDW302:
                        5127 --line1017
                        5128 ..lin.C.3A.5Cgit.5Crh850.5Csrc.5Capp.5Cgfx_apps.5Csimple_draw.5Ctarget.5Cd1mx_mango_ghs.5Cobj.5Cw_mag.271::
                        5129 .LDWlin271:
000014fc 42067f00       5130 	dispose	1,{r29,r31},[lp]
                        5131 	.type	_W_Cluster_TripA_MIN,@function
                        5132 	.size	_W_Cluster_TripA_MIN,.-_W_Cluster_TripA_MIN
                        5133 	.align	2
                        5134 .LDW402:
                        5135 --_u8_num	2[sp]	local
                        5136 
                        5137 --_min	r29	param
                        5138 
                        5139 	.section ".bss","awb"
                        5140 .L5270:
                        5141 	.type	.L5270,@object
                        5142 	.size	.L5270,0
                        5143 	.data
                        5144 	.text
                        5145 
                        5146 
                        5147 --1018: //----------------------------------------------------------------------------------------------------------------------------
                        5148 --1019: void W_Cluster_TripA_Whkm(uint16_t u16_capacity, uint16_t u16_distance)
                        5149 	.align	2
                        5150 	.align	2
                        5151 	.global	_W_Cluster_TripA_Whkm
                        5152 _W_Cluster_TripA_Whkm:
00001500 8207e110       5153 	prepare	{r27,r28,r29,r31},1
00001504 c6deffff       5154 	andi	65535,r6,r27
00001508 c7e6ffff       5155 	andi	65535,r7,r28
                        5156 --	    .bf
                        5157 .LDW502:
                        5158 --1020: {
                        5159 --1021:     uint32_t u32_wh_d_km = 0;
0000150c 00ea           5160 	mov	0,r29
                        5161 --1022:     uint8_t u8_num[3];
                        5162 --1023:     if(u16_distance == 0)
0000150e e0e1           5163 	cmp	zero,r28
00001510 ba05*          5164 	bne	.L5302
                        5165 --1024:     {
                        5166 --1025:         u32_wh_d_km = 0;
                        5167 --line1025
                        5168 ..lin.C.3A.5Cgit.5Crh850.5Csrc.5Capp.5Cgfx_apps.5Csimple_draw.5Ctarget.5Cd1mx_mango_ghs.5Cobj.5Cw_mag.272::
                        5169 .LDWlin272:
00001512 00ea           5170 	mov	0,r29
00001514 950d*          5171 	br	.L5304
                        5172 .L5302:
                        5173 --1026:     }
                        5174 --1027:     else
                        5175 --1028:     {

                                                                      Page 96
                                                              C:\Users\Frank\AppData\Local\Temp\gh_0000p3g1.si
                        5176 --1029:         u32_wh_d_km = (uint32_t) (u16_capacity / u16_distance) * 1000;
                        5177 --line1029
                        5178 ..lin.C.3A.5Cgit.5Crh850.5Csrc.5Capp.5Cgfx_apps.5Csimple_draw.5Ctarget.5Cd1mx_mango_ghs.5Cobj.5Cw_mag.273::
                        5179 .LDWlin273:
00001516 1b08           5180 	mov	r27,r1
00001518 2076e803       5181 	movea	1000,zero,r14
0000151c fc0ffc02       5182 	divq	r28,r1,zero
00001520 e1772202       5183 	mulu	r1,r14,zero
00001524 0ee8           5184 	mov	r14,r29
                        5185 .L5304:
                        5186 --1030:     }
                        5187 --1031:     if(u32_wh_d_km >= 1000)
00001526 1d0618fc       5188 	addi	-1000,r29,zero
0000152a c92d*          5189 	bnl	.L5305
                        5190 --1032:     {
                        5191 --1033:         u8_num[0] = 9;
                        5192 --line1033
                        5193 ..lin.C.3A.5Cgit.5Crh850.5Csrc.5Capp.5Cgfx_apps.5Csimple_draw.5Ctarget.5Cd1mx_mango_ghs.5Cobj.5Cw_mag.274::
                        5194 .LDWlin274:
0000152c 090a           5195 	mov	9,r1
0000152e 430f0100       5196 	st.b	r1,1[sp]
                        5197 --1034:         u8_num[1] = 9;
00001532 090a           5198 	mov	9,r1
00001534 430f0200       5199 	st.b	r1,2[sp]
                        5200 --1035:         u8_num[2] = 9;
00001538 090a           5201 	mov	9,r1
0000153a 430f0300       5202 	st.b	r1,3[sp]
                        5203 --1036:         W_Draw_Image_By_ID(PIC_ID_C_TRIP_L_0 + u8_num[0],321,231);
0000153e a30f0100       5204 	ld.bu	1[sp],r1
00001542 203e4101       5205 	movea	321,zero,r7
00001546 2046e700       5206 	movea	231,zero,r8
0000154a 0136c600       5207 	addi	198,r1,r6
0000154e c600           5208 	zxh	r6
                        5209 	jarl	_W_Draw_Image_By_ID,lp
                        5209 <EXPANSION BEGIN>
                        5209 jarl22 _W_Draw_Image_By_ID , lp 
00001550 80ff0000*      5209 <EXPANSION END>
                        5210 --1037:         W_Draw_Image_By_ID(PIC_ID_C_TRIP_L_0 + u8_num[1],337,231);
                        5211 --line1037
                        5212 ..lin.C.3A.5Cgit.5Crh850.5Csrc.5Capp.5Cgfx_apps.5Csimple_draw.5Ctarget.5Cd1mx_mango_ghs.5Cobj.5Cw_mag.275::
                        5213 .LDWlin275:
00001554 830f0300       5214 	ld.bu	2[sp],r1
00001558 203e5101       5215 	movea	337,zero,r7
0000155c 2046e700       5216 	movea	231,zero,r8
00001560 0136c600       5217 	addi	198,r1,r6
00001564 c600           5218 	zxh	r6
                        5219 	jarl	_W_Draw_Image_By_ID,lp
                        5219 <EXPANSION BEGIN>
                        5219 jarl22 _W_Draw_Image_By_ID , lp 
00001566 80ff0000*      5219 <EXPANSION END>
                        5220 --1038:         W_Draw_Image_By_ID(PIC_ID_C_TRIP_L_0 + u8_num[2],353,231);
                        5221 --line1038
                        5222 ..lin.C.3A.5Cgit.5Crh850.5Csrc.5Capp.5Cgfx_apps.5Csimple_draw.5Ctarget.5Cd1mx_mango_ghs.5Cobj.5Cw_mag.276::
                        5223 .LDWlin276:
0000156a a30f0300       5224 	ld.bu	3[sp],r1
0000156e 203e6101       5225 	movea	353,zero,r7
00001572 2046e700       5226 	movea	231,zero,r8
00001576 0136c600       5227 	addi	198,r1,r6
0000157a c600           5228 	zxh	r6
                        5229 	jarl	_W_Draw_Image_By_ID,lp
                        5229 <EXPANSION BEGIN>

                                                                      Page 97
                                                              C:\Users\Frank\AppData\Local\Temp\gh_0000p3g1.si
                        5229 jarl22 _W_Draw_Image_By_ID , lp 
0000157c 80ff0000*      5229 <EXPANSION END>
00001580 f57d*          5230 	br	.L5307
                        5231 .L5305:
                        5232 --1039:     }
                        5233 --1040:     else if(u32_wh_d_km >= 100)
                        5234 --line1040
                        5235 ..lin.C.3A.5Cgit.5Crh850.5Csrc.5Capp.5Cgfx_apps.5Csimple_draw.5Ctarget.5Cd1mx_mango_ghs.5Cobj.5Cw_mag.277::
                        5236 .LDWlin277:
00001582 1d069cff       5237 	addi	-100,r29,zero
00001586 f93d*          5238 	bnl	.L5308
                        5239 --1041:     {
                        5240 --1042:         u8_num[0] = (uint8_t)(u32_wh_d_km / 100);
                        5241 --line1042
                        5242 ..lin.C.3A.5Cgit.5Crh850.5Csrc.5Capp.5Cgfx_apps.5Csimple_draw.5Ctarget.5Cd1mx_mango_ghs.5Cobj.5Cw_mag.278::
                        5243 .LDWlin278:
00001588 2c061f85eb51   5244 	mov	1374389535,r12
0000158e fd67226a       5245 	mulu	r29,r12,r13
00001592 0d08           5246 	mov	r13,r1
00001594 850a           5247 	shr	5,r1
00001596 430f0100       5248 	st.b	r1,1[sp]
                        5249 --1043:         u8_num[1] = (uint8_t)((u32_wh_d_km / 10) % 10);
0000159a 2106cdcccccc   5250 	mov	-858993459,r1
000015a0 0160           5251 	mov	r1,r12
000015a2 0a72           5252 	mov	10,r14
000015a4 fd67226a       5253 	mulu	r29,r12,r13
000015a8 0d08           5254 	mov	r13,r1
000015aa 830a           5255 	shr	3,r1
000015ac ee0ffe0a       5256 	divqu	r14,r1,r1
000015b0 430f0200       5257 	st.b	r1,2[sp]
                        5258 --1044:         u8_num[2] = (uint8_t)(u32_wh_d_km % 10);
000015b4 1d08           5259 	mov	r29,r1
000015b6 0a72           5260 	mov	10,r14
000015b8 ee0ffe0a       5261 	divqu	r14,r1,r1
000015bc 430f0300       5262 	st.b	r1,3[sp]
                        5263 --1045:         W_Draw_Image_By_ID(PIC_ID_C_TRIP_L_0 + u8_num[0],321,231);
000015c0 a30f0100       5264 	ld.bu	1[sp],r1
000015c4 203e4101       5265 	movea	321,zero,r7
000015c8 2046e700       5266 	movea	231,zero,r8
000015cc 0136c600       5267 	addi	198,r1,r6
000015d0 c600           5268 	zxh	r6
                        5269 	jarl	_W_Draw_Image_By_ID,lp
                        5269 <EXPANSION BEGIN>
                        5269 jarl22 _W_Draw_Image_By_ID , lp 
000015d2 80ff0000*      5269 <EXPANSION END>
                        5270 --1046:         W_Draw_Image_By_ID(PIC_ID_C_TRIP_L_0 + u8_num[1],337,231);
                        5271 --line1046
                        5272 ..lin.C.3A.5Cgit.5Crh850.5Csrc.5Capp.5Cgfx_apps.5Csimple_draw.5Ctarget.5Cd1mx_mango_ghs.5Cobj.5Cw_mag.279::
                        5273 .LDWlin279:
000015d6 830f0300       5274 	ld.bu	2[sp],r1
000015da 203e5101       5275 	movea	337,zero,r7
000015de 2046e700       5276 	movea	231,zero,r8
000015e2 0136c600       5277 	addi	198,r1,r6
000015e6 c600           5278 	zxh	r6
                        5279 	jarl	_W_Draw_Image_By_ID,lp
                        5279 <EXPANSION BEGIN>
                        5279 jarl22 _W_Draw_Image_By_ID , lp 
000015e8 80ff0000*      5279 <EXPANSION END>
                        5280 --1047:         W_Draw_Image_By_ID(PIC_ID_C_TRIP_L_0 + u8_num[2],353,231);
                        5281 --line1047
                        5282 ..lin.C.3A.5Cgit.5Crh850.5Csrc.5Capp.5Cgfx_apps.5Csimple_draw.5Ctarget.5Cd1mx_mango_ghs.5Cobj.5Cw_mag.280::

                                                                      Page 98
                                                              C:\Users\Frank\AppData\Local\Temp\gh_0000p3g1.si
                        5283 .LDWlin280:
000015ec a30f0300       5284 	ld.bu	3[sp],r1
000015f0 203e6101       5285 	movea	353,zero,r7
000015f4 2046e700       5286 	movea	231,zero,r8
000015f8 0136c600       5287 	addi	198,r1,r6
000015fc c600           5288 	zxh	r6
                        5289 	jarl	_W_Draw_Image_By_ID,lp
                        5289 <EXPANSION BEGIN>
                        5289 jarl22 _W_Draw_Image_By_ID , lp 
000015fe 80ff0000*      5289 <EXPANSION END>
00001602 e53d*          5290 	br	.L5307
                        5291 .L5308:
                        5292 --1048:     }
                        5293 --1049:     else if(u32_wh_d_km < 10)
                        5294 --line1049
                        5295 ..lin.C.3A.5Cgit.5Crh850.5Csrc.5Capp.5Cgfx_apps.5Csimple_draw.5Ctarget.5Cd1mx_mango_ghs.5Cobj.5Cw_mag.281::
                        5296 .LDWlin281:
00001604 6aea           5297 	cmp	10,r29
00001606 b915*          5298 	bnl	.L5311
                        5299 --1050:     {
                        5300 --1051:         u8_num[2] = (uint8_t)(u32_wh_d_km % 10);
                        5301 --line1051
                        5302 ..lin.C.3A.5Cgit.5Crh850.5Csrc.5Capp.5Cgfx_apps.5Csimple_draw.5Ctarget.5Cd1mx_mango_ghs.5Cobj.5Cw_mag.282::
                        5303 .LDWlin282:
00001608 1d08           5304 	mov	r29,r1
0000160a 0a72           5305 	mov	10,r14
0000160c ee0ffe0a       5306 	divqu	r14,r1,r1
00001610 430f0300       5307 	st.b	r1,3[sp]
                        5308 --1052:         W_Draw_Image_By_ID(PIC_ID_C_TRIP_L_0 + u8_num[2],337,231);
00001614 a30f0300       5309 	ld.bu	3[sp],r1
00001618 203e5101       5310 	movea	337,zero,r7
0000161c 2046e700       5311 	movea	231,zero,r8
00001620 0136c600       5312 	addi	198,r1,r6
00001624 c600           5313 	zxh	r6
                        5314 	jarl	_W_Draw_Image_By_ID,lp
                        5314 <EXPANSION BEGIN>
                        5314 jarl22 _W_Draw_Image_By_ID , lp 
00001626 80ff0000*      5314 <EXPANSION END>
0000162a a52d*          5315 	br	.L5307
                        5316 .L5311:
                        5317 --1053:     }
                        5318 --1054:     else
                        5319 --1055:     {
                        5320 --1056:         u8_num[1] = (uint8_t)((u32_wh_d_km / 10) % 10);
                        5321 --line1056
                        5322 ..lin.C.3A.5Cgit.5Crh850.5Csrc.5Capp.5Cgfx_apps.5Csimple_draw.5Ctarget.5Cd1mx_mango_ghs.5Cobj.5Cw_mag.283::
                        5323 .LDWlin283:
0000162c 2106cdcccccc   5324 	mov	-858993459,r1
00001632 0160           5325 	mov	r1,r12
00001634 0a72           5326 	mov	10,r14
00001636 fd67226a       5327 	mulu	r29,r12,r13
0000163a 0d08           5328 	mov	r13,r1
0000163c 830a           5329 	shr	3,r1
0000163e ee0ffe0a       5330 	divqu	r14,r1,r1
00001642 430f0200       5331 	st.b	r1,2[sp]
                        5332 --1057:         u8_num[2] = (uint8_t)(u32_wh_d_km % 10);
00001646 1d08           5333 	mov	r29,r1
00001648 0a72           5334 	mov	10,r14
0000164a ee0ffe0a       5335 	divqu	r14,r1,r1
0000164e 430f0300       5336 	st.b	r1,3[sp]
                        5337 --1058:         W_Draw_Image_By_ID(PIC_ID_C_TRIP_L_0 + u8_num[1],329,231);

                                                                      Page 99
                                                              C:\Users\Frank\AppData\Local\Temp\gh_0000p3g1.si
00001652 830f0300       5338 	ld.bu	2[sp],r1
00001656 203e4901       5339 	movea	329,zero,r7
0000165a 2046e700       5340 	movea	231,zero,r8
0000165e 0136c600       5341 	addi	198,r1,r6
00001662 c600           5342 	zxh	r6
                        5343 	jarl	_W_Draw_Image_By_ID,lp
                        5343 <EXPANSION BEGIN>
                        5343 jarl22 _W_Draw_Image_By_ID , lp 
00001664 80ff0000*      5343 <EXPANSION END>
                        5344 --1059:         W_Draw_Image_By_ID(PIC_ID_C_TRIP_L_0 + u8_num[2],345,231);
                        5345 --line1059
                        5346 ..lin.C.3A.5Cgit.5Crh850.5Csrc.5Capp.5Cgfx_apps.5Csimple_draw.5Ctarget.5Cd1mx_mango_ghs.5Cobj.5Cw_mag.284::
                        5347 .LDWlin284:
00001668 a30f0300       5348 	ld.bu	3[sp],r1
0000166c 203e5901       5349 	movea	345,zero,r7
00001670 2046e700       5350 	movea	231,zero,r8
00001674 0136c600       5351 	addi	198,r1,r6
00001678 c600           5352 	zxh	r6
                        5353 	jarl	_W_Draw_Image_By_ID,lp
                        5353 <EXPANSION BEGIN>
                        5353 jarl22 _W_Draw_Image_By_ID , lp 
0000167a 80ff0000*      5353 <EXPANSION END>
                        5354 .L5307:
                        5355 --1060:     }
                        5356 --1061: }
                        5357 --	    .ef
                        5358 .LDW602:
                        5359 --line1061
                        5360 ..lin.C.3A.5Cgit.5Crh850.5Csrc.5Capp.5Cgfx_apps.5Csimple_draw.5Ctarget.5Cd1mx_mango_ghs.5Cobj.5Cw_mag.285::
                        5361 .LDWlin285:
0000167e 4206ff10       5362 	dispose	1,{r27,r28,r29,r31},[lp]
                        5363 	.type	_W_Cluster_TripA_Whkm,@function
                        5364 	.size	_W_Cluster_TripA_Whkm,.-_W_Cluster_TripA_Whkm
                        5365 	.align	2
                        5366 .LDW702:
                        5367 --_u32_wh_d_km	r29	local
                        5368 --_u8_num	1[sp]	local
                        5369 
                        5370 --_u16_capacity	r27	param
                        5371 --_u16_distance	r28	param
                        5372 
                        5373 	.section ".bss","awb"
                        5374 .L5442:
                        5375 	.type	.L5442,@object
                        5376 	.size	.L5442,0
                        5377 	.data
                        5378 	.text
                        5379 
                        5380 
                        5381 --1062: //----------------------------------------------------------------------------------------------------------------------------
                        5382 --1063: void W_Cluster_TripB_KM(uint16_t u16_distance)
                        5383 	.align	2
                        5384 	.align	2
                        5385 	.global	_W_Cluster_TripB_KM
                        5386 _W_Cluster_TripB_KM:
00001682 8207e110       5387 	prepare	{r27,r28,r29,r31},1
00001686 c6deffff       5388 	andi	65535,r6,r27
                        5389 --	    .bf
                        5390 .LDW802:
                        5391 --1064: {
                        5392 --1065:     uint16_t u16_digi,u16_deci;

                                                                      Page 100
                                                              C:\Users\Frank\AppData\Local\Temp\gh_0000p3g1.si
                        5393 --1066:     uint8_t u8_num[4];
                        5394 --1067:     u16_digi = (u16_distance / 100) % 1000;
0000168a 2b061f85eb51   5395 	mov	1374389535,r11
00001690 1b60           5396 	mov	r27,r12
00001692 1b70           5397 	mov	r27,r14
00001694 eb67206a       5398 	mul	r11,r12,r13
00001698 bf72           5399 	sar	31,r14
0000169a a56a           5400 	sar	5,r13
0000169c ae69           5401 	sub	r14,r13
0000169e 2076e803       5402 	movea	1000,zero,r14
000016a2 ee6ffcea       5403 	divq	r14,r13,r29
000016a6 dd00           5404 	zxh	r29
                        5405 --1068:     u16_deci = (u16_distance % 100);
000016a8 1b08           5406 	mov	r27,r1
000016aa 20766400       5407 	movea	100,zero,r14
000016ae ee0ffce2       5408 	divq	r14,r1,r28
000016b2 dc00           5409 	zxh	r28
                        5410 --1069:     u8_num[0] = (uint8_t)(u16_digi / 100);
000016b4 2b061f85eb51   5411 	mov	1374389535,r11
000016ba 1d60           5412 	mov	r29,r12
000016bc 1d70           5413 	mov	r29,r14
000016be eb67206a       5414 	mul	r11,r12,r13
000016c2 bf72           5415 	sar	31,r14
000016c4 0d08           5416 	mov	r13,r1
000016c6 a50a           5417 	sar	5,r1
000016c8 ae09           5418 	sub	r14,r1
000016ca 430f0000       5419 	st.b	r1,0[sp]
                        5420 --1070:     u8_num[1] = (uint8_t)((u16_digi / 10) % 10);
000016ce 2b0667666666   5421 	mov	1717986919,r11
000016d4 1d60           5422 	mov	r29,r12
000016d6 1d70           5423 	mov	r29,r14
000016d8 eb67206a       5424 	mul	r11,r12,r13
000016dc bf72           5425 	sar	31,r14
000016de 0d08           5426 	mov	r13,r1
000016e0 a20a           5427 	sar	2,r1
000016e2 ae09           5428 	sub	r14,r1
000016e4 0a72           5429 	mov	10,r14
000016e6 ee0ffc0a       5430 	divq	r14,r1,r1
000016ea 430f0100       5431 	st.b	r1,1[sp]
                        5432 --1071:     u8_num[2] = (uint8_t)(u16_digi % 10);
000016ee 1d08           5433 	mov	r29,r1
000016f0 0a72           5434 	mov	10,r14
000016f2 ee0ffc0a       5435 	divq	r14,r1,r1
000016f6 430f0200       5436 	st.b	r1,2[sp]
                        5437 --1072:     u8_num[3] = (uint8_t)(u16_deci / 10);
000016fa 2b0667666666   5438 	mov	1717986919,r11
00001700 1c60           5439 	mov	r28,r12
00001702 1c70           5440 	mov	r28,r14
00001704 eb67206a       5441 	mul	r11,r12,r13
00001708 bf72           5442 	sar	31,r14
0000170a 0d08           5443 	mov	r13,r1
0000170c a20a           5444 	sar	2,r1
0000170e ae09           5445 	sub	r14,r1
00001710 430f0300       5446 	st.b	r1,3[sp]
                        5447 --1073:     if(u16_digi >= 100)
00001714 1d069cff       5448 	addi	-100,r29,zero
00001718 b925*          5449 	bnl	.L5531
                        5450 --1074:     {
                        5451 --1075:         W_Draw_Image_By_ID(PIC_ID_C_TRIP_L_0 + u8_num[0],158,312);
                        5452 --line1075
                        5453 ..lin.C.3A.5Cgit.5Crh850.5Csrc.5Capp.5Cgfx_apps.5Csimple_draw.5Ctarget.5Cd1mx_mango_ghs.5Cobj.5Cw_mag.286::

                                                                      Page 101
                                                              C:\Users\Frank\AppData\Local\Temp\gh_0000p3g1.si
                        5454 .LDWlin286:
0000171a 830f0100       5455 	ld.bu	0[sp],r1
0000171e 203e9e00       5456 	movea	158,zero,r7
00001722 20463801       5457 	movea	312,zero,r8
00001726 0136c600       5458 	addi	198,r1,r6
0000172a c600           5459 	zxh	r6
                        5460 	jarl	_W_Draw_Image_By_ID,lp
                        5460 <EXPANSION BEGIN>
                        5460 jarl22 _W_Draw_Image_By_ID , lp 
0000172c 80ff0000*      5460 <EXPANSION END>
                        5461 --1076:         W_Draw_Image_By_ID(PIC_ID_C_TRIP_L_0 + u8_num[1],174,312);
                        5462 --line1076
                        5463 ..lin.C.3A.5Cgit.5Crh850.5Csrc.5Capp.5Cgfx_apps.5Csimple_draw.5Ctarget.5Cd1mx_mango_ghs.5Cobj.5Cw_mag.287::
                        5464 .LDWlin287:
00001730 a30f0100       5465 	ld.bu	1[sp],r1
00001734 203eae00       5466 	movea	174,zero,r7
00001738 20463801       5467 	movea	312,zero,r8
0000173c 0136c600       5468 	addi	198,r1,r6
00001740 c600           5469 	zxh	r6
                        5470 	jarl	_W_Draw_Image_By_ID,lp
                        5470 <EXPANSION BEGIN>
                        5470 jarl22 _W_Draw_Image_By_ID , lp 
00001742 80ff0000*      5470 <EXPANSION END>
                        5471 --1077:         W_Draw_Image_By_ID(PIC_ID_C_TRIP_L_0 + u8_num[2],190,312);
                        5472 --line1077
                        5473 ..lin.C.3A.5Cgit.5Crh850.5Csrc.5Capp.5Cgfx_apps.5Csimple_draw.5Ctarget.5Cd1mx_mango_ghs.5Cobj.5Cw_mag.288::
                        5474 .LDWlin288:
00001746 830f0300       5475 	ld.bu	2[sp],r1
0000174a 203ebe00       5476 	movea	190,zero,r7
0000174e 20463801       5477 	movea	312,zero,r8
00001752 0136c600       5478 	addi	198,r1,r6
00001756 c600           5479 	zxh	r6
                        5480 	jarl	_W_Draw_Image_By_ID,lp
                        5480 <EXPANSION BEGIN>
                        5480 jarl22 _W_Draw_Image_By_ID , lp 
00001758 80ff0000*      5480 <EXPANSION END>
0000175c 853d*          5481 	br	.L5533
                        5482 .L5531:
                        5483 --1078:     }
                        5484 --1079:     else if (u16_digi < 10)
                        5485 --line1079
                        5486 ..lin.C.3A.5Cgit.5Crh850.5Csrc.5Capp.5Cgfx_apps.5Csimple_draw.5Ctarget.5Cd1mx_mango_ghs.5Cobj.5Cw_mag.289::
                        5487 .LDWlin289:
0000175e 6aea           5488 	cmp	10,r29
00001760 8925*          5489 	bnl	.L5534
                        5490 --1080:     {
                        5491 --1081:         W_Draw_Image_By_ID(PIC_ID_C_TRIP_L_0 + u8_num[2],158,312);
                        5492 --line1081
                        5493 ..lin.C.3A.5Cgit.5Crh850.5Csrc.5Capp.5Cgfx_apps.5Csimple_draw.5Ctarget.5Cd1mx_mango_ghs.5Cobj.5Cw_mag.290::
                        5494 .LDWlin290:
00001762 830f0300       5495 	ld.bu	2[sp],r1
00001766 203e9e00       5496 	movea	158,zero,r7
0000176a 20463801       5497 	movea	312,zero,r8
0000176e 0136c600       5498 	addi	198,r1,r6
00001772 c600           5499 	zxh	r6
                        5500 	jarl	_W_Draw_Image_By_ID,lp
                        5500 <EXPANSION BEGIN>
                        5500 jarl22 _W_Draw_Image_By_ID , lp 
00001774 80ff0000*      5500 <EXPANSION END>
                        5501 --1082:         W_Draw_Image_By_ID(PIC_ID_C_TRIP_L_POINT,        174,312);
                        5502 --line1082

                                                                      Page 102
                                                              C:\Users\Frank\AppData\Local\Temp\gh_0000p3g1.si
                        5503 ..lin.C.3A.5Cgit.5Crh850.5Csrc.5Capp.5Cgfx_apps.5Csimple_draw.5Ctarget.5Cd1mx_mango_ghs.5Cobj.5Cw_mag.291::
                        5504 .LDWlin291:
00001778 2036d100       5505 	movea	209,zero,r6
0000177c 203eae00       5506 	movea	174,zero,r7
00001780 20463801       5507 	movea	312,zero,r8
                        5508 	jarl	_W_Draw_Image_By_ID,lp
                        5508 <EXPANSION BEGIN>
                        5508 jarl22 _W_Draw_Image_By_ID , lp 
00001784 80ff0000*      5508 <EXPANSION END>
                        5509 --1083:         W_Draw_Image_By_ID(PIC_ID_C_TRIP_L_0 + u8_num[3],182,312);
                        5510 --line1083
                        5511 ..lin.C.3A.5Cgit.5Crh850.5Csrc.5Capp.5Cgfx_apps.5Csimple_draw.5Ctarget.5Cd1mx_mango_ghs.5Cobj.5Cw_mag.292::
                        5512 .LDWlin292:
00001788 a30f0300       5513 	ld.bu	3[sp],r1
0000178c 203eb600       5514 	movea	182,zero,r7
00001790 20463801       5515 	movea	312,zero,r8
00001794 0136c600       5516 	addi	198,r1,r6
00001798 c600           5517 	zxh	r6
                        5518 	jarl	_W_Draw_Image_By_ID,lp
                        5518 <EXPANSION BEGIN>
                        5518 jarl22 _W_Draw_Image_By_ID , lp 
0000179a 80ff0000*      5518 <EXPANSION END>
0000179e f515*          5519 	br	.L5533
                        5520 .L5534:
                        5521 --1084:     }
                        5522 --1085:     else
                        5523 --1086:     {
                        5524 --1087:         W_Draw_Image_By_ID(PIC_ID_C_TRIP_L_0 + u8_num[1],164,312);
                        5525 --line1087
                        5526 ..lin.C.3A.5Cgit.5Crh850.5Csrc.5Capp.5Cgfx_apps.5Csimple_draw.5Ctarget.5Cd1mx_mango_ghs.5Cobj.5Cw_mag.293::
                        5527 .LDWlin293:
000017a0 a30f0100       5528 	ld.bu	1[sp],r1
000017a4 203ea400       5529 	movea	164,zero,r7
000017a8 20463801       5530 	movea	312,zero,r8
000017ac 0136c600       5531 	addi	198,r1,r6
000017b0 c600           5532 	zxh	r6
                        5533 	jarl	_W_Draw_Image_By_ID,lp
                        5533 <EXPANSION BEGIN>
                        5533 jarl22 _W_Draw_Image_By_ID , lp 
000017b2 80ff0000*      5533 <EXPANSION END>
                        5534 --1088:         W_Draw_Image_By_ID(PIC_ID_C_TRIP_L_0 + u8_num[2],180,312);
                        5535 --line1088
                        5536 ..lin.C.3A.5Cgit.5Crh850.5Csrc.5Capp.5Cgfx_apps.5Csimple_draw.5Ctarget.5Cd1mx_mango_ghs.5Cobj.5Cw_mag.294::
                        5537 .LDWlin294:
000017b6 830f0300       5538 	ld.bu	2[sp],r1
000017ba 203eb400       5539 	movea	180,zero,r7
000017be 20463801       5540 	movea	312,zero,r8
000017c2 0136c600       5541 	addi	198,r1,r6
000017c6 c600           5542 	zxh	r6
                        5543 	jarl	_W_Draw_Image_By_ID,lp
                        5543 <EXPANSION BEGIN>
                        5543 jarl22 _W_Draw_Image_By_ID , lp 
000017c8 80ff0000*      5543 <EXPANSION END>
                        5544 .L5533:
                        5545 --1089:     }
                        5546 --1091: }
                        5547 --	    .ef
                        5548 .LDW902:
                        5549 --line1091
                        5550 ..lin.C.3A.5Cgit.5Crh850.5Csrc.5Capp.5Cgfx_apps.5Csimple_draw.5Ctarget.5Cd1mx_mango_ghs.5Cobj.5Cw_mag.295::
                        5551 .LDWlin295:

                                                                      Page 103
                                                              C:\Users\Frank\AppData\Local\Temp\gh_0000p3g1.si
000017cc 4206ff10       5552 	dispose	1,{r27,r28,r29,r31},[lp]
                        5553 	.type	_W_Cluster_TripB_KM,@function
                        5554 	.size	_W_Cluster_TripB_KM,.-_W_Cluster_TripB_KM
                        5555 	.align	2
                        5556 .LDW012:
                        5557 --_u16_digi	r29	local
                        5558 --_u16_deci	r28	local
                        5559 --_u8_num	0[sp]	local
                        5560 
                        5561 --_u16_distance	r27	param
                        5562 
                        5563 	.section ".bss","awb"
                        5564 .L5614:
                        5565 	.type	.L5614,@object
                        5566 	.size	.L5614,0
                        5567 	.data
                        5568 	.text
                        5569 
                        5570 
                        5571 --1092: //----------------------------------------------------------------------------------------------------------------------------
                        5572 --1093: void W_Cluster_TripB_kWh(uint16_t u16_capacity)
                        5573 	.align	2
                        5574 	.align	2
                        5575 	.global	_W_Cluster_TripB_kWh
                        5576 _W_Cluster_TripB_kWh:
000017d0 8207e110       5577 	prepare	{r27,r28,r29,r31},1
000017d4 c6deffff       5578 	andi	65535,r6,r27
                        5579 --	    .bf
                        5580 .LDW112:
                        5581 --1094: {
                        5582 --1095:     uint16_t u16_digi,u16_deci;
                        5583 --1096:     uint8_t u8_num[4];
                        5584 --1097:     u16_digi = (u16_capacity / 100) % 1000;
000017d8 2b061f85eb51   5585 	mov	1374389535,r11
000017de 1b60           5586 	mov	r27,r12
000017e0 1b70           5587 	mov	r27,r14
000017e2 eb67206a       5588 	mul	r11,r12,r13
000017e6 bf72           5589 	sar	31,r14
000017e8 a56a           5590 	sar	5,r13
000017ea ae69           5591 	sub	r14,r13
000017ec 2076e803       5592 	movea	1000,zero,r14
000017f0 ee6ffcea       5593 	divq	r14,r13,r29
000017f4 dd00           5594 	zxh	r29
                        5595 --1098:     u16_deci = (u16_capacity % 100);
000017f6 1b08           5596 	mov	r27,r1
000017f8 20766400       5597 	movea	100,zero,r14
000017fc ee0ffce2       5598 	divq	r14,r1,r28
00001800 dc00           5599 	zxh	r28
                        5600 --1099:     u8_num[0] = (uint8_t)(u16_digi / 100);
00001802 2b061f85eb51   5601 	mov	1374389535,r11
00001808 1d60           5602 	mov	r29,r12
0000180a 1d70           5603 	mov	r29,r14
0000180c eb67206a       5604 	mul	r11,r12,r13
00001810 bf72           5605 	sar	31,r14
00001812 0d08           5606 	mov	r13,r1
00001814 a50a           5607 	sar	5,r1
00001816 ae09           5608 	sub	r14,r1
00001818 430f0000       5609 	st.b	r1,0[sp]
                        5610 --1100:     u8_num[1] = (uint8_t)((u16_digi / 10) % 10);
0000181c 2b0667666666   5611 	mov	1717986919,r11
00001822 1d60           5612 	mov	r29,r12

                                                                      Page 104
                                                              C:\Users\Frank\AppData\Local\Temp\gh_0000p3g1.si
00001824 1d70           5613 	mov	r29,r14
00001826 eb67206a       5614 	mul	r11,r12,r13
0000182a bf72           5615 	sar	31,r14
0000182c 0d08           5616 	mov	r13,r1
0000182e a20a           5617 	sar	2,r1
00001830 ae09           5618 	sub	r14,r1
00001832 0a72           5619 	mov	10,r14
00001834 ee0ffc0a       5620 	divq	r14,r1,r1
00001838 430f0100       5621 	st.b	r1,1[sp]
                        5622 --1101:     u8_num[2] = (uint8_t)(u16_digi % 10);
0000183c 1d08           5623 	mov	r29,r1
0000183e 0a72           5624 	mov	10,r14
00001840 ee0ffc0a       5625 	divq	r14,r1,r1
00001844 430f0200       5626 	st.b	r1,2[sp]
                        5627 --1102:     u8_num[3] = (uint8_t)(u16_deci / 10);
00001848 2b0667666666   5628 	mov	1717986919,r11
0000184e 1c60           5629 	mov	r28,r12
00001850 1c70           5630 	mov	r28,r14
00001852 eb67206a       5631 	mul	r11,r12,r13
00001856 bf72           5632 	sar	31,r14
00001858 0d08           5633 	mov	r13,r1
0000185a a20a           5634 	sar	2,r1
0000185c ae09           5635 	sub	r14,r1
0000185e 430f0300       5636 	st.b	r1,3[sp]
                        5637 --1103:     if(u16_digi >= 100)
00001862 1d069cff       5638 	addi	-100,r29,zero
00001866 b925*          5639 	bnl	.L5676
                        5640 --1104:     {
                        5641 --1105:         W_Draw_Image_By_ID(PIC_ID_C_TRIP_L_0 + u8_num[0],237,312);
                        5642 --line1105
                        5643 ..lin.C.3A.5Cgit.5Crh850.5Csrc.5Capp.5Cgfx_apps.5Csimple_draw.5Ctarget.5Cd1mx_mango_ghs.5Cobj.5Cw_mag.296::
                        5644 .LDWlin296:
00001868 830f0100       5645 	ld.bu	0[sp],r1
0000186c 203eed00       5646 	movea	237,zero,r7
00001870 20463801       5647 	movea	312,zero,r8
00001874 0136c600       5648 	addi	198,r1,r6
00001878 c600           5649 	zxh	r6
                        5650 	jarl	_W_Draw_Image_By_ID,lp
                        5650 <EXPANSION BEGIN>
                        5650 jarl22 _W_Draw_Image_By_ID , lp 
0000187a 80ff0000*      5650 <EXPANSION END>
                        5651 --1106:         W_Draw_Image_By_ID(PIC_ID_C_TRIP_L_0 + u8_num[1],253,312);
                        5652 --line1106
                        5653 ..lin.C.3A.5Cgit.5Crh850.5Csrc.5Capp.5Cgfx_apps.5Csimple_draw.5Ctarget.5Cd1mx_mango_ghs.5Cobj.5Cw_mag.297::
                        5654 .LDWlin297:
0000187e a30f0100       5655 	ld.bu	1[sp],r1
00001882 203efd00       5656 	movea	253,zero,r7
00001886 20463801       5657 	movea	312,zero,r8
0000188a 0136c600       5658 	addi	198,r1,r6
0000188e c600           5659 	zxh	r6
                        5660 	jarl	_W_Draw_Image_By_ID,lp
                        5660 <EXPANSION BEGIN>
                        5660 jarl22 _W_Draw_Image_By_ID , lp 
00001890 80ff0000*      5660 <EXPANSION END>
                        5661 --1107:         W_Draw_Image_By_ID(PIC_ID_C_TRIP_L_0 + u8_num[2],269,312);
                        5662 --line1107
                        5663 ..lin.C.3A.5Cgit.5Crh850.5Csrc.5Capp.5Cgfx_apps.5Csimple_draw.5Ctarget.5Cd1mx_mango_ghs.5Cobj.5Cw_mag.298::
                        5664 .LDWlin298:
00001894 830f0300       5665 	ld.bu	2[sp],r1
00001898 203e0d01       5666 	movea	269,zero,r7
0000189c 20463801       5667 	movea	312,zero,r8

                                                                      Page 105
                                                              C:\Users\Frank\AppData\Local\Temp\gh_0000p3g1.si
000018a0 0136c600       5668 	addi	198,r1,r6
000018a4 c600           5669 	zxh	r6
                        5670 	jarl	_W_Draw_Image_By_ID,lp
                        5670 <EXPANSION BEGIN>
                        5670 jarl22 _W_Draw_Image_By_ID , lp 
000018a6 80ff0000*      5670 <EXPANSION END>
000018aa 853d*          5671 	br	.L5678
                        5672 .L5676:
                        5673 --1108:     }
                        5674 --1109:     else if (u16_digi < 10)
                        5675 --line1109
                        5676 ..lin.C.3A.5Cgit.5Crh850.5Csrc.5Capp.5Cgfx_apps.5Csimple_draw.5Ctarget.5Cd1mx_mango_ghs.5Cobj.5Cw_mag.299::
                        5677 .LDWlin299:
000018ac 6aea           5678 	cmp	10,r29
000018ae 8925*          5679 	bnl	.L5679
                        5680 --1110:     {
                        5681 --1111:         W_Draw_Image_By_ID(PIC_ID_C_TRIP_L_0 + u8_num[2],237,312);
                        5682 --line1111
                        5683 ..lin.C.3A.5Cgit.5Crh850.5Csrc.5Capp.5Cgfx_apps.5Csimple_draw.5Ctarget.5Cd1mx_mango_ghs.5Cobj.5Cw_mag.300::
                        5684 .LDWlin300:
000018b0 830f0300       5685 	ld.bu	2[sp],r1
000018b4 203eed00       5686 	movea	237,zero,r7
000018b8 20463801       5687 	movea	312,zero,r8
000018bc 0136c600       5688 	addi	198,r1,r6
000018c0 c600           5689 	zxh	r6
                        5690 	jarl	_W_Draw_Image_By_ID,lp
                        5690 <EXPANSION BEGIN>
                        5690 jarl22 _W_Draw_Image_By_ID , lp 
000018c2 80ff0000*      5690 <EXPANSION END>
                        5691 --1112:         W_Draw_Image_By_ID(PIC_ID_C_TRIP_L_POINT,        253,312);
                        5692 --line1112
                        5693 ..lin.C.3A.5Cgit.5Crh850.5Csrc.5Capp.5Cgfx_apps.5Csimple_draw.5Ctarget.5Cd1mx_mango_ghs.5Cobj.5Cw_mag.301::
                        5694 .LDWlin301:
000018c6 2036d100       5695 	movea	209,zero,r6
000018ca 203efd00       5696 	movea	253,zero,r7
000018ce 20463801       5697 	movea	312,zero,r8
                        5698 	jarl	_W_Draw_Image_By_ID,lp
                        5698 <EXPANSION BEGIN>
                        5698 jarl22 _W_Draw_Image_By_ID , lp 
000018d2 80ff0000*      5698 <EXPANSION END>
                        5699 --1113:         W_Draw_Image_By_ID(PIC_ID_C_TRIP_L_0 + u8_num[3],261,312);
                        5700 --line1113
                        5701 ..lin.C.3A.5Cgit.5Crh850.5Csrc.5Capp.5Cgfx_apps.5Csimple_draw.5Ctarget.5Cd1mx_mango_ghs.5Cobj.5Cw_mag.302::
                        5702 .LDWlin302:
000018d6 a30f0300       5703 	ld.bu	3[sp],r1
000018da 203e0501       5704 	movea	261,zero,r7
000018de 20463801       5705 	movea	312,zero,r8
000018e2 0136c600       5706 	addi	198,r1,r6
000018e6 c600           5707 	zxh	r6
                        5708 	jarl	_W_Draw_Image_By_ID,lp
                        5708 <EXPANSION BEGIN>
                        5708 jarl22 _W_Draw_Image_By_ID , lp 
000018e8 80ff0000*      5708 <EXPANSION END>
000018ec f515*          5709 	br	.L5678
                        5710 .L5679:
                        5711 --1114:     }
                        5712 --1115:     else
                        5713 --1116:     {
                        5714 --1117:         W_Draw_Image_By_ID(PIC_ID_C_TRIP_L_0 + u8_num[1],245,312);
                        5715 --line1117
                        5716 ..lin.C.3A.5Cgit.5Crh850.5Csrc.5Capp.5Cgfx_apps.5Csimple_draw.5Ctarget.5Cd1mx_mango_ghs.5Cobj.5Cw_mag.303::

                                                                      Page 106
                                                              C:\Users\Frank\AppData\Local\Temp\gh_0000p3g1.si
                        5717 .LDWlin303:
000018ee a30f0100       5718 	ld.bu	1[sp],r1
000018f2 203ef500       5719 	movea	245,zero,r7
000018f6 20463801       5720 	movea	312,zero,r8
000018fa 0136c600       5721 	addi	198,r1,r6
000018fe c600           5722 	zxh	r6
                        5723 	jarl	_W_Draw_Image_By_ID,lp
                        5723 <EXPANSION BEGIN>
                        5723 jarl22 _W_Draw_Image_By_ID , lp 
00001900 80ff0000*      5723 <EXPANSION END>
                        5724 --1118:         W_Draw_Image_By_ID(PIC_ID_C_TRIP_L_0 + u8_num[2],261,312);
                        5725 --line1118
                        5726 ..lin.C.3A.5Cgit.5Crh850.5Csrc.5Capp.5Cgfx_apps.5Csimple_draw.5Ctarget.5Cd1mx_mango_ghs.5Cobj.5Cw_mag.304::
                        5727 .LDWlin304:
00001904 830f0300       5728 	ld.bu	2[sp],r1
00001908 203e0501       5729 	movea	261,zero,r7
0000190c 20463801       5730 	movea	312,zero,r8
00001910 0136c600       5731 	addi	198,r1,r6
00001914 c600           5732 	zxh	r6
                        5733 	jarl	_W_Draw_Image_By_ID,lp
                        5733 <EXPANSION BEGIN>
                        5733 jarl22 _W_Draw_Image_By_ID , lp 
00001916 80ff0000*      5733 <EXPANSION END>
                        5734 .L5678:
                        5735 --1119:     }
                        5736 --1120: }
                        5737 --	    .ef
                        5738 .LDW212:
                        5739 --line1120
                        5740 ..lin.C.3A.5Cgit.5Crh850.5Csrc.5Capp.5Cgfx_apps.5Csimple_draw.5Ctarget.5Cd1mx_mango_ghs.5Cobj.5Cw_mag.305::
                        5741 .LDWlin305:
0000191a 4206ff10       5742 	dispose	1,{r27,r28,r29,r31},[lp]
                        5743 	.type	_W_Cluster_TripB_kWh,@function
                        5744 	.size	_W_Cluster_TripB_kWh,.-_W_Cluster_TripB_kWh
                        5745 	.align	2
                        5746 .LDW312:
                        5747 --_u16_digi	r29	local
                        5748 --_u16_deci	r28	local
                        5749 --_u8_num	0[sp]	local
                        5750 
                        5751 --_u16_capacity	r27	param
                        5752 
                        5753 	.section ".bss","awb"
                        5754 .L5774:
                        5755 	.type	.L5774,@object
                        5756 	.size	.L5774,0
                        5757 	.data
                        5758 	.text
                        5759 
                        5760 
                        5761 --1121: //----------------------------------------------------------------------------------------------------------------------------
                        5762 --1122: void W_Cluster_TripB_Whkm(uint16_t u16_capacity, uint16_t u16_distance)
                        5763 	.align	2
                        5764 	.align	2
                        5765 	.global	_W_Cluster_TripB_Whkm
                        5766 _W_Cluster_TripB_Whkm:
0000191e 8207e110       5767 	prepare	{r27,r28,r29,r31},1
00001922 c6deffff       5768 	andi	65535,r6,r27
00001926 c7e6ffff       5769 	andi	65535,r7,r28
                        5770 --	    .bf
                        5771 .LDW412:

                                                                      Page 107
                                                              C:\Users\Frank\AppData\Local\Temp\gh_0000p3g1.si
                        5772 --1123: {
                        5773 --1124:     uint32_t u32_wh_d_km = 0;
0000192a 00ea           5774 	mov	0,r29
                        5775 --1125:     uint8_t u8_num[3];
                        5776 --1126:     if(u16_distance == 0)
0000192c e0e1           5777 	cmp	zero,r28
0000192e ba05*          5778 	bne	.L5836
                        5779 --1127:     {
                        5780 --1128:         u32_wh_d_km = 0;
                        5781 --line1128
                        5782 ..lin.C.3A.5Cgit.5Crh850.5Csrc.5Capp.5Cgfx_apps.5Csimple_draw.5Ctarget.5Cd1mx_mango_ghs.5Cobj.5Cw_mag.306::
                        5783 .LDWlin306:
00001930 00ea           5784 	mov	0,r29
00001932 950d*          5785 	br	.L5838
                        5786 .L5836:
                        5787 --1129:     }
                        5788 --1130:     else
                        5789 --1131:     {
                        5790 --1132:         u32_wh_d_km = (uint32_t) (u16_capacity / u16_distance) * 1000;
                        5791 --line1132
                        5792 ..lin.C.3A.5Cgit.5Crh850.5Csrc.5Capp.5Cgfx_apps.5Csimple_draw.5Ctarget.5Cd1mx_mango_ghs.5Cobj.5Cw_mag.307::
                        5793 .LDWlin307:
00001934 1b08           5794 	mov	r27,r1
00001936 2076e803       5795 	movea	1000,zero,r14
0000193a fc0ffc02       5796 	divq	r28,r1,zero
0000193e e1772202       5797 	mulu	r1,r14,zero
00001942 0ee8           5798 	mov	r14,r29
                        5799 .L5838:
                        5800 --1133:     }
                        5801 --1134:     if(u32_wh_d_km >= 1000)
00001944 1d0618fc       5802 	addi	-1000,r29,zero
00001948 c92d*          5803 	bnl	.L5839
                        5804 --1135:     {
                        5805 --1136:         u8_num[0] = 9;
                        5806 --line1136
                        5807 ..lin.C.3A.5Cgit.5Crh850.5Csrc.5Capp.5Cgfx_apps.5Csimple_draw.5Ctarget.5Cd1mx_mango_ghs.5Cobj.5Cw_mag.308::
                        5808 .LDWlin308:
0000194a 090a           5809 	mov	9,r1
0000194c 430f0100       5810 	st.b	r1,1[sp]
                        5811 --1137:         u8_num[1] = 9;
00001950 090a           5812 	mov	9,r1
00001952 430f0200       5813 	st.b	r1,2[sp]
                        5814 --1138:         u8_num[2] = 9;
00001956 090a           5815 	mov	9,r1
00001958 430f0300       5816 	st.b	r1,3[sp]
                        5817 --1139:         W_Draw_Image_By_ID(PIC_ID_C_TRIP_L_0 + u8_num[0],321,312);
0000195c a30f0100       5818 	ld.bu	1[sp],r1
00001960 203e4101       5819 	movea	321,zero,r7
00001964 20463801       5820 	movea	312,zero,r8
00001968 0136c600       5821 	addi	198,r1,r6
0000196c c600           5822 	zxh	r6
                        5823 	jarl	_W_Draw_Image_By_ID,lp
                        5823 <EXPANSION BEGIN>
                        5823 jarl22 _W_Draw_Image_By_ID , lp 
0000196e 80ff0000*      5823 <EXPANSION END>
                        5824 --1140:         W_Draw_Image_By_ID(PIC_ID_C_TRIP_L_0 + u8_num[1],337,312);
                        5825 --line1140
                        5826 ..lin.C.3A.5Cgit.5Crh850.5Csrc.5Capp.5Cgfx_apps.5Csimple_draw.5Ctarget.5Cd1mx_mango_ghs.5Cobj.5Cw_mag.309::
                        5827 .LDWlin309:
00001972 830f0300       5828 	ld.bu	2[sp],r1
00001976 203e5101       5829 	movea	337,zero,r7

                                                                      Page 108
                                                              C:\Users\Frank\AppData\Local\Temp\gh_0000p3g1.si
0000197a 20463801       5830 	movea	312,zero,r8
0000197e 0136c600       5831 	addi	198,r1,r6
00001982 c600           5832 	zxh	r6
                        5833 	jarl	_W_Draw_Image_By_ID,lp
                        5833 <EXPANSION BEGIN>
                        5833 jarl22 _W_Draw_Image_By_ID , lp 
00001984 80ff0000*      5833 <EXPANSION END>
                        5834 --1141:         W_Draw_Image_By_ID(PIC_ID_C_TRIP_L_0 + u8_num[2],353,312);
                        5835 --line1141
                        5836 ..lin.C.3A.5Cgit.5Crh850.5Csrc.5Capp.5Cgfx_apps.5Csimple_draw.5Ctarget.5Cd1mx_mango_ghs.5Cobj.5Cw_mag.310::
                        5837 .LDWlin310:
00001988 a30f0300       5838 	ld.bu	3[sp],r1
0000198c 203e6101       5839 	movea	353,zero,r7
00001990 20463801       5840 	movea	312,zero,r8
00001994 0136c600       5841 	addi	198,r1,r6
00001998 c600           5842 	zxh	r6
                        5843 	jarl	_W_Draw_Image_By_ID,lp
                        5843 <EXPANSION BEGIN>
                        5843 jarl22 _W_Draw_Image_By_ID , lp 
0000199a 80ff0000*      5843 <EXPANSION END>
0000199e f57d*          5844 	br	.L5841
                        5845 .L5839:
                        5846 --1142:     }
                        5847 --1143:     else if(u32_wh_d_km >= 100)
                        5848 --line1143
                        5849 ..lin.C.3A.5Cgit.5Crh850.5Csrc.5Capp.5Cgfx_apps.5Csimple_draw.5Ctarget.5Cd1mx_mango_ghs.5Cobj.5Cw_mag.311::
                        5850 .LDWlin311:
000019a0 1d069cff       5851 	addi	-100,r29,zero
000019a4 f93d*          5852 	bnl	.L5842
                        5853 --1144:     {
                        5854 --1145:         u8_num[0] = (uint8_t)(u32_wh_d_km / 100);
                        5855 --line1145
                        5856 ..lin.C.3A.5Cgit.5Crh850.5Csrc.5Capp.5Cgfx_apps.5Csimple_draw.5Ctarget.5Cd1mx_mango_ghs.5Cobj.5Cw_mag.312::
                        5857 .LDWlin312:
000019a6 2c061f85eb51   5858 	mov	1374389535,r12
000019ac fd67226a       5859 	mulu	r29,r12,r13
000019b0 0d08           5860 	mov	r13,r1
000019b2 850a           5861 	shr	5,r1
000019b4 430f0100       5862 	st.b	r1,1[sp]
                        5863 --1146:         u8_num[1] = (uint8_t)((u32_wh_d_km / 10) % 10);
000019b8 2106cdcccccc   5864 	mov	-858993459,r1
000019be 0160           5865 	mov	r1,r12
000019c0 0a72           5866 	mov	10,r14
000019c2 fd67226a       5867 	mulu	r29,r12,r13
000019c6 0d08           5868 	mov	r13,r1
000019c8 830a           5869 	shr	3,r1
000019ca ee0ffe0a       5870 	divqu	r14,r1,r1
000019ce 430f0200       5871 	st.b	r1,2[sp]
                        5872 --1147:         u8_num[2] = (uint8_t)(u32_wh_d_km % 10);
000019d2 1d08           5873 	mov	r29,r1
000019d4 0a72           5874 	mov	10,r14
000019d6 ee0ffe0a       5875 	divqu	r14,r1,r1
000019da 430f0300       5876 	st.b	r1,3[sp]
                        5877 --1148:         W_Draw_Image_By_ID(PIC_ID_C_TRIP_L_0 + u8_num[0],321,312);
000019de a30f0100       5878 	ld.bu	1[sp],r1
000019e2 203e4101       5879 	movea	321,zero,r7
000019e6 20463801       5880 	movea	312,zero,r8
000019ea 0136c600       5881 	addi	198,r1,r6
000019ee c600           5882 	zxh	r6
                        5883 	jarl	_W_Draw_Image_By_ID,lp
                        5883 <EXPANSION BEGIN>

                                                                      Page 109
                                                              C:\Users\Frank\AppData\Local\Temp\gh_0000p3g1.si
                        5883 jarl22 _W_Draw_Image_By_ID , lp 
000019f0 80ff0000*      5883 <EXPANSION END>
                        5884 --1149:         W_Draw_Image_By_ID(PIC_ID_C_TRIP_L_0 + u8_num[1],337,312);
                        5885 --line1149
                        5886 ..lin.C.3A.5Cgit.5Crh850.5Csrc.5Capp.5Cgfx_apps.5Csimple_draw.5Ctarget.5Cd1mx_mango_ghs.5Cobj.5Cw_mag.313::
                        5887 .LDWlin313:
000019f4 830f0300       5888 	ld.bu	2[sp],r1
000019f8 203e5101       5889 	movea	337,zero,r7
000019fc 20463801       5890 	movea	312,zero,r8
00001a00 0136c600       5891 	addi	198,r1,r6
00001a04 c600           5892 	zxh	r6
                        5893 	jarl	_W_Draw_Image_By_ID,lp
                        5893 <EXPANSION BEGIN>
                        5893 jarl22 _W_Draw_Image_By_ID , lp 
00001a06 80ff0000*      5893 <EXPANSION END>
                        5894 --1150:         W_Draw_Image_By_ID(PIC_ID_C_TRIP_L_0 + u8_num[2],353,312);
                        5895 --line1150
                        5896 ..lin.C.3A.5Cgit.5Crh850.5Csrc.5Capp.5Cgfx_apps.5Csimple_draw.5Ctarget.5Cd1mx_mango_ghs.5Cobj.5Cw_mag.314::
                        5897 .LDWlin314:
00001a0a a30f0300       5898 	ld.bu	3[sp],r1
00001a0e 203e6101       5899 	movea	353,zero,r7
00001a12 20463801       5900 	movea	312,zero,r8
00001a16 0136c600       5901 	addi	198,r1,r6
00001a1a c600           5902 	zxh	r6
                        5903 	jarl	_W_Draw_Image_By_ID,lp
                        5903 <EXPANSION BEGIN>
                        5903 jarl22 _W_Draw_Image_By_ID , lp 
00001a1c 80ff0000*      5903 <EXPANSION END>
00001a20 e53d*          5904 	br	.L5841
                        5905 .L5842:
                        5906 --1151:     }
                        5907 --1152:     else if(u32_wh_d_km < 10)
                        5908 --line1152
                        5909 ..lin.C.3A.5Cgit.5Crh850.5Csrc.5Capp.5Cgfx_apps.5Csimple_draw.5Ctarget.5Cd1mx_mango_ghs.5Cobj.5Cw_mag.315::
                        5910 .LDWlin315:
00001a22 6aea           5911 	cmp	10,r29
00001a24 b915*          5912 	bnl	.L5845
                        5913 --1153:     {
                        5914 --1154:         u8_num[2] = (uint8_t)(u32_wh_d_km % 10);
                        5915 --line1154
                        5916 ..lin.C.3A.5Cgit.5Crh850.5Csrc.5Capp.5Cgfx_apps.5Csimple_draw.5Ctarget.5Cd1mx_mango_ghs.5Cobj.5Cw_mag.316::
                        5917 .LDWlin316:
00001a26 1d08           5918 	mov	r29,r1
00001a28 0a72           5919 	mov	10,r14
00001a2a ee0ffe0a       5920 	divqu	r14,r1,r1
00001a2e 430f0300       5921 	st.b	r1,3[sp]
                        5922 --1155:         W_Draw_Image_By_ID(PIC_ID_C_TRIP_L_0 + u8_num[2],337,312);
00001a32 a30f0300       5923 	ld.bu	3[sp],r1
00001a36 203e5101       5924 	movea	337,zero,r7
00001a3a 20463801       5925 	movea	312,zero,r8
00001a3e 0136c600       5926 	addi	198,r1,r6
00001a42 c600           5927 	zxh	r6
                        5928 	jarl	_W_Draw_Image_By_ID,lp
                        5928 <EXPANSION BEGIN>
                        5928 jarl22 _W_Draw_Image_By_ID , lp 
00001a44 80ff0000*      5928 <EXPANSION END>
00001a48 a52d*          5929 	br	.L5841
                        5930 .L5845:
                        5931 --1156:     }
                        5932 --1157:     else
                        5933 --1158:     {

                                                                      Page 110
                                                              C:\Users\Frank\AppData\Local\Temp\gh_0000p3g1.si
                        5934 --1159:         u8_num[1] = (uint8_t)((u32_wh_d_km / 10) % 10);
                        5935 --line1159
                        5936 ..lin.C.3A.5Cgit.5Crh850.5Csrc.5Capp.5Cgfx_apps.5Csimple_draw.5Ctarget.5Cd1mx_mango_ghs.5Cobj.5Cw_mag.317::
                        5937 .LDWlin317:
00001a4a 2106cdcccccc   5938 	mov	-858993459,r1
00001a50 0160           5939 	mov	r1,r12
00001a52 0a72           5940 	mov	10,r14
00001a54 fd67226a       5941 	mulu	r29,r12,r13
00001a58 0d08           5942 	mov	r13,r1
00001a5a 830a           5943 	shr	3,r1
00001a5c ee0ffe0a       5944 	divqu	r14,r1,r1
00001a60 430f0200       5945 	st.b	r1,2[sp]
                        5946 --1160:         u8_num[2] = (uint8_t)(u32_wh_d_km % 10);
00001a64 1d08           5947 	mov	r29,r1
00001a66 0a72           5948 	mov	10,r14
00001a68 ee0ffe0a       5949 	divqu	r14,r1,r1
00001a6c 430f0300       5950 	st.b	r1,3[sp]
                        5951 --1161:         W_Draw_Image_By_ID(PIC_ID_C_TRIP_L_0 + u8_num[1],329,312);
00001a70 830f0300       5952 	ld.bu	2[sp],r1
00001a74 203e4901       5953 	movea	329,zero,r7
00001a78 20463801       5954 	movea	312,zero,r8
00001a7c 0136c600       5955 	addi	198,r1,r6
00001a80 c600           5956 	zxh	r6
                        5957 	jarl	_W_Draw_Image_By_ID,lp
                        5957 <EXPANSION BEGIN>
                        5957 jarl22 _W_Draw_Image_By_ID , lp 
00001a82 80ff0000*      5957 <EXPANSION END>
                        5958 --1162:         W_Draw_Image_By_ID(PIC_ID_C_TRIP_L_0 + u8_num[2],345,312);
                        5959 --line1162
                        5960 ..lin.C.3A.5Cgit.5Crh850.5Csrc.5Capp.5Cgfx_apps.5Csimple_draw.5Ctarget.5Cd1mx_mango_ghs.5Cobj.5Cw_mag.318::
                        5961 .LDWlin318:
00001a86 a30f0300       5962 	ld.bu	3[sp],r1
00001a8a 203e5901       5963 	movea	345,zero,r7
00001a8e 20463801       5964 	movea	312,zero,r8
00001a92 0136c600       5965 	addi	198,r1,r6
00001a96 c600           5966 	zxh	r6
                        5967 	jarl	_W_Draw_Image_By_ID,lp
                        5967 <EXPANSION BEGIN>
                        5967 jarl22 _W_Draw_Image_By_ID , lp 
00001a98 80ff0000*      5967 <EXPANSION END>
                        5968 .L5841:
                        5969 --1163:     }
                        5970 --1164: }
                        5971 --	    .ef
                        5972 .LDW512:
                        5973 --line1164
                        5974 ..lin.C.3A.5Cgit.5Crh850.5Csrc.5Capp.5Cgfx_apps.5Csimple_draw.5Ctarget.5Cd1mx_mango_ghs.5Cobj.5Cw_mag.319::
                        5975 .LDWlin319:
00001a9c 4206ff10       5976 	dispose	1,{r27,r28,r29,r31},[lp]
                        5977 	.type	_W_Cluster_TripB_Whkm,@function
                        5978 	.size	_W_Cluster_TripB_Whkm,.-_W_Cluster_TripB_Whkm
                        5979 	.align	2
                        5980 .LDW612:
                        5981 --_u32_wh_d_km	r29	local
                        5982 --_u8_num	1[sp]	local
                        5983 
                        5984 --_u16_capacity	r27	param
                        5985 --_u16_distance	r28	param
                        5986 
                        5987 	.section ".bss","awb"
                        5988 .L5970:

                                                                      Page 111
                                                              C:\Users\Frank\AppData\Local\Temp\gh_0000p3g1.si
                        5989 	.type	.L5970,@object
                        5990 	.size	.L5970,0
                        5991 	.data
                        5992 	.text
                        5993 
                        5994 
                        5995 --1165: //----------------------------------------------------------------------------------------------------------------------------
                        5996 --1166: void W_Cluster_Trip_Total_Mileage(uint32_t u32_mileage)
                        5997 	.align	2
                        5998 	.align	2
                        5999 	.global	_W_Cluster_Trip_Total_Mileage
                        6000 _W_Cluster_Trip_Total_Mileage:
00001aa0 84076100       6001 	prepare	{r29,r31},2
00001aa4 06e8           6002 	mov	r6,r29
                        6003 --	    .bf
                        6004 .LDW712:
                        6005 --1167: {
                        6006 --1168:     uint8_t u8_num[7];
                        6007 --1170:     if(u32_mileage < 10) // 0 ~ 9
00001aa6 6aea           6008 	cmp	10,r29
00001aa8 c915*          6009 	bnl	.L6059
                        6010 --1171:     {
                        6011 --1172:         u8_num[6] = (uint8_t)((u32_mileage % 10));
                        6012 --line1172
                        6013 ..lin.C.3A.5Cgit.5Crh850.5Csrc.5Capp.5Cgfx_apps.5Csimple_draw.5Ctarget.5Cd1mx_mango_ghs.5Cobj.5Cw_mag.320::
                        6014 .LDWlin320:
00001aaa 1d08           6015 	mov	r29,r1
00001aac 0a72           6016 	mov	10,r14
00001aae ee0ffe0a       6017 	divqu	r14,r1,r1
00001ab2 430f0700       6018 	st.b	r1,7[sp]
                        6019 --1173:         W_Draw_Image_By_ID(PIC_ID_C_TRIP_L_0 + u8_num[6],253,395);
00001ab6 a30f0700       6020 	ld.bu	7[sp],r1
00001aba 203efd00       6021 	movea	253,zero,r7
00001abe 20468b01       6022 	movea	395,zero,r8
00001ac2 0136c600       6023 	addi	198,r1,r6
00001ac6 c600           6024 	zxh	r6
                        6025 	jarl	_W_Draw_Image_By_ID,lp
                        6025 <EXPANSION BEGIN>
                        6025 jarl22 _W_Draw_Image_By_ID , lp 
00001ac8 80ff0000*      6025 <EXPANSION END>
00001acc 80073c05*      6026 	br	.L6061
                        6027 .L6059:
                        6028 --1174:     }
                        6029 --1175:     else if(u32_mileage < 100) // 10 ~ 99
                        6030 --line1175
                        6031 ..lin.C.3A.5Cgit.5Crh850.5Csrc.5Capp.5Cgfx_apps.5Csimple_draw.5Ctarget.5Cd1mx_mango_ghs.5Cobj.5Cw_mag.321::
                        6032 .LDWlin321:
00001ad0 1d069cff       6033 	addi	-100,r29,zero
00001ad4 c12d*          6034 	bl	.L6062
                        6035 --1176:     {
                        6036 --1177:         u8_num[5] = (uint8_t)((u32_mileage /10) % 10);
                        6037 --line1177
                        6038 ..lin.C.3A.5Cgit.5Crh850.5Csrc.5Capp.5Cgfx_apps.5Csimple_draw.5Ctarget.5Cd1mx_mango_ghs.5Cobj.5Cw_mag.322::
                        6039 .LDWlin322:
00001ad6 2106cdcccccc   6040 	mov	-858993459,r1
00001adc 0160           6041 	mov	r1,r12
00001ade 0a72           6042 	mov	10,r14
00001ae0 fd67226a       6043 	mulu	r29,r12,r13
00001ae4 0d08           6044 	mov	r13,r1
00001ae6 830a           6045 	shr	3,r1
00001ae8 ee0ffe0a       6046 	divqu	r14,r1,r1

                                                                      Page 112
                                                              C:\Users\Frank\AppData\Local\Temp\gh_0000p3g1.si
00001aec 430f0600       6047 	st.b	r1,6[sp]
                        6048 --1178:         u8_num[6] = (uint8_t)((u32_mileage % 10));
00001af0 1d08           6049 	mov	r29,r1
00001af2 0a72           6050 	mov	10,r14
00001af4 ee0ffe0a       6051 	divqu	r14,r1,r1
00001af8 430f0700       6052 	st.b	r1,7[sp]
                        6053 --1179:         W_Draw_Image_By_ID(PIC_ID_C_TRIP_L_0 + u8_num[5],245,395);
00001afc 830f0700       6054 	ld.bu	6[sp],r1
00001b00 203ef500       6055 	movea	245,zero,r7
00001b04 20468b01       6056 	movea	395,zero,r8
00001b08 0136c600       6057 	addi	198,r1,r6
00001b0c c600           6058 	zxh	r6
                        6059 	jarl	_W_Draw_Image_By_ID,lp
                        6059 <EXPANSION BEGIN>
                        6059 jarl22 _W_Draw_Image_By_ID , lp 
00001b0e 80ff0000*      6059 <EXPANSION END>
                        6060 --1180:         W_Draw_Image_By_ID(PIC_ID_C_TRIP_L_0 + u8_num[6],261,395);
                        6061 --line1180
                        6062 ..lin.C.3A.5Cgit.5Crh850.5Csrc.5Capp.5Cgfx_apps.5Csimple_draw.5Ctarget.5Cd1mx_mango_ghs.5Cobj.5Cw_mag.323::
                        6063 .LDWlin323:
00001b12 a30f0700       6064 	ld.bu	7[sp],r1
00001b16 203e0501       6065 	movea	261,zero,r7
00001b1a 20468b01       6066 	movea	395,zero,r8
00001b1e 0136c600       6067 	addi	198,r1,r6
00001b22 c600           6068 	zxh	r6
                        6069 	jarl	_W_Draw_Image_By_ID,lp
                        6069 <EXPANSION BEGIN>
                        6069 jarl22 _W_Draw_Image_By_ID , lp 
00001b24 80ff0000*      6069 <EXPANSION END>
00001b28 8007e004*      6070 	br	.L6061
                        6071 .L6062:
                        6072 --1181:     }
                        6073 --1182:     else if(u32_mileage < 1000) // 100 ~ 999
                        6074 --line1182
                        6075 ..lin.C.3A.5Cgit.5Crh850.5Csrc.5Capp.5Cgfx_apps.5Csimple_draw.5Ctarget.5Cd1mx_mango_ghs.5Cobj.5Cw_mag.324::
                        6076 .LDWlin324:
00001b2c 1d0618fc       6077 	addi	-1000,r29,zero
00001b30 b145*          6078 	bl	.L6065
                        6079 --1183:     {
                        6080 --1184:         u8_num[4] = (uint8_t)((u32_mileage /100) % 10);
                        6081 --line1184
                        6082 ..lin.C.3A.5Cgit.5Crh850.5Csrc.5Capp.5Cgfx_apps.5Csimple_draw.5Ctarget.5Cd1mx_mango_ghs.5Cobj.5Cw_mag.325::
                        6083 .LDWlin325:
00001b32 2c061f85eb51   6084 	mov	1374389535,r12
00001b38 fd67226a       6085 	mulu	r29,r12,r13
00001b3c 0a72           6086 	mov	10,r14
00001b3e 0d08           6087 	mov	r13,r1
00001b40 850a           6088 	shr	5,r1
00001b42 ee0ffe0a       6089 	divqu	r14,r1,r1
00001b46 430f0500       6090 	st.b	r1,5[sp]
                        6091 --1185:         u8_num[5] = (uint8_t)((u32_mileage /10) % 10);
00001b4a 2106cdcccccc   6092 	mov	-858993459,r1
00001b50 0160           6093 	mov	r1,r12
00001b52 0a72           6094 	mov	10,r14
00001b54 fd67226a       6095 	mulu	r29,r12,r13
00001b58 0d08           6096 	mov	r13,r1
00001b5a 830a           6097 	shr	3,r1
00001b5c ee0ffe0a       6098 	divqu	r14,r1,r1
00001b60 430f0600       6099 	st.b	r1,6[sp]
                        6100 --1186:         u8_num[6] = (uint8_t)((u32_mileage % 10));
00001b64 1d08           6101 	mov	r29,r1

                                                                      Page 113
                                                              C:\Users\Frank\AppData\Local\Temp\gh_0000p3g1.si
00001b66 0a72           6102 	mov	10,r14
00001b68 ee0ffe0a       6103 	divqu	r14,r1,r1
00001b6c 430f0700       6104 	st.b	r1,7[sp]
                        6105 --1187:         W_Draw_Image_By_ID(PIC_ID_C_TRIP_L_0 + u8_num[4],237,395);
00001b70 a30f0500       6106 	ld.bu	5[sp],r1
00001b74 203eed00       6107 	movea	237,zero,r7
00001b78 20468b01       6108 	movea	395,zero,r8
00001b7c 0136c600       6109 	addi	198,r1,r6
00001b80 c600           6110 	zxh	r6
                        6111 	jarl	_W_Draw_Image_By_ID,lp
                        6111 <EXPANSION BEGIN>
                        6111 jarl22 _W_Draw_Image_By_ID , lp 
00001b82 80ff0000*      6111 <EXPANSION END>
                        6112 --1188:         W_Draw_Image_By_ID(PIC_ID_C_TRIP_L_0 + u8_num[5],253,395);
                        6113 --line1188
                        6114 ..lin.C.3A.5Cgit.5Crh850.5Csrc.5Capp.5Cgfx_apps.5Csimple_draw.5Ctarget.5Cd1mx_mango_ghs.5Cobj.5Cw_mag.326::
                        6115 .LDWlin326:
00001b86 830f0700       6116 	ld.bu	6[sp],r1
00001b8a 203efd00       6117 	movea	253,zero,r7
00001b8e 20468b01       6118 	movea	395,zero,r8
00001b92 0136c600       6119 	addi	198,r1,r6
00001b96 c600           6120 	zxh	r6
                        6121 	jarl	_W_Draw_Image_By_ID,lp
                        6121 <EXPANSION BEGIN>
                        6121 jarl22 _W_Draw_Image_By_ID , lp 
00001b98 80ff0000*      6121 <EXPANSION END>
                        6122 --1189:         W_Draw_Image_By_ID(PIC_ID_C_TRIP_L_0 + u8_num[6],269,395);
                        6123 --line1189
                        6124 ..lin.C.3A.5Cgit.5Crh850.5Csrc.5Capp.5Cgfx_apps.5Csimple_draw.5Ctarget.5Cd1mx_mango_ghs.5Cobj.5Cw_mag.327::
                        6125 .LDWlin327:
00001b9c a30f0700       6126 	ld.bu	7[sp],r1
00001ba0 203e0d01       6127 	movea	269,zero,r7
00001ba4 20468b01       6128 	movea	395,zero,r8
00001ba8 0136c600       6129 	addi	198,r1,r6
00001bac c600           6130 	zxh	r6
                        6131 	jarl	_W_Draw_Image_By_ID,lp
                        6131 <EXPANSION BEGIN>
                        6131 jarl22 _W_Draw_Image_By_ID , lp 
00001bae 80ff0000*      6131 <EXPANSION END>
00001bb2 80075604*      6132 	br	.L6061
                        6133 .L6065:
                        6134 --1190:     }
                        6135 --1191:     else if(u32_mileage < 10000) // 1,000 ~ 9,999
                        6136 --line1191
                        6137 ..lin.C.3A.5Cgit.5Crh850.5Csrc.5Capp.5Cgfx_apps.5Csimple_draw.5Ctarget.5Cd1mx_mango_ghs.5Cobj.5Cw_mag.328::
                        6138 .LDWlin328:
00001bb6 1d06f0d8       6139 	addi	-10000,r29,zero
00001bba a165*          6140 	bl	.L6068
                        6141 --1192:     {
                        6142 --1193:         u8_num[3] = (uint8_t)((u32_mileage /1000) % 10);
                        6143 --line1193
                        6144 ..lin.C.3A.5Cgit.5Crh850.5Csrc.5Capp.5Cgfx_apps.5Csimple_draw.5Ctarget.5Cd1mx_mango_ghs.5Cobj.5Cw_mag.329::
                        6145 .LDWlin329:
00001bbc 2c06d34d6210   6146 	mov	274877907,r12
00001bc2 fd67226a       6147 	mulu	r29,r12,r13
00001bc6 0a72           6148 	mov	10,r14
00001bc8 0d08           6149 	mov	r13,r1
00001bca 860a           6150 	shr	6,r1
00001bcc ee0ffe0a       6151 	divqu	r14,r1,r1
00001bd0 430f0400       6152 	st.b	r1,4[sp]
                        6153 --1194:         u8_num[4] = (uint8_t)((u32_mileage /100) % 10);

                                                                      Page 114
                                                              C:\Users\Frank\AppData\Local\Temp\gh_0000p3g1.si
00001bd4 2c061f85eb51   6154 	mov	1374389535,r12
00001bda fd67226a       6155 	mulu	r29,r12,r13
00001bde 0a72           6156 	mov	10,r14
00001be0 0d08           6157 	mov	r13,r1
00001be2 850a           6158 	shr	5,r1
00001be4 ee0ffe0a       6159 	divqu	r14,r1,r1
00001be8 430f0500       6160 	st.b	r1,5[sp]
                        6161 --1195:         u8_num[5] = (uint8_t)((u32_mileage /10) % 10);
00001bec 2106cdcccccc   6162 	mov	-858993459,r1
00001bf2 0160           6163 	mov	r1,r12
00001bf4 0a72           6164 	mov	10,r14
00001bf6 fd67226a       6165 	mulu	r29,r12,r13
00001bfa 0d08           6166 	mov	r13,r1
00001bfc 830a           6167 	shr	3,r1
00001bfe ee0ffe0a       6168 	divqu	r14,r1,r1
00001c02 430f0600       6169 	st.b	r1,6[sp]
                        6170 --1196:         u8_num[6] = (uint8_t)((u32_mileage % 10));
00001c06 1d08           6171 	mov	r29,r1
00001c08 0a72           6172 	mov	10,r14
00001c0a ee0ffe0a       6173 	divqu	r14,r1,r1
00001c0e 430f0700       6174 	st.b	r1,7[sp]
                        6175 --1197:         W_Draw_Image_By_ID(PIC_ID_C_TRIP_L_0 + u8_num[3],229,395);
00001c12 830f0500       6176 	ld.bu	4[sp],r1
00001c16 203ee500       6177 	movea	229,zero,r7
00001c1a 20468b01       6178 	movea	395,zero,r8
00001c1e 0136c600       6179 	addi	198,r1,r6
00001c22 c600           6180 	zxh	r6
                        6181 	jarl	_W_Draw_Image_By_ID,lp
                        6181 <EXPANSION BEGIN>
                        6181 jarl22 _W_Draw_Image_By_ID , lp 
00001c24 80ff0000*      6181 <EXPANSION END>
                        6182 --1198:         W_Draw_Image_By_ID(PIC_ID_C_TRIP_L_COMMA,        245,395);
                        6183 --line1198
                        6184 ..lin.C.3A.5Cgit.5Crh850.5Csrc.5Capp.5Cgfx_apps.5Csimple_draw.5Ctarget.5Cd1mx_mango_ghs.5Cobj.5Cw_mag.330::
                        6185 .LDWlin330:
00001c28 2036d000       6186 	movea	208,zero,r6
00001c2c 203ef500       6187 	movea	245,zero,r7
00001c30 20468b01       6188 	movea	395,zero,r8
                        6189 	jarl	_W_Draw_Image_By_ID,lp
                        6189 <EXPANSION BEGIN>
                        6189 jarl22 _W_Draw_Image_By_ID , lp 
00001c34 80ff0000*      6189 <EXPANSION END>
                        6190 --1199:         W_Draw_Image_By_ID(PIC_ID_C_TRIP_L_0 + u8_num[4],253,395);
                        6191 --line1199
                        6192 ..lin.C.3A.5Cgit.5Crh850.5Csrc.5Capp.5Cgfx_apps.5Csimple_draw.5Ctarget.5Cd1mx_mango_ghs.5Cobj.5Cw_mag.331::
                        6193 .LDWlin331:
00001c38 a30f0500       6194 	ld.bu	5[sp],r1
00001c3c 203efd00       6195 	movea	253,zero,r7
00001c40 20468b01       6196 	movea	395,zero,r8
00001c44 0136c600       6197 	addi	198,r1,r6
00001c48 c600           6198 	zxh	r6
                        6199 	jarl	_W_Draw_Image_By_ID,lp
                        6199 <EXPANSION BEGIN>
                        6199 jarl22 _W_Draw_Image_By_ID , lp 
00001c4a 80ff0000*      6199 <EXPANSION END>
                        6200 --1200:         W_Draw_Image_By_ID(PIC_ID_C_TRIP_L_0 + u8_num[5],269,395);
                        6201 --line1200
                        6202 ..lin.C.3A.5Cgit.5Crh850.5Csrc.5Capp.5Cgfx_apps.5Csimple_draw.5Ctarget.5Cd1mx_mango_ghs.5Cobj.5Cw_mag.332::
                        6203 .LDWlin332:
00001c4e 830f0700       6204 	ld.bu	6[sp],r1
00001c52 203e0d01       6205 	movea	269,zero,r7

                                                                      Page 115
                                                              C:\Users\Frank\AppData\Local\Temp\gh_0000p3g1.si
00001c56 20468b01       6206 	movea	395,zero,r8
00001c5a 0136c600       6207 	addi	198,r1,r6
00001c5e c600           6208 	zxh	r6
                        6209 	jarl	_W_Draw_Image_By_ID,lp
                        6209 <EXPANSION BEGIN>
                        6209 jarl22 _W_Draw_Image_By_ID , lp 
00001c60 80ff0000*      6209 <EXPANSION END>
                        6210 --1201:         W_Draw_Image_By_ID(PIC_ID_C_TRIP_L_0 + u8_num[6],285,395);
                        6211 --line1201
                        6212 ..lin.C.3A.5Cgit.5Crh850.5Csrc.5Capp.5Cgfx_apps.5Csimple_draw.5Ctarget.5Cd1mx_mango_ghs.5Cobj.5Cw_mag.333::
                        6213 .LDWlin333:
00001c64 a30f0700       6214 	ld.bu	7[sp],r1
00001c68 203e1d01       6215 	movea	285,zero,r7
00001c6c 20468b01       6216 	movea	395,zero,r8
00001c70 0136c600       6217 	addi	198,r1,r6
00001c74 c600           6218 	zxh	r6
                        6219 	jarl	_W_Draw_Image_By_ID,lp
                        6219 <EXPANSION BEGIN>
                        6219 jarl22 _W_Draw_Image_By_ID , lp 
00001c76 80ff0000*      6219 <EXPANSION END>
00001c7a 80078e03*      6220 	br	.L6061
                        6221 .L6068:
                        6222 --1202:     }
                        6223 --1203:     else if(u32_mileage < 100000) // 10,000 ~ 99,999
                        6224 --line1203
                        6225 ..lin.C.3A.5Cgit.5Crh850.5Csrc.5Capp.5Cgfx_apps.5Csimple_draw.5Ctarget.5Cd1mx_mango_ghs.5Cobj.5Cw_mag.334::
                        6226 .LDWlin334:
00001c7e 2106a0860100   6227 	mov	100000,r1
00001c84 e1e9           6228 	cmp	r1,r29
00001c86 a97d*          6229 	bnl	.L6071
                        6230 --1204:     {
                        6231 --1205:         u8_num[2] = (uint8_t)((u32_mileage /10000) % 10);
                        6232 --line1205
                        6233 ..lin.C.3A.5Cgit.5Crh850.5Csrc.5Capp.5Cgfx_apps.5Csimple_draw.5Ctarget.5Cd1mx_mango_ghs.5Cobj.5Cw_mag.335::
                        6234 .LDWlin335:
00001c88 21065917b7d1   6235 	mov	-776530087,r1
00001c8e 0160           6236 	mov	r1,r12
00001c90 0a72           6237 	mov	10,r14
00001c92 fd67226a       6238 	mulu	r29,r12,r13
00001c96 0d08           6239 	mov	r13,r1
00001c98 8d0a           6240 	shr	13,r1
00001c9a ee0ffe0a       6241 	divqu	r14,r1,r1
00001c9e 430f0300       6242 	st.b	r1,3[sp]
                        6243 --1206:         u8_num[3] = (uint8_t)((u32_mileage /1000) % 10);
00001ca2 2c06d34d6210   6244 	mov	274877907,r12
00001ca8 fd67226a       6245 	mulu	r29,r12,r13
00001cac 0a72           6246 	mov	10,r14
00001cae 0d08           6247 	mov	r13,r1
00001cb0 860a           6248 	shr	6,r1
00001cb2 ee0ffe0a       6249 	divqu	r14,r1,r1
00001cb6 430f0400       6250 	st.b	r1,4[sp]
                        6251 --1207:         u8_num[4] = (uint8_t)((u32_mileage /100) % 10);
00001cba 2c061f85eb51   6252 	mov	1374389535,r12
00001cc0 fd67226a       6253 	mulu	r29,r12,r13
00001cc4 0a72           6254 	mov	10,r14
00001cc6 0d08           6255 	mov	r13,r1
00001cc8 850a           6256 	shr	5,r1
00001cca ee0ffe0a       6257 	divqu	r14,r1,r1
00001cce 430f0500       6258 	st.b	r1,5[sp]
                        6259 --1208:         u8_num[5] = (uint8_t)((u32_mileage /10) % 10);
00001cd2 2106cdcccccc   6260 	mov	-858993459,r1

                                                                      Page 116
                                                              C:\Users\Frank\AppData\Local\Temp\gh_0000p3g1.si
00001cd8 0160           6261 	mov	r1,r12
00001cda 0a72           6262 	mov	10,r14
00001cdc fd67226a       6263 	mulu	r29,r12,r13
00001ce0 0d08           6264 	mov	r13,r1
00001ce2 830a           6265 	shr	3,r1
00001ce4 ee0ffe0a       6266 	divqu	r14,r1,r1
00001ce8 430f0600       6267 	st.b	r1,6[sp]
                        6268 --1209:         u8_num[6] = (uint8_t)((u32_mileage % 10));
00001cec 1d08           6269 	mov	r29,r1
00001cee 0a72           6270 	mov	10,r14
00001cf0 ee0ffe0a       6271 	divqu	r14,r1,r1
00001cf4 430f0700       6272 	st.b	r1,7[sp]
                        6273 --1210:         W_Draw_Image_By_ID(PIC_ID_C_TRIP_L_0 + u8_num[2],221,395);
00001cf8 a30f0300       6274 	ld.bu	3[sp],r1
00001cfc 203edd00       6275 	movea	221,zero,r7
00001d00 20468b01       6276 	movea	395,zero,r8
00001d04 0136c600       6277 	addi	198,r1,r6
00001d08 c600           6278 	zxh	r6
                        6279 	jarl	_W_Draw_Image_By_ID,lp
                        6279 <EXPANSION BEGIN>
                        6279 jarl22 _W_Draw_Image_By_ID , lp 
00001d0a 80ff0000*      6279 <EXPANSION END>
                        6280 --1211:         W_Draw_Image_By_ID(PIC_ID_C_TRIP_L_0 + u8_num[3],237,395);
                        6281 --line1211
                        6282 ..lin.C.3A.5Cgit.5Crh850.5Csrc.5Capp.5Cgfx_apps.5Csimple_draw.5Ctarget.5Cd1mx_mango_ghs.5Cobj.5Cw_mag.336::
                        6283 .LDWlin336:
00001d0e 830f0500       6284 	ld.bu	4[sp],r1
00001d12 203eed00       6285 	movea	237,zero,r7
00001d16 20468b01       6286 	movea	395,zero,r8
00001d1a 0136c600       6287 	addi	198,r1,r6
00001d1e c600           6288 	zxh	r6
                        6289 	jarl	_W_Draw_Image_By_ID,lp
                        6289 <EXPANSION BEGIN>
                        6289 jarl22 _W_Draw_Image_By_ID , lp 
00001d20 80ff0000*      6289 <EXPANSION END>
                        6290 --1212:         W_Draw_Image_By_ID(PIC_ID_C_TRIP_L_COMMA,        253,395);
                        6291 --line1212
                        6292 ..lin.C.3A.5Cgit.5Crh850.5Csrc.5Capp.5Cgfx_apps.5Csimple_draw.5Ctarget.5Cd1mx_mango_ghs.5Cobj.5Cw_mag.337::
                        6293 .LDWlin337:
00001d24 2036d000       6294 	movea	208,zero,r6
00001d28 203efd00       6295 	movea	253,zero,r7
00001d2c 20468b01       6296 	movea	395,zero,r8
                        6297 	jarl	_W_Draw_Image_By_ID,lp
                        6297 <EXPANSION BEGIN>
                        6297 jarl22 _W_Draw_Image_By_ID , lp 
00001d30 80ff0000*      6297 <EXPANSION END>
                        6298 --1213:         W_Draw_Image_By_ID(PIC_ID_C_TRIP_L_0 + u8_num[4],261,395);
                        6299 --line1213
                        6300 ..lin.C.3A.5Cgit.5Crh850.5Csrc.5Capp.5Cgfx_apps.5Csimple_draw.5Ctarget.5Cd1mx_mango_ghs.5Cobj.5Cw_mag.338::
                        6301 .LDWlin338:
00001d34 a30f0500       6302 	ld.bu	5[sp],r1
00001d38 203e0501       6303 	movea	261,zero,r7
00001d3c 20468b01       6304 	movea	395,zero,r8
00001d40 0136c600       6305 	addi	198,r1,r6
00001d44 c600           6306 	zxh	r6
                        6307 	jarl	_W_Draw_Image_By_ID,lp
                        6307 <EXPANSION BEGIN>
                        6307 jarl22 _W_Draw_Image_By_ID , lp 
00001d46 80ff0000*      6307 <EXPANSION END>
                        6308 --1214:         W_Draw_Image_By_ID(PIC_ID_C_TRIP_L_0 + u8_num[5],277,395);
                        6309 --line1214

                                                                      Page 117
                                                              C:\Users\Frank\AppData\Local\Temp\gh_0000p3g1.si
                        6310 ..lin.C.3A.5Cgit.5Crh850.5Csrc.5Capp.5Cgfx_apps.5Csimple_draw.5Ctarget.5Cd1mx_mango_ghs.5Cobj.5Cw_mag.339::
                        6311 .LDWlin339:
00001d4a 830f0700       6312 	ld.bu	6[sp],r1
00001d4e 203e1501       6313 	movea	277,zero,r7
00001d52 20468b01       6314 	movea	395,zero,r8
00001d56 0136c600       6315 	addi	198,r1,r6
00001d5a c600           6316 	zxh	r6
                        6317 	jarl	_W_Draw_Image_By_ID,lp
                        6317 <EXPANSION BEGIN>
                        6317 jarl22 _W_Draw_Image_By_ID , lp 
00001d5c 80ff0000*      6317 <EXPANSION END>
                        6318 --1215:         W_Draw_Image_By_ID(PIC_ID_C_TRIP_L_0 + u8_num[6],293,395);
                        6319 --line1215
                        6320 ..lin.C.3A.5Cgit.5Crh850.5Csrc.5Capp.5Cgfx_apps.5Csimple_draw.5Ctarget.5Cd1mx_mango_ghs.5Cobj.5Cw_mag.340::
                        6321 .LDWlin340:
00001d60 a30f0700       6322 	ld.bu	7[sp],r1
00001d64 203e2501       6323 	movea	293,zero,r7
00001d68 20468b01       6324 	movea	395,zero,r8
00001d6c 0136c600       6325 	addi	198,r1,r6
00001d70 c600           6326 	zxh	r6
                        6327 	jarl	_W_Draw_Image_By_ID,lp
                        6327 <EXPANSION BEGIN>
                        6327 jarl22 _W_Draw_Image_By_ID , lp 
00001d72 80ff0000*      6327 <EXPANSION END>
00001d76 80079202*      6328 	br	.L6061
                        6329 .L6071:
                        6330 --1216:     }
                        6331 --1217:     else if(u32_mileage < 1000000) // 100,000 ~ 999,999
                        6332 --line1217
                        6333 ..lin.C.3A.5Cgit.5Crh850.5Csrc.5Capp.5Cgfx_apps.5Csimple_draw.5Ctarget.5Cd1mx_mango_ghs.5Cobj.5Cw_mag.341::
                        6334 .LDWlin341:
00001d7a 210640420f00   6335 	mov	1000000,r1
00001d80 e1e9           6336 	cmp	r1,r29
00001d82 e9072901*      6337 	bnl	.L6074
                        6338 --1218:     {
                        6339 --1219:         u8_num[1] = (uint8_t)((u32_mileage /100000) % 10);
                        6340 --line1219
                        6341 ..lin.C.3A.5Cgit.5Crh850.5Csrc.5Capp.5Cgfx_apps.5Csimple_draw.5Ctarget.5Cd1mx_mango_ghs.5Cobj.5Cw_mag.342::
                        6342 .LDWlin342:
00001d86 1d60           6343 	mov	r29,r12
00001d88 8562           6344 	shr	5,r12
00001d8a 2e06c55a7c0a   6345 	mov	175921861,r14
00001d90 ee67226a       6346 	mulu	r14,r12,r13
00001d94 0a72           6347 	mov	10,r14
00001d96 0d08           6348 	mov	r13,r1
00001d98 870a           6349 	shr	7,r1
00001d9a ee0ffe0a       6350 	divqu	r14,r1,r1
00001d9e 430f0200       6351 	st.b	r1,2[sp]
                        6352 --1220:         u8_num[2] = (uint8_t)((u32_mileage /10000) % 10);
00001da2 21065917b7d1   6353 	mov	-776530087,r1
00001da8 0160           6354 	mov	r1,r12
00001daa 0a72           6355 	mov	10,r14
00001dac fd67226a       6356 	mulu	r29,r12,r13
00001db0 0d08           6357 	mov	r13,r1
00001db2 8d0a           6358 	shr	13,r1
00001db4 ee0ffe0a       6359 	divqu	r14,r1,r1
00001db8 430f0300       6360 	st.b	r1,3[sp]
                        6361 --1221:         u8_num[3] = (uint8_t)((u32_mileage /1000) % 10);
00001dbc 2c06d34d6210   6362 	mov	274877907,r12
00001dc2 fd67226a       6363 	mulu	r29,r12,r13
00001dc6 0a72           6364 	mov	10,r14

                                                                      Page 118
                                                              C:\Users\Frank\AppData\Local\Temp\gh_0000p3g1.si
00001dc8 0d08           6365 	mov	r13,r1
00001dca 860a           6366 	shr	6,r1
00001dcc ee0ffe0a       6367 	divqu	r14,r1,r1
00001dd0 430f0400       6368 	st.b	r1,4[sp]
                        6369 --1222:         u8_num[4] = (uint8_t)((u32_mileage /100) % 10);
00001dd4 2c061f85eb51   6370 	mov	1374389535,r12
00001dda fd67226a       6371 	mulu	r29,r12,r13
00001dde 0a72           6372 	mov	10,r14
00001de0 0d08           6373 	mov	r13,r1
00001de2 850a           6374 	shr	5,r1
00001de4 ee0ffe0a       6375 	divqu	r14,r1,r1
00001de8 430f0500       6376 	st.b	r1,5[sp]
                        6377 --1223:         u8_num[5] = (uint8_t)((u32_mileage /10) % 10);
00001dec 2106cdcccccc   6378 	mov	-858993459,r1
00001df2 0160           6379 	mov	r1,r12
00001df4 0a72           6380 	mov	10,r14
00001df6 fd67226a       6381 	mulu	r29,r12,r13
00001dfa 0d08           6382 	mov	r13,r1
00001dfc 830a           6383 	shr	3,r1
00001dfe ee0ffe0a       6384 	divqu	r14,r1,r1
00001e02 430f0600       6385 	st.b	r1,6[sp]
                        6386 --1224:         u8_num[6] = (uint8_t)((u32_mileage % 10));
00001e06 1d08           6387 	mov	r29,r1
00001e08 0a72           6388 	mov	10,r14
00001e0a ee0ffe0a       6389 	divqu	r14,r1,r1
00001e0e 430f0700       6390 	st.b	r1,7[sp]
                        6391 --1225:         W_Draw_Image_By_ID(PIC_ID_C_TRIP_L_0 + u8_num[1],213,395);
00001e12 830f0300       6392 	ld.bu	2[sp],r1
00001e16 203ed500       6393 	movea	213,zero,r7
00001e1a 20468b01       6394 	movea	395,zero,r8
00001e1e 0136c600       6395 	addi	198,r1,r6
00001e22 c600           6396 	zxh	r6
                        6397 	jarl	_W_Draw_Image_By_ID,lp
                        6397 <EXPANSION BEGIN>
                        6397 jarl22 _W_Draw_Image_By_ID , lp 
00001e24 80ff0000*      6397 <EXPANSION END>
                        6398 --1226:         W_Draw_Image_By_ID(PIC_ID_C_TRIP_L_0 + u8_num[2],229,395);
                        6399 --line1226
                        6400 ..lin.C.3A.5Cgit.5Crh850.5Csrc.5Capp.5Cgfx_apps.5Csimple_draw.5Ctarget.5Cd1mx_mango_ghs.5Cobj.5Cw_mag.343::
                        6401 .LDWlin343:
00001e28 a30f0300       6402 	ld.bu	3[sp],r1
00001e2c 203ee500       6403 	movea	229,zero,r7
00001e30 20468b01       6404 	movea	395,zero,r8
00001e34 0136c600       6405 	addi	198,r1,r6
00001e38 c600           6406 	zxh	r6
                        6407 	jarl	_W_Draw_Image_By_ID,lp
                        6407 <EXPANSION BEGIN>
                        6407 jarl22 _W_Draw_Image_By_ID , lp 
00001e3a 80ff0000*      6407 <EXPANSION END>
                        6408 --1227:         W_Draw_Image_By_ID(PIC_ID_C_TRIP_L_0 + u8_num[3],245,395);
                        6409 --line1227
                        6410 ..lin.C.3A.5Cgit.5Crh850.5Csrc.5Capp.5Cgfx_apps.5Csimple_draw.5Ctarget.5Cd1mx_mango_ghs.5Cobj.5Cw_mag.344::
                        6411 .LDWlin344:
00001e3e 830f0500       6412 	ld.bu	4[sp],r1
00001e42 203ef500       6413 	movea	245,zero,r7
00001e46 20468b01       6414 	movea	395,zero,r8
00001e4a 0136c600       6415 	addi	198,r1,r6
00001e4e c600           6416 	zxh	r6
                        6417 	jarl	_W_Draw_Image_By_ID,lp
                        6417 <EXPANSION BEGIN>
                        6417 jarl22 _W_Draw_Image_By_ID , lp 

                                                                      Page 119
                                                              C:\Users\Frank\AppData\Local\Temp\gh_0000p3g1.si
00001e50 80ff0000*      6417 <EXPANSION END>
                        6418 --1228:         W_Draw_Image_By_ID(PIC_ID_C_TRIP_L_COMMA,        261,395);
                        6419 --line1228
                        6420 ..lin.C.3A.5Cgit.5Crh850.5Csrc.5Capp.5Cgfx_apps.5Csimple_draw.5Ctarget.5Cd1mx_mango_ghs.5Cobj.5Cw_mag.345::
                        6421 .LDWlin345:
00001e54 2036d000       6422 	movea	208,zero,r6
00001e58 203e0501       6423 	movea	261,zero,r7
00001e5c 20468b01       6424 	movea	395,zero,r8
                        6425 	jarl	_W_Draw_Image_By_ID,lp
                        6425 <EXPANSION BEGIN>
                        6425 jarl22 _W_Draw_Image_By_ID , lp 
00001e60 80ff0000*      6425 <EXPANSION END>
                        6426 --1229:         W_Draw_Image_By_ID(PIC_ID_C_TRIP_L_0 + u8_num[4],269,395);
                        6427 --line1229
                        6428 ..lin.C.3A.5Cgit.5Crh850.5Csrc.5Capp.5Cgfx_apps.5Csimple_draw.5Ctarget.5Cd1mx_mango_ghs.5Cobj.5Cw_mag.346::
                        6429 .LDWlin346:
00001e64 a30f0500       6430 	ld.bu	5[sp],r1
00001e68 203e0d01       6431 	movea	269,zero,r7
00001e6c 20468b01       6432 	movea	395,zero,r8
00001e70 0136c600       6433 	addi	198,r1,r6
00001e74 c600           6434 	zxh	r6
                        6435 	jarl	_W_Draw_Image_By_ID,lp
                        6435 <EXPANSION BEGIN>
                        6435 jarl22 _W_Draw_Image_By_ID , lp 
00001e76 80ff0000*      6435 <EXPANSION END>
                        6436 --1230:         W_Draw_Image_By_ID(PIC_ID_C_TRIP_L_0 + u8_num[5],285,395);
                        6437 --line1230
                        6438 ..lin.C.3A.5Cgit.5Crh850.5Csrc.5Capp.5Cgfx_apps.5Csimple_draw.5Ctarget.5Cd1mx_mango_ghs.5Cobj.5Cw_mag.347::
                        6439 .LDWlin347:
00001e7a 830f0700       6440 	ld.bu	6[sp],r1
00001e7e 203e1d01       6441 	movea	285,zero,r7
00001e82 20468b01       6442 	movea	395,zero,r8
00001e86 0136c600       6443 	addi	198,r1,r6
00001e8a c600           6444 	zxh	r6
                        6445 	jarl	_W_Draw_Image_By_ID,lp
                        6445 <EXPANSION BEGIN>
                        6445 jarl22 _W_Draw_Image_By_ID , lp 
00001e8c 80ff0000*      6445 <EXPANSION END>
                        6446 --1231:         W_Draw_Image_By_ID(PIC_ID_C_TRIP_L_0 + u8_num[6],301,395);
                        6447 --line1231
                        6448 ..lin.C.3A.5Cgit.5Crh850.5Csrc.5Capp.5Cgfx_apps.5Csimple_draw.5Ctarget.5Cd1mx_mango_ghs.5Cobj.5Cw_mag.348::
                        6449 .LDWlin348:
00001e90 a30f0700       6450 	ld.bu	7[sp],r1
00001e94 203e2d01       6451 	movea	301,zero,r7
00001e98 20468b01       6452 	movea	395,zero,r8
00001e9c 0136c600       6453 	addi	198,r1,r6
00001ea0 c600           6454 	zxh	r6
                        6455 	jarl	_W_Draw_Image_By_ID,lp
                        6455 <EXPANSION BEGIN>
                        6455 jarl22 _W_Draw_Image_By_ID , lp 
00001ea2 80ff0000*      6455 <EXPANSION END>
00001ea6 80076201*      6456 	br	.L6061
                        6457 .L6074:
                        6458 --1232:     }
                        6459 --1233:     else // 1,000,000 ~
                        6460 --1234:     {
                        6461 --1235:         u8_num[0] = (uint8_t)((u32_mileage /1000000) % 10);
                        6462 --line1235
                        6463 ..lin.C.3A.5Cgit.5Crh850.5Csrc.5Capp.5Cgfx_apps.5Csimple_draw.5Ctarget.5Cd1mx_mango_ghs.5Cobj.5Cw_mag.349::
                        6464 .LDWlin349:
00001eaa 2c0683de1b43   6465 	mov	1125899907,r12

                                                                      Page 120
                                                              C:\Users\Frank\AppData\Local\Temp\gh_0000p3g1.si
00001eb0 fd67226a       6466 	mulu	r29,r12,r13
00001eb4 0a72           6467 	mov	10,r14
00001eb6 0d08           6468 	mov	r13,r1
00001eb8 920a           6469 	shr	18,r1
00001eba ee0ffe0a       6470 	divqu	r14,r1,r1
00001ebe 430f0100       6471 	st.b	r1,1[sp]
                        6472 --1236:         u8_num[1] = (uint8_t)((u32_mileage /100000) % 10);
00001ec2 1d60           6473 	mov	r29,r12
00001ec4 8562           6474 	shr	5,r12
00001ec6 2e06c55a7c0a   6475 	mov	175921861,r14
00001ecc ee67226a       6476 	mulu	r14,r12,r13
00001ed0 0a72           6477 	mov	10,r14
00001ed2 0d08           6478 	mov	r13,r1
00001ed4 870a           6479 	shr	7,r1
00001ed6 ee0ffe0a       6480 	divqu	r14,r1,r1
00001eda 430f0200       6481 	st.b	r1,2[sp]
                        6482 --1237:         u8_num[2] = (uint8_t)((u32_mileage /10000) % 10);
00001ede 21065917b7d1   6483 	mov	-776530087,r1
00001ee4 0160           6484 	mov	r1,r12
00001ee6 0a72           6485 	mov	10,r14
00001ee8 fd67226a       6486 	mulu	r29,r12,r13
00001eec 0d08           6487 	mov	r13,r1
00001eee 8d0a           6488 	shr	13,r1
00001ef0 ee0ffe0a       6489 	divqu	r14,r1,r1
00001ef4 430f0300       6490 	st.b	r1,3[sp]
                        6491 --1238:         u8_num[3] = (uint8_t)((u32_mileage /1000) % 10);
00001ef8 2c06d34d6210   6492 	mov	274877907,r12
00001efe fd67226a       6493 	mulu	r29,r12,r13
00001f02 0a72           6494 	mov	10,r14
00001f04 0d08           6495 	mov	r13,r1
00001f06 860a           6496 	shr	6,r1
00001f08 ee0ffe0a       6497 	divqu	r14,r1,r1
00001f0c 430f0400       6498 	st.b	r1,4[sp]
                        6499 --1239:         u8_num[4] = (uint8_t)((u32_mileage /100) % 10);
00001f10 2c061f85eb51   6500 	mov	1374389535,r12
00001f16 fd67226a       6501 	mulu	r29,r12,r13
00001f1a 0a72           6502 	mov	10,r14
00001f1c 0d08           6503 	mov	r13,r1
00001f1e 850a           6504 	shr	5,r1
00001f20 ee0ffe0a       6505 	divqu	r14,r1,r1
00001f24 430f0500       6506 	st.b	r1,5[sp]
                        6507 --1240:         u8_num[5] = (uint8_t)((u32_mileage /10) % 10);
00001f28 2106cdcccccc   6508 	mov	-858993459,r1
00001f2e 0160           6509 	mov	r1,r12
00001f30 0a72           6510 	mov	10,r14
00001f32 fd67226a       6511 	mulu	r29,r12,r13
00001f36 0d08           6512 	mov	r13,r1
00001f38 830a           6513 	shr	3,r1
00001f3a ee0ffe0a       6514 	divqu	r14,r1,r1
00001f3e 430f0600       6515 	st.b	r1,6[sp]
                        6516 --1241:         u8_num[6] = (uint8_t)((u32_mileage % 10));
00001f42 1d08           6517 	mov	r29,r1
00001f44 0a72           6518 	mov	10,r14
00001f46 ee0ffe0a       6519 	divqu	r14,r1,r1
00001f4a 430f0700       6520 	st.b	r1,7[sp]
                        6521 --1242:         W_Draw_Image_By_ID(PIC_ID_C_TRIP_L_0 + u8_num[0],197,395);
00001f4e a30f0100       6522 	ld.bu	1[sp],r1
00001f52 203ec500       6523 	movea	197,zero,r7
00001f56 20468b01       6524 	movea	395,zero,r8
00001f5a 0136c600       6525 	addi	198,r1,r6
00001f5e c600           6526 	zxh	r6

                                                                      Page 121
                                                              C:\Users\Frank\AppData\Local\Temp\gh_0000p3g1.si
                        6527 	jarl	_W_Draw_Image_By_ID,lp
                        6527 <EXPANSION BEGIN>
                        6527 jarl22 _W_Draw_Image_By_ID , lp 
00001f60 80ff0000*      6527 <EXPANSION END>
                        6528 --1243:         W_Draw_Image_By_ID(PIC_ID_C_TRIP_L_COMMA,        213,395);
                        6529 --line1243
                        6530 ..lin.C.3A.5Cgit.5Crh850.5Csrc.5Capp.5Cgfx_apps.5Csimple_draw.5Ctarget.5Cd1mx_mango_ghs.5Cobj.5Cw_mag.350::
                        6531 .LDWlin350:
00001f64 2036d000       6532 	movea	208,zero,r6
00001f68 203ed500       6533 	movea	213,zero,r7
00001f6c 20468b01       6534 	movea	395,zero,r8
                        6535 	jarl	_W_Draw_Image_By_ID,lp
                        6535 <EXPANSION BEGIN>
                        6535 jarl22 _W_Draw_Image_By_ID , lp 
00001f70 80ff0000*      6535 <EXPANSION END>
                        6536 --1244:         W_Draw_Image_By_ID(PIC_ID_C_TRIP_L_0 + u8_num[1],221,395);
                        6537 --line1244
                        6538 ..lin.C.3A.5Cgit.5Crh850.5Csrc.5Capp.5Cgfx_apps.5Csimple_draw.5Ctarget.5Cd1mx_mango_ghs.5Cobj.5Cw_mag.351::
                        6539 .LDWlin351:
00001f74 830f0300       6540 	ld.bu	2[sp],r1
00001f78 203edd00       6541 	movea	221,zero,r7
00001f7c 20468b01       6542 	movea	395,zero,r8
00001f80 0136c600       6543 	addi	198,r1,r6
00001f84 c600           6544 	zxh	r6
                        6545 	jarl	_W_Draw_Image_By_ID,lp
                        6545 <EXPANSION BEGIN>
                        6545 jarl22 _W_Draw_Image_By_ID , lp 
00001f86 80ff0000*      6545 <EXPANSION END>
                        6546 --1245:         W_Draw_Image_By_ID(PIC_ID_C_TRIP_L_0 + u8_num[2],237,395);
                        6547 --line1245
                        6548 ..lin.C.3A.5Cgit.5Crh850.5Csrc.5Capp.5Cgfx_apps.5Csimple_draw.5Ctarget.5Cd1mx_mango_ghs.5Cobj.5Cw_mag.352::
                        6549 .LDWlin352:
00001f8a a30f0300       6550 	ld.bu	3[sp],r1
00001f8e 203eed00       6551 	movea	237,zero,r7
00001f92 20468b01       6552 	movea	395,zero,r8
00001f96 0136c600       6553 	addi	198,r1,r6
00001f9a c600           6554 	zxh	r6
                        6555 	jarl	_W_Draw_Image_By_ID,lp
                        6555 <EXPANSION BEGIN>
                        6555 jarl22 _W_Draw_Image_By_ID , lp 
00001f9c 80ff0000*      6555 <EXPANSION END>
                        6556 --1246:         W_Draw_Image_By_ID(PIC_ID_C_TRIP_L_0 + u8_num[3],253,395);
                        6557 --line1246
                        6558 ..lin.C.3A.5Cgit.5Crh850.5Csrc.5Capp.5Cgfx_apps.5Csimple_draw.5Ctarget.5Cd1mx_mango_ghs.5Cobj.5Cw_mag.353::
                        6559 .LDWlin353:
00001fa0 830f0500       6560 	ld.bu	4[sp],r1
00001fa4 203efd00       6561 	movea	253,zero,r7
00001fa8 20468b01       6562 	movea	395,zero,r8
00001fac 0136c600       6563 	addi	198,r1,r6
00001fb0 c600           6564 	zxh	r6
                        6565 	jarl	_W_Draw_Image_By_ID,lp
                        6565 <EXPANSION BEGIN>
                        6565 jarl22 _W_Draw_Image_By_ID , lp 
00001fb2 80ff0000*      6565 <EXPANSION END>
                        6566 --1247:         W_Draw_Image_By_ID(PIC_ID_C_TRIP_L_COMMA,        269,395);
                        6567 --line1247
                        6568 ..lin.C.3A.5Cgit.5Crh850.5Csrc.5Capp.5Cgfx_apps.5Csimple_draw.5Ctarget.5Cd1mx_mango_ghs.5Cobj.5Cw_mag.354::
                        6569 .LDWlin354:
00001fb6 2036d000       6570 	movea	208,zero,r6
00001fba 203e0d01       6571 	movea	269,zero,r7
00001fbe 20468b01       6572 	movea	395,zero,r8

                                                                      Page 122
                                                              C:\Users\Frank\AppData\Local\Temp\gh_0000p3g1.si
                        6573 	jarl	_W_Draw_Image_By_ID,lp
                        6573 <EXPANSION BEGIN>
                        6573 jarl22 _W_Draw_Image_By_ID , lp 
00001fc2 80ff0000*      6573 <EXPANSION END>
                        6574 --1248:         W_Draw_Image_By_ID(PIC_ID_C_TRIP_L_0 + u8_num[4],277,395);
                        6575 --line1248
                        6576 ..lin.C.3A.5Cgit.5Crh850.5Csrc.5Capp.5Cgfx_apps.5Csimple_draw.5Ctarget.5Cd1mx_mango_ghs.5Cobj.5Cw_mag.355::
                        6577 .LDWlin355:
00001fc6 a30f0500       6578 	ld.bu	5[sp],r1
00001fca 203e1501       6579 	movea	277,zero,r7
00001fce 20468b01       6580 	movea	395,zero,r8
00001fd2 0136c600       6581 	addi	198,r1,r6
00001fd6 c600           6582 	zxh	r6
                        6583 	jarl	_W_Draw_Image_By_ID,lp
                        6583 <EXPANSION BEGIN>
                        6583 jarl22 _W_Draw_Image_By_ID , lp 
00001fd8 80ff0000*      6583 <EXPANSION END>
                        6584 --1249:         W_Draw_Image_By_ID(PIC_ID_C_TRIP_L_0 + u8_num[5],293,395);
                        6585 --line1249
                        6586 ..lin.C.3A.5Cgit.5Crh850.5Csrc.5Capp.5Cgfx_apps.5Csimple_draw.5Ctarget.5Cd1mx_mango_ghs.5Cobj.5Cw_mag.356::
                        6587 .LDWlin356:
00001fdc 830f0700       6588 	ld.bu	6[sp],r1
00001fe0 203e2501       6589 	movea	293,zero,r7
00001fe4 20468b01       6590 	movea	395,zero,r8
00001fe8 0136c600       6591 	addi	198,r1,r6
00001fec c600           6592 	zxh	r6
                        6593 	jarl	_W_Draw_Image_By_ID,lp
                        6593 <EXPANSION BEGIN>
                        6593 jarl22 _W_Draw_Image_By_ID , lp 
00001fee 80ff0000*      6593 <EXPANSION END>
                        6594 --1250:         W_Draw_Image_By_ID(PIC_ID_C_TRIP_L_0 + u8_num[6],309,395);
                        6595 --line1250
                        6596 ..lin.C.3A.5Cgit.5Crh850.5Csrc.5Capp.5Cgfx_apps.5Csimple_draw.5Ctarget.5Cd1mx_mango_ghs.5Cobj.5Cw_mag.357::
                        6597 .LDWlin357:
00001ff2 a30f0700       6598 	ld.bu	7[sp],r1
00001ff6 203e3501       6599 	movea	309,zero,r7
00001ffa 20468b01       6600 	movea	395,zero,r8
00001ffe 0136c600       6601 	addi	198,r1,r6
00002002 c600           6602 	zxh	r6
                        6603 	jarl	_W_Draw_Image_By_ID,lp
                        6603 <EXPANSION BEGIN>
                        6603 jarl22 _W_Draw_Image_By_ID , lp 
00002004 80ff0000*      6603 <EXPANSION END>
                        6604 .L6061:
                        6605 --1251:     }
                        6606 --1252: }
                        6607 --	    .ef
                        6608 .LDW812:
                        6609 --line1252
                        6610 ..lin.C.3A.5Cgit.5Crh850.5Csrc.5Capp.5Cgfx_apps.5Csimple_draw.5Ctarget.5Cd1mx_mango_ghs.5Cobj.5Cw_mag.358::
                        6611 .LDWlin358:
00002008 44067f00       6612 	dispose	2,{r29,r31},[lp]
                        6613 	.type	_W_Cluster_Trip_Total_Mileage,@function
                        6614 	.size	_W_Cluster_Trip_Total_Mileage,.-_W_Cluster_Trip_Total_Mileage
                        6615 	.align	2
                        6616 .LDW912:
                        6617 --_u8_num	1[sp]	local
                        6618 
                        6619 --_u32_mileage	r29	param
                        6620 
                        6621 	.section ".bss","awb"

                                                                      Page 123
                                                              C:\Users\Frank\AppData\Local\Temp\gh_0000p3g1.si
                        6622 .L6362:
                        6623 	.type	.L6362,@object
                        6624 	.size	.L6362,0
                        6625 	.data
                        6626 	.text
                        6627 
                        6628 
                        6629 --1253: //----------------------------------------------------------------------------------------------------------------------------
                        6630 --1254: void W_Cluster_Trip_Process(void)
                        6631 	.align	2
                        6632 	.align	2
                        6633 	.global	_W_Cluster_Trip_Process
                        6634 _W_Cluster_Trip_Process:
0000200c 80072100       6635 	prepare	{r31},0
                        6636 --	    .bf
                        6637 .LDW022:
                        6638 --1255: {
                        6639 --1256:     W_Cluster_Trip_BG();
                        6640 	jarl	_W_Cluster_Trip_BG,lp
                        6640 <EXPANSION BEGIN>
                        6640 jarl22 _W_Cluster_Trip_BG , lp 
00002010 bfff8af1*      6640 <EXPANSION END>
                        6641 --1258: //    W_Cluster_Trip_Timer(gtmars_info.tcar_info.tcan_id56b_info.u32time_in_seconds);
                        6642 --1260: //    W_Cluster_Trip_Icon(0); //
                        6643 --1262: //    W_Cluster_TripA_KM(gtmars_info.tcar_info.tcan_id53e_info.u16remained_distance);
                        6644 --1264: //    W_Cluster_TripA_MIN(24); //
                        6645 --1266: //    W_Cluster_TripA_Whkm(gtmars_info.tcar_info.tcan_id53f_info.u16battery_remain_capacity,gtmars_info.tcar_info.tcan_id53e_info.u16remained_distance);
                        6646 --1268: //    W_Cluster_TripB_KM(gtmars_info.tcar_info.tcan_id53e_info.u16total_distance);
                        6647 --1270: //    W_Cluster_TripB_kWh(gtmars_info.tcar_info.tcan_id53f_info.u16battery_design_capacity); 
                        6648 --1272: //    W_Cluster_TripB_Whkm(gtmars_info.tcar_info.tcan_id53f_info.u16battery_design_capacity,gtmars_info.tcar_info.tcan_id53e_info.u16total_distance);
                        6649 --1274: //    W_Cluster_Trip_Total_Mileage(gtmars_info.tcar_info.tcan_id53e_info.u32mileague);
                        6650 --1275: }
                        6651 --	    .ef
                        6652 .LDW122:
                        6653 --line1275
                        6654 ..lin.C.3A.5Cgit.5Crh850.5Csrc.5Capp.5Cgfx_apps.5Csimple_draw.5Ctarget.5Cd1mx_mango_ghs.5Cobj.5Cw_mag.359::
                        6655 .LDWlin359:
00002014 40063f00       6656 	dispose	0,{r31},[lp]
                        6657 	.type	_W_Cluster_Trip_Process,@function
                        6658 	.size	_W_Cluster_Trip_Process,.-_W_Cluster_Trip_Process
                        6659 	.align	2
                        6660 .LDW222:
                        6661 
                        6662 	.section ".bss","awb"
                        6663 .L6594:
                        6664 	.type	.L6594,@object
                        6665 	.size	.L6594,0
                        6666 	.data
                        6667 	.text
                        6668 
                        6669 
                        6670 --1276: //----------------------------------------------------------------------------------------------------------------------------
                        6671 --1277: void W_Cluster_Demo_Trip(void)
                        6672 	.align	2
                        6673 	.align	2
                        6674 	.global	_W_Cluster_Demo_Trip
                        6675 _W_Cluster_Demo_Trip:
00002018 9807e170       6676 	prepare	{r25,r26,r27,r28,r29,r31},12
0000201c 3c0600000000*  6677 	mov	_tclusterDrw2dDev,r28
00002022 40ce2e01       6678 	movhi	hi(19791872),zero,r25
                        6679 --	    .bf

                                                                      Page 124
                                                              C:\Users\Frank\AppData\Local\Temp\gh_0000p3g1.si
                        6680 .LDW322:
                        6681 --1278: {
                        6682 --1279:     r_drw2d_Error_t ret = R_DRW2D_ERR_OK;
00002026 00ea           6683 	mov	0,r29
                        6684 --1280:     r_drw2d_Rect_t  rect;
                        6685 --1281:     r_drw2d_Texture_t tex_argb32;
                        6686 --1282:     uint32_t xPos, yPos;
                        6687 --1284:     tex_argb32.Handle             = R_NULL;
00002028 63070500       6688 	st.w	zero,4[sp]
                        6689 --1285:     tex_argb32.Flags              = R_DRW2D_TEX_VT | R_DRW2D_TEX_BILINEAR;
0000202c 200e4400       6690 	movea	68,zero,r1
00002030 630f1d00       6691 	st.w	r1,28[sp]
                        6692 --1286:     tex_argb32.Buffer.Pitch       = 302;
00002034 200e2e01       6693 	movea	302,zero,r1
00002038 630f0d00       6694 	st.w	r1,12[sp]
                        6695 --1287:     tex_argb32.Buffer.Size.Width  = 302;
0000203c 200e2e01       6696 	movea	302,zero,r1
00002040 630f1100       6697 	st.w	r1,16[sp]
                        6698 --1288:     tex_argb32.Buffer.Size.Height = 302;
00002044 200e2e01       6699 	movea	302,zero,r1
00002048 630f1500       6700 	st.w	r1,20[sp]
                        6701 --1289:     tex_argb32.Buffer.PixelFormat = R_DRW2D_PIXELFORMAT_ARGB8888;
0000204c 0f0a           6702 	mov	15,r1
0000204e 630f1900       6703 	st.w	r1,24[sp]
                        6704 --1290:     tex_argb32.Buffer.Data        = (void*)_PIC_C_BG_TRIP;
00002052 2106f82d3010   6705 	mov	271592952,r1
00002058 630f0900       6706 	st.w	r1,8[sp]
                        6707 --1291:     
                        6708 --1292:     /* Set texture */
                        6709 --1293:     ret |= R_DRW2D_CtxTextureIdentity(tclusterDrw2dDev);
0000205c 3c370100       6710 	ld.w	0[r28],r6
                        6711 	jarl	_R_DRW2D_CtxTextureIdentity,lp
                        6711 <EXPANSION BEGIN>
                        6711 jarl22 _R_DRW2D_CtxTextureIdentity , lp 
00002060 80ff0000*      6711 <EXPANSION END>
00002064 0ae9           6712 	or	r10,r29
                        6713 --1294:     ret |= R_DRW2D_CtxIdentity(tclusterDrw2dDev);
                        6714 --line1294
                        6715 ..lin.C.3A.5Cgit.5Crh850.5Csrc.5Capp.5Cgfx_apps.5Csimple_draw.5Ctarget.5Cd1mx_mango_ghs.5Cobj.5Cw_mag.360::
                        6716 .LDWlin360:
00002066 3c370100       6717 	ld.w	0[r28],r6
                        6718 	jarl	_R_DRW2D_CtxIdentity,lp
                        6718 <EXPANSION BEGIN>
                        6718 jarl22 _R_DRW2D_CtxIdentity , lp 
0000206a 80ff0000*      6718 <EXPANSION END>
0000206e 0ae9           6719 	or	r10,r29
                        6720 --1295:     ret |= R_DRW2D_CtxTextureSet(tclusterDrw2dDev, 0, &tex_argb32);
                        6721 --line1295
                        6722 ..lin.C.3A.5Cgit.5Crh850.5Csrc.5Capp.5Cgfx_apps.5Csimple_draw.5Ctarget.5Cd1mx_mango_ghs.5Cobj.5Cw_mag.361::
                        6723 .LDWlin361:
00002070 3c370100       6724 	ld.w	0[r28],r6
00002074 003a           6725 	mov	0,r7
00002076 23460400       6726 	movea	4,sp,r8
                        6727 	jarl	_R_DRW2D_CtxTextureSet,lp
                        6727 <EXPANSION BEGIN>
                        6727 jarl22 _R_DRW2D_CtxTextureSet , lp 
0000207a 80ff0000*      6727 <EXPANSION END>
0000207e 0ae9           6728 	or	r10,r29
                        6729 --1296:     ret |= R_DRW2D_CtxFillMode(tclusterDrw2dDev, R_DRW2D_FILLMODE_TEXTURE);
                        6730 --line1296
                        6731 ..lin.C.3A.5Cgit.5Crh850.5Csrc.5Capp.5Cgfx_apps.5Csimple_draw.5Ctarget.5Cd1mx_mango_ghs.5Cobj.5Cw_mag.362::

                                                                      Page 125
                                                              C:\Users\Frank\AppData\Local\Temp\gh_0000p3g1.si
                        6732 .LDWlin362:
00002080 3c370100       6733 	ld.w	0[r28],r6
00002084 023a           6734 	mov	2,r7
                        6735 	jarl	_R_DRW2D_CtxFillMode,lp
                        6735 <EXPANSION BEGIN>
                        6735 jarl22 _R_DRW2D_CtxFillMode , lp 
00002086 80ff0000*      6735 <EXPANSION END>
0000208a 0ae9           6736 	or	r10,r29
                        6737 --1297:     ret |= R_DRW2D_CtxBlendMode(tclusterDrw2dDev, R_DRW2D_BLENDMODE_SRC_OVER);
                        6738 --line1297
                        6739 ..lin.C.3A.5Cgit.5Crh850.5Csrc.5Capp.5Cgfx_apps.5Csimple_draw.5Ctarget.5Cd1mx_mango_ghs.5Cobj.5Cw_mag.363::
                        6740 .LDWlin363:
0000208c 3c370100       6741 	ld.w	0[r28],r6
00002090 023a           6742 	mov	2,r7
                        6743 	jarl	_R_DRW2D_CtxBlendMode,lp
                        6743 <EXPANSION BEGIN>
                        6743 jarl22 _R_DRW2D_CtxBlendMode , lp 
00002092 80ff0000*      6743 <EXPANSION END>
00002096 0ae9           6744 	or	r10,r29
                        6745 --1298:     xPos = R_DRW2D_2X(110);
                        6746 --line1298
                        6747 ..lin.C.3A.5Cgit.5Crh850.5Csrc.5Capp.5Cgfx_apps.5Csimple_draw.5Ctarget.5Cd1mx_mango_ghs.5Cobj.5Cw_mag.364::
                        6748 .LDWlin364:
00002098 40d66e00       6749 	movhi	hi(7208960),zero,r26
                        6750 --1299:     yPos = R_DRW2D_2X(134);
0000209c 40de6e00       6751 	movhi	hi(7208960),zero,r27
000020a0 5bde1800       6752 	movhi	24,r27,r27
                        6753 --1300:     ret |= R_DRW2D_CtxTextureTranslate(tclusterDrw2dDev, xPos, yPos);
000020a4 3c370100       6754 	ld.w	0[r28],r6
000020a8 1a38           6755 	mov	r26,r7
000020aa 1b40           6756 	mov	r27,r8
                        6757 	jarl	_R_DRW2D_CtxTextureTranslate,lp
                        6757 <EXPANSION BEGIN>
                        6757 jarl22 _R_DRW2D_CtxTextureTranslate , lp 
000020ac 80ff0000*      6757 <EXPANSION END>
000020b0 0ae9           6758 	or	r10,r29
                        6759 --1302:     /* Draw texture into rectangle */
                        6760 --1303:     rect.Pos.X       = xPos;
                        6761 --line1303
                        6762 ..lin.C.3A.5Cgit.5Crh850.5Csrc.5Capp.5Cgfx_apps.5Csimple_draw.5Ctarget.5Cd1mx_mango_ghs.5Cobj.5Cw_mag.365::
                        6763 .LDWlin365:
000020b2 63d72100       6764 	st.w	r26,32[sp]
                        6765 --1304:     rect.Pos.Y       = yPos;
000020b6 63df2500       6766 	st.w	r27,36[sp]
                        6767 --1305:     rect.Size.Width  = R_DRW2D_2X(302);
000020ba 63cf2900       6768 	st.w	r25,40[sp]
                        6769 --1306:     rect.Size.Height = R_DRW2D_2X(302);
000020be 63cf2d00       6770 	st.w	r25,44[sp]
                        6771 --1308:     ret |= R_DRW2D_DrawRect(tclusterDrw2dDev, &rect);
000020c2 3c370100       6772 	ld.w	0[r28],r6
000020c6 233e2000       6773 	movea	32,sp,r7
                        6774 	jarl	_R_DRW2D_DrawRect,lp
                        6774 <EXPANSION BEGIN>
                        6774 jarl22 _R_DRW2D_DrawRect , lp 
000020ca 80ff0000*      6774 <EXPANSION END>
000020ce 0ae9           6775 	or	r10,r29
                        6776 --1309:     ret |= R_DRW2D_CtxTextureIdentity(tclusterDrw2dDev);
                        6777 --line1309
                        6778 ..lin.C.3A.5Cgit.5Crh850.5Csrc.5Capp.5Cgfx_apps.5Csimple_draw.5Ctarget.5Cd1mx_mango_ghs.5Cobj.5Cw_mag.366::
                        6779 .LDWlin366:
000020d0 3c370100       6780 	ld.w	0[r28],r6

                                                                      Page 126
                                                              C:\Users\Frank\AppData\Local\Temp\gh_0000p3g1.si
                        6781 	jarl	_R_DRW2D_CtxTextureIdentity,lp
                        6781 <EXPANSION BEGIN>
                        6781 jarl22 _R_DRW2D_CtxTextureIdentity , lp 
000020d4 80ff0000*      6781 <EXPANSION END>
000020d8 0ae9           6782 	or	r10,r29
                        6783 --1310:     if (R_DRW2D_ERR_OK != ret)
                        6784 --line1310
                        6785 ..lin.C.3A.5Cgit.5Crh850.5Csrc.5Capp.5Cgfx_apps.5Csimple_draw.5Ctarget.5Cd1mx_mango_ghs.5Cobj.5Cw_mag.367::
                        6786 .LDWlin367:
000020da e0e9           6787 	cmp	zero,r29
000020dc a205*          6788 	be	.L6611
                        6789 .L6615:
                        6790 --1311:     {
                        6791 --1312:        while(1);
                        6792 --line1312
                        6793 ..lin.C.3A.5Cgit.5Crh850.5Csrc.5Capp.5Cgfx_apps.5Csimple_draw.5Ctarget.5Cd1mx_mango_ghs.5Cobj.5Cw_mag.368::
                        6794 .LDWlin368:
000020de 8505*          6795 	br	.L6615
                        6796 .L6611:
                        6797 --1313:     }
                        6798 --1314: }
                        6799 --	    .ef
                        6800 .LDW422:
                        6801 --line1314
                        6802 ..lin.C.3A.5Cgit.5Crh850.5Csrc.5Capp.5Cgfx_apps.5Csimple_draw.5Ctarget.5Cd1mx_mango_ghs.5Cobj.5Cw_mag.369::
                        6803 .LDWlin369:
000020e0 5806ff70       6804 	dispose	12,{r25,r26,r27,r28,r29,r31},[lp]
                        6805 	.type	_W_Cluster_Demo_Trip,@function
                        6806 	.size	_W_Cluster_Demo_Trip,.-_W_Cluster_Demo_Trip
                        6807 	.align	2
                        6808 .LDW522:
                        6809 --_ret	r29	local
                        6810 --_rect	32[sp]	local
                        6811 --_tex_argb32	4[sp]	local
                        6812 --_xPos	r26	local
                        6813 --_yPos	r27	local
                        6814 
                        6815 	.section ".bss","awb"
                        6816 .L6744:
                        6817 	.type	.L6744,@object
                        6818 	.size	.L6744,0
                        6819 	.data
                        6820 	.text
                        6821 
                        6822 
                        6823 --1315: //----------------------------------------------------------------------------------------------------------------------------
                        6824 --1316: void W_Cluster_Demo_Chart(void)
                        6825 	.align	2
                        6826 	.align	2
                        6827 	.global	_W_Cluster_Demo_Chart
                        6828 _W_Cluster_Demo_Chart:
000020e4 80072100       6829 	prepare	{r31},0
                        6830 --	    .bf
                        6831 .LDW622:
                        6832 --1317: {
                        6833 --1318:     W_Draw_Image_By_ID(PIC_ID_C_BG_POWER, 869, 134);
000020e8 20361e00       6834 	movea	30,zero,r6
000020ec 203e6503       6835 	movea	869,zero,r7
000020f0 20468600       6836 	movea	134,zero,r8
                        6837 	jarl	_W_Draw_Image_By_ID,lp
                        6837 <EXPANSION BEGIN>

                                                                      Page 127
                                                              C:\Users\Frank\AppData\Local\Temp\gh_0000p3g1.si
                        6837 jarl22 _W_Draw_Image_By_ID , lp 
000020f4 80ff0000*      6837 <EXPANSION END>
                        6838 --1319: /*    r_drw2d_Error_t ret = R_DRW2D_ERR_OK;
                        6839 --1320:     r_drw2d_Rect_t  rect;
                        6840 --1321:     r_drw2d_Texture_t tex_argb32;
                        6841 --1322:     uint32_t xPos, yPos;
                        6842 --1324:     tex_argb32.Handle             = R_NULL;
                        6843 --1325:     tex_argb32.Flags              = R_DRW2D_TEX_VT | R_DRW2D_TEX_BILINEAR;
                        6844 --1326:     tex_argb32.Buffer.Pitch       = 302;
                        6845 --1327:     tex_argb32.Buffer.Size.Width  = 302;
                        6846 --1328:     tex_argb32.Buffer.Size.Height = 302;
                        6847 --1329:     tex_argb32.Buffer.PixelFormat = R_DRW2D_PIXELFORMAT_ARGB8888;
                        6848 --1330:     tex_argb32.Buffer.Data        = (void*)_PIC_C_BG_POWER;
                        6849 --1331:     
                        6850 --1332:   
                        6851 --1333:     ret |= R_DRW2D_CtxTextureIdentity(tclusterDrw2dDev);
                        6852 --1334:     ret |= R_DRW2D_CtxIdentity(tclusterDrw2dDev);
                        6853 --1335:     ret |= R_DRW2D_CtxTextureSet(tclusterDrw2dDev, 0, &tex_argb32);
                        6854 --1336:     ret |= R_DRW2D_CtxFillMode(tclusterDrw2dDev, R_DRW2D_FILLMODE_TEXTURE);
                        6855 --1337:     ret |= R_DRW2D_CtxBlendMode(tclusterDrw2dDev, R_DRW2D_BLENDMODE_SRC_OVER);
                        6856 --1338:     xPos = R_DRW2D_2X(869);
                        6857 --1339:     yPos = R_DRW2D_2X(134);
                        6858 --1340:     ret |= R_DRW2D_CtxTextureTranslate(tclusterDrw2dDev, xPos, yPos);
                        6859 --1342:   
                        6860 --1343:     rect.Pos.X       = xPos;
                        6861 --1344:     rect.Pos.Y       = yPos;
                        6862 --1345:     rect.Size.Width  = R_DRW2D_2X(302);
                        6863 --1346:     rect.Size.Height = R_DRW2D_2X(302);
                        6864 --1348:     ret |= R_DRW2D_DrawRect(tclusterDrw2dDev, &rect);
                        6865 --1349:     ret |= R_DRW2D_CtxTextureIdentity(tclusterDrw2dDev);
                        6866 --1350:     if (R_DRW2D_ERR_OK != ret)
                        6867 --1351:     {
                        6868 --1352:        while(1);
                        6869 --1353:     }
                        6870 --1354: */
                        6871 --1355: }
                        6872 --	    .ef
                        6873 .LDW722:
                        6874 --line1355
                        6875 ..lin.C.3A.5Cgit.5Crh850.5Csrc.5Capp.5Cgfx_apps.5Csimple_draw.5Ctarget.5Cd1mx_mango_ghs.5Cobj.5Cw_mag.370::
                        6876 .LDWlin370:
000020f8 40063f00       6877 	dispose	0,{r31},[lp]
                        6878 	.type	_W_Cluster_Demo_Chart,@function
                        6879 	.size	_W_Cluster_Demo_Chart,.-_W_Cluster_Demo_Chart
                        6880 	.align	2
                        6881 .LDW822:
                        6882 
                        6883 	.section ".bss","awb"
                        6884 .L6850:
                        6885 	.type	.L6850,@object
                        6886 	.size	.L6850,0
                        6887 	.data
                        6888 	.text
                        6889 
                        6890 
                        6891 --1356: //----------------------------------------------------------------------------------------------------------------------------
                        6892 --1357: void W_Cluster_Eric_Test(void)
                        6893 	.align	2
                        6894 	.align	2
                        6895 	.global	_W_Cluster_Eric_Test
                        6896 _W_Cluster_Eric_Test:

                                                                      Page 128
                                                              C:\Users\Frank\AppData\Local\Temp\gh_0000p3g1.si
000020fc 9607e130       6897 	prepare	{r26,r27,r28,r29,r31},11
00002100 3c0600000000*  6898 	mov	_tclusterDrw2dDev,r28
                        6899 --	    .bf
                        6900 .LDW922:
                        6901 --1358: {
                        6902 --1359:     r_drw2d_Error_t ret = R_DRW2D_ERR_OK;
00002106 00ea           6903 	mov	0,r29
                        6904 --1360:     r_drw2d_Rect_t  rect;
                        6905 --1361:     r_drw2d_Texture_t tex_argb32;
                        6906 --1362:     uint32_t xPos, yPos;
                        6907 --1364:     tex_argb32.Handle             = R_NULL;
00002108 63070100       6908 	st.w	zero,0[sp]
                        6909 --1365:     tex_argb32.Flags              = R_DRW2D_TEX_VT | R_DRW2D_TEX_BILINEAR;
0000210c 200e4400       6910 	movea	68,zero,r1
00002110 630f1900       6911 	st.w	r1,24[sp]
                        6912 --1366:     tex_argb32.Buffer.Pitch       = 44;
00002114 200e2c00       6913 	movea	44,zero,r1
00002118 630f0900       6914 	st.w	r1,8[sp]
                        6915 --1367:     tex_argb32.Buffer.Size.Width  = 44;
0000211c 200e2c00       6916 	movea	44,zero,r1
00002120 630f0d00       6917 	st.w	r1,12[sp]
                        6918 --1368:     tex_argb32.Buffer.Size.Height = 44;
00002124 200e2c00       6919 	movea	44,zero,r1
00002128 630f1100       6920 	st.w	r1,16[sp]
                        6921 --1369:     tex_argb32.Buffer.PixelFormat = R_DRW2D_PIXELFORMAT_ARGB8888;
0000212c 0f0a           6922 	mov	15,r1
0000212e 630f1500       6923 	st.w	r1,20[sp]
                        6924 --1370:     tex_argb32.Buffer.Data        = (void*)_PIC_ERIC_TEST;
00002132 2106f8c96b10   6925 	mov	275499512,r1
00002138 630f0500       6926 	st.w	r1,4[sp]
                        6927 --1372:     /* Set texture */
                        6928 --1373:     ret |= R_DRW2D_CtxTextureIdentity(tclusterDrw2dDev);
0000213c 3c370100       6929 	ld.w	0[r28],r6
                        6930 	jarl	_R_DRW2D_CtxTextureIdentity,lp
                        6930 <EXPANSION BEGIN>
                        6930 jarl22 _R_DRW2D_CtxTextureIdentity , lp 
00002140 80ff0000*      6930 <EXPANSION END>
00002144 0ae9           6931 	or	r10,r29
                        6932 --1374:     ret |= R_DRW2D_CtxIdentity(tclusterDrw2dDev);
                        6933 --line1374
                        6934 ..lin.C.3A.5Cgit.5Crh850.5Csrc.5Capp.5Cgfx_apps.5Csimple_draw.5Ctarget.5Cd1mx_mango_ghs.5Cobj.5Cw_mag.371::
                        6935 .LDWlin371:
00002146 3c370100       6936 	ld.w	0[r28],r6
                        6937 	jarl	_R_DRW2D_CtxIdentity,lp
                        6937 <EXPANSION BEGIN>
                        6937 jarl22 _R_DRW2D_CtxIdentity , lp 
0000214a 80ff0000*      6937 <EXPANSION END>
0000214e 0ae9           6938 	or	r10,r29
                        6939 --1375:     ret |= R_DRW2D_CtxTextureSet(tclusterDrw2dDev, 0, &tex_argb32);
                        6940 --line1375
                        6941 ..lin.C.3A.5Cgit.5Crh850.5Csrc.5Capp.5Cgfx_apps.5Csimple_draw.5Ctarget.5Cd1mx_mango_ghs.5Cobj.5Cw_mag.372::
                        6942 .LDWlin372:
00002150 3c370100       6943 	ld.w	0[r28],r6
00002154 003a           6944 	mov	0,r7
00002156 23460000       6945 	movea	0,sp,r8
                        6946 	jarl	_R_DRW2D_CtxTextureSet,lp
                        6946 <EXPANSION BEGIN>
                        6946 jarl22 _R_DRW2D_CtxTextureSet , lp 
0000215a 80ff0000*      6946 <EXPANSION END>
0000215e 0ae9           6947 	or	r10,r29
                        6948 --1376:     ret |= R_DRW2D_CtxFillMode(tclusterDrw2dDev, R_DRW2D_FILLMODE_TEXTURE);

                                                                      Page 129
                                                              C:\Users\Frank\AppData\Local\Temp\gh_0000p3g1.si
                        6949 --line1376
                        6950 ..lin.C.3A.5Cgit.5Crh850.5Csrc.5Capp.5Cgfx_apps.5Csimple_draw.5Ctarget.5Cd1mx_mango_ghs.5Cobj.5Cw_mag.373::
                        6951 .LDWlin373:
00002160 3c370100       6952 	ld.w	0[r28],r6
00002164 023a           6953 	mov	2,r7
                        6954 	jarl	_R_DRW2D_CtxFillMode,lp
                        6954 <EXPANSION BEGIN>
                        6954 jarl22 _R_DRW2D_CtxFillMode , lp 
00002166 80ff0000*      6954 <EXPANSION END>
0000216a 0ae9           6955 	or	r10,r29
                        6956 --1377:     ret |= R_DRW2D_CtxBlendMode(tclusterDrw2dDev, R_DRW2D_BLENDMODE_SRC_OVER);
                        6957 --line1377
                        6958 ..lin.C.3A.5Cgit.5Crh850.5Csrc.5Capp.5Cgfx_apps.5Csimple_draw.5Ctarget.5Cd1mx_mango_ghs.5Cobj.5Cw_mag.374::
                        6959 .LDWlin374:
0000216c 3c370100       6960 	ld.w	0[r28],r6
00002170 023a           6961 	mov	2,r7
                        6962 	jarl	_R_DRW2D_CtxBlendMode,lp
                        6962 <EXPANSION BEGIN>
                        6962 jarl22 _R_DRW2D_CtxBlendMode , lp 
00002172 80ff0000*      6962 <EXPANSION END>
00002176 0ae9           6963 	or	r10,r29
                        6964 --1378:     xPos = R_DRW2D_2X(100);
                        6965 --line1378
                        6966 ..lin.C.3A.5Cgit.5Crh850.5Csrc.5Capp.5Cgfx_apps.5Csimple_draw.5Ctarget.5Cd1mx_mango_ghs.5Cobj.5Cw_mag.375::
                        6967 .LDWlin375:
00002178 40de6400       6968 	movhi	hi(6553600),zero,r27
                        6969 --1379:     yPos = R_DRW2D_2X(100);
0000217c 40d66400       6970 	movhi	hi(6553600),zero,r26
                        6971 --1380:     ret |= R_DRW2D_CtxTextureTranslate(tclusterDrw2dDev, xPos, yPos);
00002180 3c370100       6972 	ld.w	0[r28],r6
00002184 1b38           6973 	mov	r27,r7
00002186 1a40           6974 	mov	r26,r8
                        6975 	jarl	_R_DRW2D_CtxTextureTranslate,lp
                        6975 <EXPANSION BEGIN>
                        6975 jarl22 _R_DRW2D_CtxTextureTranslate , lp 
00002188 80ff0000*      6975 <EXPANSION END>
0000218c 0ae9           6976 	or	r10,r29
                        6977 --1382:     /* Draw texture into rectangle */
                        6978 --1383:     rect.Pos.X       = xPos;
                        6979 --line1383
                        6980 ..lin.C.3A.5Cgit.5Crh850.5Csrc.5Capp.5Cgfx_apps.5Csimple_draw.5Ctarget.5Cd1mx_mango_ghs.5Cobj.5Cw_mag.376::
                        6981 .LDWlin376:
0000218e 63df1d00       6982 	st.w	r27,28[sp]
                        6983 --1384:     rect.Pos.Y       = yPos;
00002192 63d72100       6984 	st.w	r26,32[sp]
                        6985 --1385:     rect.Size.Width  = R_DRW2D_2X(44);
00002196 400e2c00       6986 	movhi	hi(2883584),zero,r1
0000219a 630f2500       6987 	st.w	r1,36[sp]
                        6988 --1386:     rect.Size.Height = R_DRW2D_2X(44);
0000219e 400e2c00       6989 	movhi	hi(2883584),zero,r1
000021a2 630f2900       6990 	st.w	r1,40[sp]
                        6991 --1388:     ret |= R_DRW2D_DrawRect(tclusterDrw2dDev, &rect);
000021a6 3c370100       6992 	ld.w	0[r28],r6
000021aa 233e1c00       6993 	movea	28,sp,r7
                        6994 	jarl	_R_DRW2D_DrawRect,lp
                        6994 <EXPANSION BEGIN>
                        6994 jarl22 _R_DRW2D_DrawRect , lp 
000021ae 80ff0000*      6994 <EXPANSION END>
000021b2 0ae9           6995 	or	r10,r29
                        6996 --1389:     ret |= R_DRW2D_CtxTextureIdentity(tclusterDrw2dDev);
                        6997 --line1389

                                                                      Page 130
                                                              C:\Users\Frank\AppData\Local\Temp\gh_0000p3g1.si
                        6998 ..lin.C.3A.5Cgit.5Crh850.5Csrc.5Capp.5Cgfx_apps.5Csimple_draw.5Ctarget.5Cd1mx_mango_ghs.5Cobj.5Cw_mag.377::
                        6999 .LDWlin377:
000021b4 3c370100       7000 	ld.w	0[r28],r6
                        7001 	jarl	_R_DRW2D_CtxTextureIdentity,lp
                        7001 <EXPANSION BEGIN>
                        7001 jarl22 _R_DRW2D_CtxTextureIdentity , lp 
000021b8 80ff0000*      7001 <EXPANSION END>
000021bc 0ae9           7002 	or	r10,r29
                        7003 --1390:     if (R_DRW2D_ERR_OK != ret)
                        7004 --line1390
                        7005 ..lin.C.3A.5Cgit.5Crh850.5Csrc.5Capp.5Cgfx_apps.5Csimple_draw.5Ctarget.5Cd1mx_mango_ghs.5Cobj.5Cw_mag.378::
                        7006 .LDWlin378:
000021be e0e9           7007 	cmp	zero,r29
000021c0 a205*          7008 	be	.L6867
                        7009 .L6871:
                        7010 --1391:     {
                        7011 --1392:        while(1);
                        7012 --line1392
                        7013 ..lin.C.3A.5Cgit.5Crh850.5Csrc.5Capp.5Cgfx_apps.5Csimple_draw.5Ctarget.5Cd1mx_mango_ghs.5Cobj.5Cw_mag.379::
                        7014 .LDWlin379:
000021c2 8505*          7015 	br	.L6871
                        7016 .L6867:
                        7017 --1393:     }
                        7018 --1394: }
                        7019 --	    .ef
                        7020 .LDW032:
                        7021 --line1394
                        7022 ..lin.C.3A.5Cgit.5Crh850.5Csrc.5Capp.5Cgfx_apps.5Csimple_draw.5Ctarget.5Cd1mx_mango_ghs.5Cobj.5Cw_mag.380::
                        7023 .LDWlin380:
000021c4 5606ff30       7024 	dispose	11,{r26,r27,r28,r29,r31},[lp]
                        7025 	.type	_W_Cluster_Eric_Test,@function
                        7026 	.size	_W_Cluster_Eric_Test,.-_W_Cluster_Eric_Test
                        7027 	.align	2
                        7028 .LDW132:
                        7029 --_ret	r29	local
                        7030 --_rect	28[sp]	local
                        7031 --_tex_argb32	0[sp]	local
                        7032 --_xPos	r27	local
                        7033 --_yPos	r26	local
                        7034 
                        7035 	.section ".bss","awb"
                        7036 .L7000:
                        7037 	.type	.L7000,@object
                        7038 	.size	.L7000,0
                        7039 	.data
                        7040 	.text
                        7041 
                        7042 
                        7043 --1396: //----------------------------------------------------------------------------------------------------------------------------
                        7044 --1397: void W_MAG_Draw2D_Process(void)
                        7045 	.align	2
                        7046 	.align	2
                        7047 	.global	_W_MAG_Draw2D_Process
                        7048 _W_MAG_Draw2D_Process:
000021c8 8007e110       7049 	prepare	{r27,r28,r29,r31},0
000021cc 3d0600000000*  7050 	mov	_gtmars_info+8,r29
000021d2 3c0600000000*  7051 	mov	_tclusterDrw2dDev,r28
000021d8 3b0600000000*  7052 	mov	_tcluster_draw2d_fb,r27
                        7053 --	    .bf
                        7054 .LDW232:
                        7055 --1398: {

                                                                      Page 131
                                                              C:\Users\Frank\AppData\Local\Temp\gh_0000p3g1.si
                        7056 --1399:     tcluster_draw2d_fb.Buffer.Data = R_WM_WindowNewDrawBufGet(LOC_WM_UNIT, &tcluster_draw2d_window);
000021de 0032           7057 	mov	0,r6
000021e0 270600000000*  7058 	mov	_tcluster_draw2d_window,r7
                        7059 	jarl	_R_WM_WindowNewDrawBufGet,lp
                        7059 <EXPANSION BEGIN>
                        7059 jarl22 _R_WM_WindowNewDrawBufGet , lp 
000021e6 80ff0000*      7059 <EXPANSION END>
000021ea 7b570500       7060 	st.w	r10,4[r27]
                        7061 --1400:     R_DRW2D_FramebufferSet(tclusterDrw2dDev, &tcluster_draw2d_fb);
                        7062 --line1400
                        7063 ..lin.C.3A.5Cgit.5Crh850.5Csrc.5Capp.5Cgfx_apps.5Csimple_draw.5Ctarget.5Cd1mx_mango_ghs.5Cobj.5Cw_mag.381::
                        7064 .LDWlin381:
000021ee 3c370100       7065 	ld.w	0[r28],r6
000021f2 1b38           7066 	mov	r27,r7
                        7067 	jarl	_R_DRW2D_FramebufferSet,lp
                        7067 <EXPANSION BEGIN>
                        7067 jarl22 _R_DRW2D_FramebufferSet , lp 
000021f4 80ff0000*      7067 <EXPANSION END>
                        7068 --1401:     R_DRW2D_CtxImgQuality(tclusterDrw2dDev,R_DRW2D_IMGQUALITY_HIGH);
                        7069 --line1401
                        7070 ..lin.C.3A.5Cgit.5Crh850.5Csrc.5Capp.5Cgfx_apps.5Csimple_draw.5Ctarget.5Cd1mx_mango_ghs.5Cobj.5Cw_mag.382::
                        7071 .LDWlin382:
000021f8 3c370100       7072 	ld.w	0[r28],r6
000021fc 023a           7073 	mov	2,r7
                        7074 	jarl	_R_DRW2D_CtxImgQuality,lp
                        7074 <EXPANSION BEGIN>
                        7074 jarl22 _R_DRW2D_CtxImgQuality , lp 
000021fe 80ff0000*      7074 <EXPANSION END>
                        7075 --1402:     W_Cluster_Draw2d_Clear(0x00000000);
                        7076 --line1402
                        7077 ..lin.C.3A.5Cgit.5Crh850.5Csrc.5Capp.5Cgfx_apps.5Csimple_draw.5Ctarget.5Cd1mx_mango_ghs.5Cobj.5Cw_mag.383::
                        7078 .LDWlin383:
00002202 0032           7079 	mov	0,r6
                        7080 	jarl	_W_Cluster_Draw2d_Clear,lp
                        7080 <EXPANSION BEGIN>
                        7080 jarl22 _W_Cluster_Draw2d_Clear , lp 
00002204 bfff52e8*      7080 <EXPANSION END>
                        7081 --1404:     W_Cluster_Padel();
                        7082 --line1404
                        7083 ..lin.C.3A.5Cgit.5Crh850.5Csrc.5Capp.5Cgfx_apps.5Csimple_draw.5Ctarget.5Cd1mx_mango_ghs.5Cobj.5Cw_mag.384::
                        7084 .LDWlin384:
                        7085 	jarl	_W_Cluster_Padel,lp
                        7085 <EXPANSION BEGIN>
                        7085 jarl22 _W_Cluster_Padel , lp 
00002208 bfff44ec*      7085 <EXPANSION END>
                        7086 --1405:     W_Cluster_Shifter();
                        7087 --line1405
                        7088 ..lin.C.3A.5Cgit.5Crh850.5Csrc.5Capp.5Cgfx_apps.5Csimple_draw.5Ctarget.5Cd1mx_mango_ghs.5Cobj.5Cw_mag.385::
                        7089 .LDWlin385:
                        7090 	jarl	_W_Cluster_Shifter,lp
                        7090 <EXPANSION BEGIN>
                        7090 jarl22 _W_Cluster_Shifter , lp 
0000220c bfff1ee9*      7090 <EXPANSION END>
                        7091 --1406:     W_Cluster_Car_Ready();
                        7092 --line1406
                        7093 ..lin.C.3A.5Cgit.5Crh850.5Csrc.5Capp.5Cgfx_apps.5Csimple_draw.5Ctarget.5Cd1mx_mango_ghs.5Cobj.5Cw_mag.386::
                        7094 .LDWlin386:
                        7095 	jarl	_W_Cluster_Car_Ready,lp
                        7095 <EXPANSION BEGIN>
                        7095 jarl22 _W_Cluster_Car_Ready , lp 
00002210 bfff08ea*      7095 <EXPANSION END>

                                                                      Page 132
                                                              C:\Users\Frank\AppData\Local\Temp\gh_0000p3g1.si
                        7096 --1407:     W_Cluster_Car_Mode();
                        7097 --line1407
                        7098 ..lin.C.3A.5Cgit.5Crh850.5Csrc.5Capp.5Cgfx_apps.5Csimple_draw.5Ctarget.5Cd1mx_mango_ghs.5Cobj.5Cw_mag.387::
                        7099 .LDWlin387:
                        7100 	jarl	_W_Cluster_Car_Mode,lp
                        7100 <EXPANSION BEGIN>
                        7100 jarl22 _W_Cluster_Car_Mode , lp 
00002214 bffface9*      7100 <EXPANSION END>
                        7101 --1408:     W_Cluster_Sport_Speed();
                        7102 --line1408
                        7103 ..lin.C.3A.5Cgit.5Crh850.5Csrc.5Capp.5Cgfx_apps.5Csimple_draw.5Ctarget.5Cd1mx_mango_ghs.5Cobj.5Cw_mag.388::
                        7104 .LDWlin388:
                        7105 	jarl	_W_Cluster_Sport_Speed,lp
                        7105 <EXPANSION BEGIN>
                        7105 jarl22 _W_Cluster_Sport_Speed , lp 
00002218 bfffc0e5*      7105 <EXPANSION END>
                        7106 --1409:     W_Cluster_Disp_Turnlight();
                        7107 --line1409
                        7108 ..lin.C.3A.5Cgit.5Crh850.5Csrc.5Capp.5Cgfx_apps.5Csimple_draw.5Ctarget.5Cd1mx_mango_ghs.5Cobj.5Cw_mag.389::
                        7109 .LDWlin389:
                        7110 	jarl	_W_Cluster_Disp_Turnlight,lp
                        7110 <EXPANSION BEGIN>
                        7110 jarl22 _W_Cluster_Disp_Turnlight , lp 
0000221c bfffe2e3*      7110 <EXPANSION END>
                        7111 --1410:     W_Cluster_Icon_Process();
                        7112 --line1410
                        7113 ..lin.C.3A.5Cgit.5Crh850.5Csrc.5Capp.5Cgfx_apps.5Csimple_draw.5Ctarget.5Cd1mx_mango_ghs.5Cobj.5Cw_mag.390::
                        7114 .LDWlin390:
                        7115 	jarl	_W_Cluster_Icon_Process,lp
                        7115 <EXPANSION BEGIN>
                        7115 jarl22 _W_Cluster_Icon_Process , lp 
00002220 bfff82e2*      7115 <EXPANSION END>
                        7116 --1411:     if((gtmars_info.tcar_info.tcan_id434_info.tdoor_status_info.u8door_close_status_byte && 0x1F) < 0x01)
                        7117 --line1411
                        7118 ..lin.C.3A.5Cgit.5Crh850.5Csrc.5Capp.5Cgfx_apps.5Csimple_draw.5Ctarget.5Cd1mx_mango_ghs.5Cobj.5Cw_mag.391::
                        7119 .LDWlin391:
00002224 9d772500       7120 	ld.bu	36[r29],r14
00002228 e071           7121 	cmp	zero,r14
0000222a ea0f0000       7122 	setfne	r1
0000222e 610a           7123 	cmp	1,r1
00002230 ce05*          7124 	bge	.L7088
                        7125 --1412:     {
                        7126 --1413:         W_Cluster_Trip_Process();
                        7127 --line1413
                        7128 ..lin.C.3A.5Cgit.5Crh850.5Csrc.5Capp.5Cgfx_apps.5Csimple_draw.5Ctarget.5Cd1mx_mango_ghs.5Cobj.5Cw_mag.392::
                        7129 .LDWlin392:
                        7130 	jarl	_W_Cluster_Trip_Process,lp
                        7130 <EXPANSION BEGIN>
                        7130 jarl22 _W_Cluster_Trip_Process , lp 
00002232 bfffdafd*      7130 <EXPANSION END>
00002236 b505*          7131 	br	.L7093
                        7132 .L7088:
                        7133 --1414:     }
                        7134 --1415:     else
                        7135 --1416:     {
                        7136 --1417:         W_Cluster_Door_Process();
                        7137 --line1417
                        7138 ..lin.C.3A.5Cgit.5Crh850.5Csrc.5Capp.5Cgfx_apps.5Csimple_draw.5Ctarget.5Cd1mx_mango_ghs.5Cobj.5Cw_mag.393::
                        7139 .LDWlin393:
                        7140 	jarl	_W_Cluster_Door_Process,lp
                        7140 <EXPANSION BEGIN>

                                                                      Page 133
                                                              C:\Users\Frank\AppData\Local\Temp\gh_0000p3g1.si
                        7140 jarl22 _W_Cluster_Door_Process , lp 
00002238 bfff9ae8*      7140 <EXPANSION END>
                        7141 .L7093:
                        7142 --1418:     }
                        7143 --1420:     /* demo purpose TODO: use real menu keys */
                        7144 --1421:     if((gtmars_info.tcar_info.tcan_id287_info.u8menu_key_status > 0)) 
                        7145 --line1421
                        7146 ..lin.C.3A.5Cgit.5Crh850.5Csrc.5Capp.5Cgfx_apps.5Csimple_draw.5Ctarget.5Cd1mx_mango_ghs.5Cobj.5Cw_mag.394::
                        7147 .LDWlin394:
0000223c bd0f3d00       7148 	ld.bu	61[r29],r1
00002240 e009           7149 	cmp	zero,r1
00002242 f205*          7150 	be	.L7094
                        7151 --1422:     {
                        7152 --1423:         W_Cluster_Menu_Button();
                        7153 --line1423
                        7154 ..lin.C.3A.5Cgit.5Crh850.5Csrc.5Capp.5Cgfx_apps.5Csimple_draw.5Ctarget.5Cd1mx_mango_ghs.5Cobj.5Cw_mag.395::
                        7155 .LDWlin395:
                        7156 	jarl	_W_Cluster_Menu_Button,lp
                        7156 <EXPANSION BEGIN>
                        7156 jarl22 _W_Cluster_Menu_Button , lp 
00002244 bfffaee2*      7156 <EXPANSION END>
                        7157 --1424:         W_Cluster_Menu_BG();
                        7158 --line1424
                        7159 ..lin.C.3A.5Cgit.5Crh850.5Csrc.5Capp.5Cgfx_apps.5Csimple_draw.5Ctarget.5Cd1mx_mango_ghs.5Cobj.5Cw_mag.396::
                        7160 .LDWlin396:
                        7161 	jarl	_W_Cluster_Menu_BG,lp
                        7161 <EXPANSION BEGIN>
                        7161 jarl22 _W_Cluster_Menu_BG , lp 
00002248 bfffbee2*      7161 <EXPANSION END>
                        7162 --1425:         W_Cluster_Battery_Process();
                        7163 --line1425
                        7164 ..lin.C.3A.5Cgit.5Crh850.5Csrc.5Capp.5Cgfx_apps.5Csimple_draw.5Ctarget.5Cd1mx_mango_ghs.5Cobj.5Cw_mag.397::
                        7165 .LDWlin397:
                        7166 	jarl	_W_Cluster_Battery_Process,lp
                        7166 <EXPANSION BEGIN>
                        7166 jarl22 _W_Cluster_Battery_Process , lp 
0000224c bfff48e3*      7166 <EXPANSION END>
                        7167 .L7094:
                        7168 --1426:     }
                        7169 --1427: //    W_Cluster_Demo_Chart();
                        7170 --1428:     W_Cluster_Chart_Porcess();
                        7171 --line1428
                        7172 ..lin.C.3A.5Cgit.5Crh850.5Csrc.5Capp.5Cgfx_apps.5Csimple_draw.5Ctarget.5Cd1mx_mango_ghs.5Cobj.5Cw_mag.398::
                        7173 .LDWlin398:
                        7174 	jarl	_W_Cluster_Chart_Porcess,lp
                        7174 <EXPANSION BEGIN>
                        7174 jarl22 _W_Cluster_Chart_Porcess , lp 
00002250 bfffd6ec*      7174 <EXPANSION END>
                        7175 --1429:     //W_Cluster_Eric_Test(); //for align test
                        7176 --1430:     W_Cluster_Debug_OSD();
                        7177 --line1430
                        7178 ..lin.C.3A.5Cgit.5Crh850.5Csrc.5Capp.5Cgfx_apps.5Csimple_draw.5Ctarget.5Cd1mx_mango_ghs.5Cobj.5Cw_mag.399::
                        7179 .LDWlin399:
                        7180 	jarl	_W_Cluster_Debug_OSD,lp
                        7180 <EXPANSION BEGIN>
                        7180 jarl22 _W_Cluster_Debug_OSD , lp 
00002254 bfffd6e4*      7180 <EXPANSION END>
                        7181 --1431:     u32_FPS_Count++;
                        7182 --line1431
                        7183 ..lin.C.3A.5Cgit.5Crh850.5Csrc.5Capp.5Cgfx_apps.5Csimple_draw.5Ctarget.5Cd1mx_mango_ghs.5Cobj.5Cw_mag.400::
                        7184 .LDWlin400:

                                                                      Page 134
                                                              C:\Users\Frank\AppData\Local\Temp\gh_0000p3g1.si
00002258 3e0600000000*  7185 	mov	_u32_FPS_Count,ep
0000225e 000d           7186 	sld.w	0[ep],r1
00002260 410a           7187 	add	1,r1
00002262 010d           7188 	sst.w	r1,0[ep]
                        7189 --1432: }
                        7190 --	    .ef
                        7191 .LDW332:
00002264 4006ff10       7192 	dispose	0,{r27,r28,r29,r31},[lp]
                        7193 	.type	_W_MAG_Draw2D_Process,@function
                        7194 	.size	_W_MAG_Draw2D_Process,.-_W_MAG_Draw2D_Process
                        7195 	.align	2
                        7196 .LDW432:
                        7197 
                        7198 	.section ".bss","awb"
                        7199 .L7208:
                        7200 	.type	.L7208,@object
                        7201 	.size	.L7208,0
                        7202 	.data
                        7203 	.text
                        7204 
                        7205 	.align	2
                        7206 --_tclusterDHDDev	_tclusterDHDDev	static
                        7207 --_tclusterDrw2dDev	_tclusterDrw2dDev	import
                        7208 --_loc_GPU_Memory_Addr	_loc_GPU_Memory_Addr	import
                        7209 --_loc_lRAM_heap	_loc_lRAM_heap	import
                        7210 --_loc_VRAM_heap	_loc_VRAM_heap	import
                        7211 --_gtmars_info	_gtmars_info	import
                        7212 --_gtqueue_manager	_gtqueue_manager	import
                        7213 --_u8small_logo_ImgData	_u8small_logo_ImgData	import
                        7214 
                        7215 	.data
00000002 0000           7216 	.space	2
                        7217 	.align	4
                        7218 	.global	_addr_pic_logo
00000004 f8d97310       7219 _addr_pic_logo:	.byte	248,217,115,16
                        7220 	.type	_addr_pic_logo,@object
                        7221 	.size	_addr_pic_logo,4
                        7222 	.global	_addr_pic_logo_black
00000008 f8e96b10       7223 _addr_pic_logo_black:	.byte	248,233,107,16
                        7224 	.type	_addr_pic_logo_black,@object
                        7225 	.size	_addr_pic_logo_black,4
                        7226 	.global	_u32_Sys_Timer_Count
0000000c 00000000       7227 _u32_Sys_Timer_Count:	.byte	0,0,0,0
                        7228 	.type	_u32_Sys_Timer_Count,@object
                        7229 	.size	_u32_Sys_Timer_Count,4
                        7230 	.global	_u32_FPS_Count
00000010 00000000       7231 _u32_FPS_Count:	.byte	0,0,0,0
                        7232 	.type	_u32_FPS_Count,@object
                        7233 	.size	_u32_FPS_Count,4
                        7234 	.global	_u8cluter_icon_init
00000014 00             7235 _u8cluter_icon_init:	.byte	0
                        7236 	.type	_u8cluter_icon_init,@object
                        7237 	.size	_u8cluter_icon_init,1
                        7238 	.global	_u8cluster_demo_iconflag
00000015 00             7239 _u8cluster_demo_iconflag:	.byte	0
                        7240 	.type	_u8cluster_demo_iconflag,@object
                        7241 	.size	_u8cluster_demo_iconflag,1
                        7242 	.section ".rodata","a"
                        7243 	.global	_tcluster_speed_num_address
00000010 b8000000       7244 _tcluster_speed_num_address:	.byte	184,0,0,0
00000014 b9000000       7245 	.byte	185,0,0,0

                                                                      Page 135
                                                              C:\Users\Frank\AppData\Local\Temp\gh_0000p3g1.si
00000018 ba000000       7246 	.byte	186,0,0,0
0000001c bb000000       7247 	.byte	187,0,0,0
00000020 bc000000       7248 	.byte	188,0,0,0
00000024 bd000000       7249 	.byte	189,0,0,0
00000028 be000000       7250 	.byte	190,0,0,0
0000002c bf000000       7251 	.byte	191,0,0,0
00000030 c0000000       7252 	.byte	192,0,0,0
00000034 c1000000       7253 	.byte	193,0,0,0
                        7254 	.type	_tcluster_speed_num_address,@object
                        7255 	.size	_tcluster_speed_num_address,40
                        7256 	.global	_tcluster_door_pic_addr
00000038 3d000000       7257 _tcluster_door_pic_addr:	.byte	61,0,0,0
0000003c 3e000000       7258 	.byte	62,0,0,0
00000040 3f000000       7259 	.byte	63,0,0,0
00000044 40000000       7260 	.byte	64,0,0,0
00000048 41000000       7261 	.byte	65,0,0,0
0000004c 42000000       7262 	.byte	66,0,0,0
                        7263 	.type	_tcluster_door_pic_addr,@object
                        7264 	.size	_tcluster_door_pic_addr,24
                        7265 	.global	_tcluster_door_pic_parameter
00000050 6e008600       7266 _tcluster_door_pic_parameter:	.byte	110,0,134,0
00000054 2e012e01       7267 	.byte	46,1,46,1
00000058 ae00e900       7268 	.byte	174,0,233,0
0000005c 3a003600       7269 	.byte	58,0,54,0
00000060 2101e900       7270 	.byte	33,1,233,0
00000064 3a003600       7271 	.byte	58,0,54,0
00000068 ae001c01       7272 	.byte	174,0,28,1
0000006c 3a003600       7273 	.byte	58,0,54,0
00000070 21011c01       7274 	.byte	33,1,28,1
00000074 3a003600       7275 	.byte	58,0,54,0
00000078 d7005a01       7276 	.byte	215,0,90,1
0000007c 5c004c00       7277 	.byte	92,0,76,0
                        7278 	.type	_tcluster_door_pic_parameter,@object
                        7279 	.size	_tcluster_door_pic_parameter,48
                        7280 	.data
                        7281 	.global	_u16chart_value
00000016 7800b400       7282 _u16chart_value:	.byte	120,0,180,0
0000001a 8200be00       7283 	.byte	130,0,190,0
0000001e 6e00b400       7284 	.byte	110,0,180,0
00000022 6400c800       7285 	.byte	100,0,200,0
00000026 9600aa00       7286 	.byte	150,0,170,0
0000002a 64008c00       7287 	.byte	100,0,140,0
0000002e b400dc00       7288 	.byte	180,0,220,0
00000032 fa00           7289 	.byte	250,0
00000034 0000           7290 	.space	2
00000036 78007800       7291 	.byte	120,0,120,0
0000003a b4007800       7292 	.byte	180,0,120,0
                        7293 	.type	_u16chart_value,@object
                        7294 	.size	_u16chart_value,40
                        7295 	.global	_u16char_draw_posx
0000003e 92039e03       7296 _u16char_draw_posx:	.byte	146,3,158,3
00000042 aa03b603       7297 	.byte	170,3,182,3
00000046 c203ce03       7298 	.byte	194,3,206,3
0000004a da03e603       7299 	.byte	218,3,230,3
0000004e f203fe03       7300 	.byte	242,3,254,3
00000052 0a041604       7301 	.byte	10,4,22,4
00000056 22042e04       7302 	.byte	34,4,46,4
0000005a 3a044604       7303 	.byte	58,4,70,4
0000005e 52045e04       7304 	.byte	82,4,94,4
00000062 6a047604       7305 	.byte	106,4,118,4
                        7306 	.type	_u16char_draw_posx,@object

                                                                      Page 136
                                                              C:\Users\Frank\AppData\Local\Temp\gh_0000p3g1.si
                        7307 	.size	_u16char_draw_posx,40
                        7308 	.section ".rodata","a"
                        7309 	.global	_tgreenline_left_pic_addr
00000080 93000000       7310 _tgreenline_left_pic_addr:	.byte	147,0,0,0
00000084 96000000       7311 	.byte	150,0,0,0
00000088 97000000       7312 	.byte	151,0,0,0
0000008c 98000000       7313 	.byte	152,0,0,0
00000090 99000000       7314 	.byte	153,0,0,0
00000094 9a000000       7315 	.byte	154,0,0,0
00000098 9b000000       7316 	.byte	155,0,0,0
0000009c 9c000000       7317 	.byte	156,0,0,0
000000a0 9d000000       7318 	.byte	157,0,0,0
000000a4 94000000       7319 	.byte	148,0,0,0
000000a8 95000000       7320 	.byte	149,0,0,0
                        7321 	.type	_tgreenline_left_pic_addr,@object
                        7322 	.size	_tgreenline_left_pic_addr,44
                        7323 	.global	_tgreenline_right_pic_addr
000000ac a9000000       7324 _tgreenline_right_pic_addr:	.byte	169,0,0,0
000000b0 ac000000       7325 	.byte	172,0,0,0
000000b4 ad000000       7326 	.byte	173,0,0,0
000000b8 ae000000       7327 	.byte	174,0,0,0
000000bc af000000       7328 	.byte	175,0,0,0
000000c0 b0000000       7329 	.byte	176,0,0,0
000000c4 b1000000       7330 	.byte	177,0,0,0
000000c8 b2000000       7331 	.byte	178,0,0,0
000000cc b3000000       7332 	.byte	179,0,0,0
000000d0 aa000000       7333 	.byte	170,0,0,0
000000d4 ab000000       7334 	.byte	171,0,0,0
                        7335 	.type	_tgreenline_right_pic_addr,@object
                        7336 	.size	_tgreenline_right_pic_addr,44
                        7337 	.global	_tblueline_right_pic_addr
000000d8 9e000000       7338 _tblueline_right_pic_addr:	.byte	158,0,0,0
000000dc a1000000       7339 	.byte	161,0,0,0
000000e0 a2000000       7340 	.byte	162,0,0,0
000000e4 a3000000       7341 	.byte	163,0,0,0
000000e8 a4000000       7342 	.byte	164,0,0,0
000000ec a5000000       7343 	.byte	165,0,0,0
000000f0 a6000000       7344 	.byte	166,0,0,0
000000f4 a7000000       7345 	.byte	167,0,0,0
000000f8 a8000000       7346 	.byte	168,0,0,0
000000fc 9f000000       7347 	.byte	159,0,0,0
00000100 a0000000       7348 	.byte	160,0,0,0
                        7349 	.type	_tblueline_right_pic_addr,@object
                        7350 	.size	_tblueline_right_pic_addr,44
                        7351 	.global	_tblueline_left_pic_addr
00000104 88000000       7352 _tblueline_left_pic_addr:	.byte	136,0,0,0
00000108 8b000000       7353 	.byte	139,0,0,0
0000010c 8c000000       7354 	.byte	140,0,0,0
00000110 8d000000       7355 	.byte	141,0,0,0
00000114 8e000000       7356 	.byte	142,0,0,0
00000118 8f000000       7357 	.byte	143,0,0,0
0000011c 90000000       7358 	.byte	144,0,0,0
00000120 91000000       7359 	.byte	145,0,0,0
00000124 92000000       7360 	.byte	146,0,0,0
00000128 89000000       7361 	.byte	137,0,0,0
0000012c 8a000000       7362 	.byte	138,0,0,0
                        7363 	.type	_tblueline_left_pic_addr,@object
                        7364 	.size	_tblueline_left_pic_addr,44
                        7365 	.global	_u16leftline_parameter
00000130 3c001c00       7366 _u16leftline_parameter:	.byte	60,0,28,0
00000134 8d01c401       7367 	.byte	141,1,196,1

                                                                      Page 137
                                                              C:\Users\Frank\AppData\Local\Temp\gh_0000p3g1.si
00000138 24002000       7368 	.byte	36,0,32,0
0000013c b401a501       7369 	.byte	180,1,165,1
00000140 20001c00       7370 	.byte	32,0,28,0
00000144 c5018901       7371 	.byte	197,1,137,1
00000148 1e001800       7372 	.byte	30,0,24,0
0000014c d3017101       7373 	.byte	211,1,113,1
00000150 1e001800       7374 	.byte	30,0,24,0
00000154 df015901       7375 	.byte	223,1,89,1
00000158 1e001a00       7376 	.byte	30,0,26,0
0000015c eb014001       7377 	.byte	235,1,64,1
00000160 1c001800       7378 	.byte	28,0,24,0
00000164 f9012801       7379 	.byte	249,1,40,1
00000168 1c001800       7380 	.byte	28,0,24,0
0000016c 05021001       7381 	.byte	5,2,16,1
00000170 1c001a00       7382 	.byte	28,0,26,0
00000174 1102f700       7383 	.byte	17,2,247,0
00000178 1a001800       7384 	.byte	26,0,24,0
0000017c 1f02df00       7385 	.byte	31,2,223,0
00000180 18001400       7386 	.byte	24,0,20,0
00000184 2b02cc00       7387 	.byte	43,2,204,0
                        7388 	.type	_u16leftline_parameter,@object
                        7389 	.size	_u16leftline_parameter,88
                        7390 	.global	_u16rightline_parameter
00000188 3c001c00       7391 _u16rightline_parameter:	.byte	60,0,28,0
0000018c 3b03c401       7392 	.byte	59,3,196,1
00000190 24002000       7393 	.byte	36,0,32,0
00000194 2c03a501       7394 	.byte	44,3,165,1
00000198 20001c00       7395 	.byte	32,0,28,0
0000019c 1f038901       7396 	.byte	31,3,137,1
000001a0 1e001800       7397 	.byte	30,0,24,0
000001a4 13037101       7398 	.byte	19,3,113,1
000001a8 1e001800       7399 	.byte	30,0,24,0
000001ac 07035901       7400 	.byte	7,3,89,1
000001b0 1e001a00       7401 	.byte	30,0,26,0
000001b4 fb024001       7402 	.byte	251,2,64,1
000001b8 1c001800       7403 	.byte	28,0,24,0
000001bc ef022801       7404 	.byte	239,2,40,1
000001c0 1c001800       7405 	.byte	28,0,24,0
000001c4 e3021001       7406 	.byte	227,2,16,1
000001c8 1c001a00       7407 	.byte	28,0,26,0
000001cc d702f700       7408 	.byte	215,2,247,0
000001d0 1a001800       7409 	.byte	26,0,24,0
000001d4 cb02df00       7410 	.byte	203,2,223,0
000001d8 18001400       7411 	.byte	24,0,20,0
000001dc c102cc00       7412 	.byte	193,2,204,0
                        7413 	.type	_u16rightline_parameter,@object
                        7414 	.size	_u16rightline_parameter,88
                        7415 	.data
                        7416 	.section ".bss","awb"
                        7417 	.align	4
                        7418 	.global	_tcluster_window_buffer
00000550 000000000000   7419 _tcluster_window_buffer:	.space	16
00000556 000000000000 
0000055c 00000000 
                        7420 	.type	_tcluster_window_buffer,@object
                        7421 	.size	_tcluster_window_buffer,16
                        7422 	.align	4
                        7423 	.global	_tclusterIcon_array
00000560 000000000000   7424 _tclusterIcon_array:	.space	432
00000566 000000000000 
0000056c 000000000000 

                                                                      Page 138
                                                              C:\Users\Frank\AppData\Local\Temp\gh_0000p3g1.si
00000572 000000000000 
00000578 000000000000 
0000057e 000000000000 
00000584 000000000000 
0000058a 000000000000 
00000590 000000000000 
00000596 000000000000 
0000059c 000000000000 
000005a2 000000000000 
000005a8 000000000000 
000005ae 000000000000 
000005b4 000000000000 
000005ba 000000000000 
000005c0 000000000000 
000005c6 000000000000 
000005cc 000000000000 
000005d2 000000000000 
000005d8 000000000000 
000005de 000000000000 
000005e4 000000000000 
000005ea 000000000000 
000005f0 000000000000 
000005f6 000000000000 
000005fc 000000000000 
00000602 000000000000 
00000608 000000000000 
0000060e 000000000000 
00000614 000000000000 
0000061a 000000000000 
00000620 000000000000 
00000626 000000000000 
0000062c 000000000000 
00000632 000000000000 
00000638 000000000000 
0000063e 000000000000 
00000644 000000000000 
0000064a 000000000000 
00000650 000000000000 
00000656 000000000000 
0000065c 00000000 
                        7425 	.type	_tclusterIcon_array,@object
                        7426 	.size	_tclusterIcon_array,432
                        7427 	.align	2
                        7428 	.global	_u16chart_draw_posy
00000710 000000000000   7429 _u16chart_draw_posy:	.space	40
00000716 000000000000 
0000071c 000000000000 
00000722 000000000000 
00000728 000000000000 
0000072e 000000000000 
00000734 00000000 
                        7430 	.type	_u16chart_draw_posy,@object
                        7431 	.size	_u16chart_draw_posy,40
                        7432 	.align	4
                        7433 	.global	_tcluster_rle_win
00000738 000000000000   7434 _tcluster_rle_win:	.space	84
0000073e 000000000000 
00000744 000000000000 
0000074a 000000000000 
00000750 000000000000 
00000756 000000000000 

                                                                      Page 139
                                                              C:\Users\Frank\AppData\Local\Temp\gh_0000p3g1.si
0000075c 000000000000 
00000762 000000000000 
00000768 000000000000 
0000076e 000000000000 
00000774 000000000000 
0000077a 000000000000 
00000780 000000000000 
00000786 000000000000 
                        7435 	.type	_tcluster_rle_win,@object
                        7436 	.size	_tcluster_rle_win,84
                        7437 	.align	4
                        7438 	.global	_tcluster_draw2d_window
0000078c 000000000000   7439 _tcluster_draw2d_window:	.space	84
00000792 000000000000 
00000798 000000000000 
0000079e 000000000000 
000007a4 000000000000 
000007aa 000000000000 
000007b0 000000000000 
000007b6 000000000000 
000007bc 000000000000 
000007c2 000000000000 
000007c8 000000000000 
000007ce 000000000000 
000007d4 000000000000 
000007da 000000000000 
                        7440 	.type	_tcluster_draw2d_window,@object
                        7441 	.size	_tcluster_draw2d_window,84
                        7442 	.align	4
                        7443 	.global	_tcluster_draw2d_fb
000007e0 000000000000   7444 _tcluster_draw2d_fb:	.space	28
000007e6 000000000000 
000007ec 000000000000 
000007f2 000000000000 
000007f8 00000000 
                        7445 	.type	_tcluster_draw2d_fb,@object
                        7446 	.size	_tcluster_draw2d_fb,28
                        7447 	.data
                        7448 	.ghsnote version,15
                        7449 	.ghsnote tools,3
                        7450 	.ghsnote options,144
                        7451 	.text
                        7452 	.align	2
                        7453 ..eof.C.3A.5Cgit.5Crh850.5Csrc.5Capp.5Cgfx_apps.5Csimple_draw.5Ctarget.5Cd1mx_mango_ghs.5Cobj.5Cw_mag...43.3A.5Cgit.5Crh850.5Csrc.5Capp.5Cgfx_apps.5Csimple_draw.5Ctarget.5Cd1mx_mango_ghs..5BC5D02A..0::
                        7454 .rh850_flags FLOAT,REGMODE22,DATA_ALIGN8,GP_FIX,EP_NONFIX,TP_FIX,REG2_RESERVE,G3M
