                                                                      Page 1
                                                              C:\Users\Frank\AppData\Local\Temp\gh_0000p941.si
Command Line: C:\GHS\V800.V2014.1.7\comp_201417\ease850.exe -w -elf -b0 -I../../../../../app/common/dhd -I../../../../../app/gfx_apps/simple_draw/src -I../../../../../app/gfx_apps/simple_draw/lib -I../../../../../bsp/board//config -I../../../../../bsp/board//src/gfx -I../../../../../bsp/board//src/hmi -I../../../../../bsp/board//src/stdio -I../../../../../bsp/board/d1mx_mango/config -I../../../../../bsp/board/d1mx_mango/src -I../../../../../bsp/board/d1mx_mango/src/gfx -I../../../../../bsp/board/d1mx_mango/src/hmi -I../../../../../bsp/board/d1mx_mango/src/stdio -I../../../../../bsp/gfx/lib -I../../../../../bsp/gfx/src -I../../../../../bsp/hmi/lib -I../../../../../bsp/hmi/src -I../../../../../bsp/lib -I../../../../../bsp/stdio/lib -I../../../../../bsp/stdio/src -I../../../../../cdi/lib -I../../../../../cdi/src -I../../../../../compiler/rh850_ghs/inc -I../../../../../device/d1mx/lib -I../../../../../device/d1mx/macro_cfg -I../../../../../device/d1mx/macro_cfg/csisw -I../../../../../device/d1mx/macro_cfg/davehd -I../../../../../device/d1mx/macro_cfg/ddb -I../../../../../device/d1mx/macro_cfg/drw2d -I../../../../../device/d1mx/macro_cfg/gfxbus -I../../../../../device/d1mx/macro_cfg/gpio -I../../../../../device/d1mx/macro_cfg/hypb -I../../../../../device/d1mx/macro_cfg/hypdb -I../../../../../device/d1mx/macro_cfg/jcua -I../../../../../device/d1mx/macro_cfg/nfmabare -I../../../../../device/d1mx/macro_cfg/octa -I../../../../../device/d1mx/macro_cfg/octacdb -I../../../../../device/d1mx/macro_cfg/ostm -I../../../../../device/d1mx/macro_cfg/pbg -I../../../../../device/d1mx/macro_cfg/riic -I../../../../../device/d1mx/macro_cfg/sfcdb -I../../../../../device/d1mx/macro_cfg/sfma -I../../../../../device/d1mx/macro_cfg/spea -I../../../../../device/d1mx/macro_cfg/tauj -I../../../../../device/d1mx/macro_cfg/tick -I../../../../../device/d1mx/macro_cfg/vdce -I../../../../../device/d1mx/macro_cfg/vowe -I../../../../../device/d1mx/macro_cfg/wm -I../../../../../device/d1mx/macro_cfg/xbus -I../../../../../device/d1mx/src/dev -I../../../../../device/d1mx/src/dhd -I../../../../../device/d1mx/src/hypb -I../../../../../device/d1mx/src/jcua -I../../../../../device/d1mx/src/nfmabare -I../../../../../device/d1mx/src/octa -I../../../../../device/d1mx/src/rh850_ghs -I../../../../../device/d1mx/src/vowe -I../../../../../device/d1x_common/macro_cfg -I../../../../../device/d1x_common/macro_cfg/csisw -I../../../../../device/d1x_common/macro_cfg/davehd -I../../../../../device/d1x_common/macro_cfg/ddb -I../../../../../device/d1x_common/macro_cfg/drw2d -I../../../../../device/d1x_common/macro_cfg/gfxbus -I../../../../../device/d1x_common/macro_cfg/gpio -I../../../../../device/d1x_common/macro_cfg/hypb -I../../../../../device/d1x_common/macro_cfg/hypdb -I../../../../../device/d1x_common/macro_cfg/jcua -I../../../../../device/d1x_common/macro_cfg/nfmabare -I../../../../../device/d1x_common/macro_cfg/octa -I../../../../../device/d1x_common/macro_cfg/octacdb -I../../../../../device/d1x_common/macro_cfg/ostm -I../../../../../device/d1x_common/macro_cfg/pbg -I../../../../../device/d1x_common/macro_cfg/riic -I../../../../../device/d1x_common/macro_cfg/sfcdb -I../../../../../device/d1x_common/macro_cfg/sfma -I../../../../../device/d1x_common/macro_cfg/spea -I../../../../../device/d1x_common/macro_cfg/tauj -I../../../../../device/d1x_common/macro_cfg/tick -I../../../../../device/d1x_common/macro_cfg/vdce -I../../../../../device/d1x_common/macro_cfg/vowe -I../../../../../device/d1x_common/macro_cfg/wm -I../../../../../device/d1x_common/macro_cfg/xbus -I../../../../../device/d1x_common/src/csisw -I../../../../../device/d1x_common/src/ddb -I../../../../../device/d1x_common/src/dev -I../../../../../device/d1x_common/src/gfxbus -I../../../../../device/d1x_common/src/gpio -I../../../../../device/d1x_common/src/ostm -I../../../../../device/d1x_common/src/pbg -I../../../../../device/d1x_common/src/riic -I../../../../../device/d1x_common/src/sfma -I../../../../../device/d1x_common/src/spea -I../../../../../device/d1x_common/src/tauj -I../../../../../device/d1x_common/src/tick -I../../../../../device/d1x_common/src/vdce -I../../../../../device/d1x_common/src/wm -I../../../../../device/d1x_common/src/xbus -I../../../../../device/lib -I../../../../../macro/bus/pbg/lib -I../../../../../macro/bus/pbg/src -I../../../../../macro/csi/csisw/lib -I../../../../../macro/csi/csisw/src -I../../../../../macro/drw2d/lib -I../../../../../macro/drw2d/platform/davehd -I../../../../../macro/drw2d/platform/os/no_os -I../../../../../macro/drw2d/src -I../../../../../macro/flashc/hypb/lib -I../../../../../macro/flashc/hypb/src -I../../../../../macro/flashc/hypdb/lib -I../../../../../macro/flashc/hypdb/src -I../../../../../macro/flashc/nfmabare/lib -I../../../../../macro/flashc/nfmabare/src -I../../../../../macro/flashc/octa/lib -I../../../../../macro/flashc/octa/src -I../../../../../macro/flashc/octacdb/lib -I../../../../../macro/flashc/octacdb/src -I../../../../../macro/flashc/sfcdb/lib -I../../../../../macro/flashc/sfcdb/src -I../../../../../macro/flashc/sfma/lib -I../../../../../macro/flashc/sfma/src -I../../../../../macro/gfxbus/lib -I../../../../../macro/gfxbus/src -I../../../../../macro/gfxbus/xbus/lib -I../../../../../macro/gfxbus/xbus/src -I../../../../../macro/gpio/lib -I../../../../../macro/gpio/src -I../../../../../macro/gpu/davehd/common/inc -I../../../../../macro/gpu/davehd/common/inc/platform -I../../../../../macro/gpu/davehd/common/inc/platform/d1mx -I../../../../../macro/gpu/davehd/docs -I../../../../../macro/gpu/davehd/kernel/inc -I../../../../../macro/gpu/davehd/kernel/platform/d1mx -I../../../../../macro/gpu/davehd/kernel/platform/d1mx/bridge -I../../../../../macro/gpu/davehd/kernel/platform/d1mx/non_threaded -I../../../../../macro/gpu/davehd/kernel/platform/ree -I../../../../../macro/gpu/davehd/kernel/src -I../../../../../macro/gpu/davehd/user/inc -I../../../../../macro/gpu/davehd/user/platform/d1mx/no_os -I../../../../../macro/gpu/davehd/user/src -I../../../../../macro/gpu/jcua/lib -I../../../../../macro/gpu/jcua/src -I../../../../../macro/i2c/riic/lib -I../../../../../macro/i2c/riic/src -I../../../../../macro/tick/lib -I../../../../../macro/tick/src -I../../../../../macro/timer/ostm/lib -I../../../../../macro/timer/ostm/src -I../../../../../macro/timer/tauj/lib -I../../../../../macro/timer/tauj/src -I../../../../../macro/vdce/lib -I../../../../../macro/vdce/src -I../../../../../macro/vo/ddb/lib -I../../../../../macro/vo/ddb/src -I../../../../../macro/vo/spea/lib -I../../../../../macro/vo/spea/src -I../../../../../macro/vo/vowe/lib -I../../../../../macro/vo/vowe/src -I../../../../../macro/wm/lib -I../../../../../macro/wm/src -I../../../../../macro/pwm/lib -I../../../../../macro/reset/lib -I../../../../../macro/rscan/lib -I../../../../../macro/uart/rlin3/lib -I../../../../../macro/uart/rlin3/src -I../../../../../device/d1x_common/macro_cfg/rlin3 -I../../../../../macro/stbc/lib -I../../../../../macro/adc/lib -I../../../../../device/d1x_common/macro_cfg/adc7010 -IC:\GHS\V800.V2014.1.7\comp_201417\lib\rh850_22 -cg_underscore -cpu=rh850g3m -no_v850_simd -rh850_fpsimd=none -nomacro -patch_dbo=C:\git\rh850\src\app\gfx_apps\simple_draw\target\d1mx_mango_ghs\obj\w_rscan_task.dbo -source=w_rscan_task.c -o .\obj\gh_0000p941.o -list=.\obj\w_rscan_task.lst C:\Users\Frank\AppData\Local\Temp\gh_0000p941.si 
Original File: C:\Users\Frank\AppData\Local\Temp\gh_0000p941.si
Source File: w_rscan_task.c
Directory: C:\git\rh850\src\app\gfx_apps\simple_draw\target\d1mx_mango_ghs
Host OS: Windows
EASE: Copyright (C) 1983-2014 Green Hills Software.  All Rights Reversed.
Release: Compiler v2014.1.7
Build Directory: [Directory] BTOWINBOX:c:/build_2014_1_bto/2014-09-04.2200-2014_1_bto/win32-comp-ecom
Revision: [VCInfo] http://toolsvc/branches/release-branch-2014-1-bto/src@515859 (built by build)
Revision Date: Fri Sep 05 14:05:06 2014

Release Date: Fri Sep 05 14:43:29 2014

                           1 --Driver Command: ccv850 -c -MD -I../../../../../app/common/dhd
                           2 --		-I../../../../../app/gfx_apps/simple_draw/src
                           3 --		-I../../../../../app/gfx_apps/simple_draw/lib
                           4 --		-I../../../../../bsp/board//config
                           5 --		-I../../../../../bsp/board//src/gfx
                           6 --		-I../../../../../bsp/board//src/hmi
                           7 --		-I../../../../../bsp/board//src/stdio
                           8 --		-I../../../../../bsp/board/d1mx_mango/config
                           9 --		-I../../../../../bsp/board/d1mx_mango/src
                          10 --		-I../../../../../bsp/board/d1mx_mango/src/gfx
                          11 --		-I../../../../../bsp/board/d1mx_mango/src/hmi
                          12 --		-I../../../../../bsp/board/d1mx_mango/src/stdio
                          13 --		-I../../../../../bsp/gfx/lib -I../../../../../bsp/gfx/src
                          14 --		-I../../../../../bsp/hmi/lib -I../../../../../bsp/hmi/src
                          15 --		-I../../../../../bsp/lib -I../../../../../bsp/stdio/lib
                          16 --		-I../../../../../bsp/stdio/src -I../../../../../cdi/lib
                          17 --		-I../../../../../cdi/src -I../../../../../compiler/rh850_ghs/inc
                          18 --		-I../../../../../device/d1mx/lib
                          19 --		-I../../../../../device/d1mx/macro_cfg
                          20 --		-I../../../../../device/d1mx/macro_cfg/csisw
                          21 --		-I../../../../../device/d1mx/macro_cfg/davehd
                          22 --		-I../../../../../device/d1mx/macro_cfg/ddb
                          23 --		-I../../../../../device/d1mx/macro_cfg/drw2d
                          24 --		-I../../../../../device/d1mx/macro_cfg/gfxbus
                          25 --		-I../../../../../device/d1mx/macro_cfg/gpio
                          26 --		-I../../../../../device/d1mx/macro_cfg/hypb
                          27 --		-I../../../../../device/d1mx/macro_cfg/hypdb
                          28 --		-I../../../../../device/d1mx/macro_cfg/jcua
                          29 --		-I../../../../../device/d1mx/macro_cfg/nfmabare
                          30 --		-I../../../../../device/d1mx/macro_cfg/octa
                          31 --		-I../../../../../device/d1mx/macro_cfg/octacdb
                          32 --		-I../../../../../device/d1mx/macro_cfg/ostm
                          33 --		-I../../../../../device/d1mx/macro_cfg/pbg
                          34 --		-I../../../../../device/d1mx/macro_cfg/riic
                          35 --		-I../../../../../device/d1mx/macro_cfg/sfcdb
                          36 --		-I../../../../../device/d1mx/macro_cfg/sfma
                          37 --		-I../../../../../device/d1mx/macro_cfg/spea
                          38 --		-I../../../../../device/d1mx/macro_cfg/tauj
                          39 --		-I../../../../../device/d1mx/macro_cfg/tick
                          40 --		-I../../../../../device/d1mx/macro_cfg/vdce
                          41 --		-I../../../../../device/d1mx/macro_cfg/vowe
                          42 --		-I../../../../../device/d1mx/macro_cfg/wm
                          43 --		-I../../../../../device/d1mx/macro_cfg/xbus
                          44 --		-I../../../../../device/d1mx/src/dev
                          45 --		-I../../../../../device/d1mx/src/dhd
                          46 --		-I../../../../../device/d1mx/src/hypb
                          47 --		-I../../../../../device/d1mx/src/jcua
                          48 --		-I../../../../../device/d1mx/src/nfmabare
                          49 --		-I../../../../../device/d1mx/src/octa
                          50 --		-I../../../../../device/d1mx/src/rh850_ghs

                                                                      Page 2
                                                              C:\Users\Frank\AppData\Local\Temp\gh_0000p941.si
                          51 --		-I../../../../../device/d1mx/src/vowe
                          52 --		-I../../../../../device/d1x_common/macro_cfg
                          53 --		-I../../../../../device/d1x_common/macro_cfg/csisw
                          54 --		-I../../../../../device/d1x_common/macro_cfg/davehd
                          55 --		-I../../../../../device/d1x_common/macro_cfg/ddb
                          56 --		-I../../../../../device/d1x_common/macro_cfg/drw2d
                          57 --		-I../../../../../device/d1x_common/macro_cfg/gfxbus
                          58 --		-I../../../../../device/d1x_common/macro_cfg/gpio
                          59 --		-I../../../../../device/d1x_common/macro_cfg/hypb
                          60 --		-I../../../../../device/d1x_common/macro_cfg/hypdb
                          61 --		-I../../../../../device/d1x_common/macro_cfg/jcua
                          62 --		-I../../../../../device/d1x_common/macro_cfg/nfmabare
                          63 --		-I../../../../../device/d1x_common/macro_cfg/octa
                          64 --		-I../../../../../device/d1x_common/macro_cfg/octacdb
                          65 --		-I../../../../../device/d1x_common/macro_cfg/ostm
                          66 --		-I../../../../../device/d1x_common/macro_cfg/pbg
                          67 --		-I../../../../../device/d1x_common/macro_cfg/riic
                          68 --		-I../../../../../device/d1x_common/macro_cfg/sfcdb
                          69 --		-I../../../../../device/d1x_common/macro_cfg/sfma
                          70 --		-I../../../../../device/d1x_common/macro_cfg/spea
                          71 --		-I../../../../../device/d1x_common/macro_cfg/tauj
                          72 --		-I../../../../../device/d1x_common/macro_cfg/tick
                          73 --		-I../../../../../device/d1x_common/macro_cfg/vdce
                          74 --		-I../../../../../device/d1x_common/macro_cfg/vowe
                          75 --		-I../../../../../device/d1x_common/macro_cfg/wm
                          76 --		-I../../../../../device/d1x_common/macro_cfg/xbus
                          77 --		-I../../../../../device/d1x_common/src/csisw
                          78 --		-I../../../../../device/d1x_common/src/ddb
                          79 --		-I../../../../../device/d1x_common/src/dev
                          80 --		-I../../../../../device/d1x_common/src/gfxbus
                          81 --		-I../../../../../device/d1x_common/src/gpio
                          82 --		-I../../../../../device/d1x_common/src/ostm
                          83 --		-I../../../../../device/d1x_common/src/pbg
                          84 --		-I../../../../../device/d1x_common/src/riic
                          85 --		-I../../../../../device/d1x_common/src/sfma
                          86 --		-I../../../../../device/d1x_common/src/spea
                          87 --		-I../../../../../device/d1x_common/src/tauj
                          88 --		-I../../../../../device/d1x_common/src/tick
                          89 --		-I../../../../../device/d1x_common/src/vdce
                          90 --		-I../../../../../device/d1x_common/src/wm
                          91 --		-I../../../../../device/d1x_common/src/xbus
                          92 --		-I../../../../../device/lib -I../../../../../macro/bus/pbg/lib
                          93 --		-I../../../../../macro/bus/pbg/src
                          94 --		-I../../../../../macro/csi/csisw/lib
                          95 --		-I../../../../../macro/csi/csisw/src
                          96 --		-I../../../../../macro/drw2d/lib
                          97 --		-I../../../../../macro/drw2d/platform/davehd
                          98 --		-I../../../../../macro/drw2d/platform/os/no_os
                          99 --		-I../../../../../macro/drw2d/src
                         100 --		-I../../../../../macro/flashc/hypb/lib
                         101 --		-I../../../../../macro/flashc/hypb/src
                         102 --		-I../../../../../macro/flashc/hypdb/lib
                         103 --		-I../../../../../macro/flashc/hypdb/src
                         104 --		-I../../../../../macro/flashc/nfmabare/lib
                         105 --		-I../../../../../macro/flashc/nfmabare/src
                         106 --		-I../../../../../macro/flashc/octa/lib
                         107 --		-I../../../../../macro/flashc/octa/src
                         108 --		-I../../../../../macro/flashc/octacdb/lib
                         109 --		-I../../../../../macro/flashc/octacdb/src
                         110 --		-I../../../../../macro/flashc/sfcdb/lib
                         111 --		-I../../../../../macro/flashc/sfcdb/src

                                                                      Page 3
                                                              C:\Users\Frank\AppData\Local\Temp\gh_0000p941.si
                         112 --		-I../../../../../macro/flashc/sfma/lib
                         113 --		-I../../../../../macro/flashc/sfma/src
                         114 --		-I../../../../../macro/gfxbus/lib
                         115 --		-I../../../../../macro/gfxbus/src
                         116 --		-I../../../../../macro/gfxbus/xbus/lib
                         117 --		-I../../../../../macro/gfxbus/xbus/src
                         118 --		-I../../../../../macro/gpio/lib -I../../../../../macro/gpio/src
                         119 --		-I../../../../../macro/gpu/davehd/common/inc
                         120 --		-I../../../../../macro/gpu/davehd/common/inc/platform
                         121 --		-I../../../../../macro/gpu/davehd/common/inc/platform/d1mx
                         122 --		-I../../../../../macro/gpu/davehd/docs
                         123 --		-I../../../../../macro/gpu/davehd/kernel/inc
                         124 --		-I../../../../../macro/gpu/davehd/kernel/platform/d1mx
                         125 --		-I../../../../../macro/gpu/davehd/kernel/platform/d1mx/bridge
                         126 --		-I../../../../../macro/gpu/davehd/kernel/platform/d1mx/non_threaded
                         127 --		-I../../../../../macro/gpu/davehd/kernel/platform/ree
                         128 --		-I../../../../../macro/gpu/davehd/kernel/src
                         129 --		-I../../../../../macro/gpu/davehd/user/inc
                         130 --		-I../../../../../macro/gpu/davehd/user/platform/d1mx/no_os
                         131 --		-I../../../../../macro/gpu/davehd/user/src
                         132 --		-I../../../../../macro/gpu/jcua/lib
                         133 --		-I../../../../../macro/gpu/jcua/src
                         134 --		-I../../../../../macro/i2c/riic/lib
                         135 --		-I../../../../../macro/i2c/riic/src
                         136 --		-I../../../../../macro/tick/lib -I../../../../../macro/tick/src
                         137 --		-I../../../../../macro/timer/ostm/lib
                         138 --		-I../../../../../macro/timer/ostm/src
                         139 --		-I../../../../../macro/timer/tauj/lib
                         140 --		-I../../../../../macro/timer/tauj/src
                         141 --		-I../../../../../macro/vdce/lib -I../../../../../macro/vdce/src
                         142 --		-I../../../../../macro/vo/ddb/lib
                         143 --		-I../../../../../macro/vo/ddb/src
                         144 --		-I../../../../../macro/vo/spea/lib
                         145 --		-I../../../../../macro/vo/spea/src
                         146 --		-I../../../../../macro/vo/vowe/lib
                         147 --		-I../../../../../macro/vo/vowe/src -I../../../../../macro/wm/lib
                         148 --		-I../../../../../macro/wm/src -I../../../../../macro/pwm/lib
                         149 --		-I../../../../../macro/i2c/riic/lib
                         150 --		-I../../../../../macro/reset/lib -I../../../../../macro/rscan/lib
                         151 --		-I../../../../../macro/uart/rlin3/lib
                         152 --		-I../../../../../macro/uart/rlin3/src
                         153 --		-I../../../../../device/d1x_common/macro_cfg/rlin3
                         154 --		-I../../../../../macro/stbc/lib
                         155 --		-I../../../../../app/gfx_apps/simple_draw/lib
                         156 --		-I../../../../../macro/adc/lib
                         157 --		-I../../../../../device/d1x_common/macro_cfg/adc7010 -G
                         158 --		--no_commons --no_implicit_include --prototype_errors
                         159 --		-DRENESAS_D1X -DR_DRW2D_OS_NO_OS -DR_DRW2D_SYS_DHD
                         160 --		-DUSED_CPU=RH850G3M -DUSE_BSP_GFX -DUSE_BSP_HMI -DUSE_BSP_STDIO
                         161 --		-DUSE_CDI -DUSE_CSISW -DUSE_DAVEHD -DUSE_DDB -DUSE_DRW2D
                         162 --		-DUSE_GFXBUS -DUSE_GPIO -DUSE_HYPB -DUSE_HYPDB -DUSE_JCUA
                         163 --		-DUSE_NFMABARE -DUSE_OCTA -DUSE_OCTACDB -DUSE_OSTM -DUSE_PBG
                         164 --		-DUSE_RIIC -DUSE_SFCDB -DUSE_SFMA -DUSE_SPEA -DUSE_TAUJ
                         165 --		-DUSE_TICK -DUSE_VDCE -DUSE_WM -DUSE_XBUS -DMAG -MD -Zuse1bit
                         166 --		-allocate_ep -cpu=rh850g3m -large_sda -list -no_callt -notda
                         167 --		-passsource -preprocess_assembly_files -registermode=22
                         168 --		-reserve_r2 --diag_warning 1 -object_dir=./obj -DUSE_VDCE_OPENLDI
                         169 --		-gnu99 -filetype.c
                         170 --		..\..\..\..\gfx_apps\simple_draw\src\w_rscan_task.c -o
                         171 --		.\obj\w_rscan_task.o
                         172 --Source File:   ..\..\..\..\gfx_apps\simple_draw\src\w_rscan_task.c

                                                                      Page 4
                                                              C:\Users\Frank\AppData\Local\Temp\gh_0000p941.si
                         173 --Directory:     
                         174 --		C:\git\rh850\src\app\gfx_apps\simple_draw\target\d1mx_mango_ghs
                         175 --Compile Date:  Tue Oct 16 19:48:57 2018
                         176 --Host OS:       Win32
                         177 --Version:       C-RH850 2014.1.7 RELEASE VERSION
                         178 --Release:       Compiler v2014.1.7
                         179 --Revision Date: Fri Sep 05 14:10:46 2014
                         180 --Release Date:  Fri Sep 05 14:44:23 2014
                         181 -- ecom  -g -w
                         182 
                         183 --2: /*============================================================================
                         184 --3:  Includes
                         185 --4: ============================================================================*/
                         186 --5: #include "r_dev_api.h"
                         187 --6: #include "w_rscan_task.h"
                         188 --7: #include "w_sys_pwm.h"
                         189 --8: #include "r_bsp_stdio_api.h"
                         190 --9: #include "w_system.h"
                         191 --10: #include "obd2_pids.h"
                         192 --11: #include "nios.h"
                         193 --13: extern mars_info_def gtmars_info;
                         194 --14: extern queue_task_def gtqueue_manager;
                         195 --15: extern task_recorder_def gttask_recorder[_TASK_NUM];
                         196 --16:  
                         197 --17: //============================================================================================================
                         198 --18: // Table defines
                         199 --19: //============================================================================================================
                         200 --20: void (*const RSCAN_State_Machine[_MAX_RSCAN_ST_NO])(void) = 
                         201 --21: {W_RSCAN_Task_Init , W_RSCAN_Timimg , W_RSCAN_Error}; 
                         202 --22: /*============================================================================
                         203 --23:  Variables
                         204 --24: ============================================================================*/
                         205 --25: unsigned long ul_interrupt_counter;     /* interrupt occurences counter */
                         206 --27: /* Create Can_FrameType for send and receive data */
                         207 --28: Can_FrameType tcan_cluster =
                         208 --29: {
                         209 --30:     //CiTBpA
                         210 --31:     0x429,
                         211 --32:     0,
                         212 --33:     0,
                         213 --34:     0,
                         214 --36:     //CiTBpB
                         215 --37:     0x0000,
                         216 --38:     0x000,
                         217 --39:     0x8,
                         218 --41:     {
                         219 --42:         0x00,                            //DB0
                         220 --43:         0x00,                            //DB1
                         221 --44:         0x00,                            //DB2
                         222 --45:         0x00,                            //DB3
                         223 --46:         //CiTBpD
                         224 --47:         0x00,                            //DB4
                         225 --48:         0x00,                            //DB5
                         226 --49:         0x00,                            //DB6
                         227 --50:         0x00                             //DB7
                         228 --51:     }
                         229 --52: };
                         230 --54: /* Create Can_FrameType for send and receive data */
                         231 --55: /*
                         232 --56: Can_FrameType tcan_trans_rpm =
                         233 --57: {

                                                                      Page 5
                                                              C:\Users\Frank\AppData\Local\Temp\gh_0000p941.si
                         234 --58:     //CiTBpA
                         235 --59:     0x7DF,
                         236 --60:     0,
                         237 --61:     0,
                         238 --62:     0,
                         239 --64:     //CiTBpB
                         240 --65:     0x0000,
                         241 --66:     0x000,
                         242 --67:     0x8,
                         243 --69:     {
                         244 --70:         0x02,                            //DB0
                         245 --71:         0x01,                            //DB1
                         246 --72:         0x0C,                            //DB2
                         247 --73:         0x00,                            //DB3
                         248 --74:         //CiTBpD
                         249 --75:         0x00,                            //DB4
                         250 --76:         0x00,                            //DB5
                         251 --77:         0x00,                            //DB6
                         252 --78:         0x00                             //DB7
                         253 --79:     }
                         254 --80: };
                         255 --81: */
                         256 --82: /* Create Can_FrameType for send and receive data */
                         257 --83: /*
                         258 --84: Can_FrameType tcan_trans_tmp =
                         259 --85: {
                         260 --86:     //CiTBpA
                         261 --87:     0x7DF,
                         262 --88:     0,
                         263 --89:     0,
                         264 --90:     0,
                         265 --92:     //CiTBpB
                         266 --93:     0x0000,
                         267 --94:     0x000,
                         268 --95:     0x8,
                         269 --97:     {
                         270 --98:         0x02,                            //DB0
                         271 --99:         0x01,                            //DB1
                         272 --100:         0x05,                            //DB2
                         273 --101:         0x00,                            //DB3
                         274 --102:         //CiTBpD
                         275 --103:         0x00,                            //DB4
                         276 --104:         0x00,                            //DB5
                         277 --105:         0x00,                            //DB6
                         278 --106:         0x00                             //DB7
                         279 --107:     }
                         280 --108: };
                         281 --109: */
                         282 --111: Can_FrameType tcan_Reci_buffer;
                         283 --113: void W_RSCAN_Short_Delay(uint16_t u16delay)
                         284 	.text
                         285 ..bof.C.3A.5Cgit.5Crh850.5Csrc.5Capp.5Cgfx_apps.5Csimple_draw.5Ctarget.5Cd1mx_mango_ghs.5Cobj.5Cw_rscan_task...43.3A.5Cgit.5Crh850.5Csrc.5Capp.5Cgfx_apps.5Csimple_draw.5Ctarget.5Cd1mx_mango_ghs..5BC5D02B..0::
                         286 	.align	2
                         287 	.global	_W_RSCAN_Short_Delay
                         288 _W_RSCAN_Short_Delay:
00000000 c66effff        289 	andi	65535,r6,r13
                         290 --	    .bf
                         291 .LDW01:
                         292 --114: {
                         293 --115:     uint16_t u16counter1 = 0;
00000004 0072            294 	mov	0,r14

                                                                      Page 6
                                                              C:\Users\Frank\AppData\Local\Temp\gh_0000p941.si
                         295 --116:     uint16_t u16counter2 = 0;
00000006 000a            296 	mov	0,r1
                         297 --117:     for(u16counter1 = 0; u16counter1 < u16delay; u16counter1++)
00000008 0072            298 	mov	0,r14
0000000a 950d*           299 	br	.L7
                         300 .L6:
                         301 --118:         for(u16counter2 = 0; u16counter2 < 10000; u16counter2++);
                         302 --line118
                         303 ..lin.C.3A.5Cgit.5Crh850.5Csrc.5Capp.5Cgfx_apps.5Csimple_draw.5Ctarget.5Cd1mx_mango_ghs.5Cobj.5Cw_rscan_task.1::
                         304 .LDWlin1:
0000000c 000a            305 	mov	0,r1
                         306 .L10:
0000000e 410a            307 	add	1,r1
00000010 c100            308 	zxh	r1
00000012 0106f0d8        309 	addi	-10000,r1,zero
00000016 c9fd*           310 	bnl	.L10
                         311 --line117
                         312 ..lin.C.3A.5Cgit.5Crh850.5Csrc.5Capp.5Cgfx_apps.5Csimple_draw.5Ctarget.5Cd1mx_mango_ghs.5Cobj.5Cw_rscan_task.2::
                         313 .LDWlin2:
00000018 4172            314 	add	1,r14
0000001a ce00            315 	zxh	r14
                         316 .L7:
0000001c ed71            317 	cmp	r13,r14
0000001e f1f5*           318 	bl	.L6
                         319 --119: }
                         320 --	    .ef
                         321 .LDW11:
                         322 --line119
                         323 ..lin.C.3A.5Cgit.5Crh850.5Csrc.5Capp.5Cgfx_apps.5Csimple_draw.5Ctarget.5Cd1mx_mango_ghs.5Cobj.5Cw_rscan_task.3::
                         324 .LDWlin3:
00000020 7f00            325 	jmp	[lp]
                         326 	.type	_W_RSCAN_Short_Delay,@function
                         327 	.size	_W_RSCAN_Short_Delay,.-_W_RSCAN_Short_Delay
                         328 	.align	2
                         329 .LDW21:
                         330 --_u16counter1	r14	local
                         331 --_u16counter2	r1	local
                         332 
                         333 --_u16delay	r13	param
                         334 
                         335 	.section ".bss","awb"
                         336 .L70:
                         337 	.type	.L70,@object
                         338 	.size	.L70,0
                         339 	.data
                         340 	.text
                         341 
                         342 
                         343 --121: void W_RSCAN_ChangeState(uint8_t u8canstate)
                         344 	.align	2
                         345 	.align	2
                         346 	.align	2
                         347 	.global	_W_RSCAN_ChangeState
                         348 _W_RSCAN_ChangeState:
00000022 80076100        349 	prepare	{r29,r31},0
00000026 c6eeff00        350 	andi	255,r6,r29
                         351 --	    .bf
                         352 .LDW31:
                         353 --122: {    
                         354 --123:     if(u8canstate ==_STATE_RSCAN_TIMING)
0000002a 61ea            355 	cmp	1,r29

                                                                      Page 7
                                                              C:\Users\Frank\AppData\Local\Temp\gh_0000p941.si
0000002c 8a0d*           356 	bne	.L114
                         357 --124:     {
                         358 --125: //        W_Task_ChangeState(_TYPE_RSCAN, _LEVEL5, _STATE_RSCAN_TIMING, RSCAN_State_Machine[_STATE_RSCAN_TIMING]);
                         359 --126:         W_Task_ChangeEvent(_TYPE_RSCAN, _LEVEL4, _EVENT_LOOP);
                         360 --line126
                         361 ..lin.C.3A.5Cgit.5Crh850.5Csrc.5Capp.5Cgfx_apps.5Csimple_draw.5Ctarget.5Cd1mx_mango_ghs.5Cobj.5Cw_rscan_task.4::
                         362 .LDWlin4:
0000002e 2036a000        363 	movea	160,zero,r6
00000032 043a            364 	mov	4,r7
00000034 0742            365 	mov	7,r8
                         366 	jarl	_W_Task_ChangeEvent,lp
                         366 <EXPANSION BEGIN>
                         366 jarl22 _W_Task_ChangeEvent , lp 
00000036 80ff0000*       366 <EXPANSION END>
0000003a c50d*           367 	br	.L116
                         368 .L114:
                         369 --127:     }
                         370 --128:     else
                         371 --129:         W_Task_ChangeState(_TYPE_RSCAN, _LEVEL5, _STATE_RSCAN_ERROR, RSCAN_State_Machine[_STATE_RSCAN_ERROR]);
                         372 --line129
                         373 ..lin.C.3A.5Cgit.5Crh850.5Csrc.5Capp.5Cgfx_apps.5Csimple_draw.5Ctarget.5Cd1mx_mango_ghs.5Cobj.5Cw_rscan_task.5::
                         374 .LDWlin5:
0000003c 290600000000*   375 	mov	_RSCAN_State_Machine+8,r9
00000042 294f0100        376 	ld.w	0[r9],r9
00000046 2036a000        377 	movea	160,zero,r6
0000004a 053a            378 	mov	5,r7
0000004c 0242            379 	mov	2,r8
                         380 	jarl	_W_Task_ChangeState,lp
                         380 <EXPANSION BEGIN>
                         380 jarl22 _W_Task_ChangeState , lp 
0000004e 80ff0000*       380 <EXPANSION END>
                         381 .L116:
                         382 --130:     Task_Done(gtqueue_manager.u8current_point);    
                         383 --line130
                         384 ..lin.C.3A.5Cgit.5Crh850.5Csrc.5Capp.5Cgfx_apps.5Csimple_draw.5Ctarget.5Cd1mx_mango_ghs.5Cobj.5Cw_rscan_task.6::
                         385 .LDWlin6:
00000052 260600000000*   386 	mov	_gtqueue_manager+24,r6
00000058 86370100        387 	ld.bu	0[r6],r6
                         388 	jarl	_Task_Done,lp
                         388 <EXPANSION BEGIN>
                         388 jarl22 _Task_Done , lp 
0000005c 80ff0000*       388 <EXPANSION END>
                         389 --131: }
                         390 --	    .ef
                         391 .LDW41:
                         392 --line131
                         393 ..lin.C.3A.5Cgit.5Crh850.5Csrc.5Capp.5Cgfx_apps.5Csimple_draw.5Ctarget.5Cd1mx_mango_ghs.5Cobj.5Cw_rscan_task.7::
                         394 .LDWlin7:
00000060 40067f00        395 	dispose	0,{r29,r31},[lp]
                         396 	.type	_W_RSCAN_ChangeState,@function
                         397 	.size	_W_RSCAN_ChangeState,.-_W_RSCAN_ChangeState
                         398 	.align	2
                         399 .LDW51:
                         400 
                         401 --_u8canstate	r29	param
                         402 
                         403 	.section ".bss","awb"
                         404 .L158:
                         405 	.type	.L158,@object
                         406 	.size	.L158,0
                         407 	.data

                                                                      Page 8
                                                              C:\Users\Frank\AppData\Local\Temp\gh_0000p941.si
                         408 	.text
                         409 
                         410 
                         411 --133: void W_RSCAN_Buffer_Init(void)
                         412 	.align	2
                         413 	.align	2
                         414 	.global	_W_RSCAN_Buffer_Init
                         415 _W_RSCAN_Buffer_Init:
                         416 --	    .bf
                         417 .LDW61:
                         418 --134: {
                         419 --135:     uint8_t u8i;
                         420 --136:     for(u8i = 0;u8i < _FILTER_SIZE; u8i++)
00000064 000a            421 	mov	0,r1
                         422 .L186:
                         423 --137:     {
00000066 410a            424 	add	1,r1
00000068 8100            425 	zxb	r1
0000006a 640a            426 	cmp	4,r1
0000006c d1fd*           427 	bl	.L186
                         428 --138:     }
                         429 --139: }
                         430 --	    .ef
                         431 .LDW71:
                         432 --line139
                         433 ..lin.C.3A.5Cgit.5Crh850.5Csrc.5Capp.5Cgfx_apps.5Csimple_draw.5Ctarget.5Cd1mx_mango_ghs.5Cobj.5Cw_rscan_task.8::
                         434 .LDWlin8:
0000006e 7f00            435 	jmp	[lp]
                         436 	.type	_W_RSCAN_Buffer_Init,@function
                         437 	.size	_W_RSCAN_Buffer_Init,.-_W_RSCAN_Buffer_Init
                         438 	.align	2
                         439 .LDW81:
                         440 --_u8i	r1	local
                         441 
                         442 	.section ".bss","awb"
                         443 .L222:
                         444 	.type	.L222,@object
                         445 	.size	.L222,0
                         446 	.data
                         447 	.text
                         448 
                         449 
                         450 --141: void W_RSCAN_Clear_MailBox(const uint8_t qID) {
                         451 	.align	2
                         452 	.align	2
                         453 	.global	_W_RSCAN_Clear_MailBox
                         454 _W_RSCAN_Clear_MailBox:
00000070 c60eff00        455 	andi	255,r6,r1
                         456 --	    .bf
                         457 .LDW91:
                         458 --142:     /* don't wait */
                         459 --143:     CLR_BIT(RSCAN0RMND0, qID);	//To clear a flag to 0, the program must write 0 to the flag               
00000074 0172            460 	mov	1,r14
00000076 e177c270        461 	shl	r1,r14,r14
0000007a 2e68            462 	not	r14,r13
0000007c 8007897201a0    463 	ld.w	4291821736[zero],r14
00000082 4d71            464 	and	r13,r14
00000084 80078f7201a0    465 	st.w	r14,4291821736[zero]
                         466 --144: }
                         467 --	    .ef
                         468 .LDW02:

                                                                      Page 9
                                                              C:\Users\Frank\AppData\Local\Temp\gh_0000p941.si
0000008a 7f00            469 	jmp	[lp]
                         470 	.type	_W_RSCAN_Clear_MailBox,@function
                         471 	.size	_W_RSCAN_Clear_MailBox,.-_W_RSCAN_Clear_MailBox
                         472 	.align	2
                         473 .LDW12:
                         474 
                         475 --_qID	r1	param
                         476 
                         477 	.section ".bss","awb"
                         478 .L274:
                         479 	.type	.L274,@object
                         480 	.size	.L274,0
                         481 	.data
                         482 	.text
                         483 
                         484 
                         485 --146: /* rx mailbox 0 */
                         486 --147: void W_RSCAN_ID287(const uint8_t qID)
                         487 	.align	2
                         488 	.align	2
                         489 	.global	_W_RSCAN_ID287
                         490 _W_RSCAN_ID287:
0000008c 8e07e110        491 	prepare	{r27,r28,r29,r31},7
00000090 c6e6ff00        492 	andi	255,r6,r28
                         493 --	    .bf
                         494 .LDW22:
                         495 --148: {
                         496 --149:     uint16_t ts = RSCAN0GTSCL;
00000094 a00747d901a0    497 	ld.hu	4291821716[zero],r27
                         498 --150:     Can_FrameType* pFrame;
                         499 --152:     if(GET_BIT(RSCAN0RMND0, qID) == CAN_SET) {
0000009a 8007890a01a0    500 	ld.w	4291821736[zero],r1
000000a0 fc0f8208        501 	shr	r28,r1,r1
000000a4 810a            502 	shr	1,r1
000000a6 b955*           503 	bnl	.L291
                         504 --153:         W_RSCAN_Clear_MailBox(qID);
                         505 --line153
                         506 ..lin.C.3A.5Cgit.5Crh850.5Csrc.5Capp.5Cgfx_apps.5Csimple_draw.5Ctarget.5Cd1mx_mango_ghs.5Cobj.5Cw_rscan_task.9::
                         507 .LDWlin9:
000000a8 1c30            508 	mov	r28,r6
                         509 	jarl	_W_RSCAN_Clear_MailBox,lp
                         509 <EXPANSION BEGIN>
                         509 jarl22 _W_RSCAN_Clear_MailBox , lp 
000000aa bfffc6ff*       509 <EXPANSION END>
                         510 --154:         pFrame = (Can_FrameType*) &(RSCAN0RMID0);
                         511 --line154
                         512 ..lin.C.3A.5Cgit.5Crh850.5Csrc.5Capp.5Cgfx_apps.5Csimple_draw.5Ctarget.5Cd1mx_mango_ghs.5Cobj.5Cw_rscan_task.10::
                         513 .LDWlin10:
000000ae 3d060006d0ff    514 	mov	-3144192,r29
                         515 --155:         R_BSP_STDIO_Printf("287: id:%d ts:%d %d %d %d %d %d %d %d %d \n",  pFrame->ID,  pFrame->TS,  pFrame->DB[0],  \
000000b4 3d0f0100        516 	ld.w	0[r29],r1
000000b8 fd470500        517 	ld.hu	4[r29],r8
000000bc 9d4f0900        518 	ld.bu	8[r29],r9
000000c0 260600000000*   519 	mov	.L457,r6
000000c6 c30a            520 	shl	3,r1
000000c8 830a            521 	shr	3,r1
000000ca 0138            522 	mov	r1,r7
000000cc bd0f0900        523 	ld.bu	9[r29],r1
000000d0 630f0100        524 	st.w	r1,0[sp]
000000d4 9d0f0b00        525 	ld.bu	10[r29],r1
000000d8 630f0500        526 	st.w	r1,4[sp]

                                                                      Page 10
                                                              C:\Users\Frank\AppData\Local\Temp\gh_0000p941.si
000000dc bd0f0b00        527 	ld.bu	11[r29],r1
000000e0 630f0900        528 	st.w	r1,8[sp]
000000e4 9d0f0d00        529 	ld.bu	12[r29],r1
000000e8 630f0d00        530 	st.w	r1,12[sp]
000000ec bd0f0d00        531 	ld.bu	13[r29],r1
000000f0 630f1100        532 	st.w	r1,16[sp]
000000f4 9d0f0f00        533 	ld.bu	14[r29],r1
000000f8 630f1500        534 	st.w	r1,20[sp]
000000fc bd0f0f00        535 	ld.bu	15[r29],r1
00000100 630f1900        536 	st.w	r1,24[sp]
                         537 	jarl	_R_BSP_STDIO_Printf,lp
                         537 <EXPANSION BEGIN>
                         537 jarl22 _R_BSP_STDIO_Printf , lp 
00000104 80ff0000*       537 <EXPANSION END>
                         538 --156:             pFrame->DB[1],  pFrame->DB[2],  pFrame->DB[3],  pFrame->DB[4],  pFrame->DB[5],  pFrame->DB[6],  pFrame->DB[7]);
                         539 --158:         if(pFrame->DB[0] != 87) return; /* MAGIC BYTE */
                         540 --line158
                         541 ..lin.C.3A.5Cgit.5Crh850.5Csrc.5Capp.5Cgfx_apps.5Csimple_draw.5Ctarget.5Cd1mx_mango_ghs.5Cobj.5Cw_rscan_task.11::
                         542 .LDWlin11:
00000108 9d0f0900        543 	ld.bu	8[r29],r1
0000010c 0106a9ff        544 	addi	-87,r1,zero
00000110 a205*           545 	be	.L293
                         546 --line158
                         547 ..lin.C.3A.5Cgit.5Crh850.5Csrc.5Capp.5Cgfx_apps.5Csimple_draw.5Ctarget.5Cd1mx_mango_ghs.5Cobj.5Cw_rscan_task.12::
                         548 .LDWlin12:
00000112 d51d*           549 	br	.L289
                         550 .L293:
                         551 --160:         switch(pFrame->DB[1])
                         552 --line160
                         553 ..lin.C.3A.5Cgit.5Crh850.5Csrc.5Capp.5Cgfx_apps.5Csimple_draw.5Ctarget.5Cd1mx_mango_ghs.5Cobj.5Cw_rscan_task.13::
                         554 .LDWlin13:
00000114 bd0f0900        555 	ld.bu	9[r29],r1
00000118 6b0a            556 	cmp	11,r1
0000011a c205*           557 	be	.L298
0000011c 6c0a            558 	cmp	12,r1
0000011e aa0d*           559 	bne	.L296
00000120 a505*           560 	br	.L299
                         561 .L298:
                         562 --line165
                         563 ..lin.C.3A.5Cgit.5Crh850.5Csrc.5Capp.5Cgfx_apps.5Csimple_draw.5Ctarget.5Cd1mx_mango_ghs.5Cobj.5Cw_rscan_task.14::
                         564 .LDWlin14:
00000122 850d*           565 	br	.L296
                         566 .L299:
                         567 --161:         {
                         568 --162:         /* TODO: switch mode, profiling */
                         569 --163:             case 11:
                         570 --164:                 //R_BSP_STDIO_Printf("W_RSCAN_Data_Process count: %d\n", data_process_count);
                         571 --165:                 break;
                         572 --166:             case 12:
                         573 --167:                 R_BSP_STDIO_Printf("ts: %d\n", ts);
                         574 --line167
                         575 ..lin.C.3A.5Cgit.5Crh850.5Csrc.5Capp.5Cgfx_apps.5Csimple_draw.5Ctarget.5Cd1mx_mango_ghs.5Cobj.5Cw_rscan_task.15::
                         576 .LDWlin15:
00000124 1b38            577 	mov	r27,r7
00000126 260600000000*   578 	mov	.L456,r6
                         579 	jarl	_R_BSP_STDIO_Printf,lp
                         579 <EXPANSION BEGIN>
                         579 jarl22 _R_BSP_STDIO_Printf , lp 
0000012c 80ff0000*       579 <EXPANSION END>
                         580 --line168
                         581 ..lin.C.3A.5Cgit.5Crh850.5Csrc.5Capp.5Cgfx_apps.5Csimple_draw.5Ctarget.5Cd1mx_mango_ghs.5Cobj.5Cw_rscan_task.16::

                                                                      Page 11
                                                              C:\Users\Frank\AppData\Local\Temp\gh_0000p941.si
                         582 .LDWlin16:
00000130 0000            583 	nop
                         584 .L296:
                         585 --168:                 break;
                         586 --169:         }
                         587 --170:         switch(pFrame->DB[6])
00000132 0000            588 	nop
                         589 --171:         {
                         590 --172:             default:
                         591 --173:                 gtmars_info.tcar_info.tcan_id287_info.u8menu_key_status = pFrame->DB[6];
00000134 9d0f0f00        592 	ld.bu	14[r29],r1
00000138 2b0600000000*   593 	mov	_gtmars_info+69,r11
0000013e 4b0f0000        594 	st.b	r1,0[r11]
                         595 --174:         }
                         596 --175:         switch(pFrame->DB[7])
00000142 bd0f0f00        597 	ld.bu	15[r29],r1
00000146 610a            598 	cmp	1,r1
00000148 a905*           599 	bnl	.L291
                         600 --line182
                         601 ..lin.C.3A.5Cgit.5Crh850.5Csrc.5Capp.5Cgfx_apps.5Csimple_draw.5Ctarget.5Cd1mx_mango_ghs.5Cobj.5Cw_rscan_task.17::
                         602 .LDWlin17:
0000014a 0000            603 	nop
                         604 .L291:
                         605 --176:         {
                         606 --177:             case 1:
                         607 --178:                 //W_BUZZER_SetTone(BUZZER_TONE1);
                         608 --179:                 break;
                         609 --180:             case 0:
                         610 --181:                 //W_BUZZER_SetTone(BUZZER_TONE2);
                         611 --182:                 break;
                         612 --183:         }
                         613 --184:     }
                         614 --185: }
                         615 .L289:
                         616 --	    .ef
                         617 .LDW32:
0000014c 4e06ff10        618 	dispose	7,{r27,r28,r29,r31},[lp]
                         619 	.type	_W_RSCAN_ID287,@function
                         620 	.size	_W_RSCAN_ID287,.-_W_RSCAN_ID287
                         621 	.align	2
                         622 .LDW42:
                         623 --_ts	r27	local
                         624 --_pFrame	r29	local
                         625 --.L403	.L457	static
                         626 --.L404	.L456	static
                         627 
                         628 --_qID	r28	param
                         629 
                         630 	.section ".bss","awb"
                         631 .L402:
                         632 	.type	.L402,@object
                         633 	.size	.L402,0
                         634 	.section ".rodata","a"
                         635 .L456:--	"ts: %d\n"
00000000 74733a20        636 	.byte	116,115,58,32
00000004 25640a00        637 	.byte	37,100,10,0
                         638 	.type	.L456,@object
                         639 	.size	.L456,8
                         640 .L457:--	"287: id:%d ts:%d %d %d %d %d %d %d %d %d \n"
00000008 3238373a        641 	.byte	50,56,55,58
0000000c 2069643a        642 	.byte	32,105,100,58

                                                                      Page 12
                                                              C:\Users\Frank\AppData\Local\Temp\gh_0000p941.si
00000010 25642074        643 	.byte	37,100,32,116
00000014 733a2564        644 	.byte	115,58,37,100
00000018 20256420        645 	.byte	32,37,100,32
0000001c 25642025        646 	.byte	37,100,32,37
00000020 64202564        647 	.byte	100,32,37,100
00000024 20256420        648 	.byte	32,37,100,32
00000028 25642025        649 	.byte	37,100,32,37
0000002c 64202564        650 	.byte	100,32,37,100
00000030 200a            651 	.byte	32,10
00000032 00              652 	.byte	0
                         653 	.type	.L457,@object
                         654 	.size	.L457,43
                         655 	.data
                         656 	.text
                         657 
                         658 
                         659 --187: /* rx mailbox 1 */
                         660 --188: void W_RSCAN_ID133(const uint8_t qID)
                         661 	.align	2
                         662 	.align	2
                         663 	.global	_W_RSCAN_ID133
                         664 _W_RSCAN_ID133:
00000150 8007e100        665 	prepare	{r28,r29,r31},0
00000154 c6e6ff00        666 	andi	255,r6,r28
00000158 3d0600000000*   667 	mov	_gtmars_info+8,r29
                         668 --	    .bf
                         669 .LDW52:
                         670 --189: {
                         671 --190:     Can_FrameType* pFrame;
                         672 --192:     if(GET_BIT(RSCAN0RMND0, qID) == CAN_SET) {
0000015e 8007890a01a0    673 	ld.w	4291821736[zero],r1
00000164 fc0f8208        674 	shr	r28,r1,r1
00000168 810a            675 	shr	1,r1
0000016a f91d*           676 	bnl	.L480
                         677 --193:         W_RSCAN_Clear_MailBox(qID);
                         678 --line193
                         679 ..lin.C.3A.5Cgit.5Crh850.5Csrc.5Capp.5Cgfx_apps.5Csimple_draw.5Ctarget.5Cd1mx_mango_ghs.5Cobj.5Cw_rscan_task.18::
                         680 .LDWlin18:
0000016c 1c30            681 	mov	r28,r6
                         682 	jarl	_W_RSCAN_Clear_MailBox,lp
                         682 <EXPANSION BEGIN>
                         682 jarl22 _W_RSCAN_Clear_MailBox , lp 
0000016e bfff02ff*       682 <EXPANSION END>
                         683 --194:         pFrame = (Can_FrameType*) &(RSCAN0RMID1);
                         684 --line194
                         685 ..lin.C.3A.5Cgit.5Crh850.5Csrc.5Capp.5Cgfx_apps.5Csimple_draw.5Ctarget.5Cd1mx_mango_ghs.5Cobj.5Cw_rscan_task.19::
                         686 .LDWlin19:
00000172 3e061006d0ff    687 	mov	-3144176,ep
                         688 --195:         gtmars_info.tcar_info.tcan_id133_info.u8vehicle_speed = pFrame->DB[0];
00000178 6808            689 	sld.bu	8[ep],r1
0000017a 5d0f0000        690 	st.b	r1,0[r29]
                         691 --196:         gtmars_info.tcar_info.tcan_id133_info.u8cruise_speed = pFrame->DB[1];
0000017e 6908            692 	sld.bu	9[ep],r1
00000180 5d0f0100        693 	st.b	r1,1[r29]
                         694 --197:         gtmars_info.tcar_info.tcan_id133_info.u8accel_Pedal_map = pFrame->DB[2];
00000184 6a08            695 	sld.bu	10[ep],r1
00000186 5d0f0200        696 	st.b	r1,2[r29]
                         697 --198:         gtmars_info.tcar_info.tcan_id133_info.u8regeneration_map = pFrame->DB[3];
0000018a 6b08            698 	sld.bu	11[ep],r1
0000018c 5d0f0300        699 	st.b	r1,3[r29]
                         700 --199:         gtmars_info.tcar_info.tcan_id133_info.u16power_usage_power = pFrame->DB[4] << 8 | pFrame->DB[5];

                                                                      Page 13
                                                              C:\Users\Frank\AppData\Local\Temp\gh_0000p941.si
00000190 6c08            701 	sld.bu	12[ep],r1
00000192 6d70            702 	sld.bu	13[ep],r14
00000194 c80a            703 	shl	8,r1
00000196 0171            704 	or	r1,r14
00000198 7d770400        705 	st.h	r14,4[r29]
                         706 --200:         gtmars_info.tcar_info.tcan_id133_info.tfault_code1_info.u8fault_code1_byte = pFrame->DB[6];
0000019c 6e08            707 	sld.bu	14[ep],r1
0000019e 5d0f0600        708 	st.b	r1,6[r29]
                         709 --201:         gtmars_info.tcar_info.tcan_id133_info.u8main_checksum1 = pFrame->DB[7];
000001a2 6f08            710 	sld.bu	15[ep],r1
000001a4 5d0f0700        711 	st.b	r1,7[r29]
                         712 .L480:
                         713 --202:     }
                         714 --203: }
                         715 --	    .ef
                         716 .LDW62:
000001a8 4006ff00        717 	dispose	0,{r28,r29,r31},[lp]
                         718 	.type	_W_RSCAN_ID133,@function
                         719 	.size	_W_RSCAN_ID133,.-_W_RSCAN_ID133
                         720 	.align	2
                         721 .LDW72:
                         722 --_pFrame	ep	local
                         723 
                         724 --_qID	r28	param
                         725 
                         726 	.section ".bss","awb"
                         727 .L550:
                         728 	.type	.L550,@object
                         729 	.size	.L550,0
                         730 	.data
                         731 	.text
                         732 
                         733 
                         734 --205: /* rx mailbox 2 */
                         735 --206: void W_RSCAN_ID134(const uint8_t qID)
                         736 	.align	2
                         737 	.align	2
                         738 	.global	_W_RSCAN_ID134
                         739 _W_RSCAN_ID134:
000001ac 8007e100        740 	prepare	{r28,r29,r31},0
000001b0 c6e6ff00        741 	andi	255,r6,r28
000001b4 3d0600000000*   742 	mov	_gtmars_info+16,r29
                         743 --	    .bf
                         744 .LDW82:
                         745 --207: {
                         746 --208:     Can_FrameType* pFrame;
                         747 --210:     if(GET_BIT(RSCAN0RMND0, qID) == CAN_SET) {
000001ba 8007890a01a0    748 	ld.w	4291821736[zero],r1
000001c0 fc0f8208        749 	shr	r28,r1,r1
000001c4 810a            750 	shr	1,r1
000001c6 f91d*           751 	bnl	.L594
                         752 --211:         W_RSCAN_Clear_MailBox(qID);
                         753 --line211
                         754 ..lin.C.3A.5Cgit.5Crh850.5Csrc.5Capp.5Cgfx_apps.5Csimple_draw.5Ctarget.5Cd1mx_mango_ghs.5Cobj.5Cw_rscan_task.20::
                         755 .LDWlin20:
000001c8 1c30            756 	mov	r28,r6
                         757 	jarl	_W_RSCAN_Clear_MailBox,lp
                         757 <EXPANSION BEGIN>
                         757 jarl22 _W_RSCAN_Clear_MailBox , lp 
000001ca bfffa6fe*       757 <EXPANSION END>
                         758 --212:         pFrame = (Can_FrameType*) &(RSCAN0RMID2);

                                                                      Page 14
                                                              C:\Users\Frank\AppData\Local\Temp\gh_0000p941.si
                         759 --line212
                         760 ..lin.C.3A.5Cgit.5Crh850.5Csrc.5Capp.5Cgfx_apps.5Csimple_draw.5Ctarget.5Cd1mx_mango_ghs.5Cobj.5Cw_rscan_task.21::
                         761 .LDWlin21:
000001ce 3e062006d0ff    762 	mov	-3144160,ep
                         763 --213:         gtmars_info.tcar_info.tcan_id134_info.tvehicle_info.u8vehicle_info_byte = pFrame->DB[0]; 
000001d4 6808            764 	sld.bu	8[ep],r1
000001d6 5d0f0000        765 	st.b	r1,0[r29]
                         766 --214:         gtmars_info.tcar_info.tcan_id134_info.tshifter_and_mode_info.u8shifter_mode_byte = pFrame->DB[1];
000001da 6908            767 	sld.bu	9[ep],r1
000001dc 5d0f0100        768 	st.b	r1,1[r29]
                         769 --215:         gtmars_info.tcar_info.tcan_id134_info.tpowertrain_status_info.u8powertrain_status_byte = pFrame->DB[2];
000001e0 6a08            770 	sld.bu	10[ep],r1
000001e2 5d0f0200        771 	st.b	r1,2[r29]
                         772 --216:         gtmars_info.tcar_info.tcan_id134_info.u8coolant_temp_1 = pFrame->DB[3];
000001e6 6b08            773 	sld.bu	11[ep],r1
000001e8 5d0f0300        774 	st.b	r1,3[r29]
                         775 --217:         gtmars_info.tcar_info.tcan_id134_info.u8coolant_temp_2 = pFrame->DB[4];
000001ec 6c08            776 	sld.bu	12[ep],r1
000001ee 5d0f0400        777 	st.b	r1,4[r29]
                         778 --218:         gtmars_info.tcar_info.tcan_id134_info.u8coolant_temp_3 = pFrame->DB[5];
000001f2 6d08            779 	sld.bu	13[ep],r1
000001f4 5d0f0500        780 	st.b	r1,5[r29]
                         781 --219:         gtmars_info.tcar_info.tcan_id134_info.tfault_code2_info.u8fault_code2_byte = pFrame->DB[6];
000001f8 6e08            782 	sld.bu	14[ep],r1
000001fa 5d0f0600        783 	st.b	r1,6[r29]
                         784 --220:         gtmars_info.tcar_info.tcan_id134_info.u8main_checksum2 = pFrame->DB[7];
000001fe 6f08            785 	sld.bu	15[ep],r1
00000200 5d0f0700        786 	st.b	r1,7[r29]
                         787 .L594:
                         788 --221:     }
                         789 --222: }
                         790 --	    .ef
                         791 .LDW92:
00000204 4006ff00        792 	dispose	0,{r28,r29,r31},[lp]
                         793 	.type	_W_RSCAN_ID134,@function
                         794 	.size	_W_RSCAN_ID134,.-_W_RSCAN_ID134
                         795 	.align	2
                         796 .LDW03:
                         797 --_pFrame	ep	local
                         798 
                         799 --_qID	r28	param
                         800 
                         801 	.section ".bss","awb"
                         802 .L666:
                         803 	.type	.L666,@object
                         804 	.size	.L666,0
                         805 	.data
                         806 	.text
                         807 
                         808 
                         809 --224: /* rx mailbox 3 */
                         810 --225: void W_RSCAN_ID53E(const uint8_t qID)
                         811 	.align	2
                         812 	.align	2
                         813 	.global	_W_RSCAN_ID53E
                         814 _W_RSCAN_ID53E:
00000208 8007e100        815 	prepare	{r28,r29,r31},0
0000020c c6e6ff00        816 	andi	255,r6,r28
00000210 3d0600000000*   817 	mov	_gtmars_info+24,r29
                         818 --	    .bf
                         819 .LDW13:

                                                                      Page 15
                                                              C:\Users\Frank\AppData\Local\Temp\gh_0000p941.si
                         820 --226: {
                         821 --227:     Can_FrameType* pFrame;
                         822 --229:     if(GET_BIT(RSCAN0RMND0, qID) == CAN_SET) {
00000216 8007890a01a0    823 	ld.w	4291821736[zero],r1
0000021c fc0f8208        824 	shr	r28,r1,r1
00000220 810a            825 	shr	1,r1
00000222 f91d*           826 	bnl	.L713
                         827 --230:         W_RSCAN_Clear_MailBox(qID);
                         828 --line230
                         829 ..lin.C.3A.5Cgit.5Crh850.5Csrc.5Capp.5Cgfx_apps.5Csimple_draw.5Ctarget.5Cd1mx_mango_ghs.5Cobj.5Cw_rscan_task.22::
                         830 .LDWlin22:
00000224 1c30            831 	mov	r28,r6
                         832 	jarl	_W_RSCAN_Clear_MailBox,lp
                         832 <EXPANSION BEGIN>
                         832 jarl22 _W_RSCAN_Clear_MailBox , lp 
00000226 bfff4afe*       832 <EXPANSION END>
                         833 --232:         pFrame = (Can_FrameType*) &(RSCAN0RMID3);
                         834 --line232
                         835 ..lin.C.3A.5Cgit.5Crh850.5Csrc.5Capp.5Cgfx_apps.5Csimple_draw.5Ctarget.5Cd1mx_mango_ghs.5Cobj.5Cw_rscan_task.23::
                         836 .LDWlin23:
0000022a 3e063006d0ff    837 	mov	-3144144,ep
                         838 --233:         gtmars_info.tcar_info.tcan_id53e_info.u16remained_distance = pFrame->DB[0] << 8 | pFrame->DB[1]; 
00000230 6808            839 	sld.bu	8[ep],r1
00000232 6970            840 	sld.bu	9[ep],r14
00000234 c80a            841 	shl	8,r1
00000236 0171            842 	or	r1,r14
00000238 7d770000        843 	st.h	r14,0[r29]
                         844 --234:         gtmars_info.tcar_info.tcan_id53e_info.u16total_distance = pFrame->DB[2] << 8 | pFrame->DB[3]; 
0000023c 6a08            845 	sld.bu	10[ep],r1
0000023e 6b70            846 	sld.bu	11[ep],r14
00000240 c80a            847 	shl	8,r1
00000242 0171            848 	or	r1,r14
00000244 7d770200        849 	st.h	r14,2[r29]
                         850 --235:         gtmars_info.tcar_info.tcan_id53e_info.u32mileague = pFrame->DB[4] << 16 | pFrame->DB[5] << 8 | pFrame->DB[6];
00000248 6c08            851 	sld.bu	12[ep],r1
0000024a 6d70            852 	sld.bu	13[ep],r14
0000024c d00a            853 	shl	16,r1
0000024e c872            854 	shl	8,r14
00000250 0171            855 	or	r1,r14
00000252 6e08            856 	sld.bu	14[ep],r1
00000254 0e09            857 	or	r14,r1
00000256 7d0f0500        858 	st.w	r1,4[r29]
                         859 --236:         gtmars_info.tcar_info.tcan_id53e_info.tsys_consisterncy_check1.u8sys_consistency_check1_byte= pFrame->DB[7];
0000025a 6f08            860 	sld.bu	15[ep],r1
0000025c 5d0f0800        861 	st.b	r1,8[r29]
                         862 .L713:
                         863 --237:     }
                         864 --238: }
                         865 --	    .ef
                         866 .LDW23:
00000260 4006ff00        867 	dispose	0,{r28,r29,r31},[lp]
                         868 	.type	_W_RSCAN_ID53E,@function
                         869 	.size	_W_RSCAN_ID53E,.-_W_RSCAN_ID53E
                         870 	.align	2
                         871 .LDW33:
                         872 --_pFrame	ep	local
                         873 
                         874 --_qID	r28	param
                         875 
                         876 	.section ".bss","awb"
                         877 .L762:

                                                                      Page 16
                                                              C:\Users\Frank\AppData\Local\Temp\gh_0000p941.si
                         878 	.type	.L762,@object
                         879 	.size	.L762,0
                         880 	.data
                         881 	.text
                         882 
                         883 
                         884 --240: /* rx mailbox 4 */
                         885 --241: void W_RSCAN_ID53F(const uint8_t qID)
                         886 	.align	2
                         887 	.align	2
                         888 	.global	_W_RSCAN_ID53F
                         889 _W_RSCAN_ID53F:
00000264 8007e100        890 	prepare	{r28,r29,r31},0
00000268 c6e6ff00        891 	andi	255,r6,r28
0000026c 3d0600000000*   892 	mov	_gtmars_info+36,r29
                         893 --	    .bf
                         894 .LDW43:
                         895 --242: {
                         896 --243:     Can_FrameType* pBase;
                         897 --244:     Can_FrameType* pFrame;
                         898 --246:     if(GET_BIT(RSCAN0RMND0, qID) == CAN_SET) {
00000272 8007890a01a0    899 	ld.w	4291821736[zero],r1
00000278 fc0f8208        900 	shr	r28,r1,r1
0000027c 810a            901 	shr	1,r1
0000027e c91d*           902 	bnl	.L797
                         903 --247:         W_RSCAN_Clear_MailBox(qID);
                         904 --line247
                         905 ..lin.C.3A.5Cgit.5Crh850.5Csrc.5Capp.5Cgfx_apps.5Csimple_draw.5Ctarget.5Cd1mx_mango_ghs.5Cobj.5Cw_rscan_task.24::
                         906 .LDWlin24:
00000280 1c30            907 	mov	r28,r6
                         908 	jarl	_W_RSCAN_Clear_MailBox,lp
                         908 <EXPANSION BEGIN>
                         908 jarl22 _W_RSCAN_Clear_MailBox , lp 
00000282 bfffeefd*       908 <EXPANSION END>
                         909 --248:         pBase = (Can_FrameType*) &(RSCAN0RMID4);
                         910 --line248
                         911 ..lin.C.3A.5Cgit.5Crh850.5Csrc.5Capp.5Cgfx_apps.5Csimple_draw.5Ctarget.5Cd1mx_mango_ghs.5Cobj.5Cw_rscan_task.25::
                         912 .LDWlin25:
00000286 21064006d0ff    913 	mov	-3144128,r1
                         914 --249:         gtmars_info.tcar_info.tcan_id53f_info.u16battery_remain_capacity = pFrame->DB[0] << 8 | pFrame->DB[1]; 
0000028c 6870            915 	sld.bu	8[ep],r14
0000028e 6968            916 	sld.bu	9[ep],r13
00000290 c872            917 	shl	8,r14
00000292 0e69            918 	or	r14,r13
00000294 7d6f0000        919 	st.h	r13,0[r29]
                         920 --250:         gtmars_info.tcar_info.tcan_id53f_info.u16battery_design_capacity = pFrame->DB[2] << 8 | pFrame->DB[3]; 
00000298 6a70            921 	sld.bu	10[ep],r14
0000029a 6b68            922 	sld.bu	11[ep],r13
0000029c c872            923 	shl	8,r14
0000029e 0e69            924 	or	r14,r13
000002a0 7d6f0200        925 	st.h	r13,2[r29]
                         926 --251:         gtmars_info.tcar_info.tcan_id53f_info.u8hv_battery_soc = pFrame->DB[4];
000002a4 6c70            927 	sld.bu	12[ep],r14
000002a6 5d770400        928 	st.b	r14,4[r29]
                         929 --252:         gtmars_info.tcar_info.tcan_id53f_info.u8hv_battery_soh = pFrame->DB[5];
000002aa 6d70            930 	sld.bu	13[ep],r14
000002ac 5d770500        931 	st.b	r14,5[r29]
                         932 --253:         gtmars_info.tcar_info.tcan_id53f_info.tsys_consistency_check3_info.u8sys_consistency_check3_byte = pFrame->DB[7];
000002b0 6f70            933 	sld.bu	15[ep],r14
000002b2 5d770600        934 	st.b	r14,6[r29]
                         935 .L797:

                                                                      Page 17
                                                              C:\Users\Frank\AppData\Local\Temp\gh_0000p941.si
                         936 --254:     }
                         937 --255: }
                         938 --	    .ef
                         939 .LDW53:
000002b6 4006ff00        940 	dispose	0,{r28,r29,r31},[lp]
                         941 	.type	_W_RSCAN_ID53F,@function
                         942 	.size	_W_RSCAN_ID53F,.-_W_RSCAN_ID53F
                         943 	.align	2
                         944 .LDW63:
                         945 --_pBase	r1	local
                         946 --_pFrame	ep	local
                         947 
                         948 --_qID	r28	param
                         949 
                         950 	.section ".bss","awb"
                         951 .L846:
                         952 	.type	.L846,@object
                         953 	.size	.L846,0
                         954 	.data
                         955 	.text
                         956 
                         957 
                         958 --257: /* rx mailbox 5 */
                         959 --258: void W_RSCAN_ID434(const uint8_t qID)
                         960 	.align	2
                         961 	.align	2
                         962 	.global	_W_RSCAN_ID434
                         963 _W_RSCAN_ID434:
000002ba 8007e100        964 	prepare	{r28,r29,r31},0
000002be c6e6ff00        965 	andi	255,r6,r28
000002c2 3d0600000000*   966 	mov	_gtmars_info+44,r29
                         967 --	    .bf
                         968 .LDW73:
                         969 --259: {
                         970 --260:     Can_FrameType* pFrame;
                         971 --262:     if(GET_BIT(RSCAN0RMND0, qID) == CAN_SET) {
000002c8 8007890a01a0    972 	ld.w	4291821736[zero],r1
000002ce fc0f8208        973 	shr	r28,r1,r1
000002d2 810a            974 	shr	1,r1
000002d4 991d*           975 	bnl	.L884
                         976 --263:         W_RSCAN_Clear_MailBox(qID);
                         977 --line263
                         978 ..lin.C.3A.5Cgit.5Crh850.5Csrc.5Capp.5Cgfx_apps.5Csimple_draw.5Ctarget.5Cd1mx_mango_ghs.5Cobj.5Cw_rscan_task.26::
                         979 .LDWlin26:
000002d6 1c30            980 	mov	r28,r6
                         981 	jarl	_W_RSCAN_Clear_MailBox,lp
                         981 <EXPANSION BEGIN>
                         981 jarl22 _W_RSCAN_Clear_MailBox , lp 
000002d8 bfff98fd*       981 <EXPANSION END>
                         982 --265:         pFrame = (Can_FrameType*) &(RSCAN0RMID5); 
                         983 --line265
                         984 ..lin.C.3A.5Cgit.5Crh850.5Csrc.5Capp.5Cgfx_apps.5Csimple_draw.5Ctarget.5Cd1mx_mango_ghs.5Cobj.5Cw_rscan_task.27::
                         985 .LDWlin27:
000002dc 3e065006d0ff    986 	mov	-3144112,ep
                         987 --266:         gtmars_info.tcar_info.tcan_id434_info.tdoor_status_info.u8door_close_status_byte = pFrame->DB[0];
000002e2 6808            988 	sld.bu	8[ep],r1
000002e4 5d0f0000        989 	st.b	r1,0[r29]
                         990 --267:         gtmars_info.tcar_info.tcan_id434_info.tlamp_status_info.u8lamp_status_byte = pFrame->DB[2];
000002e8 6a08            991 	sld.bu	10[ep],r1
000002ea 5d0f0100        992 	st.b	r1,1[r29]
                         993 --268:         gtmars_info.tcar_info.tcan_id434_info.tcabin_status_info.u8cabin_status_byte = pFrame->DB[3];

                                                                      Page 18
                                                              C:\Users\Frank\AppData\Local\Temp\gh_0000p941.si
000002ee 6b08            994 	sld.bu	11[ep],r1
000002f0 5d0f0200        995 	st.b	r1,2[r29]
                         996 --269:         gtmars_info.tcar_info.tcan_id434_info.twiper_status_info.u8wiper_status_byte = pFrame->DB[4];
000002f4 6c08            997 	sld.bu	12[ep],r1
000002f6 5d0f0300        998 	st.b	r1,3[r29]
                         999 --270:         gtmars_info.tcar_info.tcan_id434_info.tsecurity_status_info.u8security_status_byte = pFrame->DB[5];
000002fa 6d08           1000 	sld.bu	13[ep],r1
000002fc 5d0f0400       1001 	st.b	r1,4[r29]
                        1002 --271:         gtmars_info.tcar_info.tcan_id434_info.toperation1_mode_flag_info.u8operation1_mode_flag_byte = pFrame->DB[7];
00000300 6f08           1003 	sld.bu	15[ep],r1
00000302 5d0f0500       1004 	st.b	r1,5[r29]
                        1005 .L884:
                        1006 --273:     }
                        1007 --274: }
                        1008 --	    .ef
                        1009 .LDW83:
00000306 4006ff00       1010 	dispose	0,{r28,r29,r31},[lp]
                        1011 	.type	_W_RSCAN_ID434,@function
                        1012 	.size	_W_RSCAN_ID434,.-_W_RSCAN_ID434
                        1013 	.align	2
                        1014 .LDW93:
                        1015 --_pFrame	ep	local
                        1016 
                        1017 --_qID	r28	param
                        1018 
                        1019 	.section ".bss","awb"
                        1020 .L946:
                        1021 	.type	.L946,@object
                        1022 	.size	.L946,0
                        1023 	.data
                        1024 	.text
                        1025 
                        1026 
                        1027 --276: /* rx mailbox 6 */
                        1028 --277: void W_RSCAN_ID340(const uint8_t qID)
                        1029 	.align	2
                        1030 	.align	2
                        1031 	.global	_W_RSCAN_ID340
                        1032 _W_RSCAN_ID340:
0000030a 8007e100       1033 	prepare	{r28,r29,r31},0
0000030e c6e6ff00       1034 	andi	255,r6,r28
00000312 3d0600000000*  1035 	mov	_gtmars_info+50,r29
                        1036 --	    .bf
                        1037 .LDW04:
                        1038 --278: {
                        1039 --279:     Can_FrameType* pFrame;
                        1040 --281:    if(GET_BIT(RSCAN0RMND0, qID) == CAN_SET) {
00000318 8007890a01a0   1041 	ld.w	4291821736[zero],r1
0000031e fc0f8208       1042 	shr	r28,r1,r1
00000322 810a           1043 	shr	1,r1
00000324 b915*          1044 	bnl	.L987
                        1045 --282:          W_RSCAN_Clear_MailBox(qID);
                        1046 --line282
                        1047 ..lin.C.3A.5Cgit.5Crh850.5Csrc.5Capp.5Cgfx_apps.5Csimple_draw.5Ctarget.5Cd1mx_mango_ghs.5Cobj.5Cw_rscan_task.28::
                        1048 .LDWlin28:
00000326 1c30           1049 	mov	r28,r6
                        1050 	jarl	_W_RSCAN_Clear_MailBox,lp
                        1050 <EXPANSION BEGIN>
                        1050 jarl22 _W_RSCAN_Clear_MailBox , lp 
00000328 bfff48fd*      1050 <EXPANSION END>
                        1051 --283:         pFrame = (Can_FrameType*) &(RSCAN0RMID6);

                                                                      Page 19
                                                              C:\Users\Frank\AppData\Local\Temp\gh_0000p941.si
                        1052 --line283
                        1053 ..lin.C.3A.5Cgit.5Crh850.5Csrc.5Capp.5Cgfx_apps.5Csimple_draw.5Ctarget.5Cd1mx_mango_ghs.5Cobj.5Cw_rscan_task.29::
                        1054 .LDWlin29:
0000032c 3e066006d0ff   1055 	mov	-3144096,ep
                        1056 --284:         gtmars_info.tcar_info.tcan_id340_info.thvac_status_info.u8havc_status_byte = pFrame->DB[0];
00000332 6808           1057 	sld.bu	8[ep],r1
00000334 5d0f0000       1058 	st.b	r1,0[r29]
                        1059 --285:         gtmars_info.tcar_info.tcan_id340_info.u8temp_inside = pFrame->DB[1];
00000338 6908           1060 	sld.bu	9[ep],r1
0000033a 5d0f0100       1061 	st.b	r1,1[r29]
                        1062 --286:         gtmars_info.tcar_info.tcan_id340_info.u8temp_outside = pFrame->DB[2];
0000033e 6a08           1063 	sld.bu	10[ep],r1
00000340 5d0f0200       1064 	st.b	r1,2[r29]
                        1065 --287:         gtmars_info.tcar_info.tcan_id340_info.toperation2_mode_flag_info.u8operation2_mode_flag_byte = pFrame->DB[7];
00000344 6f08           1066 	sld.bu	15[ep],r1
00000346 5d0f0300       1067 	st.b	r1,3[r29]
                        1068 .L987:
                        1069 --288:     }
                        1070 --289: }
                        1071 --	    .ef
                        1072 .LDW14:
0000034a 4006ff00       1073 	dispose	0,{r28,r29,r31},[lp]
                        1074 	.type	_W_RSCAN_ID340,@function
                        1075 	.size	_W_RSCAN_ID340,.-_W_RSCAN_ID340
                        1076 	.align	2
                        1077 .LDW24:
                        1078 --_pFrame	ep	local
                        1079 
                        1080 --_qID	r28	param
                        1081 
                        1082 	.section ".bss","awb"
                        1083 .L1034:
                        1084 	.type	.L1034,@object
                        1085 	.size	.L1034,0
                        1086 	.data
                        1087 	.text
                        1088 
                        1089 
                        1090 --291: /* rx mailbox 7 */
                        1091 --292: void W_RSCAN_ID56B(const uint8_t qID)
                        1092 	.align	2
                        1093 	.align	2
                        1094 	.global	_W_RSCAN_ID56B
                        1095 _W_RSCAN_ID56B:
0000034e 8007e100       1096 	prepare	{r28,r29,r31},0
00000352 c6e6ff00       1097 	andi	255,r6,r28
00000356 3d0600000000*  1098 	mov	_gtmars_info+56,r29
                        1099 --	    .bf
                        1100 .LDW34:
                        1101 --293: {   
                        1102 --294:     Can_FrameType* pFrame;
                        1103 --296:     if(GET_BIT(RSCAN0RMND0, qID) == CAN_SET) {
0000035c 8007890a01a0   1104 	ld.w	4291821736[zero],r1
00000362 fc0f8208       1105 	shr	r28,r1,r1
00000366 810a           1106 	shr	1,r1
00000368 f91d*          1107 	bnl	.L1069
                        1108 --297:         W_RSCAN_Clear_MailBox(qID);
                        1109 --line297
                        1110 ..lin.C.3A.5Cgit.5Crh850.5Csrc.5Capp.5Cgfx_apps.5Csimple_draw.5Ctarget.5Cd1mx_mango_ghs.5Cobj.5Cw_rscan_task.30::
                        1111 .LDWlin30:
0000036a 1c30           1112 	mov	r28,r6

                                                                      Page 20
                                                              C:\Users\Frank\AppData\Local\Temp\gh_0000p941.si
                        1113 	jarl	_W_RSCAN_Clear_MailBox,lp
                        1113 <EXPANSION BEGIN>
                        1113 jarl22 _W_RSCAN_Clear_MailBox , lp 
0000036c bfff04fd*      1113 <EXPANSION END>
                        1114 --298:         pFrame = (Can_FrameType*) &(RSCAN0RMID7);
                        1115 --line298
                        1116 ..lin.C.3A.5Cgit.5Crh850.5Csrc.5Capp.5Cgfx_apps.5Csimple_draw.5Ctarget.5Cd1mx_mango_ghs.5Cobj.5Cw_rscan_task.31::
                        1117 .LDWlin31:
00000370 3e067006d0ff   1118 	mov	-3144080,ep
                        1119 --299:         gtmars_info.tcar_info.tcan_id56b_info.u32time_in_seconds = pFrame->DB[0] << 16| pFrame->DB[1] << 8 | pFrame->DB[2];
00000376 6808           1120 	sld.bu	8[ep],r1
00000378 6970           1121 	sld.bu	9[ep],r14
0000037a d00a           1122 	shl	16,r1
0000037c c872           1123 	shl	8,r14
0000037e 0171           1124 	or	r1,r14
00000380 6a08           1125 	sld.bu	10[ep],r1
00000382 0e09           1126 	or	r14,r1
00000384 7d0f0100       1127 	st.w	r1,0[r29]
                        1128 --300:         gtmars_info.tcar_info.tcan_id56b_info.u8date = pFrame->DB[3];
00000388 6b08           1129 	sld.bu	11[ep],r1
0000038a 5d0f0400       1130 	st.b	r1,4[r29]
                        1131 --301:         gtmars_info.tcar_info.tcan_id56b_info.u8Month = pFrame->DB[4];
0000038e 6c08           1132 	sld.bu	12[ep],r1
00000390 5d0f0500       1133 	st.b	r1,5[r29]
                        1134 --302:         gtmars_info.tcar_info.tcan_id56b_info.u16Year = pFrame->DB[5] << 8 | pFrame->DB[6];
00000394 6d08           1135 	sld.bu	13[ep],r1
00000396 6e70           1136 	sld.bu	14[ep],r14
00000398 c80a           1137 	shl	8,r1
0000039a 0171           1138 	or	r1,r14
0000039c 7d770600       1139 	st.h	r14,6[r29]
                        1140 --303:         gtmars_info.tcar_info.tcan_id56b_info.topertion3_mode_flag_info.u8opertion3_mode_flag_byte = pFrame->DB[7];
000003a0 6f08           1141 	sld.bu	15[ep],r1
000003a2 5d0f0800       1142 	st.b	r1,8[r29]
                        1143 .L1069:
                        1144 --304:     }
                        1145 --305: }
                        1146 --	    .ef
                        1147 .LDW44:
000003a6 4006ff00       1148 	dispose	0,{r28,r29,r31},[lp]
                        1149 	.type	_W_RSCAN_ID56B,@function
                        1150 	.size	_W_RSCAN_ID56B,.-_W_RSCAN_ID56B
                        1151 	.align	2
                        1152 .LDW54:
                        1153 --_pFrame	ep	local
                        1154 
                        1155 --_qID	r28	param
                        1156 
                        1157 	.section ".bss","awb"
                        1158 .L1118:
                        1159 	.type	.L1118,@object
                        1160 	.size	.L1118,0
                        1161 	.data
                        1162 	.text
                        1163 
                        1164 
                        1165 --308: //----------------------------------------------------------------------------------------------------------------------------
                        1166 --309: void W_RSCAN_Data_Process(void)
                        1167 	.align	2
                        1168 	.align	2
                        1169 	.global	_W_RSCAN_Data_Process
                        1170 _W_RSCAN_Data_Process:

                                                                      Page 21
                                                              C:\Users\Frank\AppData\Local\Temp\gh_0000p941.si
000003aa 80076100       1171 	prepare	{r29,r31},0
                        1172 --	    .bf
                        1173 .LDW64:
                        1174 --310: {
                        1175 --311:     uint8_t queueID = 0;
000003ae 00ea           1176 	mov	0,r29
                        1177 --313:     W_RSCAN_ID287(queueID++); /* wiess control message */
000003b0 1d30           1178 	mov	r29,r6
000003b2 41ea           1179 	add	1,r29
000003b4 9d00           1180 	zxb	r29
                        1181 	jarl	_W_RSCAN_ID287,lp
                        1181 <EXPANSION BEGIN>
                        1181 jarl22 _W_RSCAN_ID287 , lp 
000003b6 bfffd6fc*      1181 <EXPANSION END>
                        1182 --314:     W_RSCAN_ID133(queueID++);
                        1183 --line314
                        1184 ..lin.C.3A.5Cgit.5Crh850.5Csrc.5Capp.5Cgfx_apps.5Csimple_draw.5Ctarget.5Cd1mx_mango_ghs.5Cobj.5Cw_rscan_task.32::
                        1185 .LDWlin32:
000003ba 1d30           1186 	mov	r29,r6
000003bc 41ea           1187 	add	1,r29
000003be 9d00           1188 	zxb	r29
                        1189 	jarl	_W_RSCAN_ID133,lp
                        1189 <EXPANSION BEGIN>
                        1189 jarl22 _W_RSCAN_ID133 , lp 
000003c0 bfff90fd*      1189 <EXPANSION END>
                        1190 --315:     W_RSCAN_ID134(queueID++);
                        1191 --line315
                        1192 ..lin.C.3A.5Cgit.5Crh850.5Csrc.5Capp.5Cgfx_apps.5Csimple_draw.5Ctarget.5Cd1mx_mango_ghs.5Cobj.5Cw_rscan_task.33::
                        1193 .LDWlin33:
000003c4 1d30           1194 	mov	r29,r6
000003c6 41ea           1195 	add	1,r29
000003c8 9d00           1196 	zxb	r29
                        1197 	jarl	_W_RSCAN_ID134,lp
                        1197 <EXPANSION BEGIN>
                        1197 jarl22 _W_RSCAN_ID134 , lp 
000003ca bfffe2fd*      1197 <EXPANSION END>
                        1198 --316:     W_RSCAN_ID53E(queueID++);
                        1199 --line316
                        1200 ..lin.C.3A.5Cgit.5Crh850.5Csrc.5Capp.5Cgfx_apps.5Csimple_draw.5Ctarget.5Cd1mx_mango_ghs.5Cobj.5Cw_rscan_task.34::
                        1201 .LDWlin34:
000003ce 1d30           1202 	mov	r29,r6
000003d0 41ea           1203 	add	1,r29
000003d2 9d00           1204 	zxb	r29
                        1205 	jarl	_W_RSCAN_ID53E,lp
                        1205 <EXPANSION BEGIN>
                        1205 jarl22 _W_RSCAN_ID53E , lp 
000003d4 bfff34fe*      1205 <EXPANSION END>
                        1206 --317:     W_RSCAN_ID53F(queueID++);
                        1207 --line317
                        1208 ..lin.C.3A.5Cgit.5Crh850.5Csrc.5Capp.5Cgfx_apps.5Csimple_draw.5Ctarget.5Cd1mx_mango_ghs.5Cobj.5Cw_rscan_task.35::
                        1209 .LDWlin35:
000003d8 1d30           1210 	mov	r29,r6
000003da 41ea           1211 	add	1,r29
000003dc 9d00           1212 	zxb	r29
                        1213 	jarl	_W_RSCAN_ID53F,lp
                        1213 <EXPANSION BEGIN>
                        1213 jarl22 _W_RSCAN_ID53F , lp 
000003de bfff86fe*      1213 <EXPANSION END>
                        1214 --318:     W_RSCAN_ID434(queueID++);
                        1215 --line318
                        1216 ..lin.C.3A.5Cgit.5Crh850.5Csrc.5Capp.5Cgfx_apps.5Csimple_draw.5Ctarget.5Cd1mx_mango_ghs.5Cobj.5Cw_rscan_task.36::

                                                                      Page 22
                                                              C:\Users\Frank\AppData\Local\Temp\gh_0000p941.si
                        1217 .LDWlin36:
000003e2 1d30           1218 	mov	r29,r6
000003e4 41ea           1219 	add	1,r29
000003e6 9d00           1220 	zxb	r29
                        1221 	jarl	_W_RSCAN_ID434,lp
                        1221 <EXPANSION BEGIN>
                        1221 jarl22 _W_RSCAN_ID434 , lp 
000003e8 bfffd2fe*      1221 <EXPANSION END>
                        1222 --319:     W_RSCAN_ID340(queueID++);
                        1223 --line319
                        1224 ..lin.C.3A.5Cgit.5Crh850.5Csrc.5Capp.5Cgfx_apps.5Csimple_draw.5Ctarget.5Cd1mx_mango_ghs.5Cobj.5Cw_rscan_task.37::
                        1225 .LDWlin37:
000003ec 1d30           1226 	mov	r29,r6
000003ee 41ea           1227 	add	1,r29
000003f0 9d00           1228 	zxb	r29
                        1229 	jarl	_W_RSCAN_ID340,lp
                        1229 <EXPANSION BEGIN>
                        1229 jarl22 _W_RSCAN_ID340 , lp 
000003f2 bfff18ff*      1229 <EXPANSION END>
                        1230 --320:     W_RSCAN_ID56B(queueID++);
                        1231 --line320
                        1232 ..lin.C.3A.5Cgit.5Crh850.5Csrc.5Capp.5Cgfx_apps.5Csimple_draw.5Ctarget.5Cd1mx_mango_ghs.5Cobj.5Cw_rscan_task.38::
                        1233 .LDWlin38:
000003f6 1d30           1234 	mov	r29,r6
000003f8 41ea           1235 	add	1,r29
000003fa 9d00           1236 	zxb	r29
                        1237 	jarl	_W_RSCAN_ID56B,lp
                        1237 <EXPANSION BEGIN>
                        1237 jarl22 _W_RSCAN_ID56B , lp 
000003fc bfff52ff*      1237 <EXPANSION END>
                        1238 --321: }
                        1239 --	    .ef
                        1240 .LDW74:
                        1241 --line321
                        1242 ..lin.C.3A.5Cgit.5Crh850.5Csrc.5Capp.5Cgfx_apps.5Csimple_draw.5Ctarget.5Cd1mx_mango_ghs.5Cobj.5Cw_rscan_task.39::
                        1243 .LDWlin39:
00000400 40067f00       1244 	dispose	0,{r29,r31},[lp]
                        1245 	.type	_W_RSCAN_Data_Process,@function
                        1246 	.size	_W_RSCAN_Data_Process,.-_W_RSCAN_Data_Process
                        1247 	.align	2
                        1248 .LDW84:
                        1249 --_queueID	r29	local
                        1250 
                        1251 	.section ".bss","awb"
                        1252 .L1218:
                        1253 	.type	.L1218,@object
                        1254 	.size	.L1218,0
                        1255 	.data
                        1256 	.text
                        1257 
                        1258 
                        1259 --323: void W_RSCAN_Read_FIFO(void)
                        1260 	.align	2
                        1261 	.align	2
                        1262 	.global	_W_RSCAN_Read_FIFO
                        1263 _W_RSCAN_Read_FIFO:
                        1264 --	    .bf
                        1265 .LDW94:
                        1266 --324: {
                        1267 --325:     uint8_t ret;
                        1268 --326: 	Can_FrameType* pRxBuffer;

                                                                      Page 23
                                                              C:\Users\Frank\AppData\Local\Temp\gh_0000p941.si
                        1269 --327: 	
                        1270 --328: 	// check receive FIFO Buffer Empty Status Flag
                        1271 --329: 	if ((RSCAN0.RFSTS0.UINT16[L] & 0x0001U) == 0x0001U)		// RFEMP
00000404 a007870d01a0   1272 	ld.hu	4291821784[zero],r1
0000040a 810a           1273 	shr	1,r1
0000040c b905*          1274 	bnl	.L1259
                        1275 --330: 	{
                        1276 --331: 		ret = CAN_RTN_BUFFER_EMPTY;
                        1277 --line331
                        1278 ..lin.C.3A.5Cgit.5Crh850.5Csrc.5Capp.5Cgfx_apps.5Csimple_draw.5Ctarget.5Cd1mx_mango_ghs.5Cobj.5Cw_rscan_task.40::
                        1279 .LDWlin40:
0000040e 020a           1280 	mov	2,r1
00000410 a515*          1281 	br	.L1261
                        1282 .L1259:
                        1283 --332: 	}
                        1284 --333: 	else
                        1285 --334: 	{
                        1286 --335: 		// Read out message from Rx FIFO buffer 0
                        1287 --336: 		pRxBuffer = (Can_FrameType*) &(RSCAN0.RFID0.UINT32);
                        1288 --line336
                        1289 ..lin.C.3A.5Cgit.5Crh850.5Csrc.5Capp.5Cgfx_apps.5Csimple_draw.5Ctarget.5Cd1mx_mango_ghs.5Cobj.5Cw_rscan_task.41::
                        1290 .LDWlin41:
00000412 2e06000ed0ff   1291 	mov	-3142144,r14
                        1292 --337: 		//*CAN_RX_Frame = pRxBuffer[0];
                        1293 --338: 		
                        1294 --339: 		// clear interrupt flag RFIF
                        1295 --340: 		RSCAN0.RFSTS0.UINT16[L] &= 0xF7U;
00000418 a007870d01a0   1296 	ld.hu	4291821784[zero],r1
0000041e c10ef700       1297 	andi	247,r1,r1
00000422 a0078d0d01a0   1298 	st.h	r1,4291821784[zero]
                        1299 --341: 		
                        1300 --342: 		// read pointer moves to the next unread message in the receive FIFO buffer.
                        1301 --343: 		RSCAN0.RFPCTR0.UINT8[LL] = 0xFFU;
00000428 200eff00       1302 	movea	255,zero,r1
0000042c 80078d0f01a0   1303 	st.b	r1,4291821816[zero]
                        1304 --344: 		
                        1305 --345: 		ret = CAN_SET;
00000432 010a           1306 	mov	1,r1
                        1307 .L1261:
                        1308 --346: 	}
                        1309 --347: 	
                        1310 --348: 	//return ret;
                        1311 --349: }
                        1312 --	    .ef
                        1313 .LDW05:
00000434 7f00           1314 	jmp	[lp]
                        1315 	.type	_W_RSCAN_Read_FIFO,@function
                        1316 	.size	_W_RSCAN_Read_FIFO,.-_W_RSCAN_Read_FIFO
                        1317 	.align	2
                        1318 .LDW15:
                        1319 --_ret	r1	local
                        1320 --_pRxBuffer	r14	local
                        1321 
                        1322 	.section ".bss","awb"
                        1323 .L1302:
                        1324 	.type	.L1302,@object
                        1325 	.size	.L1302,0
                        1326 	.data
                        1327 	.text
                        1328 
                        1329 

                                                                      Page 24
                                                              C:\Users\Frank\AppData\Local\Temp\gh_0000p941.si
                        1330 --351: //----------------------------------------------------------------------------------------------------------------------------
                        1331 --352: void W_RSCAN_Task_Init(void)
                        1332 	.align	2
                        1333 	.align	2
                        1334 	.global	_W_RSCAN_Task_Init
                        1335 _W_RSCAN_Task_Init:
00000436 8007e100       1336 	prepare	{r28,r29,r31},0
0000043a 3d0600000000*  1337 	mov	_RSCAN_State_Machine,r29
00000440 3c0600000000*  1338 	mov	_gtmars_info+8,r28
                        1339 --	    .bf
                        1340 .LDW25:
                        1341 --353: {
                        1342 --354:     gtmars_info.tcar_info.u16timer1 = _TIME_DISABLE;
00000446 7c074200       1343 	st.h	zero,66[r28]
                        1344 --355:     gtmars_info.tcar_info.u16timer2 = _TIME_DISABLE;
0000044a 7c074400       1345 	st.h	zero,68[r28]
                        1346 --356: //    gtmars_info.tcar_info.u16error_counter = 0;
                        1347 --358:     W_RSCAN_Buffer_Init();
                        1348 	jarl	_W_RSCAN_Buffer_Init,lp
                        1348 <EXPANSION BEGIN>
                        1348 jarl22 _W_RSCAN_Buffer_Init , lp 
0000044e bfff16fc*      1348 <EXPANSION END>
                        1349 --359:     
                        1350 --360:     if(W_RSCAN_Init(_RSCAN_RETRY_COUNTER) != CAN_RTN_OK)
                        1351 --line360
                        1352 ..lin.C.3A.5Cgit.5Crh850.5Csrc.5Capp.5Cgfx_apps.5Csimple_draw.5Ctarget.5Cd1mx_mango_ghs.5Cobj.5Cw_rscan_task.42::
                        1353 .LDWlin42:
00000452 20361000       1354 	movea	16,zero,r6
                        1355 	jarl	_W_RSCAN_Init,lp
                        1355 <EXPANSION BEGIN>
                        1355 jarl22 _W_RSCAN_Init , lp 
00000456 80ff0000*      1355 <EXPANSION END>
0000045a e051           1356 	cmp	zero,r10
0000045c a20d*          1357 	be	.L1334
                        1358 --361:         W_Task_ChangeState(_TYPE_RSCAN, _LEVEL5, _STATE_RSCAN_ERROR, RSCAN_State_Machine[_STATE_RSCAN_ERROR]);
                        1359 --line361
                        1360 ..lin.C.3A.5Cgit.5Crh850.5Csrc.5Capp.5Cgfx_apps.5Csimple_draw.5Ctarget.5Cd1mx_mango_ghs.5Cobj.5Cw_rscan_task.43::
                        1361 .LDWlin43:
0000045e 3d4f0900       1362 	ld.w	8[r29],r9
00000462 2036a000       1363 	movea	160,zero,r6
00000466 053a           1364 	mov	5,r7
00000468 0242           1365 	mov	2,r8
                        1366 	jarl	_W_Task_ChangeState,lp
                        1366 <EXPANSION BEGIN>
                        1366 jarl22 _W_Task_ChangeState , lp 
0000046a 80ff0000*      1366 <EXPANSION END>
0000046e 950d*          1367 	br	.L1336
                        1368 .L1334:
                        1369 --362:     else
                        1370 --363:         W_Task_ChangeState(_TYPE_RSCAN, _LEVEL5, _STATE_RSCAN_TIMING, RSCAN_State_Machine[_STATE_RSCAN_TIMING]);
                        1371 --line363
                        1372 ..lin.C.3A.5Cgit.5Crh850.5Csrc.5Capp.5Cgfx_apps.5Csimple_draw.5Ctarget.5Cd1mx_mango_ghs.5Cobj.5Cw_rscan_task.44::
                        1373 .LDWlin44:
00000470 3d4f0500       1374 	ld.w	4[r29],r9
00000474 2036a000       1375 	movea	160,zero,r6
00000478 053a           1376 	mov	5,r7
0000047a 0142           1377 	mov	1,r8
                        1378 	jarl	_W_Task_ChangeState,lp
                        1378 <EXPANSION BEGIN>
                        1378 jarl22 _W_Task_ChangeState , lp 
0000047c 80ff0000*      1378 <EXPANSION END>

                                                                      Page 25
                                                              C:\Users\Frank\AppData\Local\Temp\gh_0000p941.si
                        1379 .L1336:
                        1380 --364:     
                        1381 --365:     Task_Done(gtqueue_manager.u8current_point);
                        1382 --line365
                        1383 ..lin.C.3A.5Cgit.5Crh850.5Csrc.5Capp.5Cgfx_apps.5Csimple_draw.5Ctarget.5Cd1mx_mango_ghs.5Cobj.5Cw_rscan_task.45::
                        1384 .LDWlin45:
00000480 260600000000*  1385 	mov	_gtqueue_manager+24,r6
00000486 86370100       1386 	ld.bu	0[r6],r6
                        1387 	jarl	_Task_Done,lp
                        1387 <EXPANSION BEGIN>
                        1387 jarl22 _Task_Done , lp 
0000048a 80ff0000*      1387 <EXPANSION END>
                        1388 --366: }
                        1389 --	    .ef
                        1390 .LDW35:
                        1391 --line366
                        1392 ..lin.C.3A.5Cgit.5Crh850.5Csrc.5Capp.5Cgfx_apps.5Csimple_draw.5Ctarget.5Cd1mx_mango_ghs.5Cobj.5Cw_rscan_task.46::
                        1393 .LDWlin46:
0000048e 4006ff00       1394 	dispose	0,{r28,r29,r31},[lp]
                        1395 	.type	_W_RSCAN_Task_Init,@function
                        1396 	.size	_W_RSCAN_Task_Init,.-_W_RSCAN_Task_Init
                        1397 	.align	2
                        1398 .LDW45:
                        1399 
                        1400 	.section ".bss","awb"
                        1401 .L1386:
                        1402 	.type	.L1386,@object
                        1403 	.size	.L1386,0
                        1404 	.data
                        1405 	.text
                        1406 
                        1407 
                        1408 --368: void W_RSCAN_Send_Data(void)
                        1409 	.align	2
                        1410 	.align	2
                        1411 	.global	_W_RSCAN_Send_Data
                        1412 _W_RSCAN_Send_Data:
00000492 8007e100       1413 	prepare	{r28,r29,r31},0
00000496 3c0600000000*  1414 	mov	_tcan_cluster,r28
                        1415 --	    .bf
                        1416 .LDW55:
                        1417 --369: {
                        1418 --370:     uint16_t u16retry_temp;
                        1419 --372:     tcan_cluster.ID = 0x429;
0000049c 3c0f0100       1420 	ld.w	0[r28],r1
000004a0 20762904       1421 	movea	1065,zero,r14
000004a4 ee0fb0c0       1422 	bins	r14,0,29,r1
000004a8 7c0f0100       1423 	st.w	r1,0[r28]
                        1424 --373:     tcan_cluster.DLC = 8;
000004ac bc0f0700       1425 	ld.bu	7[r28],r1
000004b0 0872           1426 	mov	8,r14
000004b2 ee0fd870       1427 	bins	r14,4,4,r1
000004b6 5c0f0700       1428 	st.b	r1,7[r28]
                        1429 --374:     tcan_cluster.DB[0] = gtmars_info.tcar_info.tcar_power_light_info.tcar_light_info.u8car_light_byte;
000004ba 210600000000*  1430 	mov	_gtmars_info+72,r1
000004c0 810f0100       1431 	ld.bu	0[r1],r1
000004c4 5c0f0800       1432 	st.b	r1,8[r28]
                        1433 --375:     //TODO tcan_cluster.DB[1] tcan_cluster.DB[2] average power
                        1434 --376:     //TODO tcan_cluster.DB[3] tcan_cluster.DB[4] average power
                        1435 --377:     //TODO tcan_cluster.DB[5] tcan_cluster.DB[6] average power
                        1436 --378:     tcan_cluster.DB[7] = 0x80; //life flag

                                                                      Page 26
                                                              C:\Users\Frank\AppData\Local\Temp\gh_0000p941.si
000004c8 200e8000       1437 	movea	128,zero,r1
000004cc 5c0f0f00       1438 	st.b	r1,15[r28]
                        1439 --380:     u16retry_temp = _RSCAN_RETRY_COUNTER;
000004d0 20ee1000       1440 	movea	16,zero,r29
                        1441 --381:     while( W_RSCAN_SendTxBuffer(0, &tcan_cluster, u16retry_temp) != CAN_RTN_OK)
000004d4 e505*          1442 	br	.L1421
                        1443 .L1423:
                        1444 --382:     {
                        1445 --383:         u16retry_temp--;
                        1446 --line383
                        1447 ..lin.C.3A.5Cgit.5Crh850.5Csrc.5Capp.5Cgfx_apps.5Csimple_draw.5Ctarget.5Cd1mx_mango_ghs.5Cobj.5Cw_rscan_task.47::
                        1448 .LDWlin47:
000004d6 5fea           1449 	add	-1,r29
000004d8 dd00           1450 	zxh	r29
                        1451 --384:         if(u16retry_temp == 0)
000004da e0e9           1452 	cmp	zero,r29
000004dc aa05*          1453 	bne	.L1421
                        1454 --385:         {
                        1455 --386:             //gtmars_info.tcar_info.u16timer1 = _TIME_100ms;                   
                        1456 --387:             //Task_Done(gtqueue_manager.u8current_point);
                        1457 --388:             return;
                        1458 --line388
                        1459 ..lin.C.3A.5Cgit.5Crh850.5Csrc.5Capp.5Cgfx_apps.5Csimple_draw.5Ctarget.5Cd1mx_mango_ghs.5Cobj.5Cw_rscan_task.48::
                        1460 .LDWlin48:
000004de 950d*          1461 	br	.L1419
                        1462 .L1421:
                        1463 --line381
                        1464 ..lin.C.3A.5Cgit.5Crh850.5Csrc.5Capp.5Cgfx_apps.5Csimple_draw.5Ctarget.5Cd1mx_mango_ghs.5Cobj.5Cw_rscan_task.49::
                        1465 .LDWlin49:
000004e0 1d40           1466 	mov	r29,r8
000004e2 1c38           1467 	mov	r28,r7
000004e4 8800           1468 	zxb	r8
000004e6 0032           1469 	mov	0,r6
                        1470 	jarl	_W_RSCAN_SendTxBuffer,lp
                        1470 <EXPANSION BEGIN>
                        1470 jarl22 _W_RSCAN_SendTxBuffer , lp 
000004e8 80ff0000*      1470 <EXPANSION END>
000004ec e051           1471 	cmp	zero,r10
000004ee caf5*          1472 	bne	.L1423
                        1473 --389:         }
                        1474 --390:     }
                        1475 --391: }
                        1476 .L1419:
                        1477 --	    .ef
                        1478 .LDW65:
                        1479 --line391
                        1480 ..lin.C.3A.5Cgit.5Crh850.5Csrc.5Capp.5Cgfx_apps.5Csimple_draw.5Ctarget.5Cd1mx_mango_ghs.5Cobj.5Cw_rscan_task.50::
                        1481 .LDWlin50:
000004f0 4006ff00       1482 	dispose	0,{r28,r29,r31},[lp]
                        1483 	.type	_W_RSCAN_Send_Data,@function
                        1484 	.size	_W_RSCAN_Send_Data,.-_W_RSCAN_Send_Data
                        1485 	.align	2
                        1486 .LDW75:
                        1487 --_u16retry_temp	r29	local
                        1488 
                        1489 	.section ".bss","awb"
                        1490 .L1494:
                        1491 	.type	.L1494,@object
                        1492 	.size	.L1494,0
                        1493 	.data
                        1494 	.text

                                                                      Page 27
                                                              C:\Users\Frank\AppData\Local\Temp\gh_0000p941.si
                        1495 
                        1496 
                        1497 --393: void W_RSCAN_Timimg(void)
                        1498 	.align	2
                        1499 	.align	2
                        1500 	.global	_W_RSCAN_Timimg
                        1501 _W_RSCAN_Timimg:
000004f4 8007e110       1502 	prepare	{r27,r28,r29,r31},0
000004f8 3d0600000000*  1503 	mov	_gtqueue_manager,r29
000004fe 3b0600000000*  1504 	mov	_gtmars_info+74,r27
                        1505 --	    .bf
                        1506 .LDW85:
                        1507 --394: {
                        1508 --395:     uint16_t u16retry_temp;
                        1509 --396:     uint8_t u8event = gtqueue_manager.ttask[gtqueue_manager.u8current_point].u8event;
00000504 9d0f1900       1510 	ld.bu	24[r29],r1
00000508 c30a           1511 	shl	3,r1
0000050a 01f0           1512 	mov	r1,ep
0000050c ddf1           1513 	add	r29,ep
0000050e 62e0           1514 	sld.bu	2[ep],r28
                        1515 --397:     switch(u8event)
00000510 1c08           1516 	mov	r28,r1
00000512 630a           1517 	cmp	3,r1
00000514 e905*          1518 	bnl	.L1616
00000516 610a           1519 	cmp	1,r1
00000518 a20d*          1520 	be	.L1540
0000051a 620a           1521 	cmp	2,r1
0000051c ea15*          1522 	bne	.L1545
0000051e b50d*          1523 	br	.L1541
                        1524 .L1616:
00000520 640a           1525 	cmp	4,r1
00000522 a10d*          1526 	bl	.L1542
00000524 8215*          1527 	be	.L1543
00000526 650a           1528 	cmp	5,r1
00000528 8a15*          1529 	bne	.L1545
0000052a e50d*          1530 	br	.L1544
                        1531 .L1540:
                        1532 --398:     {
                        1533 --399:         case _EVENT_FIRST:
                        1534 --400:             gtmars_info.tcar_info.u16timer1 = _TIME_150ms;
                        1535 --line400
                        1536 ..lin.C.3A.5Cgit.5Crh850.5Csrc.5Capp.5Cgfx_apps.5Csimple_draw.5Ctarget.5Cd1mx_mango_ghs.5Cobj.5Cw_rscan_task.51::
                        1537 .LDWlin51:
0000052c 0f0a           1538 	mov	15,r1
0000052e 7b0f0000       1539 	st.h	r1,0[r27]
00000532 c50d*          1540 	br	.L1538
                        1541 .L1541:
                        1542 --line403
                        1543 ..lin.C.3A.5Cgit.5Crh850.5Csrc.5Capp.5Cgfx_apps.5Csimple_draw.5Ctarget.5Cd1mx_mango_ghs.5Cobj.5Cw_rscan_task.52::
                        1544 .LDWlin52:
00000534 b50d*          1545 	br	.L1538
                        1546 .L1542:
                        1547 --401:             break;
                        1548 --402:         case _EVENT_DATA:
                        1549 --403:             break;
                        1550 --404:         case _EVENT_TIMER1:
                        1551 --405:             /*
                        1552 --406:             u16retry_temp = _RSCAN_RETRY_COUNTER;
                        1553 --407:             while( W_RSCAN_ReadRxBuffer(&tcan_Reci_buffer) != CAN_RTN_OK)
                        1554 --408:             {
                        1555 --409:                 u16retry_temp--;

                                                                      Page 28
                                                              C:\Users\Frank\AppData\Local\Temp\gh_0000p941.si
                        1556 --410:                 if(u16retry_temp == 0)
                        1557 --411:                 {
                        1558 --412:                     //W_Task_ChangeState(_TYPE_RSCAN, _LEVEL5, _STATE_RSCAN_ERROR, RSCAN_State_Machine[_STATE_RSCAN_ERROR]); 
                        1559 --413:                     gtmars_info.tcar_info.u16timer1 = _TIME_100ms;                   
                        1560 --414:                     Task_Done(gtqueue_manager.u8current_point);
                        1561 --415:                     return;
                        1562 --416:                 }
                        1563 --417:             }
                        1564 --418:             */
                        1565 --419:             //W_RSCAN_Read_FIFO();
                        1566 --420:             //W_RSCAN_Data_Process();
                        1567 --421:             W_RSCAN_Send_Data();
                        1568 --line421
                        1569 ..lin.C.3A.5Cgit.5Crh850.5Csrc.5Capp.5Cgfx_apps.5Csimple_draw.5Ctarget.5Cd1mx_mango_ghs.5Cobj.5Cw_rscan_task.53::
                        1570 .LDWlin53:
                        1571 	jarl	_W_RSCAN_Send_Data,lp
                        1571 <EXPANSION BEGIN>
                        1571 jarl22 _W_RSCAN_Send_Data , lp 
00000536 bfff5cff*      1571 <EXPANSION END>
                        1572 --422:             gtmars_info.tcar_info.u16timer1 = _TIME_500ms;
                        1573 --line422
                        1574 ..lin.C.3A.5Cgit.5Crh850.5Csrc.5Capp.5Cgfx_apps.5Csimple_draw.5Ctarget.5Cd1mx_mango_ghs.5Cobj.5Cw_rscan_task.54::
                        1575 .LDWlin54:
0000053a 200e3200       1576 	movea	50,zero,r1
0000053e 7b0f0000       1577 	st.h	r1,0[r27]
00000542 c505*          1578 	br	.L1538
                        1579 .L1543:
                        1580 --line425
                        1581 ..lin.C.3A.5Cgit.5Crh850.5Csrc.5Capp.5Cgfx_apps.5Csimple_draw.5Ctarget.5Cd1mx_mango_ghs.5Cobj.5Cw_rscan_task.55::
                        1582 .LDWlin55:
00000544 b505*          1583 	br	.L1538
                        1584 .L1544:
                        1585 --line427
                        1586 ..lin.C.3A.5Cgit.5Crh850.5Csrc.5Capp.5Cgfx_apps.5Csimple_draw.5Ctarget.5Cd1mx_mango_ghs.5Cobj.5Cw_rscan_task.56::
                        1587 .LDWlin56:
00000546 a505*          1588 	br	.L1538
                        1589 .L1545:
                        1590 --line429
                        1591 ..lin.C.3A.5Cgit.5Crh850.5Csrc.5Capp.5Cgfx_apps.5Csimple_draw.5Ctarget.5Cd1mx_mango_ghs.5Cobj.5Cw_rscan_task.57::
                        1592 .LDWlin57:
00000548 0000           1593 	nop
                        1594 .L1538:
                        1595 --423:             break;
                        1596 --424:         case _EVENT_TIMER2:
                        1597 --425:             break;
                        1598 --426:         case _EVENT_TIMER3:
                        1599 --427:             break;
                        1600 --428:         default:
                        1601 --429:             break;
                        1602 --430:     }
                        1603 --431:     Task_Done(gtqueue_manager.u8current_point);
0000054a 9d371900       1604 	ld.bu	24[r29],r6
                        1605 	jarl	_Task_Done,lp
                        1605 <EXPANSION BEGIN>
                        1605 jarl22 _Task_Done , lp 
0000054e 80ff0000*      1605 <EXPANSION END>
                        1606 --432: }
                        1607 --	    .ef
                        1608 .LDW95:
                        1609 --line432
                        1610 ..lin.C.3A.5Cgit.5Crh850.5Csrc.5Capp.5Cgfx_apps.5Csimple_draw.5Ctarget.5Cd1mx_mango_ghs.5Cobj.5Cw_rscan_task.58::

                                                                      Page 29
                                                              C:\Users\Frank\AppData\Local\Temp\gh_0000p941.si
                        1611 .LDWlin58:
00000552 4006ff10       1612 	dispose	0,{r27,r28,r29,r31},[lp]
                        1613 	.type	_W_RSCAN_Timimg,@function
                        1614 	.size	_W_RSCAN_Timimg,.-_W_RSCAN_Timimg
                        1615 	.align	2
                        1616 .LDW06:
                        1617 --_u8event	r28	local
                        1618 
                        1619 	.section ".bss","awb"
                        1620 .L1614:
                        1621 	.type	.L1614,@object
                        1622 	.size	.L1614,0
                        1623 	.data
                        1624 	.text
                        1625 
                        1626 
                        1627 --433: //----------------------------------------------------------------------------------------------------------------------------
                        1628 --434: void W_RSCAN_Error(void)
                        1629 	.align	2
                        1630 	.align	2
                        1631 	.global	_W_RSCAN_Error
                        1632 _W_RSCAN_Error:
00000556 8007e100       1633 	prepare	{r28,r29,r31},0
0000055a 3d0600000000*  1634 	mov	_gtqueue_manager,r29
                        1635 --	    .bf
                        1636 .LDW16:
                        1637 --435: {
                        1638 --436:     uint8_t u8event = gtqueue_manager.ttask[gtqueue_manager.u8current_point].u8event;
00000560 9d0f1900       1639 	ld.bu	24[r29],r1
00000564 c30a           1640 	shl	3,r1
00000566 01f0           1641 	mov	r1,ep
00000568 ddf1           1642 	add	r29,ep
0000056a 62e0           1643 	sld.bu	2[ep],r28
                        1644 --438:     switch(u8event)
0000056c 1c08           1645 	mov	r28,r1
0000056e 610a           1646 	cmp	1,r1
00000570 c205*          1647 	be	.L1689
00000572 630a           1648 	cmp	3,r1
00000574 ba1d*          1649 	bne	.L1687
00000576 950d*          1650 	br	.L1690
                        1651 .L1689:
                        1652 --439:     {
                        1653 --440:         case _EVENT_FIRST:
                        1654 --441:             gtmars_info.tcar_info.u16timer1 = _TIME_5000ms;
                        1655 --line441
                        1656 ..lin.C.3A.5Cgit.5Crh850.5Csrc.5Capp.5Cgfx_apps.5Csimple_draw.5Ctarget.5Cd1mx_mango_ghs.5Cobj.5Cw_rscan_task.59::
                        1657 .LDWlin59:
00000578 200ef401       1658 	movea	500,zero,r1
0000057c 2b0600000000*  1659 	mov	_gtmars_info+74,r11
00000582 6b0f0000       1660 	st.h	r1,0[r11]
00000586 a515*          1661 	br	.L1687
                        1662 .L1690:
                        1663 --442:             break;
                        1664 --443:         case _EVENT_TIMER1:
                        1665 --444:             R_BSP_STDIO_Printf("W_RSCAN_Error goes to  _STATE_RSCAN_INIT\n");
                        1666 --line444
                        1667 ..lin.C.3A.5Cgit.5Crh850.5Csrc.5Capp.5Cgfx_apps.5Csimple_draw.5Ctarget.5Cd1mx_mango_ghs.5Cobj.5Cw_rscan_task.60::
                        1668 .LDWlin60:
00000588 260600000000*  1669 	mov	.L1774,r6
                        1670 	jarl	_R_BSP_STDIO_Printf,lp
                        1670 <EXPANSION BEGIN>

                                                                      Page 30
                                                              C:\Users\Frank\AppData\Local\Temp\gh_0000p941.si
                        1670 jarl22 _R_BSP_STDIO_Printf , lp 
0000058e 80ff0000*      1670 <EXPANSION END>
                        1671 --445:             W_Task_ChangeState(_TYPE_RSCAN, _LEVEL5, _STATE_RSCAN_INIT, RSCAN_State_Machine[_STATE_RSCAN_INIT]);
                        1672 --line445
                        1673 ..lin.C.3A.5Cgit.5Crh850.5Csrc.5Capp.5Cgfx_apps.5Csimple_draw.5Ctarget.5Cd1mx_mango_ghs.5Cobj.5Cw_rscan_task.61::
                        1674 .LDWlin61:
00000592 290600000000*  1675 	mov	_RSCAN_State_Machine,r9
00000598 294f0100       1676 	ld.w	0[r9],r9
0000059c 2036a000       1677 	movea	160,zero,r6
000005a0 053a           1678 	mov	5,r7
000005a2 0042           1679 	mov	0,r8
                        1680 	jarl	_W_Task_ChangeState,lp
                        1680 <EXPANSION BEGIN>
                        1680 jarl22 _W_Task_ChangeState , lp 
000005a4 80ff0000*      1680 <EXPANSION END>
                        1681 --line446
                        1682 ..lin.C.3A.5Cgit.5Crh850.5Csrc.5Capp.5Cgfx_apps.5Csimple_draw.5Ctarget.5Cd1mx_mango_ghs.5Cobj.5Cw_rscan_task.62::
                        1683 .LDWlin62:
000005a8 0000           1684 	nop
                        1685 .L1687:
                        1686 --446:             break;
                        1687 --447:     }
                        1688 --448:     Task_Done(gtqueue_manager.u8current_point);
000005aa 9d371900       1689 	ld.bu	24[r29],r6
                        1690 	jarl	_Task_Done,lp
                        1690 <EXPANSION BEGIN>
                        1690 jarl22 _Task_Done , lp 
000005ae 80ff0000*      1690 <EXPANSION END>
                        1691 --449: }
                        1692 --	    .ef
                        1693 .LDW26:
                        1694 --line449
                        1695 ..lin.C.3A.5Cgit.5Crh850.5Csrc.5Capp.5Cgfx_apps.5Csimple_draw.5Ctarget.5Cd1mx_mango_ghs.5Cobj.5Cw_rscan_task.63::
                        1696 .LDWlin63:
000005b2 4006ff00       1697 	dispose	0,{r28,r29,r31},[lp]
                        1698 	.type	_W_RSCAN_Error,@function
                        1699 	.size	_W_RSCAN_Error,.-_W_RSCAN_Error
                        1700 	.align	2
                        1701 .LDW36:
                        1702 --_u8event	r28	local
                        1703 --.L1743	.L1774	static
                        1704 
                        1705 	.section ".bss","awb"
                        1706 .L1742:
                        1707 	.type	.L1742,@object
                        1708 	.size	.L1742,0
                        1709 	.section ".rodata","a"
                        1710 .L1774:--	"W_RSCAN_Error goes to  _STATE_RSCAN_INIT\n"
00000033 575f5253       1711 	.byte	87,95,82,83
00000037 43414e5f       1712 	.byte	67,65,78,95
0000003b 4572726f       1713 	.byte	69,114,114,111
0000003f 7220676f       1714 	.byte	114,32,103,111
00000043 65732074       1715 	.byte	101,115,32,116
00000047 6f20205f       1716 	.byte	111,32,32,95
0000004b 53544154       1717 	.byte	83,84,65,84
0000004f 455f5253       1718 	.byte	69,95,82,83
00000053 43414e5f       1719 	.byte	67,65,78,95
00000057 494e4954       1720 	.byte	73,78,73,84
0000005b 0a00           1721 	.byte	10,0
                        1722 	.type	.L1774,@object
                        1723 	.size	.L1774,42

                                                                      Page 31
                                                              C:\Users\Frank\AppData\Local\Temp\gh_0000p941.si
                        1724 	.data
                        1725 	.text
                        1726 
                        1727 
                        1728 --450: // Timer
                        1729 --451: //----------------------------------------------------------------------------------------------------------------------------
                        1730 --452: void W_RSCAN_Timer1(void)
                        1731 	.align	2
                        1732 	.align	2
                        1733 	.global	_W_RSCAN_Timer1
                        1734 _W_RSCAN_Timer1:
000005b6 80076100       1735 	prepare	{r29,r31},0
000005ba 3d0600000000*  1736 	mov	_gtmars_info+74,r29
                        1737 --	    .bf
                        1738 .LDW46:
                        1739 --453: {
                        1740 --454:     if(gtmars_info.tcar_info.u16timer1 == _TIME_DISABLE)
000005c0 fd0f0100       1741 	ld.hu	0[r29],r1
000005c4 e009           1742 	cmp	zero,r1
000005c6 aa05*          1743 	bne	.L1789
                        1744 --455:         return;
                        1745 --line455
                        1746 ..lin.C.3A.5Cgit.5Crh850.5Csrc.5Capp.5Cgfx_apps.5Csimple_draw.5Ctarget.5Cd1mx_mango_ghs.5Cobj.5Cw_rscan_task.64::
                        1747 .LDWlin64:
000005c8 8515*          1748 	br	.L1787
                        1749 .L1789:
                        1750 --456:     else
                        1751 --457:     {
                        1752 --458:         if(gtmars_info.tcar_info.u16timer1 == _TIME_10ms)
                        1753 --line458
                        1754 ..lin.C.3A.5Cgit.5Crh850.5Csrc.5Capp.5Cgfx_apps.5Csimple_draw.5Ctarget.5Cd1mx_mango_ghs.5Cobj.5Cw_rscan_task.65::
                        1755 .LDWlin65:
000005ca fd0f0100       1756 	ld.hu	0[r29],r1
000005ce 610a           1757 	cmp	1,r1
000005d0 fa05*          1758 	bne	.L1793
                        1759 --459:             W_Task_ChangeEvent(_TYPE_RSCAN, _LEVEL3, _EVENT_TIMER1);
                        1760 --line459
                        1761 ..lin.C.3A.5Cgit.5Crh850.5Csrc.5Capp.5Cgfx_apps.5Csimple_draw.5Ctarget.5Cd1mx_mango_ghs.5Cobj.5Cw_rscan_task.66::
                        1762 .LDWlin66:
000005d2 2036a000       1763 	movea	160,zero,r6
000005d6 033a           1764 	mov	3,r7
000005d8 0342           1765 	mov	3,r8
                        1766 	jarl	_W_Task_ChangeEvent,lp
                        1766 <EXPANSION BEGIN>
                        1766 jarl22 _W_Task_ChangeEvent , lp 
000005da 80ff0000*      1766 <EXPANSION END>
                        1767 .L1793:
                        1768 --460:         gtmars_info.tcar_info.u16timer1--;
                        1769 --line460
                        1770 ..lin.C.3A.5Cgit.5Crh850.5Csrc.5Capp.5Cgfx_apps.5Csimple_draw.5Ctarget.5Cd1mx_mango_ghs.5Cobj.5Cw_rscan_task.67::
                        1771 .LDWlin67:
000005de fd0f0100       1772 	ld.hu	0[r29],r1
000005e2 5f0a           1773 	add	-1,r1
000005e4 7d0f0000       1774 	st.h	r1,0[r29]
                        1775 --461:     }
                        1776 --462: }
                        1777 .L1787:
                        1778 --	    .ef
                        1779 .LDW56:
000005e8 40067f00       1780 	dispose	0,{r29,r31},[lp]
                        1781 	.type	_W_RSCAN_Timer1,@function

                                                                      Page 32
                                                              C:\Users\Frank\AppData\Local\Temp\gh_0000p941.si
                        1782 	.size	_W_RSCAN_Timer1,.-_W_RSCAN_Timer1
                        1783 	.align	2
                        1784 .LDW66:
                        1785 
                        1786 	.section ".bss","awb"
                        1787 .L1842:
                        1788 	.type	.L1842,@object
                        1789 	.size	.L1842,0
                        1790 	.data
                        1791 	.text
                        1792 
                        1793 
                        1794 --463: //----------------------------------------------------------------------------------------------------------------------------
                        1795 --464: void W_RSCAN_Timer2(void)
                        1796 	.align	2
                        1797 	.align	2
                        1798 	.global	_W_RSCAN_Timer2
                        1799 _W_RSCAN_Timer2:
000005ec 80076100       1800 	prepare	{r29,r31},0
000005f0 3d0600000000*  1801 	mov	_gtmars_info+76,r29
                        1802 --	    .bf
                        1803 .LDW76:
                        1804 --465: {
                        1805 --466:     if(gtmars_info.tcar_info.u16timer2 == _TIME_DISABLE)
000005f6 fd0f0100       1806 	ld.hu	0[r29],r1
000005fa e009           1807 	cmp	zero,r1
000005fc aa05*          1808 	bne	.L1871
                        1809 --467:         return;
                        1810 --line467
                        1811 ..lin.C.3A.5Cgit.5Crh850.5Csrc.5Capp.5Cgfx_apps.5Csimple_draw.5Ctarget.5Cd1mx_mango_ghs.5Cobj.5Cw_rscan_task.68::
                        1812 .LDWlin68:
000005fe 8515*          1813 	br	.L1869
                        1814 .L1871:
                        1815 --468:     else
                        1816 --469:     {
                        1817 --470:         if(gtmars_info.tcar_info.u16timer2 == _TIME_10ms)
                        1818 --line470
                        1819 ..lin.C.3A.5Cgit.5Crh850.5Csrc.5Capp.5Cgfx_apps.5Csimple_draw.5Ctarget.5Cd1mx_mango_ghs.5Cobj.5Cw_rscan_task.69::
                        1820 .LDWlin69:
00000600 fd0f0100       1821 	ld.hu	0[r29],r1
00000604 610a           1822 	cmp	1,r1
00000606 fa05*          1823 	bne	.L1875
                        1824 --471:             W_Task_ChangeEvent(_TYPE_RSCAN, _LEVEL3, _EVENT_TIMER2);
                        1825 --line471
                        1826 ..lin.C.3A.5Cgit.5Crh850.5Csrc.5Capp.5Cgfx_apps.5Csimple_draw.5Ctarget.5Cd1mx_mango_ghs.5Cobj.5Cw_rscan_task.70::
                        1827 .LDWlin70:
00000608 2036a000       1828 	movea	160,zero,r6
0000060c 033a           1829 	mov	3,r7
0000060e 0442           1830 	mov	4,r8
                        1831 	jarl	_W_Task_ChangeEvent,lp
                        1831 <EXPANSION BEGIN>
                        1831 jarl22 _W_Task_ChangeEvent , lp 
00000610 80ff0000*      1831 <EXPANSION END>
                        1832 .L1875:
                        1833 --472:         gtmars_info.tcar_info.u16timer2--;
                        1834 --line472
                        1835 ..lin.C.3A.5Cgit.5Crh850.5Csrc.5Capp.5Cgfx_apps.5Csimple_draw.5Ctarget.5Cd1mx_mango_ghs.5Cobj.5Cw_rscan_task.71::
                        1836 .LDWlin71:
00000614 fd0f0100       1837 	ld.hu	0[r29],r1
00000618 5f0a           1838 	add	-1,r1
0000061a 7d0f0000       1839 	st.h	r1,0[r29]

                                                                      Page 33
                                                              C:\Users\Frank\AppData\Local\Temp\gh_0000p941.si
                        1840 --474:     }
                        1841 --475: }
                        1842 .L1869:
                        1843 --	    .ef
                        1844 .LDW86:
0000061e 40067f00       1845 	dispose	0,{r29,r31},[lp]
                        1846 	.type	_W_RSCAN_Timer2,@function
                        1847 	.size	_W_RSCAN_Timer2,.-_W_RSCAN_Timer2
                        1848 	.align	2
                        1849 .LDW96:
                        1850 
                        1851 	.section ".bss","awb"
                        1852 .L1922:
                        1853 	.type	.L1922,@object
                        1854 	.size	.L1922,0
                        1855 	.data
                        1856 	.text
                        1857 
                        1858 
                        1859 --477: //----------------------------------------------------------------------------------------------------------------------------
                        1860 --478: void W_RSCAN_AllTimer(void)
                        1861 	.align	2
                        1862 	.align	2
                        1863 	.global	_W_RSCAN_AllTimer
                        1864 _W_RSCAN_AllTimer:
00000622 80072100       1865 	prepare	{r31},0
                        1866 --	    .bf
                        1867 .LDW07:
                        1868 --479: {
                        1869 --480:     W_RSCAN_Timer1();
                        1870 	jarl	_W_RSCAN_Timer1,lp
                        1870 <EXPANSION BEGIN>
                        1870 jarl22 _W_RSCAN_Timer1 , lp 
00000626 bfff90ff*      1870 <EXPANSION END>
                        1871 --481:     W_RSCAN_Timer2();
                        1872 --line481
                        1873 ..lin.C.3A.5Cgit.5Crh850.5Csrc.5Capp.5Cgfx_apps.5Csimple_draw.5Ctarget.5Cd1mx_mango_ghs.5Cobj.5Cw_rscan_task.72::
                        1874 .LDWlin72:
                        1875 	jarl	_W_RSCAN_Timer2,lp
                        1875 <EXPANSION BEGIN>
                        1875 jarl22 _W_RSCAN_Timer2 , lp 
0000062a bfffc2ff*      1875 <EXPANSION END>
                        1876 --482: }
                        1877 --	    .ef
                        1878 .LDW17:
                        1879 --line482
                        1880 ..lin.C.3A.5Cgit.5Crh850.5Csrc.5Capp.5Cgfx_apps.5Csimple_draw.5Ctarget.5Cd1mx_mango_ghs.5Cobj.5Cw_rscan_task.73::
                        1881 .LDWlin73:
0000062e 40063f00       1882 	dispose	0,{r31},[lp]
                        1883 	.type	_W_RSCAN_AllTimer,@function
                        1884 	.size	_W_RSCAN_AllTimer,.-_W_RSCAN_AllTimer
                        1885 	.align	2
                        1886 .LDW27:
                        1887 
                        1888 	.section ".bss","awb"
                        1889 .L1974:
                        1890 	.type	.L1974,@object
                        1891 	.size	.L1974,0
                        1892 	.data
                        1893 	.text
                        1894 

                                                                      Page 34
                                                              C:\Users\Frank\AppData\Local\Temp\gh_0000p941.si
                        1895 	.align	2
                        1896 --_gtmars_info	_gtmars_info	import
                        1897 --_gtqueue_manager	_gtqueue_manager	import
                        1898 
                        1899 	.data
                        1900 	.align	4
                        1901 	.global	_tcan_cluster
00000000 29040000       1902 _tcan_cluster:	.byte	41,4,0,0
00000004 0000           1903 	.space	2
00000006 0080           1904 	.byte	0,128
00000008 00             1905 	.space	1
00000009 00             1906 	.space	1
0000000a 00             1907 	.space	1
0000000b 00             1908 	.space	1
0000000c 00             1909 	.space	1
0000000d 00             1910 	.space	1
0000000e 00             1911 	.space	1
0000000f 00             1912 	.space	1
                        1913 	.type	_tcan_cluster,@object
                        1914 	.size	_tcan_cluster,16
                        1915 	.section ".rodata","a"
0000005d 000000         1916 	.space	3
                        1917 	.align	4
                        1918 	.global	_RSCAN_State_Machine
00000060 00000000*      1919 _RSCAN_State_Machine:	.word	_W_RSCAN_Task_Init
00000064 00000000*      1920 	.word	_W_RSCAN_Timimg
00000068 00000000*      1921 	.word	_W_RSCAN_Error
                        1922 	.type	_RSCAN_State_Machine,@object
                        1923 	.size	_RSCAN_State_Machine,12
                        1924 	.data
                        1925 	.section ".bss","awb"
                        1926 	.align	4
                        1927 	.align	4
                        1928 	.global	_tcan_Reci_buffer
00000000 000000000000   1929 _tcan_Reci_buffer:	.space	16
00000006 000000000000 
0000000c 00000000 
                        1930 	.type	_tcan_Reci_buffer,@object
                        1931 	.size	_tcan_Reci_buffer,16
                        1932 	.align	4
                        1933 	.global	_ul_interrupt_counter
00000010 00000000       1934 _ul_interrupt_counter:	.space	4
                        1935 	.type	_ul_interrupt_counter,@object
                        1936 	.size	_ul_interrupt_counter,4
                        1937 	.data
                        1938 	.ghsnote version,15
                        1939 	.ghsnote tools,3
                        1940 	.ghsnote options,144
                        1941 	.text
                        1942 	.align	2
                        1943 ..eof.C.3A.5Cgit.5Crh850.5Csrc.5Capp.5Cgfx_apps.5Csimple_draw.5Ctarget.5Cd1mx_mango_ghs.5Cobj.5Cw_rscan_task...43.3A.5Cgit.5Crh850.5Csrc.5Capp.5Cgfx_apps.5Csimple_draw.5Ctarget.5Cd1mx_mango_ghs..5BC5D02B..0::
                        1944 .rh850_flags REGMODE22,DATA_ALIGN8,GP_FIX,EP_NONFIX,TP_FIX,REG2_RESERVE,G3M
